ARM GAS  /tmp/ccyYBu53.s 			page 1


   1              		.cpu cortex-m4
   2              		.arch armv7e-m
   3              		.fpu fpv4-sp-d16
   4              		.eabi_attribute 27, 1
   5              		.eabi_attribute 28, 1
   6              		.eabi_attribute 20, 1
   7              		.eabi_attribute 21, 1
   8              		.eabi_attribute 23, 3
   9              		.eabi_attribute 24, 1
  10              		.eabi_attribute 25, 1
  11              		.eabi_attribute 26, 1
  12              		.eabi_attribute 30, 2
  13              		.eabi_attribute 34, 1
  14              		.eabi_attribute 18, 4
  15              		.file	"heap_4.c"
  16              		.text
  17              	.Ltext0:
  18              		.cfi_sections	.debug_frame
  19              		.section	.text.prvInsertBlockIntoFreeList,"ax",%progbits
  20              		.align	1
  21              		.p2align 2,,3
  22              		.syntax unified
  23              		.thumb
  24              		.thumb_func
  26              	prvInsertBlockIntoFreeList:
  27              	.LVL0:
  28              	.LFB11:
  29              		.file 1 "Middlewares/Third_Party/FreeRTOS/Source/portable/MemMang/heap_4.c"
   1:Middlewares/Third_Party/FreeRTOS/Source/portable/MemMang/heap_4.c **** /*
   2:Middlewares/Third_Party/FreeRTOS/Source/portable/MemMang/heap_4.c ****  * FreeRTOS Kernel V10.3.1
   3:Middlewares/Third_Party/FreeRTOS/Source/portable/MemMang/heap_4.c ****  * Copyright (C) 2020 Amazon.com, Inc. or its affiliates.  All Rights Reserved.
   4:Middlewares/Third_Party/FreeRTOS/Source/portable/MemMang/heap_4.c ****  *
   5:Middlewares/Third_Party/FreeRTOS/Source/portable/MemMang/heap_4.c ****  * Permission is hereby granted, free of charge, to any person obtaining a copy of
   6:Middlewares/Third_Party/FreeRTOS/Source/portable/MemMang/heap_4.c ****  * this software and associated documentation files (the "Software"), to deal in
   7:Middlewares/Third_Party/FreeRTOS/Source/portable/MemMang/heap_4.c ****  * the Software without restriction, including without limitation the rights to
   8:Middlewares/Third_Party/FreeRTOS/Source/portable/MemMang/heap_4.c ****  * use, copy, modify, merge, publish, distribute, sublicense, and/or sell copies of
   9:Middlewares/Third_Party/FreeRTOS/Source/portable/MemMang/heap_4.c ****  * the Software, and to permit persons to whom the Software is furnished to do so,
  10:Middlewares/Third_Party/FreeRTOS/Source/portable/MemMang/heap_4.c ****  * subject to the following conditions:
  11:Middlewares/Third_Party/FreeRTOS/Source/portable/MemMang/heap_4.c ****  *
  12:Middlewares/Third_Party/FreeRTOS/Source/portable/MemMang/heap_4.c ****  * The above copyright notice and this permission notice shall be included in all
  13:Middlewares/Third_Party/FreeRTOS/Source/portable/MemMang/heap_4.c ****  * copies or substantial portions of the Software.
  14:Middlewares/Third_Party/FreeRTOS/Source/portable/MemMang/heap_4.c ****  *
  15:Middlewares/Third_Party/FreeRTOS/Source/portable/MemMang/heap_4.c ****  * THE SOFTWARE IS PROVIDED "AS IS", WITHOUT WARRANTY OF ANY KIND, EXPRESS OR
  16:Middlewares/Third_Party/FreeRTOS/Source/portable/MemMang/heap_4.c ****  * IMPLIED, INCLUDING BUT NOT LIMITED TO THE WARRANTIES OF MERCHANTABILITY, FITNESS
  17:Middlewares/Third_Party/FreeRTOS/Source/portable/MemMang/heap_4.c ****  * FOR A PARTICULAR PURPOSE AND NONINFRINGEMENT. IN NO EVENT SHALL THE AUTHORS OR
  18:Middlewares/Third_Party/FreeRTOS/Source/portable/MemMang/heap_4.c ****  * COPYRIGHT HOLDERS BE LIABLE FOR ANY CLAIM, DAMAGES OR OTHER LIABILITY, WHETHER
  19:Middlewares/Third_Party/FreeRTOS/Source/portable/MemMang/heap_4.c ****  * IN AN ACTION OF CONTRACT, TORT OR OTHERWISE, ARISING FROM, OUT OF OR IN
  20:Middlewares/Third_Party/FreeRTOS/Source/portable/MemMang/heap_4.c ****  * CONNECTION WITH THE SOFTWARE OR THE USE OR OTHER DEALINGS IN THE SOFTWARE.
  21:Middlewares/Third_Party/FreeRTOS/Source/portable/MemMang/heap_4.c ****  *
  22:Middlewares/Third_Party/FreeRTOS/Source/portable/MemMang/heap_4.c ****  * http://www.FreeRTOS.org
  23:Middlewares/Third_Party/FreeRTOS/Source/portable/MemMang/heap_4.c ****  * http://aws.amazon.com/freertos
  24:Middlewares/Third_Party/FreeRTOS/Source/portable/MemMang/heap_4.c ****  *
  25:Middlewares/Third_Party/FreeRTOS/Source/portable/MemMang/heap_4.c ****  * 1 tab == 4 spaces!
  26:Middlewares/Third_Party/FreeRTOS/Source/portable/MemMang/heap_4.c ****  */
  27:Middlewares/Third_Party/FreeRTOS/Source/portable/MemMang/heap_4.c **** 
  28:Middlewares/Third_Party/FreeRTOS/Source/portable/MemMang/heap_4.c **** /*
  29:Middlewares/Third_Party/FreeRTOS/Source/portable/MemMang/heap_4.c ****  * A sample implementation of pvPortMalloc() and vPortFree() that combines
ARM GAS  /tmp/ccyYBu53.s 			page 2


  30:Middlewares/Third_Party/FreeRTOS/Source/portable/MemMang/heap_4.c ****  * (coalescences) adjacent memory blocks as they are freed, and in so doing
  31:Middlewares/Third_Party/FreeRTOS/Source/portable/MemMang/heap_4.c ****  * limits memory fragmentation.
  32:Middlewares/Third_Party/FreeRTOS/Source/portable/MemMang/heap_4.c ****  *
  33:Middlewares/Third_Party/FreeRTOS/Source/portable/MemMang/heap_4.c ****  * See heap_1.c, heap_2.c and heap_3.c for alternative implementations, and the
  34:Middlewares/Third_Party/FreeRTOS/Source/portable/MemMang/heap_4.c ****  * memory management pages of http://www.FreeRTOS.org for more information.
  35:Middlewares/Third_Party/FreeRTOS/Source/portable/MemMang/heap_4.c ****  */
  36:Middlewares/Third_Party/FreeRTOS/Source/portable/MemMang/heap_4.c **** #include <stdlib.h>
  37:Middlewares/Third_Party/FreeRTOS/Source/portable/MemMang/heap_4.c **** 
  38:Middlewares/Third_Party/FreeRTOS/Source/portable/MemMang/heap_4.c **** /* Defining MPU_WRAPPERS_INCLUDED_FROM_API_FILE prevents task.h from redefining
  39:Middlewares/Third_Party/FreeRTOS/Source/portable/MemMang/heap_4.c **** all the API functions to use the MPU wrappers.  That should only be done when
  40:Middlewares/Third_Party/FreeRTOS/Source/portable/MemMang/heap_4.c **** task.h is included from an application file. */
  41:Middlewares/Third_Party/FreeRTOS/Source/portable/MemMang/heap_4.c **** #define MPU_WRAPPERS_INCLUDED_FROM_API_FILE
  42:Middlewares/Third_Party/FreeRTOS/Source/portable/MemMang/heap_4.c **** 
  43:Middlewares/Third_Party/FreeRTOS/Source/portable/MemMang/heap_4.c **** #include "FreeRTOS.h"
  44:Middlewares/Third_Party/FreeRTOS/Source/portable/MemMang/heap_4.c **** #include "task.h"
  45:Middlewares/Third_Party/FreeRTOS/Source/portable/MemMang/heap_4.c **** 
  46:Middlewares/Third_Party/FreeRTOS/Source/portable/MemMang/heap_4.c **** #undef MPU_WRAPPERS_INCLUDED_FROM_API_FILE
  47:Middlewares/Third_Party/FreeRTOS/Source/portable/MemMang/heap_4.c **** 
  48:Middlewares/Third_Party/FreeRTOS/Source/portable/MemMang/heap_4.c **** #if( configSUPPORT_DYNAMIC_ALLOCATION == 0 )
  49:Middlewares/Third_Party/FreeRTOS/Source/portable/MemMang/heap_4.c **** 	#error This file must not be used if configSUPPORT_DYNAMIC_ALLOCATION is 0
  50:Middlewares/Third_Party/FreeRTOS/Source/portable/MemMang/heap_4.c **** #endif
  51:Middlewares/Third_Party/FreeRTOS/Source/portable/MemMang/heap_4.c **** 
  52:Middlewares/Third_Party/FreeRTOS/Source/portable/MemMang/heap_4.c **** /* Block sizes must not get too small. */
  53:Middlewares/Third_Party/FreeRTOS/Source/portable/MemMang/heap_4.c **** #define heapMINIMUM_BLOCK_SIZE	( ( size_t ) ( xHeapStructSize << 1 ) )
  54:Middlewares/Third_Party/FreeRTOS/Source/portable/MemMang/heap_4.c **** 
  55:Middlewares/Third_Party/FreeRTOS/Source/portable/MemMang/heap_4.c **** /* Assumes 8bit bytes! */
  56:Middlewares/Third_Party/FreeRTOS/Source/portable/MemMang/heap_4.c **** #define heapBITS_PER_BYTE		( ( size_t ) 8 )
  57:Middlewares/Third_Party/FreeRTOS/Source/portable/MemMang/heap_4.c **** 
  58:Middlewares/Third_Party/FreeRTOS/Source/portable/MemMang/heap_4.c **** /* Allocate the memory for the heap. */
  59:Middlewares/Third_Party/FreeRTOS/Source/portable/MemMang/heap_4.c **** #if( configAPPLICATION_ALLOCATED_HEAP == 1 )
  60:Middlewares/Third_Party/FreeRTOS/Source/portable/MemMang/heap_4.c **** 	/* The application writer has already defined the array used for the RTOS
  61:Middlewares/Third_Party/FreeRTOS/Source/portable/MemMang/heap_4.c **** 	heap - probably so it can be placed in a special segment or address. */
  62:Middlewares/Third_Party/FreeRTOS/Source/portable/MemMang/heap_4.c **** 	extern uint8_t ucHeap[ configTOTAL_HEAP_SIZE ];
  63:Middlewares/Third_Party/FreeRTOS/Source/portable/MemMang/heap_4.c **** #else
  64:Middlewares/Third_Party/FreeRTOS/Source/portable/MemMang/heap_4.c **** 	static uint8_t ucHeap[ configTOTAL_HEAP_SIZE ];
  65:Middlewares/Third_Party/FreeRTOS/Source/portable/MemMang/heap_4.c **** #endif /* configAPPLICATION_ALLOCATED_HEAP */
  66:Middlewares/Third_Party/FreeRTOS/Source/portable/MemMang/heap_4.c **** 
  67:Middlewares/Third_Party/FreeRTOS/Source/portable/MemMang/heap_4.c **** /* Define the linked list structure.  This is used to link free blocks in order
  68:Middlewares/Third_Party/FreeRTOS/Source/portable/MemMang/heap_4.c **** of their memory address. */
  69:Middlewares/Third_Party/FreeRTOS/Source/portable/MemMang/heap_4.c **** typedef struct A_BLOCK_LINK
  70:Middlewares/Third_Party/FreeRTOS/Source/portable/MemMang/heap_4.c **** {
  71:Middlewares/Third_Party/FreeRTOS/Source/portable/MemMang/heap_4.c **** 	struct A_BLOCK_LINK *pxNextFreeBlock;	/*<< The next free block in the list. */
  72:Middlewares/Third_Party/FreeRTOS/Source/portable/MemMang/heap_4.c **** 	size_t xBlockSize;						/*<< The size of the free block. */
  73:Middlewares/Third_Party/FreeRTOS/Source/portable/MemMang/heap_4.c **** } BlockLink_t;
  74:Middlewares/Third_Party/FreeRTOS/Source/portable/MemMang/heap_4.c **** 
  75:Middlewares/Third_Party/FreeRTOS/Source/portable/MemMang/heap_4.c **** /*-----------------------------------------------------------*/
  76:Middlewares/Third_Party/FreeRTOS/Source/portable/MemMang/heap_4.c **** 
  77:Middlewares/Third_Party/FreeRTOS/Source/portable/MemMang/heap_4.c **** /*
  78:Middlewares/Third_Party/FreeRTOS/Source/portable/MemMang/heap_4.c ****  * Inserts a block of memory that is being freed into the correct position in
  79:Middlewares/Third_Party/FreeRTOS/Source/portable/MemMang/heap_4.c ****  * the list of free memory blocks.  The block being freed will be merged with
  80:Middlewares/Third_Party/FreeRTOS/Source/portable/MemMang/heap_4.c ****  * the block in front it and/or the block behind it if the memory blocks are
  81:Middlewares/Third_Party/FreeRTOS/Source/portable/MemMang/heap_4.c ****  * adjacent to each other.
  82:Middlewares/Third_Party/FreeRTOS/Source/portable/MemMang/heap_4.c ****  */
  83:Middlewares/Third_Party/FreeRTOS/Source/portable/MemMang/heap_4.c **** static void prvInsertBlockIntoFreeList( BlockLink_t *pxBlockToInsert );
  84:Middlewares/Third_Party/FreeRTOS/Source/portable/MemMang/heap_4.c **** 
  85:Middlewares/Third_Party/FreeRTOS/Source/portable/MemMang/heap_4.c **** /*
  86:Middlewares/Third_Party/FreeRTOS/Source/portable/MemMang/heap_4.c ****  * Called automatically to setup the required heap structures the first time
ARM GAS  /tmp/ccyYBu53.s 			page 3


  87:Middlewares/Third_Party/FreeRTOS/Source/portable/MemMang/heap_4.c ****  * pvPortMalloc() is called.
  88:Middlewares/Third_Party/FreeRTOS/Source/portable/MemMang/heap_4.c ****  */
  89:Middlewares/Third_Party/FreeRTOS/Source/portable/MemMang/heap_4.c **** static void prvHeapInit( void );
  90:Middlewares/Third_Party/FreeRTOS/Source/portable/MemMang/heap_4.c **** 
  91:Middlewares/Third_Party/FreeRTOS/Source/portable/MemMang/heap_4.c **** /*-----------------------------------------------------------*/
  92:Middlewares/Third_Party/FreeRTOS/Source/portable/MemMang/heap_4.c **** 
  93:Middlewares/Third_Party/FreeRTOS/Source/portable/MemMang/heap_4.c **** /* The size of the structure placed at the beginning of each allocated memory
  94:Middlewares/Third_Party/FreeRTOS/Source/portable/MemMang/heap_4.c **** block must by correctly byte aligned. */
  95:Middlewares/Third_Party/FreeRTOS/Source/portable/MemMang/heap_4.c **** static const size_t xHeapStructSize	= ( sizeof( BlockLink_t ) + ( ( size_t ) ( portBYTE_ALIGNMENT -
  96:Middlewares/Third_Party/FreeRTOS/Source/portable/MemMang/heap_4.c **** 
  97:Middlewares/Third_Party/FreeRTOS/Source/portable/MemMang/heap_4.c **** /* Create a couple of list links to mark the start and end of the list. */
  98:Middlewares/Third_Party/FreeRTOS/Source/portable/MemMang/heap_4.c **** static BlockLink_t xStart, *pxEnd = NULL;
  99:Middlewares/Third_Party/FreeRTOS/Source/portable/MemMang/heap_4.c **** 
 100:Middlewares/Third_Party/FreeRTOS/Source/portable/MemMang/heap_4.c **** /* Keeps track of the number of calls to allocate and free memory as well as the
 101:Middlewares/Third_Party/FreeRTOS/Source/portable/MemMang/heap_4.c **** number of free bytes remaining, but says nothing about fragmentation. */
 102:Middlewares/Third_Party/FreeRTOS/Source/portable/MemMang/heap_4.c **** static size_t xFreeBytesRemaining = 0U;
 103:Middlewares/Third_Party/FreeRTOS/Source/portable/MemMang/heap_4.c **** static size_t xMinimumEverFreeBytesRemaining = 0U;
 104:Middlewares/Third_Party/FreeRTOS/Source/portable/MemMang/heap_4.c **** static size_t xNumberOfSuccessfulAllocations = 0;
 105:Middlewares/Third_Party/FreeRTOS/Source/portable/MemMang/heap_4.c **** static size_t xNumberOfSuccessfulFrees = 0;
 106:Middlewares/Third_Party/FreeRTOS/Source/portable/MemMang/heap_4.c **** 
 107:Middlewares/Third_Party/FreeRTOS/Source/portable/MemMang/heap_4.c **** /* Gets set to the top bit of an size_t type.  When this bit in the xBlockSize
 108:Middlewares/Third_Party/FreeRTOS/Source/portable/MemMang/heap_4.c **** member of an BlockLink_t structure is set then the block belongs to the
 109:Middlewares/Third_Party/FreeRTOS/Source/portable/MemMang/heap_4.c **** application.  When the bit is free the block is still part of the free heap
 110:Middlewares/Third_Party/FreeRTOS/Source/portable/MemMang/heap_4.c **** space. */
 111:Middlewares/Third_Party/FreeRTOS/Source/portable/MemMang/heap_4.c **** static size_t xBlockAllocatedBit = 0;
 112:Middlewares/Third_Party/FreeRTOS/Source/portable/MemMang/heap_4.c **** 
 113:Middlewares/Third_Party/FreeRTOS/Source/portable/MemMang/heap_4.c **** /*-----------------------------------------------------------*/
 114:Middlewares/Third_Party/FreeRTOS/Source/portable/MemMang/heap_4.c **** 
 115:Middlewares/Third_Party/FreeRTOS/Source/portable/MemMang/heap_4.c **** void *pvPortMalloc( size_t xWantedSize )
 116:Middlewares/Third_Party/FreeRTOS/Source/portable/MemMang/heap_4.c **** {
 117:Middlewares/Third_Party/FreeRTOS/Source/portable/MemMang/heap_4.c **** BlockLink_t *pxBlock, *pxPreviousBlock, *pxNewBlockLink;
 118:Middlewares/Third_Party/FreeRTOS/Source/portable/MemMang/heap_4.c **** void *pvReturn = NULL;
 119:Middlewares/Third_Party/FreeRTOS/Source/portable/MemMang/heap_4.c **** 
 120:Middlewares/Third_Party/FreeRTOS/Source/portable/MemMang/heap_4.c **** 	vTaskSuspendAll();
 121:Middlewares/Third_Party/FreeRTOS/Source/portable/MemMang/heap_4.c **** 	{
 122:Middlewares/Third_Party/FreeRTOS/Source/portable/MemMang/heap_4.c **** 		/* If this is the first call to malloc then the heap will require
 123:Middlewares/Third_Party/FreeRTOS/Source/portable/MemMang/heap_4.c **** 		initialisation to setup the list of free blocks. */
 124:Middlewares/Third_Party/FreeRTOS/Source/portable/MemMang/heap_4.c **** 		if( pxEnd == NULL )
 125:Middlewares/Third_Party/FreeRTOS/Source/portable/MemMang/heap_4.c **** 		{
 126:Middlewares/Third_Party/FreeRTOS/Source/portable/MemMang/heap_4.c **** 			prvHeapInit();
 127:Middlewares/Third_Party/FreeRTOS/Source/portable/MemMang/heap_4.c **** 		}
 128:Middlewares/Third_Party/FreeRTOS/Source/portable/MemMang/heap_4.c **** 		else
 129:Middlewares/Third_Party/FreeRTOS/Source/portable/MemMang/heap_4.c **** 		{
 130:Middlewares/Third_Party/FreeRTOS/Source/portable/MemMang/heap_4.c **** 			mtCOVERAGE_TEST_MARKER();
 131:Middlewares/Third_Party/FreeRTOS/Source/portable/MemMang/heap_4.c **** 		}
 132:Middlewares/Third_Party/FreeRTOS/Source/portable/MemMang/heap_4.c **** 
 133:Middlewares/Third_Party/FreeRTOS/Source/portable/MemMang/heap_4.c **** 		/* Check the requested block size is not so large that the top bit is
 134:Middlewares/Third_Party/FreeRTOS/Source/portable/MemMang/heap_4.c **** 		set.  The top bit of the block size member of the BlockLink_t structure
 135:Middlewares/Third_Party/FreeRTOS/Source/portable/MemMang/heap_4.c **** 		is used to determine who owns the block - the application or the
 136:Middlewares/Third_Party/FreeRTOS/Source/portable/MemMang/heap_4.c **** 		kernel, so it must be free. */
 137:Middlewares/Third_Party/FreeRTOS/Source/portable/MemMang/heap_4.c **** 		if( ( xWantedSize & xBlockAllocatedBit ) == 0 )
 138:Middlewares/Third_Party/FreeRTOS/Source/portable/MemMang/heap_4.c **** 		{
 139:Middlewares/Third_Party/FreeRTOS/Source/portable/MemMang/heap_4.c **** 			/* The wanted size is increased so it can contain a BlockLink_t
 140:Middlewares/Third_Party/FreeRTOS/Source/portable/MemMang/heap_4.c **** 			structure in addition to the requested amount of bytes. */
 141:Middlewares/Third_Party/FreeRTOS/Source/portable/MemMang/heap_4.c **** 			if( xWantedSize > 0 )
 142:Middlewares/Third_Party/FreeRTOS/Source/portable/MemMang/heap_4.c **** 			{
 143:Middlewares/Third_Party/FreeRTOS/Source/portable/MemMang/heap_4.c **** 				xWantedSize += xHeapStructSize;
ARM GAS  /tmp/ccyYBu53.s 			page 4


 144:Middlewares/Third_Party/FreeRTOS/Source/portable/MemMang/heap_4.c **** 
 145:Middlewares/Third_Party/FreeRTOS/Source/portable/MemMang/heap_4.c **** 				/* Ensure that blocks are always aligned to the required number
 146:Middlewares/Third_Party/FreeRTOS/Source/portable/MemMang/heap_4.c **** 				of bytes. */
 147:Middlewares/Third_Party/FreeRTOS/Source/portable/MemMang/heap_4.c **** 				if( ( xWantedSize & portBYTE_ALIGNMENT_MASK ) != 0x00 )
 148:Middlewares/Third_Party/FreeRTOS/Source/portable/MemMang/heap_4.c **** 				{
 149:Middlewares/Third_Party/FreeRTOS/Source/portable/MemMang/heap_4.c **** 					/* Byte alignment required. */
 150:Middlewares/Third_Party/FreeRTOS/Source/portable/MemMang/heap_4.c **** 					xWantedSize += ( portBYTE_ALIGNMENT - ( xWantedSize & portBYTE_ALIGNMENT_MASK ) );
 151:Middlewares/Third_Party/FreeRTOS/Source/portable/MemMang/heap_4.c **** 					configASSERT( ( xWantedSize & portBYTE_ALIGNMENT_MASK ) == 0 );
 152:Middlewares/Third_Party/FreeRTOS/Source/portable/MemMang/heap_4.c **** 				}
 153:Middlewares/Third_Party/FreeRTOS/Source/portable/MemMang/heap_4.c **** 				else
 154:Middlewares/Third_Party/FreeRTOS/Source/portable/MemMang/heap_4.c **** 				{
 155:Middlewares/Third_Party/FreeRTOS/Source/portable/MemMang/heap_4.c **** 					mtCOVERAGE_TEST_MARKER();
 156:Middlewares/Third_Party/FreeRTOS/Source/portable/MemMang/heap_4.c **** 				}
 157:Middlewares/Third_Party/FreeRTOS/Source/portable/MemMang/heap_4.c **** 			}
 158:Middlewares/Third_Party/FreeRTOS/Source/portable/MemMang/heap_4.c **** 			else
 159:Middlewares/Third_Party/FreeRTOS/Source/portable/MemMang/heap_4.c **** 			{
 160:Middlewares/Third_Party/FreeRTOS/Source/portable/MemMang/heap_4.c **** 				mtCOVERAGE_TEST_MARKER();
 161:Middlewares/Third_Party/FreeRTOS/Source/portable/MemMang/heap_4.c **** 			}
 162:Middlewares/Third_Party/FreeRTOS/Source/portable/MemMang/heap_4.c **** 
 163:Middlewares/Third_Party/FreeRTOS/Source/portable/MemMang/heap_4.c **** 			if( ( xWantedSize > 0 ) && ( xWantedSize <= xFreeBytesRemaining ) )
 164:Middlewares/Third_Party/FreeRTOS/Source/portable/MemMang/heap_4.c **** 			{
 165:Middlewares/Third_Party/FreeRTOS/Source/portable/MemMang/heap_4.c **** 				/* Traverse the list from the start	(lowest address) block until
 166:Middlewares/Third_Party/FreeRTOS/Source/portable/MemMang/heap_4.c **** 				one	of adequate size is found. */
 167:Middlewares/Third_Party/FreeRTOS/Source/portable/MemMang/heap_4.c **** 				pxPreviousBlock = &xStart;
 168:Middlewares/Third_Party/FreeRTOS/Source/portable/MemMang/heap_4.c **** 				pxBlock = xStart.pxNextFreeBlock;
 169:Middlewares/Third_Party/FreeRTOS/Source/portable/MemMang/heap_4.c **** 				while( ( pxBlock->xBlockSize < xWantedSize ) && ( pxBlock->pxNextFreeBlock != NULL ) )
 170:Middlewares/Third_Party/FreeRTOS/Source/portable/MemMang/heap_4.c **** 				{
 171:Middlewares/Third_Party/FreeRTOS/Source/portable/MemMang/heap_4.c **** 					pxPreviousBlock = pxBlock;
 172:Middlewares/Third_Party/FreeRTOS/Source/portable/MemMang/heap_4.c **** 					pxBlock = pxBlock->pxNextFreeBlock;
 173:Middlewares/Third_Party/FreeRTOS/Source/portable/MemMang/heap_4.c **** 				}
 174:Middlewares/Third_Party/FreeRTOS/Source/portable/MemMang/heap_4.c **** 
 175:Middlewares/Third_Party/FreeRTOS/Source/portable/MemMang/heap_4.c **** 				/* If the end marker was reached then a block of adequate size
 176:Middlewares/Third_Party/FreeRTOS/Source/portable/MemMang/heap_4.c **** 				was	not found. */
 177:Middlewares/Third_Party/FreeRTOS/Source/portable/MemMang/heap_4.c **** 				if( pxBlock != pxEnd )
 178:Middlewares/Third_Party/FreeRTOS/Source/portable/MemMang/heap_4.c **** 				{
 179:Middlewares/Third_Party/FreeRTOS/Source/portable/MemMang/heap_4.c **** 					/* Return the memory space pointed to - jumping over the
 180:Middlewares/Third_Party/FreeRTOS/Source/portable/MemMang/heap_4.c **** 					BlockLink_t structure at its start. */
 181:Middlewares/Third_Party/FreeRTOS/Source/portable/MemMang/heap_4.c **** 					pvReturn = ( void * ) ( ( ( uint8_t * ) pxPreviousBlock->pxNextFreeBlock ) + xHeapStructSize )
 182:Middlewares/Third_Party/FreeRTOS/Source/portable/MemMang/heap_4.c **** 
 183:Middlewares/Third_Party/FreeRTOS/Source/portable/MemMang/heap_4.c **** 					/* This block is being returned for use so must be taken out
 184:Middlewares/Third_Party/FreeRTOS/Source/portable/MemMang/heap_4.c **** 					of the list of free blocks. */
 185:Middlewares/Third_Party/FreeRTOS/Source/portable/MemMang/heap_4.c **** 					pxPreviousBlock->pxNextFreeBlock = pxBlock->pxNextFreeBlock;
 186:Middlewares/Third_Party/FreeRTOS/Source/portable/MemMang/heap_4.c **** 
 187:Middlewares/Third_Party/FreeRTOS/Source/portable/MemMang/heap_4.c **** 					/* If the block is larger than required it can be split into
 188:Middlewares/Third_Party/FreeRTOS/Source/portable/MemMang/heap_4.c **** 					two. */
 189:Middlewares/Third_Party/FreeRTOS/Source/portable/MemMang/heap_4.c **** 					if( ( pxBlock->xBlockSize - xWantedSize ) > heapMINIMUM_BLOCK_SIZE )
 190:Middlewares/Third_Party/FreeRTOS/Source/portable/MemMang/heap_4.c **** 					{
 191:Middlewares/Third_Party/FreeRTOS/Source/portable/MemMang/heap_4.c **** 						/* This block is to be split into two.  Create a new
 192:Middlewares/Third_Party/FreeRTOS/Source/portable/MemMang/heap_4.c **** 						block following the number of bytes requested. The void
 193:Middlewares/Third_Party/FreeRTOS/Source/portable/MemMang/heap_4.c **** 						cast is used to prevent byte alignment warnings from the
 194:Middlewares/Third_Party/FreeRTOS/Source/portable/MemMang/heap_4.c **** 						compiler. */
 195:Middlewares/Third_Party/FreeRTOS/Source/portable/MemMang/heap_4.c **** 						pxNewBlockLink = ( void * ) ( ( ( uint8_t * ) pxBlock ) + xWantedSize );
 196:Middlewares/Third_Party/FreeRTOS/Source/portable/MemMang/heap_4.c **** 						configASSERT( ( ( ( size_t ) pxNewBlockLink ) & portBYTE_ALIGNMENT_MASK ) == 0 );
 197:Middlewares/Third_Party/FreeRTOS/Source/portable/MemMang/heap_4.c **** 
 198:Middlewares/Third_Party/FreeRTOS/Source/portable/MemMang/heap_4.c **** 						/* Calculate the sizes of two blocks split from the
 199:Middlewares/Third_Party/FreeRTOS/Source/portable/MemMang/heap_4.c **** 						single block. */
 200:Middlewares/Third_Party/FreeRTOS/Source/portable/MemMang/heap_4.c **** 						pxNewBlockLink->xBlockSize = pxBlock->xBlockSize - xWantedSize;
ARM GAS  /tmp/ccyYBu53.s 			page 5


 201:Middlewares/Third_Party/FreeRTOS/Source/portable/MemMang/heap_4.c **** 						pxBlock->xBlockSize = xWantedSize;
 202:Middlewares/Third_Party/FreeRTOS/Source/portable/MemMang/heap_4.c **** 
 203:Middlewares/Third_Party/FreeRTOS/Source/portable/MemMang/heap_4.c **** 						/* Insert the new block into the list of free blocks. */
 204:Middlewares/Third_Party/FreeRTOS/Source/portable/MemMang/heap_4.c **** 						prvInsertBlockIntoFreeList( pxNewBlockLink );
 205:Middlewares/Third_Party/FreeRTOS/Source/portable/MemMang/heap_4.c **** 					}
 206:Middlewares/Third_Party/FreeRTOS/Source/portable/MemMang/heap_4.c **** 					else
 207:Middlewares/Third_Party/FreeRTOS/Source/portable/MemMang/heap_4.c **** 					{
 208:Middlewares/Third_Party/FreeRTOS/Source/portable/MemMang/heap_4.c **** 						mtCOVERAGE_TEST_MARKER();
 209:Middlewares/Third_Party/FreeRTOS/Source/portable/MemMang/heap_4.c **** 					}
 210:Middlewares/Third_Party/FreeRTOS/Source/portable/MemMang/heap_4.c **** 
 211:Middlewares/Third_Party/FreeRTOS/Source/portable/MemMang/heap_4.c **** 					xFreeBytesRemaining -= pxBlock->xBlockSize;
 212:Middlewares/Third_Party/FreeRTOS/Source/portable/MemMang/heap_4.c **** 
 213:Middlewares/Third_Party/FreeRTOS/Source/portable/MemMang/heap_4.c **** 					if( xFreeBytesRemaining < xMinimumEverFreeBytesRemaining )
 214:Middlewares/Third_Party/FreeRTOS/Source/portable/MemMang/heap_4.c **** 					{
 215:Middlewares/Third_Party/FreeRTOS/Source/portable/MemMang/heap_4.c **** 						xMinimumEverFreeBytesRemaining = xFreeBytesRemaining;
 216:Middlewares/Third_Party/FreeRTOS/Source/portable/MemMang/heap_4.c **** 					}
 217:Middlewares/Third_Party/FreeRTOS/Source/portable/MemMang/heap_4.c **** 					else
 218:Middlewares/Third_Party/FreeRTOS/Source/portable/MemMang/heap_4.c **** 					{
 219:Middlewares/Third_Party/FreeRTOS/Source/portable/MemMang/heap_4.c **** 						mtCOVERAGE_TEST_MARKER();
 220:Middlewares/Third_Party/FreeRTOS/Source/portable/MemMang/heap_4.c **** 					}
 221:Middlewares/Third_Party/FreeRTOS/Source/portable/MemMang/heap_4.c **** 
 222:Middlewares/Third_Party/FreeRTOS/Source/portable/MemMang/heap_4.c **** 					/* The block is being returned - it is allocated and owned
 223:Middlewares/Third_Party/FreeRTOS/Source/portable/MemMang/heap_4.c **** 					by the application and has no "next" block. */
 224:Middlewares/Third_Party/FreeRTOS/Source/portable/MemMang/heap_4.c **** 					pxBlock->xBlockSize |= xBlockAllocatedBit;
 225:Middlewares/Third_Party/FreeRTOS/Source/portable/MemMang/heap_4.c **** 					pxBlock->pxNextFreeBlock = NULL;
 226:Middlewares/Third_Party/FreeRTOS/Source/portable/MemMang/heap_4.c **** 					xNumberOfSuccessfulAllocations++;
 227:Middlewares/Third_Party/FreeRTOS/Source/portable/MemMang/heap_4.c **** 				}
 228:Middlewares/Third_Party/FreeRTOS/Source/portable/MemMang/heap_4.c **** 				else
 229:Middlewares/Third_Party/FreeRTOS/Source/portable/MemMang/heap_4.c **** 				{
 230:Middlewares/Third_Party/FreeRTOS/Source/portable/MemMang/heap_4.c **** 					mtCOVERAGE_TEST_MARKER();
 231:Middlewares/Third_Party/FreeRTOS/Source/portable/MemMang/heap_4.c **** 				}
 232:Middlewares/Third_Party/FreeRTOS/Source/portable/MemMang/heap_4.c **** 			}
 233:Middlewares/Third_Party/FreeRTOS/Source/portable/MemMang/heap_4.c **** 			else
 234:Middlewares/Third_Party/FreeRTOS/Source/portable/MemMang/heap_4.c **** 			{
 235:Middlewares/Third_Party/FreeRTOS/Source/portable/MemMang/heap_4.c **** 				mtCOVERAGE_TEST_MARKER();
 236:Middlewares/Third_Party/FreeRTOS/Source/portable/MemMang/heap_4.c **** 			}
 237:Middlewares/Third_Party/FreeRTOS/Source/portable/MemMang/heap_4.c **** 		}
 238:Middlewares/Third_Party/FreeRTOS/Source/portable/MemMang/heap_4.c **** 		else
 239:Middlewares/Third_Party/FreeRTOS/Source/portable/MemMang/heap_4.c **** 		{
 240:Middlewares/Third_Party/FreeRTOS/Source/portable/MemMang/heap_4.c **** 			mtCOVERAGE_TEST_MARKER();
 241:Middlewares/Third_Party/FreeRTOS/Source/portable/MemMang/heap_4.c **** 		}
 242:Middlewares/Third_Party/FreeRTOS/Source/portable/MemMang/heap_4.c **** 
 243:Middlewares/Third_Party/FreeRTOS/Source/portable/MemMang/heap_4.c **** 		traceMALLOC( pvReturn, xWantedSize );
 244:Middlewares/Third_Party/FreeRTOS/Source/portable/MemMang/heap_4.c **** 	}
 245:Middlewares/Third_Party/FreeRTOS/Source/portable/MemMang/heap_4.c **** 	( void ) xTaskResumeAll();
 246:Middlewares/Third_Party/FreeRTOS/Source/portable/MemMang/heap_4.c **** 
 247:Middlewares/Third_Party/FreeRTOS/Source/portable/MemMang/heap_4.c **** 	#if( configUSE_MALLOC_FAILED_HOOK == 1 )
 248:Middlewares/Third_Party/FreeRTOS/Source/portable/MemMang/heap_4.c **** 	{
 249:Middlewares/Third_Party/FreeRTOS/Source/portable/MemMang/heap_4.c **** 		if( pvReturn == NULL )
 250:Middlewares/Third_Party/FreeRTOS/Source/portable/MemMang/heap_4.c **** 		{
 251:Middlewares/Third_Party/FreeRTOS/Source/portable/MemMang/heap_4.c **** 			extern void vApplicationMallocFailedHook( void );
 252:Middlewares/Third_Party/FreeRTOS/Source/portable/MemMang/heap_4.c **** 			vApplicationMallocFailedHook();
 253:Middlewares/Third_Party/FreeRTOS/Source/portable/MemMang/heap_4.c **** 		}
 254:Middlewares/Third_Party/FreeRTOS/Source/portable/MemMang/heap_4.c **** 		else
 255:Middlewares/Third_Party/FreeRTOS/Source/portable/MemMang/heap_4.c **** 		{
 256:Middlewares/Third_Party/FreeRTOS/Source/portable/MemMang/heap_4.c **** 			mtCOVERAGE_TEST_MARKER();
 257:Middlewares/Third_Party/FreeRTOS/Source/portable/MemMang/heap_4.c **** 		}
ARM GAS  /tmp/ccyYBu53.s 			page 6


 258:Middlewares/Third_Party/FreeRTOS/Source/portable/MemMang/heap_4.c **** 	}
 259:Middlewares/Third_Party/FreeRTOS/Source/portable/MemMang/heap_4.c **** 	#endif
 260:Middlewares/Third_Party/FreeRTOS/Source/portable/MemMang/heap_4.c **** 
 261:Middlewares/Third_Party/FreeRTOS/Source/portable/MemMang/heap_4.c **** 	configASSERT( ( ( ( size_t ) pvReturn ) & ( size_t ) portBYTE_ALIGNMENT_MASK ) == 0 );
 262:Middlewares/Third_Party/FreeRTOS/Source/portable/MemMang/heap_4.c **** 	return pvReturn;
 263:Middlewares/Third_Party/FreeRTOS/Source/portable/MemMang/heap_4.c **** }
 264:Middlewares/Third_Party/FreeRTOS/Source/portable/MemMang/heap_4.c **** /*-----------------------------------------------------------*/
 265:Middlewares/Third_Party/FreeRTOS/Source/portable/MemMang/heap_4.c **** 
 266:Middlewares/Third_Party/FreeRTOS/Source/portable/MemMang/heap_4.c **** void vPortFree( void *pv )
 267:Middlewares/Third_Party/FreeRTOS/Source/portable/MemMang/heap_4.c **** {
 268:Middlewares/Third_Party/FreeRTOS/Source/portable/MemMang/heap_4.c **** uint8_t *puc = ( uint8_t * ) pv;
 269:Middlewares/Third_Party/FreeRTOS/Source/portable/MemMang/heap_4.c **** BlockLink_t *pxLink;
 270:Middlewares/Third_Party/FreeRTOS/Source/portable/MemMang/heap_4.c **** 
 271:Middlewares/Third_Party/FreeRTOS/Source/portable/MemMang/heap_4.c **** 	if( pv != NULL )
 272:Middlewares/Third_Party/FreeRTOS/Source/portable/MemMang/heap_4.c **** 	{
 273:Middlewares/Third_Party/FreeRTOS/Source/portable/MemMang/heap_4.c **** 		/* The memory being freed will have an BlockLink_t structure immediately
 274:Middlewares/Third_Party/FreeRTOS/Source/portable/MemMang/heap_4.c **** 		before it. */
 275:Middlewares/Third_Party/FreeRTOS/Source/portable/MemMang/heap_4.c **** 		puc -= xHeapStructSize;
 276:Middlewares/Third_Party/FreeRTOS/Source/portable/MemMang/heap_4.c **** 
 277:Middlewares/Third_Party/FreeRTOS/Source/portable/MemMang/heap_4.c **** 		/* This casting is to keep the compiler from issuing warnings. */
 278:Middlewares/Third_Party/FreeRTOS/Source/portable/MemMang/heap_4.c **** 		pxLink = ( void * ) puc;
 279:Middlewares/Third_Party/FreeRTOS/Source/portable/MemMang/heap_4.c **** 
 280:Middlewares/Third_Party/FreeRTOS/Source/portable/MemMang/heap_4.c **** 		/* Check the block is actually allocated. */
 281:Middlewares/Third_Party/FreeRTOS/Source/portable/MemMang/heap_4.c **** 		configASSERT( ( pxLink->xBlockSize & xBlockAllocatedBit ) != 0 );
 282:Middlewares/Third_Party/FreeRTOS/Source/portable/MemMang/heap_4.c **** 		configASSERT( pxLink->pxNextFreeBlock == NULL );
 283:Middlewares/Third_Party/FreeRTOS/Source/portable/MemMang/heap_4.c **** 
 284:Middlewares/Third_Party/FreeRTOS/Source/portable/MemMang/heap_4.c **** 		if( ( pxLink->xBlockSize & xBlockAllocatedBit ) != 0 )
 285:Middlewares/Third_Party/FreeRTOS/Source/portable/MemMang/heap_4.c **** 		{
 286:Middlewares/Third_Party/FreeRTOS/Source/portable/MemMang/heap_4.c **** 			if( pxLink->pxNextFreeBlock == NULL )
 287:Middlewares/Third_Party/FreeRTOS/Source/portable/MemMang/heap_4.c **** 			{
 288:Middlewares/Third_Party/FreeRTOS/Source/portable/MemMang/heap_4.c **** 				/* The block is being returned to the heap - it is no longer
 289:Middlewares/Third_Party/FreeRTOS/Source/portable/MemMang/heap_4.c **** 				allocated. */
 290:Middlewares/Third_Party/FreeRTOS/Source/portable/MemMang/heap_4.c **** 				pxLink->xBlockSize &= ~xBlockAllocatedBit;
 291:Middlewares/Third_Party/FreeRTOS/Source/portable/MemMang/heap_4.c **** 
 292:Middlewares/Third_Party/FreeRTOS/Source/portable/MemMang/heap_4.c **** 				vTaskSuspendAll();
 293:Middlewares/Third_Party/FreeRTOS/Source/portable/MemMang/heap_4.c **** 				{
 294:Middlewares/Third_Party/FreeRTOS/Source/portable/MemMang/heap_4.c **** 					/* Add this block to the list of free blocks. */
 295:Middlewares/Third_Party/FreeRTOS/Source/portable/MemMang/heap_4.c **** 					xFreeBytesRemaining += pxLink->xBlockSize;
 296:Middlewares/Third_Party/FreeRTOS/Source/portable/MemMang/heap_4.c **** 					traceFREE( pv, pxLink->xBlockSize );
 297:Middlewares/Third_Party/FreeRTOS/Source/portable/MemMang/heap_4.c **** 					prvInsertBlockIntoFreeList( ( ( BlockLink_t * ) pxLink ) );
 298:Middlewares/Third_Party/FreeRTOS/Source/portable/MemMang/heap_4.c **** 					xNumberOfSuccessfulFrees++;
 299:Middlewares/Third_Party/FreeRTOS/Source/portable/MemMang/heap_4.c **** 				}
 300:Middlewares/Third_Party/FreeRTOS/Source/portable/MemMang/heap_4.c **** 				( void ) xTaskResumeAll();
 301:Middlewares/Third_Party/FreeRTOS/Source/portable/MemMang/heap_4.c **** 			}
 302:Middlewares/Third_Party/FreeRTOS/Source/portable/MemMang/heap_4.c **** 			else
 303:Middlewares/Third_Party/FreeRTOS/Source/portable/MemMang/heap_4.c **** 			{
 304:Middlewares/Third_Party/FreeRTOS/Source/portable/MemMang/heap_4.c **** 				mtCOVERAGE_TEST_MARKER();
 305:Middlewares/Third_Party/FreeRTOS/Source/portable/MemMang/heap_4.c **** 			}
 306:Middlewares/Third_Party/FreeRTOS/Source/portable/MemMang/heap_4.c **** 		}
 307:Middlewares/Third_Party/FreeRTOS/Source/portable/MemMang/heap_4.c **** 		else
 308:Middlewares/Third_Party/FreeRTOS/Source/portable/MemMang/heap_4.c **** 		{
 309:Middlewares/Third_Party/FreeRTOS/Source/portable/MemMang/heap_4.c **** 			mtCOVERAGE_TEST_MARKER();
 310:Middlewares/Third_Party/FreeRTOS/Source/portable/MemMang/heap_4.c **** 		}
 311:Middlewares/Third_Party/FreeRTOS/Source/portable/MemMang/heap_4.c **** 	}
 312:Middlewares/Third_Party/FreeRTOS/Source/portable/MemMang/heap_4.c **** }
 313:Middlewares/Third_Party/FreeRTOS/Source/portable/MemMang/heap_4.c **** /*-----------------------------------------------------------*/
 314:Middlewares/Third_Party/FreeRTOS/Source/portable/MemMang/heap_4.c **** 
ARM GAS  /tmp/ccyYBu53.s 			page 7


 315:Middlewares/Third_Party/FreeRTOS/Source/portable/MemMang/heap_4.c **** size_t xPortGetFreeHeapSize( void )
 316:Middlewares/Third_Party/FreeRTOS/Source/portable/MemMang/heap_4.c **** {
 317:Middlewares/Third_Party/FreeRTOS/Source/portable/MemMang/heap_4.c **** 	return xFreeBytesRemaining;
 318:Middlewares/Third_Party/FreeRTOS/Source/portable/MemMang/heap_4.c **** }
 319:Middlewares/Third_Party/FreeRTOS/Source/portable/MemMang/heap_4.c **** /*-----------------------------------------------------------*/
 320:Middlewares/Third_Party/FreeRTOS/Source/portable/MemMang/heap_4.c **** 
 321:Middlewares/Third_Party/FreeRTOS/Source/portable/MemMang/heap_4.c **** size_t xPortGetMinimumEverFreeHeapSize( void )
 322:Middlewares/Third_Party/FreeRTOS/Source/portable/MemMang/heap_4.c **** {
 323:Middlewares/Third_Party/FreeRTOS/Source/portable/MemMang/heap_4.c **** 	return xMinimumEverFreeBytesRemaining;
 324:Middlewares/Third_Party/FreeRTOS/Source/portable/MemMang/heap_4.c **** }
 325:Middlewares/Third_Party/FreeRTOS/Source/portable/MemMang/heap_4.c **** /*-----------------------------------------------------------*/
 326:Middlewares/Third_Party/FreeRTOS/Source/portable/MemMang/heap_4.c **** 
 327:Middlewares/Third_Party/FreeRTOS/Source/portable/MemMang/heap_4.c **** void vPortInitialiseBlocks( void )
 328:Middlewares/Third_Party/FreeRTOS/Source/portable/MemMang/heap_4.c **** {
 329:Middlewares/Third_Party/FreeRTOS/Source/portable/MemMang/heap_4.c **** 	/* This just exists to keep the linker quiet. */
 330:Middlewares/Third_Party/FreeRTOS/Source/portable/MemMang/heap_4.c **** }
 331:Middlewares/Third_Party/FreeRTOS/Source/portable/MemMang/heap_4.c **** /*-----------------------------------------------------------*/
 332:Middlewares/Third_Party/FreeRTOS/Source/portable/MemMang/heap_4.c **** 
 333:Middlewares/Third_Party/FreeRTOS/Source/portable/MemMang/heap_4.c **** static void prvHeapInit( void )
 334:Middlewares/Third_Party/FreeRTOS/Source/portable/MemMang/heap_4.c **** {
 335:Middlewares/Third_Party/FreeRTOS/Source/portable/MemMang/heap_4.c **** BlockLink_t *pxFirstFreeBlock;
 336:Middlewares/Third_Party/FreeRTOS/Source/portable/MemMang/heap_4.c **** uint8_t *pucAlignedHeap;
 337:Middlewares/Third_Party/FreeRTOS/Source/portable/MemMang/heap_4.c **** size_t uxAddress;
 338:Middlewares/Third_Party/FreeRTOS/Source/portable/MemMang/heap_4.c **** size_t xTotalHeapSize = configTOTAL_HEAP_SIZE;
 339:Middlewares/Third_Party/FreeRTOS/Source/portable/MemMang/heap_4.c **** 
 340:Middlewares/Third_Party/FreeRTOS/Source/portable/MemMang/heap_4.c **** 	/* Ensure the heap starts on a correctly aligned boundary. */
 341:Middlewares/Third_Party/FreeRTOS/Source/portable/MemMang/heap_4.c **** 	uxAddress = ( size_t ) ucHeap;
 342:Middlewares/Third_Party/FreeRTOS/Source/portable/MemMang/heap_4.c **** 
 343:Middlewares/Third_Party/FreeRTOS/Source/portable/MemMang/heap_4.c **** 	if( ( uxAddress & portBYTE_ALIGNMENT_MASK ) != 0 )
 344:Middlewares/Third_Party/FreeRTOS/Source/portable/MemMang/heap_4.c **** 	{
 345:Middlewares/Third_Party/FreeRTOS/Source/portable/MemMang/heap_4.c **** 		uxAddress += ( portBYTE_ALIGNMENT - 1 );
 346:Middlewares/Third_Party/FreeRTOS/Source/portable/MemMang/heap_4.c **** 		uxAddress &= ~( ( size_t ) portBYTE_ALIGNMENT_MASK );
 347:Middlewares/Third_Party/FreeRTOS/Source/portable/MemMang/heap_4.c **** 		xTotalHeapSize -= uxAddress - ( size_t ) ucHeap;
 348:Middlewares/Third_Party/FreeRTOS/Source/portable/MemMang/heap_4.c **** 	}
 349:Middlewares/Third_Party/FreeRTOS/Source/portable/MemMang/heap_4.c **** 
 350:Middlewares/Third_Party/FreeRTOS/Source/portable/MemMang/heap_4.c **** 	pucAlignedHeap = ( uint8_t * ) uxAddress;
 351:Middlewares/Third_Party/FreeRTOS/Source/portable/MemMang/heap_4.c **** 
 352:Middlewares/Third_Party/FreeRTOS/Source/portable/MemMang/heap_4.c **** 	/* xStart is used to hold a pointer to the first item in the list of free
 353:Middlewares/Third_Party/FreeRTOS/Source/portable/MemMang/heap_4.c **** 	blocks.  The void cast is used to prevent compiler warnings. */
 354:Middlewares/Third_Party/FreeRTOS/Source/portable/MemMang/heap_4.c **** 	xStart.pxNextFreeBlock = ( void * ) pucAlignedHeap;
 355:Middlewares/Third_Party/FreeRTOS/Source/portable/MemMang/heap_4.c **** 	xStart.xBlockSize = ( size_t ) 0;
 356:Middlewares/Third_Party/FreeRTOS/Source/portable/MemMang/heap_4.c **** 
 357:Middlewares/Third_Party/FreeRTOS/Source/portable/MemMang/heap_4.c **** 	/* pxEnd is used to mark the end of the list of free blocks and is inserted
 358:Middlewares/Third_Party/FreeRTOS/Source/portable/MemMang/heap_4.c **** 	at the end of the heap space. */
 359:Middlewares/Third_Party/FreeRTOS/Source/portable/MemMang/heap_4.c **** 	uxAddress = ( ( size_t ) pucAlignedHeap ) + xTotalHeapSize;
 360:Middlewares/Third_Party/FreeRTOS/Source/portable/MemMang/heap_4.c **** 	uxAddress -= xHeapStructSize;
 361:Middlewares/Third_Party/FreeRTOS/Source/portable/MemMang/heap_4.c **** 	uxAddress &= ~( ( size_t ) portBYTE_ALIGNMENT_MASK );
 362:Middlewares/Third_Party/FreeRTOS/Source/portable/MemMang/heap_4.c **** 	pxEnd = ( void * ) uxAddress;
 363:Middlewares/Third_Party/FreeRTOS/Source/portable/MemMang/heap_4.c **** 	pxEnd->xBlockSize = 0;
 364:Middlewares/Third_Party/FreeRTOS/Source/portable/MemMang/heap_4.c **** 	pxEnd->pxNextFreeBlock = NULL;
 365:Middlewares/Third_Party/FreeRTOS/Source/portable/MemMang/heap_4.c **** 
 366:Middlewares/Third_Party/FreeRTOS/Source/portable/MemMang/heap_4.c **** 	/* To start with there is a single free block that is sized to take up the
 367:Middlewares/Third_Party/FreeRTOS/Source/portable/MemMang/heap_4.c **** 	entire heap space, minus the space taken by pxEnd. */
 368:Middlewares/Third_Party/FreeRTOS/Source/portable/MemMang/heap_4.c **** 	pxFirstFreeBlock = ( void * ) pucAlignedHeap;
 369:Middlewares/Third_Party/FreeRTOS/Source/portable/MemMang/heap_4.c **** 	pxFirstFreeBlock->xBlockSize = uxAddress - ( size_t ) pxFirstFreeBlock;
 370:Middlewares/Third_Party/FreeRTOS/Source/portable/MemMang/heap_4.c **** 	pxFirstFreeBlock->pxNextFreeBlock = pxEnd;
 371:Middlewares/Third_Party/FreeRTOS/Source/portable/MemMang/heap_4.c **** 
ARM GAS  /tmp/ccyYBu53.s 			page 8


 372:Middlewares/Third_Party/FreeRTOS/Source/portable/MemMang/heap_4.c **** 	/* Only one block exists - and it covers the entire usable heap space. */
 373:Middlewares/Third_Party/FreeRTOS/Source/portable/MemMang/heap_4.c **** 	xMinimumEverFreeBytesRemaining = pxFirstFreeBlock->xBlockSize;
 374:Middlewares/Third_Party/FreeRTOS/Source/portable/MemMang/heap_4.c **** 	xFreeBytesRemaining = pxFirstFreeBlock->xBlockSize;
 375:Middlewares/Third_Party/FreeRTOS/Source/portable/MemMang/heap_4.c **** 
 376:Middlewares/Third_Party/FreeRTOS/Source/portable/MemMang/heap_4.c **** 	/* Work out the position of the top bit in a size_t variable. */
 377:Middlewares/Third_Party/FreeRTOS/Source/portable/MemMang/heap_4.c **** 	xBlockAllocatedBit = ( ( size_t ) 1 ) << ( ( sizeof( size_t ) * heapBITS_PER_BYTE ) - 1 );
 378:Middlewares/Third_Party/FreeRTOS/Source/portable/MemMang/heap_4.c **** }
 379:Middlewares/Third_Party/FreeRTOS/Source/portable/MemMang/heap_4.c **** /*-----------------------------------------------------------*/
 380:Middlewares/Third_Party/FreeRTOS/Source/portable/MemMang/heap_4.c **** 
 381:Middlewares/Third_Party/FreeRTOS/Source/portable/MemMang/heap_4.c **** static void prvInsertBlockIntoFreeList( BlockLink_t *pxBlockToInsert )
 382:Middlewares/Third_Party/FreeRTOS/Source/portable/MemMang/heap_4.c **** {
  30              		.loc 1 382 1 view -0
  31              		.cfi_startproc
  32              		@ args = 0, pretend = 0, frame = 0
  33              		@ frame_needed = 0, uses_anonymous_args = 0
  34              		@ link register save eliminated.
 383:Middlewares/Third_Party/FreeRTOS/Source/portable/MemMang/heap_4.c **** BlockLink_t *pxIterator;
  35              		.loc 1 383 1 view .LVU1
 384:Middlewares/Third_Party/FreeRTOS/Source/portable/MemMang/heap_4.c **** uint8_t *puc;
  36              		.loc 1 384 1 view .LVU2
 385:Middlewares/Third_Party/FreeRTOS/Source/portable/MemMang/heap_4.c **** 
 386:Middlewares/Third_Party/FreeRTOS/Source/portable/MemMang/heap_4.c **** 	/* Iterate through the list until a block is found that has a higher address
 387:Middlewares/Third_Party/FreeRTOS/Source/portable/MemMang/heap_4.c **** 	than the block being inserted. */
 388:Middlewares/Third_Party/FreeRTOS/Source/portable/MemMang/heap_4.c **** 	for( pxIterator = &xStart; pxIterator->pxNextFreeBlock < pxBlockToInsert; pxIterator = pxIterator-
  37              		.loc 1 388 2 view .LVU3
 382:Middlewares/Third_Party/FreeRTOS/Source/portable/MemMang/heap_4.c **** BlockLink_t *pxIterator;
  38              		.loc 1 382 1 is_stmt 0 view .LVU4
  39 0000 10B4     		push	{r4}
  40              	.LCFI0:
  41              		.cfi_def_cfa_offset 4
  42              		.cfi_offset 4, -4
  43              		.loc 1 388 18 view .LVU5
  44 0002 164B     		ldr	r3, .L13
  45              	.LVL1:
  46              	.L2:
  47              		.loc 1 388 29 is_stmt 1 discriminator 1 view .LVU6
  48 0004 1A46     		mov	r2, r3
  49              		.loc 1 388 39 is_stmt 0 discriminator 1 view .LVU7
  50 0006 1B68     		ldr	r3, [r3]
  51              	.LVL2:
  52              		.loc 1 388 2 discriminator 1 view .LVU8
  53 0008 8342     		cmp	r3, r0
  54 000a FBD3     		bcc	.L2
 389:Middlewares/Third_Party/FreeRTOS/Source/portable/MemMang/heap_4.c **** 	{
 390:Middlewares/Third_Party/FreeRTOS/Source/portable/MemMang/heap_4.c **** 		/* Nothing to do here, just iterate to the right position. */
 391:Middlewares/Third_Party/FreeRTOS/Source/portable/MemMang/heap_4.c **** 	}
 392:Middlewares/Third_Party/FreeRTOS/Source/portable/MemMang/heap_4.c **** 
 393:Middlewares/Third_Party/FreeRTOS/Source/portable/MemMang/heap_4.c **** 	/* Do the block being inserted, and the block it is being inserted after
 394:Middlewares/Third_Party/FreeRTOS/Source/portable/MemMang/heap_4.c **** 	make a contiguous block of memory? */
 395:Middlewares/Third_Party/FreeRTOS/Source/portable/MemMang/heap_4.c **** 	puc = ( uint8_t * ) pxIterator;
  55              		.loc 1 395 2 is_stmt 1 view .LVU9
  56              	.LVL3:
 396:Middlewares/Third_Party/FreeRTOS/Source/portable/MemMang/heap_4.c **** 	if( ( puc + pxIterator->xBlockSize ) == ( uint8_t * ) pxBlockToInsert )
  57              		.loc 1 396 2 view .LVU10
  58              		.loc 1 396 24 is_stmt 0 view .LVU11
  59 000c 5168     		ldr	r1, [r2, #4]
  60              		.loc 1 396 12 view .LVU12
ARM GAS  /tmp/ccyYBu53.s 			page 9


  61 000e 02EB010C 		add	ip, r2, r1
  62              		.loc 1 396 4 view .LVU13
  63 0012 6045     		cmp	r0, ip
  64 0014 0BD0     		beq	.L3
 397:Middlewares/Third_Party/FreeRTOS/Source/portable/MemMang/heap_4.c **** 	{
 398:Middlewares/Third_Party/FreeRTOS/Source/portable/MemMang/heap_4.c **** 		pxIterator->xBlockSize += pxBlockToInsert->xBlockSize;
 399:Middlewares/Third_Party/FreeRTOS/Source/portable/MemMang/heap_4.c **** 		pxBlockToInsert = pxIterator;
 400:Middlewares/Third_Party/FreeRTOS/Source/portable/MemMang/heap_4.c **** 	}
 401:Middlewares/Third_Party/FreeRTOS/Source/portable/MemMang/heap_4.c **** 	else
 402:Middlewares/Third_Party/FreeRTOS/Source/portable/MemMang/heap_4.c **** 	{
 403:Middlewares/Third_Party/FreeRTOS/Source/portable/MemMang/heap_4.c **** 		mtCOVERAGE_TEST_MARKER();
 404:Middlewares/Third_Party/FreeRTOS/Source/portable/MemMang/heap_4.c **** 	}
 405:Middlewares/Third_Party/FreeRTOS/Source/portable/MemMang/heap_4.c **** 
 406:Middlewares/Third_Party/FreeRTOS/Source/portable/MemMang/heap_4.c **** 	/* Do the block being inserted, and the block it is being inserted before
 407:Middlewares/Third_Party/FreeRTOS/Source/portable/MemMang/heap_4.c **** 	make a contiguous block of memory? */
 408:Middlewares/Third_Party/FreeRTOS/Source/portable/MemMang/heap_4.c **** 	puc = ( uint8_t * ) pxBlockToInsert;
 409:Middlewares/Third_Party/FreeRTOS/Source/portable/MemMang/heap_4.c **** 	if( ( puc + pxBlockToInsert->xBlockSize ) == ( uint8_t * ) pxIterator->pxNextFreeBlock )
  65              		.loc 1 409 29 view .LVU14
  66 0016 4168     		ldr	r1, [r0, #4]
 403:Middlewares/Third_Party/FreeRTOS/Source/portable/MemMang/heap_4.c **** 	}
  67              		.loc 1 403 27 is_stmt 1 view .LVU15
 408:Middlewares/Third_Party/FreeRTOS/Source/portable/MemMang/heap_4.c **** 	if( ( puc + pxBlockToInsert->xBlockSize ) == ( uint8_t * ) pxIterator->pxNextFreeBlock )
  68              		.loc 1 408 2 view .LVU16
  69              	.LVL4:
  70              		.loc 1 409 2 view .LVU17
  71              		.loc 1 409 12 is_stmt 0 view .LVU18
  72 0018 00EB010C 		add	ip, r0, r1
  73              		.loc 1 409 4 view .LVU19
  74 001c 6345     		cmp	r3, ip
  75 001e 0ED0     		beq	.L12
  76              	.L5:
 410:Middlewares/Third_Party/FreeRTOS/Source/portable/MemMang/heap_4.c **** 	{
 411:Middlewares/Third_Party/FreeRTOS/Source/portable/MemMang/heap_4.c **** 		if( pxIterator->pxNextFreeBlock != pxEnd )
 412:Middlewares/Third_Party/FreeRTOS/Source/portable/MemMang/heap_4.c **** 		{
 413:Middlewares/Third_Party/FreeRTOS/Source/portable/MemMang/heap_4.c **** 			/* Form one big block from the two blocks. */
 414:Middlewares/Third_Party/FreeRTOS/Source/portable/MemMang/heap_4.c **** 			pxBlockToInsert->xBlockSize += pxIterator->pxNextFreeBlock->xBlockSize;
 415:Middlewares/Third_Party/FreeRTOS/Source/portable/MemMang/heap_4.c **** 			pxBlockToInsert->pxNextFreeBlock = pxIterator->pxNextFreeBlock->pxNextFreeBlock;
 416:Middlewares/Third_Party/FreeRTOS/Source/portable/MemMang/heap_4.c **** 		}
 417:Middlewares/Third_Party/FreeRTOS/Source/portable/MemMang/heap_4.c **** 		else
 418:Middlewares/Third_Party/FreeRTOS/Source/portable/MemMang/heap_4.c **** 		{
 419:Middlewares/Third_Party/FreeRTOS/Source/portable/MemMang/heap_4.c **** 			pxBlockToInsert->pxNextFreeBlock = pxEnd;
 420:Middlewares/Third_Party/FreeRTOS/Source/portable/MemMang/heap_4.c **** 		}
 421:Middlewares/Third_Party/FreeRTOS/Source/portable/MemMang/heap_4.c **** 	}
 422:Middlewares/Third_Party/FreeRTOS/Source/portable/MemMang/heap_4.c **** 	else
 423:Middlewares/Third_Party/FreeRTOS/Source/portable/MemMang/heap_4.c **** 	{
 424:Middlewares/Third_Party/FreeRTOS/Source/portable/MemMang/heap_4.c **** 		pxBlockToInsert->pxNextFreeBlock = pxIterator->pxNextFreeBlock;
  77              		.loc 1 424 3 is_stmt 1 view .LVU20
 425:Middlewares/Third_Party/FreeRTOS/Source/portable/MemMang/heap_4.c **** 	}
 426:Middlewares/Third_Party/FreeRTOS/Source/portable/MemMang/heap_4.c **** 
 427:Middlewares/Third_Party/FreeRTOS/Source/portable/MemMang/heap_4.c **** 	/* If the block being inserted plugged a gab, so was merged with the block
 428:Middlewares/Third_Party/FreeRTOS/Source/portable/MemMang/heap_4.c **** 	before and the block after, then it's pxNextFreeBlock pointer will have
 429:Middlewares/Third_Party/FreeRTOS/Source/portable/MemMang/heap_4.c **** 	already been set, and should not be set here as that would make it point
 430:Middlewares/Third_Party/FreeRTOS/Source/portable/MemMang/heap_4.c **** 	to itself. */
 431:Middlewares/Third_Party/FreeRTOS/Source/portable/MemMang/heap_4.c **** 	if( pxIterator != pxBlockToInsert )
  78              		.loc 1 431 4 is_stmt 0 view .LVU21
  79 0020 9042     		cmp	r0, r2
 424:Middlewares/Third_Party/FreeRTOS/Source/portable/MemMang/heap_4.c **** 	}
ARM GAS  /tmp/ccyYBu53.s 			page 10


  80              		.loc 1 424 36 view .LVU22
  81 0022 0360     		str	r3, [r0]
  82              		.loc 1 431 2 is_stmt 1 view .LVU23
 432:Middlewares/Third_Party/FreeRTOS/Source/portable/MemMang/heap_4.c **** 	{
 433:Middlewares/Third_Party/FreeRTOS/Source/portable/MemMang/heap_4.c **** 		pxIterator->pxNextFreeBlock = pxBlockToInsert;
  83              		.loc 1 433 3 view .LVU24
 434:Middlewares/Third_Party/FreeRTOS/Source/portable/MemMang/heap_4.c **** 	}
 435:Middlewares/Third_Party/FreeRTOS/Source/portable/MemMang/heap_4.c **** 	else
 436:Middlewares/Third_Party/FreeRTOS/Source/portable/MemMang/heap_4.c **** 	{
 437:Middlewares/Third_Party/FreeRTOS/Source/portable/MemMang/heap_4.c **** 		mtCOVERAGE_TEST_MARKER();
 438:Middlewares/Third_Party/FreeRTOS/Source/portable/MemMang/heap_4.c **** 	}
 439:Middlewares/Third_Party/FreeRTOS/Source/portable/MemMang/heap_4.c **** }
  84              		.loc 1 439 1 is_stmt 0 view .LVU25
  85 0024 5DF8044B 		ldr	r4, [sp], #4
  86              	.LCFI1:
  87              		.cfi_remember_state
  88              		.cfi_restore 4
  89              		.cfi_def_cfa_offset 0
 433:Middlewares/Third_Party/FreeRTOS/Source/portable/MemMang/heap_4.c **** 	}
  90              		.loc 1 433 31 view .LVU26
  91 0028 18BF     		it	ne
  92 002a 1060     		strne	r0, [r2]
 437:Middlewares/Third_Party/FreeRTOS/Source/portable/MemMang/heap_4.c **** 	}
  93              		.loc 1 437 27 is_stmt 1 view .LVU27
  94              		.loc 1 439 1 is_stmt 0 view .LVU28
  95 002c 7047     		bx	lr
  96              	.LVL5:
  97              	.L3:
  98              	.LCFI2:
  99              		.cfi_restore_state
 398:Middlewares/Third_Party/FreeRTOS/Source/portable/MemMang/heap_4.c **** 		pxBlockToInsert = pxIterator;
 100              		.loc 1 398 3 is_stmt 1 view .LVU29
 398:Middlewares/Third_Party/FreeRTOS/Source/portable/MemMang/heap_4.c **** 		pxBlockToInsert = pxIterator;
 101              		.loc 1 398 26 is_stmt 0 view .LVU30
 102 002e 4468     		ldr	r4, [r0, #4]
 103 0030 1046     		mov	r0, r2
 104              	.LVL6:
 398:Middlewares/Third_Party/FreeRTOS/Source/portable/MemMang/heap_4.c **** 		pxBlockToInsert = pxIterator;
 105              		.loc 1 398 26 view .LVU31
 106 0032 2144     		add	r1, r1, r4
 409:Middlewares/Third_Party/FreeRTOS/Source/portable/MemMang/heap_4.c **** 	{
 107              		.loc 1 409 12 view .LVU32
 108 0034 00EB010C 		add	ip, r0, r1
 409:Middlewares/Third_Party/FreeRTOS/Source/portable/MemMang/heap_4.c **** 	{
 109              		.loc 1 409 4 view .LVU33
 110 0038 6345     		cmp	r3, ip
 398:Middlewares/Third_Party/FreeRTOS/Source/portable/MemMang/heap_4.c **** 		pxBlockToInsert = pxIterator;
 111              		.loc 1 398 26 view .LVU34
 112 003a 5160     		str	r1, [r2, #4]
 399:Middlewares/Third_Party/FreeRTOS/Source/portable/MemMang/heap_4.c **** 	}
 113              		.loc 1 399 3 is_stmt 1 view .LVU35
 114              	.LVL7:
 403:Middlewares/Third_Party/FreeRTOS/Source/portable/MemMang/heap_4.c **** 	}
 115              		.loc 1 403 27 view .LVU36
 408:Middlewares/Third_Party/FreeRTOS/Source/portable/MemMang/heap_4.c **** 	if( ( puc + pxBlockToInsert->xBlockSize ) == ( uint8_t * ) pxIterator->pxNextFreeBlock )
 116              		.loc 1 408 2 view .LVU37
 409:Middlewares/Third_Party/FreeRTOS/Source/portable/MemMang/heap_4.c **** 	{
ARM GAS  /tmp/ccyYBu53.s 			page 11


 117              		.loc 1 409 2 view .LVU38
 409:Middlewares/Third_Party/FreeRTOS/Source/portable/MemMang/heap_4.c **** 	{
 118              		.loc 1 409 4 is_stmt 0 view .LVU39
 119 003c F0D1     		bne	.L5
 120              	.L12:
 411:Middlewares/Third_Party/FreeRTOS/Source/portable/MemMang/heap_4.c **** 		{
 121              		.loc 1 411 3 is_stmt 1 view .LVU40
 411:Middlewares/Third_Party/FreeRTOS/Source/portable/MemMang/heap_4.c **** 		{
 122              		.loc 1 411 35 is_stmt 0 view .LVU41
 123 003e 084C     		ldr	r4, .L13+4
 124 0040 2468     		ldr	r4, [r4]
 411:Middlewares/Third_Party/FreeRTOS/Source/portable/MemMang/heap_4.c **** 		{
 125              		.loc 1 411 5 view .LVU42
 126 0042 A342     		cmp	r3, r4
 127 0044 ECD0     		beq	.L5
 414:Middlewares/Third_Party/FreeRTOS/Source/portable/MemMang/heap_4.c **** 			pxBlockToInsert->pxNextFreeBlock = pxIterator->pxNextFreeBlock->pxNextFreeBlock;
 128              		.loc 1 414 4 is_stmt 1 view .LVU43
 415:Middlewares/Third_Party/FreeRTOS/Source/portable/MemMang/heap_4.c **** 		}
 129              		.loc 1 415 66 is_stmt 0 view .LVU44
 130 0046 D3E90034 		ldrd	r3, r4, [r3]
 431:Middlewares/Third_Party/FreeRTOS/Source/portable/MemMang/heap_4.c **** 	{
 131              		.loc 1 431 4 view .LVU45
 132 004a 9042     		cmp	r0, r2
 414:Middlewares/Third_Party/FreeRTOS/Source/portable/MemMang/heap_4.c **** 			pxBlockToInsert->pxNextFreeBlock = pxIterator->pxNextFreeBlock->pxNextFreeBlock;
 133              		.loc 1 414 32 view .LVU46
 134 004c 2144     		add	r1, r1, r4
 415:Middlewares/Third_Party/FreeRTOS/Source/portable/MemMang/heap_4.c **** 		}
 135              		.loc 1 415 37 view .LVU47
 136 004e C0E90031 		strd	r3, r1, [r0]
 431:Middlewares/Third_Party/FreeRTOS/Source/portable/MemMang/heap_4.c **** 	{
 137              		.loc 1 431 2 is_stmt 1 view .LVU48
 433:Middlewares/Third_Party/FreeRTOS/Source/portable/MemMang/heap_4.c **** 	}
 138              		.loc 1 433 3 view .LVU49
 139              		.loc 1 439 1 is_stmt 0 view .LVU50
 140 0052 5DF8044B 		ldr	r4, [sp], #4
 141              	.LCFI3:
 142              		.cfi_restore 4
 143              		.cfi_def_cfa_offset 0
 433:Middlewares/Third_Party/FreeRTOS/Source/portable/MemMang/heap_4.c **** 	}
 144              		.loc 1 433 31 view .LVU51
 145 0056 18BF     		it	ne
 146 0058 1060     		strne	r0, [r2]
 437:Middlewares/Third_Party/FreeRTOS/Source/portable/MemMang/heap_4.c **** 	}
 147              		.loc 1 437 27 is_stmt 1 view .LVU52
 148              		.loc 1 439 1 is_stmt 0 view .LVU53
 149 005a 7047     		bx	lr
 150              	.L14:
 151              		.align	2
 152              	.L13:
 153 005c 00000000 		.word	.LANCHOR0
 154 0060 00000000 		.word	.LANCHOR1
 155              		.cfi_endproc
 156              	.LFE11:
 158              		.section	.text.pvPortMalloc,"ax",%progbits
 159              		.align	1
 160              		.p2align 2,,3
 161              		.global	pvPortMalloc
ARM GAS  /tmp/ccyYBu53.s 			page 12


 162              		.syntax unified
 163              		.thumb
 164              		.thumb_func
 166              	pvPortMalloc:
 167              	.LVL8:
 168              	.LFB5:
 116:Middlewares/Third_Party/FreeRTOS/Source/portable/MemMang/heap_4.c **** BlockLink_t *pxBlock, *pxPreviousBlock, *pxNewBlockLink;
 169              		.loc 1 116 1 is_stmt 1 view -0
 170              		.cfi_startproc
 171              		@ args = 0, pretend = 0, frame = 0
 172              		@ frame_needed = 0, uses_anonymous_args = 0
 117:Middlewares/Third_Party/FreeRTOS/Source/portable/MemMang/heap_4.c **** void *pvReturn = NULL;
 173              		.loc 1 117 1 view .LVU55
 118:Middlewares/Third_Party/FreeRTOS/Source/portable/MemMang/heap_4.c **** 
 174              		.loc 1 118 1 view .LVU56
 120:Middlewares/Third_Party/FreeRTOS/Source/portable/MemMang/heap_4.c **** 	{
 175              		.loc 1 120 2 view .LVU57
 116:Middlewares/Third_Party/FreeRTOS/Source/portable/MemMang/heap_4.c **** BlockLink_t *pxBlock, *pxPreviousBlock, *pxNewBlockLink;
 176              		.loc 1 116 1 is_stmt 0 view .LVU58
 177 0000 2DE9F041 		push	{r4, r5, r6, r7, r8, lr}
 178              	.LCFI4:
 179              		.cfi_def_cfa_offset 24
 180              		.cfi_offset 4, -24
 181              		.cfi_offset 5, -20
 182              		.cfi_offset 6, -16
 183              		.cfi_offset 7, -12
 184              		.cfi_offset 8, -8
 185              		.cfi_offset 14, -4
 124:Middlewares/Third_Party/FreeRTOS/Source/portable/MemMang/heap_4.c **** 		{
 186              		.loc 1 124 13 view .LVU59
 187 0004 434E     		ldr	r6, .L46
 116:Middlewares/Third_Party/FreeRTOS/Source/portable/MemMang/heap_4.c **** BlockLink_t *pxBlock, *pxPreviousBlock, *pxNewBlockLink;
 188              		.loc 1 116 1 view .LVU60
 189 0006 0446     		mov	r4, r0
 120:Middlewares/Third_Party/FreeRTOS/Source/portable/MemMang/heap_4.c **** 	{
 190              		.loc 1 120 2 view .LVU61
 191 0008 FFF7FEFF 		bl	vTaskSuspendAll
 192              	.LVL9:
 124:Middlewares/Third_Party/FreeRTOS/Source/portable/MemMang/heap_4.c **** 		{
 193              		.loc 1 124 3 is_stmt 1 view .LVU62
 124:Middlewares/Third_Party/FreeRTOS/Source/portable/MemMang/heap_4.c **** 		{
 194              		.loc 1 124 5 is_stmt 0 view .LVU63
 195 000c 3368     		ldr	r3, [r6]
 196 000e 002B     		cmp	r3, #0
 197 0010 5DD0     		beq	.L16
 137:Middlewares/Third_Party/FreeRTOS/Source/portable/MemMang/heap_4.c **** 		{
 198              		.loc 1 137 21 view .LVU64
 199 0012 414B     		ldr	r3, .L46+4
 200 0014 1D68     		ldr	r5, [r3]
 201              	.L17:
 130:Middlewares/Third_Party/FreeRTOS/Source/portable/MemMang/heap_4.c **** 		}
 202              		.loc 1 130 28 is_stmt 1 view .LVU65
 137:Middlewares/Third_Party/FreeRTOS/Source/portable/MemMang/heap_4.c **** 		{
 203              		.loc 1 137 3 view .LVU66
 137:Middlewares/Third_Party/FreeRTOS/Source/portable/MemMang/heap_4.c **** 		{
 204              		.loc 1 137 5 is_stmt 0 view .LVU67
 205 0016 2C42     		tst	r4, r5
ARM GAS  /tmp/ccyYBu53.s 			page 13


 206 0018 2FD1     		bne	.L22
 141:Middlewares/Third_Party/FreeRTOS/Source/portable/MemMang/heap_4.c **** 			{
 207              		.loc 1 141 4 is_stmt 1 view .LVU68
 141:Middlewares/Third_Party/FreeRTOS/Source/portable/MemMang/heap_4.c **** 			{
 208              		.loc 1 141 6 is_stmt 0 view .LVU69
 209 001a 74B3     		cbz	r4, .L22
 143:Middlewares/Third_Party/FreeRTOS/Source/portable/MemMang/heap_4.c **** 
 210              		.loc 1 143 5 is_stmt 1 view .LVU70
 143:Middlewares/Third_Party/FreeRTOS/Source/portable/MemMang/heap_4.c **** 
 211              		.loc 1 143 17 is_stmt 0 view .LVU71
 212 001c 04F10801 		add	r1, r4, #8
 213              	.LVL10:
 147:Middlewares/Third_Party/FreeRTOS/Source/portable/MemMang/heap_4.c **** 				{
 214              		.loc 1 147 5 is_stmt 1 view .LVU72
 147:Middlewares/Third_Party/FreeRTOS/Source/portable/MemMang/heap_4.c **** 				{
 215              		.loc 1 147 7 is_stmt 0 view .LVU73
 216 0020 6007     		lsls	r0, r4, #29
 150:Middlewares/Third_Party/FreeRTOS/Source/portable/MemMang/heap_4.c **** 					configASSERT( ( xWantedSize & portBYTE_ALIGNMENT_MASK ) == 0 );
 217              		.loc 1 150 6 is_stmt 1 view .LVU74
 150:Middlewares/Third_Party/FreeRTOS/Source/portable/MemMang/heap_4.c **** 					configASSERT( ( xWantedSize & portBYTE_ALIGNMENT_MASK ) == 0 );
 218              		.loc 1 150 18 is_stmt 0 view .LVU75
 219 0022 1CBF     		itt	ne
 220 0024 21F00701 		bicne	r1, r1, #7
 221              	.LVL11:
 150:Middlewares/Third_Party/FreeRTOS/Source/portable/MemMang/heap_4.c **** 					configASSERT( ( xWantedSize & portBYTE_ALIGNMENT_MASK ) == 0 );
 222              		.loc 1 150 18 view .LVU76
 223 0028 0831     		addne	r1, r1, #8
 224              	.LVL12:
 151:Middlewares/Third_Party/FreeRTOS/Source/portable/MemMang/heap_4.c **** 				}
 225              		.loc 1 151 6 is_stmt 1 view .LVU77
 160:Middlewares/Third_Party/FreeRTOS/Source/portable/MemMang/heap_4.c **** 			}
 226              		.loc 1 160 29 view .LVU78
 163:Middlewares/Third_Party/FreeRTOS/Source/portable/MemMang/heap_4.c **** 			{
 227              		.loc 1 163 4 view .LVU79
 163:Middlewares/Third_Party/FreeRTOS/Source/portable/MemMang/heap_4.c **** 			{
 228              		.loc 1 163 6 is_stmt 0 view .LVU80
 229 002a 31B3     		cbz	r1, .L22
 163:Middlewares/Third_Party/FreeRTOS/Source/portable/MemMang/heap_4.c **** 			{
 230              		.loc 1 163 45 discriminator 1 view .LVU81
 231 002c DFF8FC80 		ldr	r8, .L46+24
 232 0030 D8F80070 		ldr	r7, [r8]
 163:Middlewares/Third_Party/FreeRTOS/Source/portable/MemMang/heap_4.c **** 			{
 233              		.loc 1 163 28 discriminator 1 view .LVU82
 234 0034 8F42     		cmp	r7, r1
 235 0036 20D3     		bcc	.L22
 167:Middlewares/Third_Party/FreeRTOS/Source/portable/MemMang/heap_4.c **** 				pxBlock = xStart.pxNextFreeBlock;
 236              		.loc 1 167 5 is_stmt 1 view .LVU83
 237              	.LVL13:
 168:Middlewares/Third_Party/FreeRTOS/Source/portable/MemMang/heap_4.c **** 				while( ( pxBlock->xBlockSize < xWantedSize ) && ( pxBlock->pxNextFreeBlock != NULL ) )
 238              		.loc 1 168 5 view .LVU84
 168:Middlewares/Third_Party/FreeRTOS/Source/portable/MemMang/heap_4.c **** 				while( ( pxBlock->xBlockSize < xWantedSize ) && ( pxBlock->pxNextFreeBlock != NULL ) )
 239              		.loc 1 168 13 is_stmt 0 view .LVU85
 240 0038 3848     		ldr	r0, .L46+8
 241 003a 0468     		ldr	r4, [r0]
 242              	.LVL14:
 169:Middlewares/Third_Party/FreeRTOS/Source/portable/MemMang/heap_4.c **** 				{
 243              		.loc 1 169 5 is_stmt 1 view .LVU86
ARM GAS  /tmp/ccyYBu53.s 			page 14


 169:Middlewares/Third_Party/FreeRTOS/Source/portable/MemMang/heap_4.c **** 				{
 244              		.loc 1 169 10 is_stmt 0 view .LVU87
 245 003c 03E0     		b	.L25
 246              	.LVL15:
 247              	.L45:
 169:Middlewares/Third_Party/FreeRTOS/Source/portable/MemMang/heap_4.c **** 				{
 248              		.loc 1 169 62 discriminator 1 view .LVU88
 249 003e 2368     		ldr	r3, [r4]
 169:Middlewares/Third_Party/FreeRTOS/Source/portable/MemMang/heap_4.c **** 				{
 250              		.loc 1 169 50 discriminator 1 view .LVU89
 251 0040 23B1     		cbz	r3, .L24
 169:Middlewares/Third_Party/FreeRTOS/Source/portable/MemMang/heap_4.c **** 				{
 252              		.loc 1 169 50 discriminator 1 view .LVU90
 253 0042 2046     		mov	r0, r4
 254 0044 1C46     		mov	r4, r3
 255              	.LVL16:
 256              	.L25:
 169:Middlewares/Third_Party/FreeRTOS/Source/portable/MemMang/heap_4.c **** 				{
 257              		.loc 1 169 10 is_stmt 1 view .LVU91
 169:Middlewares/Third_Party/FreeRTOS/Source/portable/MemMang/heap_4.c **** 				{
 258              		.loc 1 169 21 is_stmt 0 view .LVU92
 259 0046 6268     		ldr	r2, [r4, #4]
 169:Middlewares/Third_Party/FreeRTOS/Source/portable/MemMang/heap_4.c **** 				{
 260              		.loc 1 169 10 view .LVU93
 261 0048 8A42     		cmp	r2, r1
 262 004a F8D3     		bcc	.L45
 263              	.L24:
 177:Middlewares/Third_Party/FreeRTOS/Source/portable/MemMang/heap_4.c **** 				{
 264              		.loc 1 177 5 is_stmt 1 view .LVU94
 177:Middlewares/Third_Party/FreeRTOS/Source/portable/MemMang/heap_4.c **** 				{
 265              		.loc 1 177 7 is_stmt 0 view .LVU95
 266 004c 3368     		ldr	r3, [r6]
 267 004e A342     		cmp	r3, r4
 268 0050 13D0     		beq	.L22
 181:Middlewares/Third_Party/FreeRTOS/Source/portable/MemMang/heap_4.c **** 
 269              		.loc 1 181 6 is_stmt 1 view .LVU96
 185:Middlewares/Third_Party/FreeRTOS/Source/portable/MemMang/heap_4.c **** 
 270              		.loc 1 185 48 is_stmt 0 view .LVU97
 271 0052 2368     		ldr	r3, [r4]
 181:Middlewares/Third_Party/FreeRTOS/Source/portable/MemMang/heap_4.c **** 
 272              		.loc 1 181 15 view .LVU98
 273 0054 0668     		ldr	r6, [r0]
 185:Middlewares/Third_Party/FreeRTOS/Source/portable/MemMang/heap_4.c **** 
 274              		.loc 1 185 39 view .LVU99
 275 0056 0360     		str	r3, [r0]
 189:Middlewares/Third_Party/FreeRTOS/Source/portable/MemMang/heap_4.c **** 					{
 276              		.loc 1 189 32 view .LVU100
 277 0058 531A     		subs	r3, r2, r1
 189:Middlewares/Third_Party/FreeRTOS/Source/portable/MemMang/heap_4.c **** 					{
 278              		.loc 1 189 8 view .LVU101
 279 005a 102B     		cmp	r3, #16
 181:Middlewares/Third_Party/FreeRTOS/Source/portable/MemMang/heap_4.c **** 
 280              		.loc 1 181 15 view .LVU102
 281 005c 06F10806 		add	r6, r6, #8
 282              	.LVL17:
 185:Middlewares/Third_Party/FreeRTOS/Source/portable/MemMang/heap_4.c **** 
 283              		.loc 1 185 6 is_stmt 1 view .LVU103
ARM GAS  /tmp/ccyYBu53.s 			page 15


 189:Middlewares/Third_Party/FreeRTOS/Source/portable/MemMang/heap_4.c **** 					{
 284              		.loc 1 189 6 view .LVU104
 189:Middlewares/Third_Party/FreeRTOS/Source/portable/MemMang/heap_4.c **** 					{
 285              		.loc 1 189 8 is_stmt 0 view .LVU105
 286 0060 18D9     		bls	.L26
 195:Middlewares/Third_Party/FreeRTOS/Source/portable/MemMang/heap_4.c **** 						configASSERT( ( ( ( size_t ) pxNewBlockLink ) & portBYTE_ALIGNMENT_MASK ) == 0 );
 287              		.loc 1 195 7 is_stmt 1 view .LVU106
 195:Middlewares/Third_Party/FreeRTOS/Source/portable/MemMang/heap_4.c **** 						configASSERT( ( ( ( size_t ) pxNewBlockLink ) & portBYTE_ALIGNMENT_MASK ) == 0 );
 288              		.loc 1 195 22 is_stmt 0 view .LVU107
 289 0062 6018     		adds	r0, r4, r1
 290              	.LVL18:
 196:Middlewares/Third_Party/FreeRTOS/Source/portable/MemMang/heap_4.c **** 
 291              		.loc 1 196 7 is_stmt 1 view .LVU108
 292 0064 4207     		lsls	r2, r0, #29
 293 0066 10D0     		beq	.L27
 196:Middlewares/Third_Party/FreeRTOS/Source/portable/MemMang/heap_4.c **** 
 294              		.loc 1 196 7 view .LVU109
 295              	.LBB20:
 296              	.LBI20:
 297              		.file 2 "Middlewares/Third_Party/FreeRTOS/Source/portable/GCC/ARM_CM4F/portmacro.h"
   1:Middlewares/Third_Party/FreeRTOS/Source/portable/GCC/ARM_CM4F/portmacro.h **** /*
   2:Middlewares/Third_Party/FreeRTOS/Source/portable/GCC/ARM_CM4F/portmacro.h ****  * FreeRTOS Kernel V10.3.1
   3:Middlewares/Third_Party/FreeRTOS/Source/portable/GCC/ARM_CM4F/portmacro.h ****  * Copyright (C) 2020 Amazon.com, Inc. or its affiliates.  All Rights Reserved.
   4:Middlewares/Third_Party/FreeRTOS/Source/portable/GCC/ARM_CM4F/portmacro.h ****  *
   5:Middlewares/Third_Party/FreeRTOS/Source/portable/GCC/ARM_CM4F/portmacro.h ****  * Permission is hereby granted, free of charge, to any person obtaining a copy of
   6:Middlewares/Third_Party/FreeRTOS/Source/portable/GCC/ARM_CM4F/portmacro.h ****  * this software and associated documentation files (the "Software"), to deal in
   7:Middlewares/Third_Party/FreeRTOS/Source/portable/GCC/ARM_CM4F/portmacro.h ****  * the Software without restriction, including without limitation the rights to
   8:Middlewares/Third_Party/FreeRTOS/Source/portable/GCC/ARM_CM4F/portmacro.h ****  * use, copy, modify, merge, publish, distribute, sublicense, and/or sell copies of
   9:Middlewares/Third_Party/FreeRTOS/Source/portable/GCC/ARM_CM4F/portmacro.h ****  * the Software, and to permit persons to whom the Software is furnished to do so,
  10:Middlewares/Third_Party/FreeRTOS/Source/portable/GCC/ARM_CM4F/portmacro.h ****  * subject to the following conditions:
  11:Middlewares/Third_Party/FreeRTOS/Source/portable/GCC/ARM_CM4F/portmacro.h ****  *
  12:Middlewares/Third_Party/FreeRTOS/Source/portable/GCC/ARM_CM4F/portmacro.h ****  * The above copyright notice and this permission notice shall be included in all
  13:Middlewares/Third_Party/FreeRTOS/Source/portable/GCC/ARM_CM4F/portmacro.h ****  * copies or substantial portions of the Software.
  14:Middlewares/Third_Party/FreeRTOS/Source/portable/GCC/ARM_CM4F/portmacro.h ****  *
  15:Middlewares/Third_Party/FreeRTOS/Source/portable/GCC/ARM_CM4F/portmacro.h ****  * THE SOFTWARE IS PROVIDED "AS IS", WITHOUT WARRANTY OF ANY KIND, EXPRESS OR
  16:Middlewares/Third_Party/FreeRTOS/Source/portable/GCC/ARM_CM4F/portmacro.h ****  * IMPLIED, INCLUDING BUT NOT LIMITED TO THE WARRANTIES OF MERCHANTABILITY, FITNESS
  17:Middlewares/Third_Party/FreeRTOS/Source/portable/GCC/ARM_CM4F/portmacro.h ****  * FOR A PARTICULAR PURPOSE AND NONINFRINGEMENT. IN NO EVENT SHALL THE AUTHORS OR
  18:Middlewares/Third_Party/FreeRTOS/Source/portable/GCC/ARM_CM4F/portmacro.h ****  * COPYRIGHT HOLDERS BE LIABLE FOR ANY CLAIM, DAMAGES OR OTHER LIABILITY, WHETHER
  19:Middlewares/Third_Party/FreeRTOS/Source/portable/GCC/ARM_CM4F/portmacro.h ****  * IN AN ACTION OF CONTRACT, TORT OR OTHERWISE, ARISING FROM, OUT OF OR IN
  20:Middlewares/Third_Party/FreeRTOS/Source/portable/GCC/ARM_CM4F/portmacro.h ****  * CONNECTION WITH THE SOFTWARE OR THE USE OR OTHER DEALINGS IN THE SOFTWARE.
  21:Middlewares/Third_Party/FreeRTOS/Source/portable/GCC/ARM_CM4F/portmacro.h ****  *
  22:Middlewares/Third_Party/FreeRTOS/Source/portable/GCC/ARM_CM4F/portmacro.h ****  * http://www.FreeRTOS.org
  23:Middlewares/Third_Party/FreeRTOS/Source/portable/GCC/ARM_CM4F/portmacro.h ****  * http://aws.amazon.com/freertos
  24:Middlewares/Third_Party/FreeRTOS/Source/portable/GCC/ARM_CM4F/portmacro.h ****  *
  25:Middlewares/Third_Party/FreeRTOS/Source/portable/GCC/ARM_CM4F/portmacro.h ****  * 1 tab == 4 spaces!
  26:Middlewares/Third_Party/FreeRTOS/Source/portable/GCC/ARM_CM4F/portmacro.h ****  */
  27:Middlewares/Third_Party/FreeRTOS/Source/portable/GCC/ARM_CM4F/portmacro.h **** 
  28:Middlewares/Third_Party/FreeRTOS/Source/portable/GCC/ARM_CM4F/portmacro.h **** 
  29:Middlewares/Third_Party/FreeRTOS/Source/portable/GCC/ARM_CM4F/portmacro.h **** #ifndef PORTMACRO_H
  30:Middlewares/Third_Party/FreeRTOS/Source/portable/GCC/ARM_CM4F/portmacro.h **** #define PORTMACRO_H
  31:Middlewares/Third_Party/FreeRTOS/Source/portable/GCC/ARM_CM4F/portmacro.h **** 
  32:Middlewares/Third_Party/FreeRTOS/Source/portable/GCC/ARM_CM4F/portmacro.h **** #ifdef __cplusplus
  33:Middlewares/Third_Party/FreeRTOS/Source/portable/GCC/ARM_CM4F/portmacro.h **** extern "C" {
  34:Middlewares/Third_Party/FreeRTOS/Source/portable/GCC/ARM_CM4F/portmacro.h **** #endif
  35:Middlewares/Third_Party/FreeRTOS/Source/portable/GCC/ARM_CM4F/portmacro.h **** 
  36:Middlewares/Third_Party/FreeRTOS/Source/portable/GCC/ARM_CM4F/portmacro.h **** /*-----------------------------------------------------------
  37:Middlewares/Third_Party/FreeRTOS/Source/portable/GCC/ARM_CM4F/portmacro.h ****  * Port specific definitions.
ARM GAS  /tmp/ccyYBu53.s 			page 16


  38:Middlewares/Third_Party/FreeRTOS/Source/portable/GCC/ARM_CM4F/portmacro.h ****  *
  39:Middlewares/Third_Party/FreeRTOS/Source/portable/GCC/ARM_CM4F/portmacro.h ****  * The settings in this file configure FreeRTOS correctly for the
  40:Middlewares/Third_Party/FreeRTOS/Source/portable/GCC/ARM_CM4F/portmacro.h ****  * given hardware and compiler.
  41:Middlewares/Third_Party/FreeRTOS/Source/portable/GCC/ARM_CM4F/portmacro.h ****  *
  42:Middlewares/Third_Party/FreeRTOS/Source/portable/GCC/ARM_CM4F/portmacro.h ****  * These settings should not be altered.
  43:Middlewares/Third_Party/FreeRTOS/Source/portable/GCC/ARM_CM4F/portmacro.h ****  *-----------------------------------------------------------
  44:Middlewares/Third_Party/FreeRTOS/Source/portable/GCC/ARM_CM4F/portmacro.h ****  */
  45:Middlewares/Third_Party/FreeRTOS/Source/portable/GCC/ARM_CM4F/portmacro.h **** 
  46:Middlewares/Third_Party/FreeRTOS/Source/portable/GCC/ARM_CM4F/portmacro.h **** /* Type definitions. */
  47:Middlewares/Third_Party/FreeRTOS/Source/portable/GCC/ARM_CM4F/portmacro.h **** #define portCHAR		char
  48:Middlewares/Third_Party/FreeRTOS/Source/portable/GCC/ARM_CM4F/portmacro.h **** #define portFLOAT		float
  49:Middlewares/Third_Party/FreeRTOS/Source/portable/GCC/ARM_CM4F/portmacro.h **** #define portDOUBLE		double
  50:Middlewares/Third_Party/FreeRTOS/Source/portable/GCC/ARM_CM4F/portmacro.h **** #define portLONG		long
  51:Middlewares/Third_Party/FreeRTOS/Source/portable/GCC/ARM_CM4F/portmacro.h **** #define portSHORT		short
  52:Middlewares/Third_Party/FreeRTOS/Source/portable/GCC/ARM_CM4F/portmacro.h **** #define portSTACK_TYPE	uint32_t
  53:Middlewares/Third_Party/FreeRTOS/Source/portable/GCC/ARM_CM4F/portmacro.h **** #define portBASE_TYPE	long
  54:Middlewares/Third_Party/FreeRTOS/Source/portable/GCC/ARM_CM4F/portmacro.h **** 
  55:Middlewares/Third_Party/FreeRTOS/Source/portable/GCC/ARM_CM4F/portmacro.h **** typedef portSTACK_TYPE StackType_t;
  56:Middlewares/Third_Party/FreeRTOS/Source/portable/GCC/ARM_CM4F/portmacro.h **** typedef long BaseType_t;
  57:Middlewares/Third_Party/FreeRTOS/Source/portable/GCC/ARM_CM4F/portmacro.h **** typedef unsigned long UBaseType_t;
  58:Middlewares/Third_Party/FreeRTOS/Source/portable/GCC/ARM_CM4F/portmacro.h **** 
  59:Middlewares/Third_Party/FreeRTOS/Source/portable/GCC/ARM_CM4F/portmacro.h **** #if( configUSE_16_BIT_TICKS == 1 )
  60:Middlewares/Third_Party/FreeRTOS/Source/portable/GCC/ARM_CM4F/portmacro.h **** 	typedef uint16_t TickType_t;
  61:Middlewares/Third_Party/FreeRTOS/Source/portable/GCC/ARM_CM4F/portmacro.h **** 	#define portMAX_DELAY ( TickType_t ) 0xffff
  62:Middlewares/Third_Party/FreeRTOS/Source/portable/GCC/ARM_CM4F/portmacro.h **** #else
  63:Middlewares/Third_Party/FreeRTOS/Source/portable/GCC/ARM_CM4F/portmacro.h **** 	typedef uint32_t TickType_t;
  64:Middlewares/Third_Party/FreeRTOS/Source/portable/GCC/ARM_CM4F/portmacro.h **** 	#define portMAX_DELAY ( TickType_t ) 0xffffffffUL
  65:Middlewares/Third_Party/FreeRTOS/Source/portable/GCC/ARM_CM4F/portmacro.h **** 
  66:Middlewares/Third_Party/FreeRTOS/Source/portable/GCC/ARM_CM4F/portmacro.h **** 	/* 32-bit tick type on a 32-bit architecture, so reads of the tick count do
  67:Middlewares/Third_Party/FreeRTOS/Source/portable/GCC/ARM_CM4F/portmacro.h **** 	not need to be guarded with a critical section. */
  68:Middlewares/Third_Party/FreeRTOS/Source/portable/GCC/ARM_CM4F/portmacro.h **** 	#define portTICK_TYPE_IS_ATOMIC 1
  69:Middlewares/Third_Party/FreeRTOS/Source/portable/GCC/ARM_CM4F/portmacro.h **** #endif
  70:Middlewares/Third_Party/FreeRTOS/Source/portable/GCC/ARM_CM4F/portmacro.h **** /*-----------------------------------------------------------*/
  71:Middlewares/Third_Party/FreeRTOS/Source/portable/GCC/ARM_CM4F/portmacro.h **** 
  72:Middlewares/Third_Party/FreeRTOS/Source/portable/GCC/ARM_CM4F/portmacro.h **** /* Architecture specifics. */
  73:Middlewares/Third_Party/FreeRTOS/Source/portable/GCC/ARM_CM4F/portmacro.h **** #define portSTACK_GROWTH			( -1 )
  74:Middlewares/Third_Party/FreeRTOS/Source/portable/GCC/ARM_CM4F/portmacro.h **** #define portTICK_PERIOD_MS			( ( TickType_t ) 1000 / configTICK_RATE_HZ )
  75:Middlewares/Third_Party/FreeRTOS/Source/portable/GCC/ARM_CM4F/portmacro.h **** #define portBYTE_ALIGNMENT			8
  76:Middlewares/Third_Party/FreeRTOS/Source/portable/GCC/ARM_CM4F/portmacro.h **** /*-----------------------------------------------------------*/
  77:Middlewares/Third_Party/FreeRTOS/Source/portable/GCC/ARM_CM4F/portmacro.h **** 
  78:Middlewares/Third_Party/FreeRTOS/Source/portable/GCC/ARM_CM4F/portmacro.h **** /* Scheduler utilities. */
  79:Middlewares/Third_Party/FreeRTOS/Source/portable/GCC/ARM_CM4F/portmacro.h **** #define portYIELD() 															\
  80:Middlewares/Third_Party/FreeRTOS/Source/portable/GCC/ARM_CM4F/portmacro.h **** {																				\
  81:Middlewares/Third_Party/FreeRTOS/Source/portable/GCC/ARM_CM4F/portmacro.h **** 	/* Set a PendSV to request a context switch. */								\
  82:Middlewares/Third_Party/FreeRTOS/Source/portable/GCC/ARM_CM4F/portmacro.h **** 	portNVIC_INT_CTRL_REG = portNVIC_PENDSVSET_BIT;								\
  83:Middlewares/Third_Party/FreeRTOS/Source/portable/GCC/ARM_CM4F/portmacro.h **** 																				\
  84:Middlewares/Third_Party/FreeRTOS/Source/portable/GCC/ARM_CM4F/portmacro.h **** 	/* Barriers are normally not required but do ensure the code is completely	\
  85:Middlewares/Third_Party/FreeRTOS/Source/portable/GCC/ARM_CM4F/portmacro.h **** 	within the specified behaviour for the architecture. */						\
  86:Middlewares/Third_Party/FreeRTOS/Source/portable/GCC/ARM_CM4F/portmacro.h **** 	__asm volatile( "dsb" ::: "memory" );										\
  87:Middlewares/Third_Party/FreeRTOS/Source/portable/GCC/ARM_CM4F/portmacro.h **** 	__asm volatile( "isb" );													\
  88:Middlewares/Third_Party/FreeRTOS/Source/portable/GCC/ARM_CM4F/portmacro.h **** }
  89:Middlewares/Third_Party/FreeRTOS/Source/portable/GCC/ARM_CM4F/portmacro.h **** 
  90:Middlewares/Third_Party/FreeRTOS/Source/portable/GCC/ARM_CM4F/portmacro.h **** #define portNVIC_INT_CTRL_REG		( * ( ( volatile uint32_t * ) 0xe000ed04 ) )
  91:Middlewares/Third_Party/FreeRTOS/Source/portable/GCC/ARM_CM4F/portmacro.h **** #define portNVIC_PENDSVSET_BIT		( 1UL << 28UL )
  92:Middlewares/Third_Party/FreeRTOS/Source/portable/GCC/ARM_CM4F/portmacro.h **** #define portEND_SWITCHING_ISR( xSwitchRequired ) if( xSwitchRequired != pdFALSE ) portYIELD()
  93:Middlewares/Third_Party/FreeRTOS/Source/portable/GCC/ARM_CM4F/portmacro.h **** #define portYIELD_FROM_ISR( x ) portEND_SWITCHING_ISR( x )
  94:Middlewares/Third_Party/FreeRTOS/Source/portable/GCC/ARM_CM4F/portmacro.h **** /*-----------------------------------------------------------*/
ARM GAS  /tmp/ccyYBu53.s 			page 17


  95:Middlewares/Third_Party/FreeRTOS/Source/portable/GCC/ARM_CM4F/portmacro.h **** 
  96:Middlewares/Third_Party/FreeRTOS/Source/portable/GCC/ARM_CM4F/portmacro.h **** /* Critical section management. */
  97:Middlewares/Third_Party/FreeRTOS/Source/portable/GCC/ARM_CM4F/portmacro.h **** extern void vPortEnterCritical( void );
  98:Middlewares/Third_Party/FreeRTOS/Source/portable/GCC/ARM_CM4F/portmacro.h **** extern void vPortExitCritical( void );
  99:Middlewares/Third_Party/FreeRTOS/Source/portable/GCC/ARM_CM4F/portmacro.h **** #define portSET_INTERRUPT_MASK_FROM_ISR()		ulPortRaiseBASEPRI()
 100:Middlewares/Third_Party/FreeRTOS/Source/portable/GCC/ARM_CM4F/portmacro.h **** #define portCLEAR_INTERRUPT_MASK_FROM_ISR(x)	vPortSetBASEPRI(x)
 101:Middlewares/Third_Party/FreeRTOS/Source/portable/GCC/ARM_CM4F/portmacro.h **** #define portDISABLE_INTERRUPTS()				vPortRaiseBASEPRI()
 102:Middlewares/Third_Party/FreeRTOS/Source/portable/GCC/ARM_CM4F/portmacro.h **** #define portENABLE_INTERRUPTS()					vPortSetBASEPRI(0)
 103:Middlewares/Third_Party/FreeRTOS/Source/portable/GCC/ARM_CM4F/portmacro.h **** #define portENTER_CRITICAL()					vPortEnterCritical()
 104:Middlewares/Third_Party/FreeRTOS/Source/portable/GCC/ARM_CM4F/portmacro.h **** #define portEXIT_CRITICAL()						vPortExitCritical()
 105:Middlewares/Third_Party/FreeRTOS/Source/portable/GCC/ARM_CM4F/portmacro.h **** 
 106:Middlewares/Third_Party/FreeRTOS/Source/portable/GCC/ARM_CM4F/portmacro.h **** /*-----------------------------------------------------------*/
 107:Middlewares/Third_Party/FreeRTOS/Source/portable/GCC/ARM_CM4F/portmacro.h **** 
 108:Middlewares/Third_Party/FreeRTOS/Source/portable/GCC/ARM_CM4F/portmacro.h **** /* Task function macros as described on the FreeRTOS.org WEB site.  These are
 109:Middlewares/Third_Party/FreeRTOS/Source/portable/GCC/ARM_CM4F/portmacro.h **** not necessary for to use this port.  They are defined so the common demo files
 110:Middlewares/Third_Party/FreeRTOS/Source/portable/GCC/ARM_CM4F/portmacro.h **** (which build with all the ports) will build. */
 111:Middlewares/Third_Party/FreeRTOS/Source/portable/GCC/ARM_CM4F/portmacro.h **** #define portTASK_FUNCTION_PROTO( vFunction, pvParameters ) void vFunction( void *pvParameters )
 112:Middlewares/Third_Party/FreeRTOS/Source/portable/GCC/ARM_CM4F/portmacro.h **** #define portTASK_FUNCTION( vFunction, pvParameters ) void vFunction( void *pvParameters )
 113:Middlewares/Third_Party/FreeRTOS/Source/portable/GCC/ARM_CM4F/portmacro.h **** /*-----------------------------------------------------------*/
 114:Middlewares/Third_Party/FreeRTOS/Source/portable/GCC/ARM_CM4F/portmacro.h **** 
 115:Middlewares/Third_Party/FreeRTOS/Source/portable/GCC/ARM_CM4F/portmacro.h **** /* Tickless idle/low power functionality. */
 116:Middlewares/Third_Party/FreeRTOS/Source/portable/GCC/ARM_CM4F/portmacro.h **** #ifndef portSUPPRESS_TICKS_AND_SLEEP
 117:Middlewares/Third_Party/FreeRTOS/Source/portable/GCC/ARM_CM4F/portmacro.h **** 	extern void vPortSuppressTicksAndSleep( TickType_t xExpectedIdleTime );
 118:Middlewares/Third_Party/FreeRTOS/Source/portable/GCC/ARM_CM4F/portmacro.h **** 	#define portSUPPRESS_TICKS_AND_SLEEP( xExpectedIdleTime ) vPortSuppressTicksAndSleep( xExpectedIdl
 119:Middlewares/Third_Party/FreeRTOS/Source/portable/GCC/ARM_CM4F/portmacro.h **** #endif
 120:Middlewares/Third_Party/FreeRTOS/Source/portable/GCC/ARM_CM4F/portmacro.h **** /*-----------------------------------------------------------*/
 121:Middlewares/Third_Party/FreeRTOS/Source/portable/GCC/ARM_CM4F/portmacro.h **** 
 122:Middlewares/Third_Party/FreeRTOS/Source/portable/GCC/ARM_CM4F/portmacro.h **** /* Architecture specific optimisations. */
 123:Middlewares/Third_Party/FreeRTOS/Source/portable/GCC/ARM_CM4F/portmacro.h **** #ifndef configUSE_PORT_OPTIMISED_TASK_SELECTION
 124:Middlewares/Third_Party/FreeRTOS/Source/portable/GCC/ARM_CM4F/portmacro.h **** 	#define configUSE_PORT_OPTIMISED_TASK_SELECTION 1
 125:Middlewares/Third_Party/FreeRTOS/Source/portable/GCC/ARM_CM4F/portmacro.h **** #endif
 126:Middlewares/Third_Party/FreeRTOS/Source/portable/GCC/ARM_CM4F/portmacro.h **** 
 127:Middlewares/Third_Party/FreeRTOS/Source/portable/GCC/ARM_CM4F/portmacro.h **** #if configUSE_PORT_OPTIMISED_TASK_SELECTION == 1
 128:Middlewares/Third_Party/FreeRTOS/Source/portable/GCC/ARM_CM4F/portmacro.h **** 
 129:Middlewares/Third_Party/FreeRTOS/Source/portable/GCC/ARM_CM4F/portmacro.h **** 	/* Generic helper function. */
 130:Middlewares/Third_Party/FreeRTOS/Source/portable/GCC/ARM_CM4F/portmacro.h **** 	__attribute__( ( always_inline ) ) static inline uint8_t ucPortCountLeadingZeros( uint32_t ulBitma
 131:Middlewares/Third_Party/FreeRTOS/Source/portable/GCC/ARM_CM4F/portmacro.h **** 	{
 132:Middlewares/Third_Party/FreeRTOS/Source/portable/GCC/ARM_CM4F/portmacro.h **** 	uint8_t ucReturn;
 133:Middlewares/Third_Party/FreeRTOS/Source/portable/GCC/ARM_CM4F/portmacro.h **** 
 134:Middlewares/Third_Party/FreeRTOS/Source/portable/GCC/ARM_CM4F/portmacro.h **** 		__asm volatile ( "clz %0, %1" : "=r" ( ucReturn ) : "r" ( ulBitmap ) : "memory" );
 135:Middlewares/Third_Party/FreeRTOS/Source/portable/GCC/ARM_CM4F/portmacro.h **** 		return ucReturn;
 136:Middlewares/Third_Party/FreeRTOS/Source/portable/GCC/ARM_CM4F/portmacro.h **** 	}
 137:Middlewares/Third_Party/FreeRTOS/Source/portable/GCC/ARM_CM4F/portmacro.h **** 
 138:Middlewares/Third_Party/FreeRTOS/Source/portable/GCC/ARM_CM4F/portmacro.h **** 	/* Check the configuration. */
 139:Middlewares/Third_Party/FreeRTOS/Source/portable/GCC/ARM_CM4F/portmacro.h **** 	#if( configMAX_PRIORITIES > 32 )
 140:Middlewares/Third_Party/FreeRTOS/Source/portable/GCC/ARM_CM4F/portmacro.h **** 		#error configUSE_PORT_OPTIMISED_TASK_SELECTION can only be set to 1 when configMAX_PRIORITIES is 
 141:Middlewares/Third_Party/FreeRTOS/Source/portable/GCC/ARM_CM4F/portmacro.h **** 	#endif
 142:Middlewares/Third_Party/FreeRTOS/Source/portable/GCC/ARM_CM4F/portmacro.h **** 
 143:Middlewares/Third_Party/FreeRTOS/Source/portable/GCC/ARM_CM4F/portmacro.h **** 	/* Store/clear the ready priorities in a bit map. */
 144:Middlewares/Third_Party/FreeRTOS/Source/portable/GCC/ARM_CM4F/portmacro.h **** 	#define portRECORD_READY_PRIORITY( uxPriority, uxReadyPriorities ) ( uxReadyPriorities ) |= ( 1UL 
 145:Middlewares/Third_Party/FreeRTOS/Source/portable/GCC/ARM_CM4F/portmacro.h **** 	#define portRESET_READY_PRIORITY( uxPriority, uxReadyPriorities ) ( uxReadyPriorities ) &= ~( 1UL 
 146:Middlewares/Third_Party/FreeRTOS/Source/portable/GCC/ARM_CM4F/portmacro.h **** 
 147:Middlewares/Third_Party/FreeRTOS/Source/portable/GCC/ARM_CM4F/portmacro.h **** 	/*-----------------------------------------------------------*/
 148:Middlewares/Third_Party/FreeRTOS/Source/portable/GCC/ARM_CM4F/portmacro.h **** 
 149:Middlewares/Third_Party/FreeRTOS/Source/portable/GCC/ARM_CM4F/portmacro.h **** 	#define portGET_HIGHEST_PRIORITY( uxTopPriority, uxReadyPriorities ) uxTopPriority = ( 31UL - ( ui
 150:Middlewares/Third_Party/FreeRTOS/Source/portable/GCC/ARM_CM4F/portmacro.h **** 
 151:Middlewares/Third_Party/FreeRTOS/Source/portable/GCC/ARM_CM4F/portmacro.h **** #endif /* configUSE_PORT_OPTIMISED_TASK_SELECTION */
ARM GAS  /tmp/ccyYBu53.s 			page 18


 152:Middlewares/Third_Party/FreeRTOS/Source/portable/GCC/ARM_CM4F/portmacro.h **** 
 153:Middlewares/Third_Party/FreeRTOS/Source/portable/GCC/ARM_CM4F/portmacro.h **** /*-----------------------------------------------------------*/
 154:Middlewares/Third_Party/FreeRTOS/Source/portable/GCC/ARM_CM4F/portmacro.h **** 
 155:Middlewares/Third_Party/FreeRTOS/Source/portable/GCC/ARM_CM4F/portmacro.h **** #ifdef configASSERT
 156:Middlewares/Third_Party/FreeRTOS/Source/portable/GCC/ARM_CM4F/portmacro.h **** 	void vPortValidateInterruptPriority( void );
 157:Middlewares/Third_Party/FreeRTOS/Source/portable/GCC/ARM_CM4F/portmacro.h **** 	#define portASSERT_IF_INTERRUPT_PRIORITY_INVALID() 	vPortValidateInterruptPriority()
 158:Middlewares/Third_Party/FreeRTOS/Source/portable/GCC/ARM_CM4F/portmacro.h **** #endif
 159:Middlewares/Third_Party/FreeRTOS/Source/portable/GCC/ARM_CM4F/portmacro.h **** 
 160:Middlewares/Third_Party/FreeRTOS/Source/portable/GCC/ARM_CM4F/portmacro.h **** /* portNOP() is not required by this port. */
 161:Middlewares/Third_Party/FreeRTOS/Source/portable/GCC/ARM_CM4F/portmacro.h **** #define portNOP()
 162:Middlewares/Third_Party/FreeRTOS/Source/portable/GCC/ARM_CM4F/portmacro.h **** 
 163:Middlewares/Third_Party/FreeRTOS/Source/portable/GCC/ARM_CM4F/portmacro.h **** #define portINLINE	__inline
 164:Middlewares/Third_Party/FreeRTOS/Source/portable/GCC/ARM_CM4F/portmacro.h **** 
 165:Middlewares/Third_Party/FreeRTOS/Source/portable/GCC/ARM_CM4F/portmacro.h **** #ifndef portFORCE_INLINE
 166:Middlewares/Third_Party/FreeRTOS/Source/portable/GCC/ARM_CM4F/portmacro.h **** 	#define portFORCE_INLINE inline __attribute__(( always_inline))
 167:Middlewares/Third_Party/FreeRTOS/Source/portable/GCC/ARM_CM4F/portmacro.h **** #endif
 168:Middlewares/Third_Party/FreeRTOS/Source/portable/GCC/ARM_CM4F/portmacro.h **** 
 169:Middlewares/Third_Party/FreeRTOS/Source/portable/GCC/ARM_CM4F/portmacro.h **** portFORCE_INLINE static BaseType_t xPortIsInsideInterrupt( void )
 170:Middlewares/Third_Party/FreeRTOS/Source/portable/GCC/ARM_CM4F/portmacro.h **** {
 171:Middlewares/Third_Party/FreeRTOS/Source/portable/GCC/ARM_CM4F/portmacro.h **** uint32_t ulCurrentInterrupt;
 172:Middlewares/Third_Party/FreeRTOS/Source/portable/GCC/ARM_CM4F/portmacro.h **** BaseType_t xReturn;
 173:Middlewares/Third_Party/FreeRTOS/Source/portable/GCC/ARM_CM4F/portmacro.h **** 
 174:Middlewares/Third_Party/FreeRTOS/Source/portable/GCC/ARM_CM4F/portmacro.h **** 	/* Obtain the number of the currently executing interrupt. */
 175:Middlewares/Third_Party/FreeRTOS/Source/portable/GCC/ARM_CM4F/portmacro.h **** 	__asm volatile( "mrs %0, ipsr" : "=r"( ulCurrentInterrupt ) :: "memory" );
 176:Middlewares/Third_Party/FreeRTOS/Source/portable/GCC/ARM_CM4F/portmacro.h **** 
 177:Middlewares/Third_Party/FreeRTOS/Source/portable/GCC/ARM_CM4F/portmacro.h **** 	if( ulCurrentInterrupt == 0 )
 178:Middlewares/Third_Party/FreeRTOS/Source/portable/GCC/ARM_CM4F/portmacro.h **** 	{
 179:Middlewares/Third_Party/FreeRTOS/Source/portable/GCC/ARM_CM4F/portmacro.h **** 		xReturn = pdFALSE;
 180:Middlewares/Third_Party/FreeRTOS/Source/portable/GCC/ARM_CM4F/portmacro.h **** 	}
 181:Middlewares/Third_Party/FreeRTOS/Source/portable/GCC/ARM_CM4F/portmacro.h **** 	else
 182:Middlewares/Third_Party/FreeRTOS/Source/portable/GCC/ARM_CM4F/portmacro.h **** 	{
 183:Middlewares/Third_Party/FreeRTOS/Source/portable/GCC/ARM_CM4F/portmacro.h **** 		xReturn = pdTRUE;
 184:Middlewares/Third_Party/FreeRTOS/Source/portable/GCC/ARM_CM4F/portmacro.h **** 	}
 185:Middlewares/Third_Party/FreeRTOS/Source/portable/GCC/ARM_CM4F/portmacro.h **** 
 186:Middlewares/Third_Party/FreeRTOS/Source/portable/GCC/ARM_CM4F/portmacro.h **** 	return xReturn;
 187:Middlewares/Third_Party/FreeRTOS/Source/portable/GCC/ARM_CM4F/portmacro.h **** }
 188:Middlewares/Third_Party/FreeRTOS/Source/portable/GCC/ARM_CM4F/portmacro.h **** 
 189:Middlewares/Third_Party/FreeRTOS/Source/portable/GCC/ARM_CM4F/portmacro.h **** /*-----------------------------------------------------------*/
 190:Middlewares/Third_Party/FreeRTOS/Source/portable/GCC/ARM_CM4F/portmacro.h **** 
 191:Middlewares/Third_Party/FreeRTOS/Source/portable/GCC/ARM_CM4F/portmacro.h **** portFORCE_INLINE static void vPortRaiseBASEPRI( void )
 298              		.loc 2 191 30 view .LVU110
 299              	.LBB21:
 192:Middlewares/Third_Party/FreeRTOS/Source/portable/GCC/ARM_CM4F/portmacro.h **** {
 193:Middlewares/Third_Party/FreeRTOS/Source/portable/GCC/ARM_CM4F/portmacro.h **** uint32_t ulNewBASEPRI;
 300              		.loc 2 193 1 view .LVU111
 194:Middlewares/Third_Party/FreeRTOS/Source/portable/GCC/ARM_CM4F/portmacro.h **** 
 195:Middlewares/Third_Party/FreeRTOS/Source/portable/GCC/ARM_CM4F/portmacro.h **** 	__asm volatile
 301              		.loc 2 195 2 view .LVU112
 302              		.syntax unified
 303              	@ 195 "Middlewares/Third_Party/FreeRTOS/Source/portable/GCC/ARM_CM4F/portmacro.h" 1
 304 0068 4FF05003 			mov r3, #80												
 305 006c 83F31188 		msr basepri, r3											
 306 0070 BFF36F8F 		isb														
 307 0074 BFF34F8F 		dsb														
 308              	
 309              	@ 0 "" 2
 310              	.LVL19:
ARM GAS  /tmp/ccyYBu53.s 			page 19


 311              		.thumb
 312              		.syntax unified
 313              	.L28:
 314              		.loc 2 195 2 is_stmt 0 view .LVU113
 315              	.LBE21:
 316              	.LBE20:
 196:Middlewares/Third_Party/FreeRTOS/Source/portable/MemMang/heap_4.c **** 
 317              		.loc 1 196 7 is_stmt 1 discriminator 3 view .LVU114
 196:Middlewares/Third_Party/FreeRTOS/Source/portable/MemMang/heap_4.c **** 
 318              		.loc 1 196 7 discriminator 3 view .LVU115
 196:Middlewares/Third_Party/FreeRTOS/Source/portable/MemMang/heap_4.c **** 
 319              		.loc 1 196 7 discriminator 3 view .LVU116
 196:Middlewares/Third_Party/FreeRTOS/Source/portable/MemMang/heap_4.c **** 
 320              		.loc 1 196 7 discriminator 3 view .LVU117
 196:Middlewares/Third_Party/FreeRTOS/Source/portable/MemMang/heap_4.c **** 
 321              		.loc 1 196 7 discriminator 3 view .LVU118
 196:Middlewares/Third_Party/FreeRTOS/Source/portable/MemMang/heap_4.c **** 
 322              		.loc 1 196 7 discriminator 3 view .LVU119
 323 0078 FEE7     		b	.L28
 324              	.LVL20:
 325              	.L22:
 240:Middlewares/Third_Party/FreeRTOS/Source/portable/MemMang/heap_4.c **** 		}
 326              		.loc 1 240 28 view .LVU120
 243:Middlewares/Third_Party/FreeRTOS/Source/portable/MemMang/heap_4.c **** 	}
 327              		.loc 1 243 39 view .LVU121
 245:Middlewares/Third_Party/FreeRTOS/Source/portable/MemMang/heap_4.c **** 
 328              		.loc 1 245 2 view .LVU122
 245:Middlewares/Third_Party/FreeRTOS/Source/portable/MemMang/heap_4.c **** 
 329              		.loc 1 245 11 is_stmt 0 view .LVU123
 330 007a FFF7FEFF 		bl	xTaskResumeAll
 331              	.LVL21:
 249:Middlewares/Third_Party/FreeRTOS/Source/portable/MemMang/heap_4.c **** 		{
 332              		.loc 1 249 3 is_stmt 1 view .LVU124
 333              	.LBB22:
 251:Middlewares/Third_Party/FreeRTOS/Source/portable/MemMang/heap_4.c **** 			vApplicationMallocFailedHook();
 334              		.loc 1 251 4 view .LVU125
 252:Middlewares/Third_Party/FreeRTOS/Source/portable/MemMang/heap_4.c **** 		}
 335              		.loc 1 252 4 view .LVU126
 336 007e 0026     		movs	r6, #0
 337 0080 FFF7FEFF 		bl	vApplicationMallocFailedHook
 338              	.LVL22:
 339              	.LBE22:
 256:Middlewares/Third_Party/FreeRTOS/Source/portable/MemMang/heap_4.c **** 		}
 340              		.loc 1 256 28 view .LVU127
 261:Middlewares/Third_Party/FreeRTOS/Source/portable/MemMang/heap_4.c **** 	return pvReturn;
 341              		.loc 1 261 2 view .LVU128
 342              	.L15:
 263:Middlewares/Third_Party/FreeRTOS/Source/portable/MemMang/heap_4.c **** /*-----------------------------------------------------------*/
 343              		.loc 1 263 1 is_stmt 0 view .LVU129
 344 0084 3046     		mov	r0, r6
 345 0086 BDE8F081 		pop	{r4, r5, r6, r7, r8, pc}
 346              	.LVL23:
 347              	.L27:
 196:Middlewares/Third_Party/FreeRTOS/Source/portable/MemMang/heap_4.c **** 
 348              		.loc 1 196 87 is_stmt 1 discriminator 2 view .LVU130
 200:Middlewares/Third_Party/FreeRTOS/Source/portable/MemMang/heap_4.c **** 						pxBlock->xBlockSize = xWantedSize;
 349              		.loc 1 200 7 discriminator 2 view .LVU131
ARM GAS  /tmp/ccyYBu53.s 			page 20


 200:Middlewares/Third_Party/FreeRTOS/Source/portable/MemMang/heap_4.c **** 						pxBlock->xBlockSize = xWantedSize;
 350              		.loc 1 200 34 is_stmt 0 discriminator 2 view .LVU132
 351 008a 4360     		str	r3, [r0, #4]
 201:Middlewares/Third_Party/FreeRTOS/Source/portable/MemMang/heap_4.c **** 
 352              		.loc 1 201 7 is_stmt 1 discriminator 2 view .LVU133
 201:Middlewares/Third_Party/FreeRTOS/Source/portable/MemMang/heap_4.c **** 
 353              		.loc 1 201 27 is_stmt 0 discriminator 2 view .LVU134
 354 008c 6160     		str	r1, [r4, #4]
 204:Middlewares/Third_Party/FreeRTOS/Source/portable/MemMang/heap_4.c **** 					}
 355              		.loc 1 204 7 is_stmt 1 discriminator 2 view .LVU135
 356 008e FFF7FEFF 		bl	prvInsertBlockIntoFreeList
 357              	.LVL24:
 211:Middlewares/Third_Party/FreeRTOS/Source/portable/MemMang/heap_4.c **** 
 358              		.loc 1 211 36 is_stmt 0 discriminator 2 view .LVU136
 359 0092 6268     		ldr	r2, [r4, #4]
 360              	.LVL25:
 361              	.L26:
 208:Middlewares/Third_Party/FreeRTOS/Source/portable/MemMang/heap_4.c **** 					}
 362              		.loc 1 208 31 is_stmt 1 view .LVU137
 211:Middlewares/Third_Party/FreeRTOS/Source/portable/MemMang/heap_4.c **** 
 363              		.loc 1 211 6 view .LVU138
 213:Middlewares/Third_Party/FreeRTOS/Source/portable/MemMang/heap_4.c **** 					{
 364              		.loc 1 213 30 is_stmt 0 view .LVU139
 365 0094 2249     		ldr	r1, .L46+12
 213:Middlewares/Third_Party/FreeRTOS/Source/portable/MemMang/heap_4.c **** 					{
 366              		.loc 1 213 8 view .LVU140
 367 0096 0868     		ldr	r0, [r1]
 211:Middlewares/Third_Party/FreeRTOS/Source/portable/MemMang/heap_4.c **** 
 368              		.loc 1 211 26 view .LVU141
 369 0098 BF1A     		subs	r7, r7, r2
 213:Middlewares/Third_Party/FreeRTOS/Source/portable/MemMang/heap_4.c **** 					{
 370              		.loc 1 213 8 view .LVU142
 371 009a 8742     		cmp	r7, r0
 215:Middlewares/Third_Party/FreeRTOS/Source/portable/MemMang/heap_4.c **** 					}
 372              		.loc 1 215 38 view .LVU143
 373 009c 38BF     		it	cc
 374 009e 0F60     		strcc	r7, [r1]
 226:Middlewares/Third_Party/FreeRTOS/Source/portable/MemMang/heap_4.c **** 				}
 375              		.loc 1 226 36 view .LVU144
 376 00a0 2049     		ldr	r1, .L46+16
 211:Middlewares/Third_Party/FreeRTOS/Source/portable/MemMang/heap_4.c **** 
 377              		.loc 1 211 26 view .LVU145
 378 00a2 C8F80070 		str	r7, [r8]
 213:Middlewares/Third_Party/FreeRTOS/Source/portable/MemMang/heap_4.c **** 					{
 379              		.loc 1 213 6 is_stmt 1 view .LVU146
 215:Middlewares/Third_Party/FreeRTOS/Source/portable/MemMang/heap_4.c **** 					}
 380              		.loc 1 215 7 view .LVU147
 219:Middlewares/Third_Party/FreeRTOS/Source/portable/MemMang/heap_4.c **** 					}
 381              		.loc 1 219 31 view .LVU148
 224:Middlewares/Third_Party/FreeRTOS/Source/portable/MemMang/heap_4.c **** 					pxBlock->pxNextFreeBlock = NULL;
 382              		.loc 1 224 6 view .LVU149
 224:Middlewares/Third_Party/FreeRTOS/Source/portable/MemMang/heap_4.c **** 					pxBlock->pxNextFreeBlock = NULL;
 383              		.loc 1 224 26 is_stmt 0 view .LVU150
 384 00a6 2A43     		orrs	r2, r2, r5
 225:Middlewares/Third_Party/FreeRTOS/Source/portable/MemMang/heap_4.c **** 					xNumberOfSuccessfulAllocations++;
 385              		.loc 1 225 31 view .LVU151
 386 00a8 0023     		movs	r3, #0
ARM GAS  /tmp/ccyYBu53.s 			page 21


 387 00aa C4E90032 		strd	r3, r2, [r4]
 226:Middlewares/Third_Party/FreeRTOS/Source/portable/MemMang/heap_4.c **** 				}
 388              		.loc 1 226 6 is_stmt 1 view .LVU152
 226:Middlewares/Third_Party/FreeRTOS/Source/portable/MemMang/heap_4.c **** 				}
 389              		.loc 1 226 36 is_stmt 0 view .LVU153
 390 00ae 0B68     		ldr	r3, [r1]
 391 00b0 0133     		adds	r3, r3, #1
 392 00b2 0B60     		str	r3, [r1]
 240:Middlewares/Third_Party/FreeRTOS/Source/portable/MemMang/heap_4.c **** 		}
 393              		.loc 1 240 28 is_stmt 1 view .LVU154
 243:Middlewares/Third_Party/FreeRTOS/Source/portable/MemMang/heap_4.c **** 	}
 394              		.loc 1 243 39 view .LVU155
 245:Middlewares/Third_Party/FreeRTOS/Source/portable/MemMang/heap_4.c **** 
 395              		.loc 1 245 2 view .LVU156
 245:Middlewares/Third_Party/FreeRTOS/Source/portable/MemMang/heap_4.c **** 
 396              		.loc 1 245 11 is_stmt 0 view .LVU157
 397 00b4 FFF7FEFF 		bl	xTaskResumeAll
 398              	.LVL26:
 249:Middlewares/Third_Party/FreeRTOS/Source/portable/MemMang/heap_4.c **** 		{
 399              		.loc 1 249 3 is_stmt 1 view .LVU158
 256:Middlewares/Third_Party/FreeRTOS/Source/portable/MemMang/heap_4.c **** 		}
 400              		.loc 1 256 28 view .LVU159
 261:Middlewares/Third_Party/FreeRTOS/Source/portable/MemMang/heap_4.c **** 	return pvReturn;
 401              		.loc 1 261 2 view .LVU160
 402 00b8 7307     		lsls	r3, r6, #29
 403 00ba E3D0     		beq	.L15
 261:Middlewares/Third_Party/FreeRTOS/Source/portable/MemMang/heap_4.c **** 	return pvReturn;
 404              		.loc 1 261 2 view .LVU161
 405              	.LBB23:
 406              	.LBI23:
 191:Middlewares/Third_Party/FreeRTOS/Source/portable/GCC/ARM_CM4F/portmacro.h **** {
 407              		.loc 2 191 30 view .LVU162
 408              	.LBB24:
 193:Middlewares/Third_Party/FreeRTOS/Source/portable/GCC/ARM_CM4F/portmacro.h **** 
 409              		.loc 2 193 1 view .LVU163
 410              		.loc 2 195 2 view .LVU164
 411              		.syntax unified
 412              	@ 195 "Middlewares/Third_Party/FreeRTOS/Source/portable/GCC/ARM_CM4F/portmacro.h" 1
 413 00bc 4FF05003 			mov r3, #80												
 414 00c0 83F31188 		msr basepri, r3											
 415 00c4 BFF36F8F 		isb														
 416 00c8 BFF34F8F 		dsb														
 417              	
 418              	@ 0 "" 2
 419              	.LVL27:
 420              		.thumb
 421              		.syntax unified
 422              	.L30:
 423              		.loc 2 195 2 is_stmt 0 view .LVU165
 424              	.LBE24:
 425              	.LBE23:
 261:Middlewares/Third_Party/FreeRTOS/Source/portable/MemMang/heap_4.c **** 	return pvReturn;
 426              		.loc 1 261 2 is_stmt 1 discriminator 5 view .LVU166
 261:Middlewares/Third_Party/FreeRTOS/Source/portable/MemMang/heap_4.c **** 	return pvReturn;
 427              		.loc 1 261 2 discriminator 5 view .LVU167
 261:Middlewares/Third_Party/FreeRTOS/Source/portable/MemMang/heap_4.c **** 	return pvReturn;
 428              		.loc 1 261 2 discriminator 5 view .LVU168
ARM GAS  /tmp/ccyYBu53.s 			page 22


 261:Middlewares/Third_Party/FreeRTOS/Source/portable/MemMang/heap_4.c **** 	return pvReturn;
 429              		.loc 1 261 2 discriminator 5 view .LVU169
 261:Middlewares/Third_Party/FreeRTOS/Source/portable/MemMang/heap_4.c **** 	return pvReturn;
 430              		.loc 1 261 2 discriminator 5 view .LVU170
 261:Middlewares/Third_Party/FreeRTOS/Source/portable/MemMang/heap_4.c **** 	return pvReturn;
 431              		.loc 1 261 2 discriminator 5 view .LVU171
 432 00cc FEE7     		b	.L30
 433              	.LVL28:
 434              	.L16:
 126:Middlewares/Third_Party/FreeRTOS/Source/portable/MemMang/heap_4.c **** 		}
 435              		.loc 1 126 4 view .LVU172
 436              	.LBB25:
 437              	.LBI25:
 333:Middlewares/Third_Party/FreeRTOS/Source/portable/MemMang/heap_4.c **** {
 438              		.loc 1 333 13 view .LVU173
 439              	.LBB26:
 335:Middlewares/Third_Party/FreeRTOS/Source/portable/MemMang/heap_4.c **** uint8_t *pucAlignedHeap;
 440              		.loc 1 335 1 view .LVU174
 336:Middlewares/Third_Party/FreeRTOS/Source/portable/MemMang/heap_4.c **** size_t uxAddress;
 441              		.loc 1 336 1 view .LVU175
 337:Middlewares/Third_Party/FreeRTOS/Source/portable/MemMang/heap_4.c **** size_t xTotalHeapSize = configTOTAL_HEAP_SIZE;
 442              		.loc 1 337 1 view .LVU176
 338:Middlewares/Third_Party/FreeRTOS/Source/portable/MemMang/heap_4.c **** 
 443              		.loc 1 338 1 view .LVU177
 341:Middlewares/Third_Party/FreeRTOS/Source/portable/MemMang/heap_4.c **** 
 444              		.loc 1 341 2 view .LVU178
 341:Middlewares/Third_Party/FreeRTOS/Source/portable/MemMang/heap_4.c **** 
 445              		.loc 1 341 12 is_stmt 0 view .LVU179
 446 00ce 164B     		ldr	r3, .L46+20
 447              	.LVL29:
 343:Middlewares/Third_Party/FreeRTOS/Source/portable/MemMang/heap_4.c **** 	{
 448              		.loc 1 343 2 is_stmt 1 view .LVU180
 373:Middlewares/Third_Party/FreeRTOS/Source/portable/MemMang/heap_4.c **** 	xFreeBytesRemaining = pxFirstFreeBlock->xBlockSize;
 449              		.loc 1 373 33 is_stmt 0 view .LVU181
 450 00d0 1348     		ldr	r0, .L46+12
 377:Middlewares/Third_Party/FreeRTOS/Source/portable/MemMang/heap_4.c **** }
 451              		.loc 1 377 21 view .LVU182
 452 00d2 114F     		ldr	r7, .L46+4
 343:Middlewares/Third_Party/FreeRTOS/Source/portable/MemMang/heap_4.c **** 	{
 453              		.loc 1 343 4 view .LVU183
 454 00d4 5D07     		lsls	r5, r3, #29
 345:Middlewares/Third_Party/FreeRTOS/Source/portable/MemMang/heap_4.c **** 		uxAddress &= ~( ( size_t ) portBYTE_ALIGNMENT_MASK );
 455              		.loc 1 345 13 view .LVU184
 456 00d6 14BF     		ite	ne
 457 00d8 DA1D     		addne	r2, r3, #7
 359:Middlewares/Third_Party/FreeRTOS/Source/portable/MemMang/heap_4.c **** 	uxAddress -= xHeapStructSize;
 458              		.loc 1 359 12 view .LVU185
 459 00da 1A46     		moveq	r2, r3
 345:Middlewares/Third_Party/FreeRTOS/Source/portable/MemMang/heap_4.c **** 		uxAddress &= ~( ( size_t ) portBYTE_ALIGNMENT_MASK );
 460              		.loc 1 345 3 is_stmt 1 view .LVU186
 461              	.LVL30:
 346:Middlewares/Third_Party/FreeRTOS/Source/portable/MemMang/heap_4.c **** 		xTotalHeapSize -= uxAddress - ( size_t ) ucHeap;
 462              		.loc 1 346 3 view .LVU187
 463 00dc 03F50043 		add	r3, r3, #32768
 360:Middlewares/Third_Party/FreeRTOS/Source/portable/MemMang/heap_4.c **** 	uxAddress &= ~( ( size_t ) portBYTE_ALIGNMENT_MASK );
 464              		.loc 1 360 12 is_stmt 0 view .LVU188
 465 00e0 A3F10803 		sub	r3, r3, #8
ARM GAS  /tmp/ccyYBu53.s 			page 23


 361:Middlewares/Third_Party/FreeRTOS/Source/portable/MemMang/heap_4.c **** 	pxEnd = ( void * ) uxAddress;
 466              		.loc 1 361 12 view .LVU189
 467 00e4 23F00703 		bic	r3, r3, #7
 346:Middlewares/Third_Party/FreeRTOS/Source/portable/MemMang/heap_4.c **** 		xTotalHeapSize -= uxAddress - ( size_t ) ucHeap;
 468              		.loc 1 346 13 view .LVU190
 469 00e8 18BF     		it	ne
 470 00ea 22F00702 		bicne	r2, r2, #7
 471              	.LVL31:
 347:Middlewares/Third_Party/FreeRTOS/Source/portable/MemMang/heap_4.c **** 	}
 472              		.loc 1 347 3 is_stmt 1 view .LVU191
 350:Middlewares/Third_Party/FreeRTOS/Source/portable/MemMang/heap_4.c **** 
 473              		.loc 1 350 17 is_stmt 0 view .LVU192
 474 00ee 1146     		mov	r1, r2
 350:Middlewares/Third_Party/FreeRTOS/Source/portable/MemMang/heap_4.c **** 
 475              		.loc 1 350 2 is_stmt 1 view .LVU193
 476              	.LVL32:
 354:Middlewares/Third_Party/FreeRTOS/Source/portable/MemMang/heap_4.c **** 	xStart.xBlockSize = ( size_t ) 0;
 477              		.loc 1 354 2 view .LVU194
 369:Middlewares/Third_Party/FreeRTOS/Source/portable/MemMang/heap_4.c **** 	pxFirstFreeBlock->pxNextFreeBlock = pxEnd;
 478              		.loc 1 369 43 is_stmt 0 view .LVU195
 479 00f0 9A1A     		subs	r2, r3, r2
 480              	.LVL33:
 373:Middlewares/Third_Party/FreeRTOS/Source/portable/MemMang/heap_4.c **** 	xFreeBytesRemaining = pxFirstFreeBlock->xBlockSize;
 481              		.loc 1 373 33 view .LVU196
 482 00f2 0260     		str	r2, [r0]
 374:Middlewares/Third_Party/FreeRTOS/Source/portable/MemMang/heap_4.c **** 
 483              		.loc 1 374 22 view .LVU197
 484 00f4 0D48     		ldr	r0, .L46+24
 354:Middlewares/Third_Party/FreeRTOS/Source/portable/MemMang/heap_4.c **** 	xStart.xBlockSize = ( size_t ) 0;
 485              		.loc 1 354 25 view .LVU198
 486 00f6 094D     		ldr	r5, .L46+8
 374:Middlewares/Third_Party/FreeRTOS/Source/portable/MemMang/heap_4.c **** 
 487              		.loc 1 374 22 view .LVU199
 488 00f8 0260     		str	r2, [r0]
 355:Middlewares/Third_Party/FreeRTOS/Source/portable/MemMang/heap_4.c **** 
 489              		.loc 1 355 20 view .LVU200
 490 00fa 0020     		movs	r0, #0
 354:Middlewares/Third_Party/FreeRTOS/Source/portable/MemMang/heap_4.c **** 	xStart.xBlockSize = ( size_t ) 0;
 491              		.loc 1 354 25 view .LVU201
 492 00fc 2960     		str	r1, [r5]
 355:Middlewares/Third_Party/FreeRTOS/Source/portable/MemMang/heap_4.c **** 
 493              		.loc 1 355 2 is_stmt 1 view .LVU202
 355:Middlewares/Third_Party/FreeRTOS/Source/portable/MemMang/heap_4.c **** 
 494              		.loc 1 355 20 is_stmt 0 view .LVU203
 495 00fe 6860     		str	r0, [r5, #4]
 359:Middlewares/Third_Party/FreeRTOS/Source/portable/MemMang/heap_4.c **** 	uxAddress -= xHeapStructSize;
 496              		.loc 1 359 2 is_stmt 1 view .LVU204
 497              	.LVL34:
 360:Middlewares/Third_Party/FreeRTOS/Source/portable/MemMang/heap_4.c **** 	uxAddress &= ~( ( size_t ) portBYTE_ALIGNMENT_MASK );
 498              		.loc 1 360 2 view .LVU205
 361:Middlewares/Third_Party/FreeRTOS/Source/portable/MemMang/heap_4.c **** 	pxEnd = ( void * ) uxAddress;
 499              		.loc 1 361 2 view .LVU206
 362:Middlewares/Third_Party/FreeRTOS/Source/portable/MemMang/heap_4.c **** 	pxEnd->xBlockSize = 0;
 500              		.loc 1 362 2 view .LVU207
 363:Middlewares/Third_Party/FreeRTOS/Source/portable/MemMang/heap_4.c **** 	pxEnd->pxNextFreeBlock = NULL;
 501              		.loc 1 363 2 view .LVU208
 377:Middlewares/Third_Party/FreeRTOS/Source/portable/MemMang/heap_4.c **** }
ARM GAS  /tmp/ccyYBu53.s 			page 24


 502              		.loc 1 377 21 is_stmt 0 view .LVU209
 503 0100 4FF00045 		mov	r5, #-2147483648
 364:Middlewares/Third_Party/FreeRTOS/Source/portable/MemMang/heap_4.c **** 
 504              		.loc 1 364 25 view .LVU210
 505 0104 C3E90000 		strd	r0, r0, [r3]
 368:Middlewares/Third_Party/FreeRTOS/Source/portable/MemMang/heap_4.c **** 	pxFirstFreeBlock->xBlockSize = uxAddress - ( size_t ) pxFirstFreeBlock;
 506              		.loc 1 368 2 is_stmt 1 view .LVU211
 507              	.LVL35:
 369:Middlewares/Third_Party/FreeRTOS/Source/portable/MemMang/heap_4.c **** 	pxFirstFreeBlock->pxNextFreeBlock = pxEnd;
 508              		.loc 1 369 2 view .LVU212
 362:Middlewares/Third_Party/FreeRTOS/Source/portable/MemMang/heap_4.c **** 	pxEnd->xBlockSize = 0;
 509              		.loc 1 362 8 is_stmt 0 view .LVU213
 510 0108 3360     		str	r3, [r6]
 370:Middlewares/Third_Party/FreeRTOS/Source/portable/MemMang/heap_4.c **** 
 511              		.loc 1 370 36 view .LVU214
 512 010a C1E90032 		strd	r3, r2, [r1]
 373:Middlewares/Third_Party/FreeRTOS/Source/portable/MemMang/heap_4.c **** 	xFreeBytesRemaining = pxFirstFreeBlock->xBlockSize;
 513              		.loc 1 373 2 is_stmt 1 view .LVU215
 374:Middlewares/Third_Party/FreeRTOS/Source/portable/MemMang/heap_4.c **** 
 514              		.loc 1 374 2 view .LVU216
 377:Middlewares/Third_Party/FreeRTOS/Source/portable/MemMang/heap_4.c **** }
 515              		.loc 1 377 2 view .LVU217
 377:Middlewares/Third_Party/FreeRTOS/Source/portable/MemMang/heap_4.c **** }
 516              		.loc 1 377 21 is_stmt 0 view .LVU218
 517 010e 3D60     		str	r5, [r7]
 378:Middlewares/Third_Party/FreeRTOS/Source/portable/MemMang/heap_4.c **** /*-----------------------------------------------------------*/
 518              		.loc 1 378 1 view .LVU219
 519 0110 81E7     		b	.L17
 520              	.L47:
 521 0112 00BF     		.align	2
 522              	.L46:
 523 0114 00000000 		.word	.LANCHOR1
 524 0118 00000000 		.word	.LANCHOR2
 525 011c 00000000 		.word	.LANCHOR0
 526 0120 00000000 		.word	.LANCHOR3
 527 0124 00000000 		.word	.LANCHOR5
 528 0128 00000000 		.word	ucHeap
 529 012c 00000000 		.word	.LANCHOR4
 530              	.LBE26:
 531              	.LBE25:
 532              		.cfi_endproc
 533              	.LFE5:
 535              		.section	.text.vPortFree,"ax",%progbits
 536              		.align	1
 537              		.p2align 2,,3
 538              		.global	vPortFree
 539              		.syntax unified
 540              		.thumb
 541              		.thumb_func
 543              	vPortFree:
 544              	.LVL36:
 545              	.LFB6:
 267:Middlewares/Third_Party/FreeRTOS/Source/portable/MemMang/heap_4.c **** uint8_t *puc = ( uint8_t * ) pv;
 546              		.loc 1 267 1 is_stmt 1 view -0
 547              		.cfi_startproc
 548              		@ args = 0, pretend = 0, frame = 8
 549              		@ frame_needed = 0, uses_anonymous_args = 0
ARM GAS  /tmp/ccyYBu53.s 			page 25


 268:Middlewares/Third_Party/FreeRTOS/Source/portable/MemMang/heap_4.c **** BlockLink_t *pxLink;
 550              		.loc 1 268 1 view .LVU221
 269:Middlewares/Third_Party/FreeRTOS/Source/portable/MemMang/heap_4.c **** 
 551              		.loc 1 269 1 view .LVU222
 271:Middlewares/Third_Party/FreeRTOS/Source/portable/MemMang/heap_4.c **** 	{
 552              		.loc 1 271 2 view .LVU223
 271:Middlewares/Third_Party/FreeRTOS/Source/portable/MemMang/heap_4.c **** 	{
 553              		.loc 1 271 4 is_stmt 0 view .LVU224
 554 0000 D0B1     		cbz	r0, .L48
 275:Middlewares/Third_Party/FreeRTOS/Source/portable/MemMang/heap_4.c **** 
 555              		.loc 1 275 3 is_stmt 1 view .LVU225
 556              	.LVL37:
 278:Middlewares/Third_Party/FreeRTOS/Source/portable/MemMang/heap_4.c **** 
 557              		.loc 1 278 3 view .LVU226
 281:Middlewares/Third_Party/FreeRTOS/Source/portable/MemMang/heap_4.c **** 		configASSERT( pxLink->pxNextFreeBlock == NULL );
 558              		.loc 1 281 3 view .LVU227
 559 0002 1C4A     		ldr	r2, .L57
 560 0004 50F8043C 		ldr	r3, [r0, #-4]
 561 0008 1268     		ldr	r2, [r2]
 562 000a 1342     		tst	r3, r2
 563 000c 0BD0     		beq	.L56
 281:Middlewares/Third_Party/FreeRTOS/Source/portable/MemMang/heap_4.c **** 		configASSERT( pxLink->pxNextFreeBlock == NULL );
 564              		.loc 1 281 67 discriminator 2 view .LVU228
 282:Middlewares/Third_Party/FreeRTOS/Source/portable/MemMang/heap_4.c **** 
 565              		.loc 1 282 3 discriminator 2 view .LVU229
 566 000e 50F8081C 		ldr	r1, [r0, #-8]
 567 0012 91B1     		cbz	r1, .L52
 282:Middlewares/Third_Party/FreeRTOS/Source/portable/MemMang/heap_4.c **** 
 568              		.loc 1 282 3 view .LVU230
 569              	.LBB27:
 570              	.LBI27:
 191:Middlewares/Third_Party/FreeRTOS/Source/portable/GCC/ARM_CM4F/portmacro.h **** {
 571              		.loc 2 191 30 view .LVU231
 572              	.LBB28:
 193:Middlewares/Third_Party/FreeRTOS/Source/portable/GCC/ARM_CM4F/portmacro.h **** 
 573              		.loc 2 193 1 view .LVU232
 574              		.loc 2 195 2 view .LVU233
 575              		.syntax unified
 576              	@ 195 "Middlewares/Third_Party/FreeRTOS/Source/portable/GCC/ARM_CM4F/portmacro.h" 1
 577 0014 4FF05003 			mov r3, #80												
 578 0018 83F31188 		msr basepri, r3											
 579 001c BFF36F8F 		isb														
 580 0020 BFF34F8F 		dsb														
 581              	
 582              	@ 0 "" 2
 583              	.LVL38:
 584              		.thumb
 585              		.syntax unified
 586              	.L53:
 587              		.loc 2 195 2 is_stmt 0 view .LVU234
 588              	.LBE28:
 589              	.LBE27:
 282:Middlewares/Third_Party/FreeRTOS/Source/portable/MemMang/heap_4.c **** 
 590              		.loc 1 282 3 is_stmt 1 discriminator 2 view .LVU235
 282:Middlewares/Third_Party/FreeRTOS/Source/portable/MemMang/heap_4.c **** 
 591              		.loc 1 282 3 discriminator 2 view .LVU236
 282:Middlewares/Third_Party/FreeRTOS/Source/portable/MemMang/heap_4.c **** 
ARM GAS  /tmp/ccyYBu53.s 			page 26


 592              		.loc 1 282 3 discriminator 2 view .LVU237
 282:Middlewares/Third_Party/FreeRTOS/Source/portable/MemMang/heap_4.c **** 
 593              		.loc 1 282 3 discriminator 2 view .LVU238
 282:Middlewares/Third_Party/FreeRTOS/Source/portable/MemMang/heap_4.c **** 
 594              		.loc 1 282 3 discriminator 2 view .LVU239
 282:Middlewares/Third_Party/FreeRTOS/Source/portable/MemMang/heap_4.c **** 
 595              		.loc 1 282 3 discriminator 2 view .LVU240
 596 0024 FEE7     		b	.L53
 597              	.L56:
 281:Middlewares/Third_Party/FreeRTOS/Source/portable/MemMang/heap_4.c **** 		configASSERT( pxLink->pxNextFreeBlock == NULL );
 598              		.loc 1 281 3 view .LVU241
 599              	.LBB29:
 600              	.LBI29:
 191:Middlewares/Third_Party/FreeRTOS/Source/portable/GCC/ARM_CM4F/portmacro.h **** {
 601              		.loc 2 191 30 view .LVU242
 602              	.LBB30:
 193:Middlewares/Third_Party/FreeRTOS/Source/portable/GCC/ARM_CM4F/portmacro.h **** 
 603              		.loc 2 193 1 view .LVU243
 604              		.loc 2 195 2 view .LVU244
 605              		.syntax unified
 606              	@ 195 "Middlewares/Third_Party/FreeRTOS/Source/portable/GCC/ARM_CM4F/portmacro.h" 1
 607 0026 4FF05003 			mov r3, #80												
 608 002a 83F31188 		msr basepri, r3											
 609 002e BFF36F8F 		isb														
 610 0032 BFF34F8F 		dsb														
 611              	
 612              	@ 0 "" 2
 613              	.LVL39:
 614              		.thumb
 615              		.syntax unified
 616              	.L51:
 617              		.loc 2 195 2 is_stmt 0 view .LVU245
 618              	.LBE30:
 619              	.LBE29:
 281:Middlewares/Third_Party/FreeRTOS/Source/portable/MemMang/heap_4.c **** 		configASSERT( pxLink->pxNextFreeBlock == NULL );
 620              		.loc 1 281 3 is_stmt 1 discriminator 1 view .LVU246
 281:Middlewares/Third_Party/FreeRTOS/Source/portable/MemMang/heap_4.c **** 		configASSERT( pxLink->pxNextFreeBlock == NULL );
 621              		.loc 1 281 3 discriminator 1 view .LVU247
 281:Middlewares/Third_Party/FreeRTOS/Source/portable/MemMang/heap_4.c **** 		configASSERT( pxLink->pxNextFreeBlock == NULL );
 622              		.loc 1 281 3 discriminator 1 view .LVU248
 281:Middlewares/Third_Party/FreeRTOS/Source/portable/MemMang/heap_4.c **** 		configASSERT( pxLink->pxNextFreeBlock == NULL );
 623              		.loc 1 281 3 discriminator 1 view .LVU249
 281:Middlewares/Third_Party/FreeRTOS/Source/portable/MemMang/heap_4.c **** 		configASSERT( pxLink->pxNextFreeBlock == NULL );
 624              		.loc 1 281 3 discriminator 1 view .LVU250
 281:Middlewares/Third_Party/FreeRTOS/Source/portable/MemMang/heap_4.c **** 		configASSERT( pxLink->pxNextFreeBlock == NULL );
 625              		.loc 1 281 3 discriminator 1 view .LVU251
 626 0036 FEE7     		b	.L51
 627              	.LVL40:
 628              	.L48:
 281:Middlewares/Third_Party/FreeRTOS/Source/portable/MemMang/heap_4.c **** 		configASSERT( pxLink->pxNextFreeBlock == NULL );
 629              		.loc 1 281 3 is_stmt 0 discriminator 1 view .LVU252
 630 0038 7047     		bx	lr
 631              	.LVL41:
 632              	.L52:
 282:Middlewares/Third_Party/FreeRTOS/Source/portable/MemMang/heap_4.c **** 
 633              		.loc 1 282 50 is_stmt 1 view .LVU253
 284:Middlewares/Third_Party/FreeRTOS/Source/portable/MemMang/heap_4.c **** 		{
ARM GAS  /tmp/ccyYBu53.s 			page 27


 634              		.loc 1 284 3 view .LVU254
 286:Middlewares/Third_Party/FreeRTOS/Source/portable/MemMang/heap_4.c **** 			{
 635              		.loc 1 286 4 view .LVU255
 290:Middlewares/Third_Party/FreeRTOS/Source/portable/MemMang/heap_4.c **** 
 636              		.loc 1 290 5 view .LVU256
 267:Middlewares/Third_Party/FreeRTOS/Source/portable/MemMang/heap_4.c **** uint8_t *puc = ( uint8_t * ) pv;
 637              		.loc 1 267 1 is_stmt 0 view .LVU257
 638 003a 00B5     		push	{lr}
 639              	.LCFI5:
 640              		.cfi_def_cfa_offset 4
 641              		.cfi_offset 14, -4
 290:Middlewares/Third_Party/FreeRTOS/Source/portable/MemMang/heap_4.c **** 
 642              		.loc 1 290 24 view .LVU258
 643 003c 23EA0203 		bic	r3, r3, r2
 267:Middlewares/Third_Party/FreeRTOS/Source/portable/MemMang/heap_4.c **** uint8_t *puc = ( uint8_t * ) pv;
 644              		.loc 1 267 1 view .LVU259
 645 0040 83B0     		sub	sp, sp, #12
 646              	.LCFI6:
 647              		.cfi_def_cfa_offset 16
 290:Middlewares/Third_Party/FreeRTOS/Source/portable/MemMang/heap_4.c **** 
 648              		.loc 1 290 24 view .LVU260
 649 0042 40F8043C 		str	r3, [r0, #-4]
 650 0046 0190     		str	r0, [sp, #4]
 292:Middlewares/Third_Party/FreeRTOS/Source/portable/MemMang/heap_4.c **** 				{
 651              		.loc 1 292 5 is_stmt 1 view .LVU261
 652 0048 FFF7FEFF 		bl	vTaskSuspendAll
 653              	.LVL42:
 295:Middlewares/Third_Party/FreeRTOS/Source/portable/MemMang/heap_4.c **** 					traceFREE( pv, pxLink->xBlockSize );
 654              		.loc 1 295 6 view .LVU262
 295:Middlewares/Third_Party/FreeRTOS/Source/portable/MemMang/heap_4.c **** 					traceFREE( pv, pxLink->xBlockSize );
 655              		.loc 1 295 26 is_stmt 0 view .LVU263
 656 004c 0A4A     		ldr	r2, .L57+4
 657 004e 0198     		ldr	r0, [sp, #4]
 658 0050 1168     		ldr	r1, [r2]
 659 0052 50F8043C 		ldr	r3, [r0, #-4]
 297:Middlewares/Third_Party/FreeRTOS/Source/portable/MemMang/heap_4.c **** 					xNumberOfSuccessfulFrees++;
 660              		.loc 1 297 6 view .LVU264
 661 0056 0838     		subs	r0, r0, #8
 295:Middlewares/Third_Party/FreeRTOS/Source/portable/MemMang/heap_4.c **** 					traceFREE( pv, pxLink->xBlockSize );
 662              		.loc 1 295 26 view .LVU265
 663 0058 0B44     		add	r3, r3, r1
 664 005a 1360     		str	r3, [r2]
 296:Middlewares/Third_Party/FreeRTOS/Source/portable/MemMang/heap_4.c **** 					prvInsertBlockIntoFreeList( ( ( BlockLink_t * ) pxLink ) );
 665              		.loc 1 296 41 is_stmt 1 view .LVU266
 297:Middlewares/Third_Party/FreeRTOS/Source/portable/MemMang/heap_4.c **** 					xNumberOfSuccessfulFrees++;
 666              		.loc 1 297 6 view .LVU267
 667 005c FFF7FEFF 		bl	prvInsertBlockIntoFreeList
 668              	.LVL43:
 298:Middlewares/Third_Party/FreeRTOS/Source/portable/MemMang/heap_4.c **** 				}
 669              		.loc 1 298 6 view .LVU268
 298:Middlewares/Third_Party/FreeRTOS/Source/portable/MemMang/heap_4.c **** 				}
 670              		.loc 1 298 30 is_stmt 0 view .LVU269
 671 0060 064A     		ldr	r2, .L57+8
 672 0062 1368     		ldr	r3, [r2]
 673 0064 0133     		adds	r3, r3, #1
 674 0066 1360     		str	r3, [r2]
 300:Middlewares/Third_Party/FreeRTOS/Source/portable/MemMang/heap_4.c **** 			}
ARM GAS  /tmp/ccyYBu53.s 			page 28


 675              		.loc 1 300 5 is_stmt 1 view .LVU270
 312:Middlewares/Third_Party/FreeRTOS/Source/portable/MemMang/heap_4.c **** /*-----------------------------------------------------------*/
 676              		.loc 1 312 1 is_stmt 0 view .LVU271
 677 0068 03B0     		add	sp, sp, #12
 678              	.LCFI7:
 679              		.cfi_def_cfa_offset 4
 680              		@ sp needed
 681 006a 5DF804EB 		ldr	lr, [sp], #4
 682              	.LCFI8:
 683              		.cfi_restore 14
 684              		.cfi_def_cfa_offset 0
 685              	.LVL44:
 300:Middlewares/Third_Party/FreeRTOS/Source/portable/MemMang/heap_4.c **** 			}
 686              		.loc 1 300 14 view .LVU272
 687 006e FFF7FEBF 		b	xTaskResumeAll
 688              	.LVL45:
 689              	.L58:
 690 0072 00BF     		.align	2
 691              	.L57:
 692 0074 00000000 		.word	.LANCHOR2
 693 0078 00000000 		.word	.LANCHOR4
 694 007c 00000000 		.word	.LANCHOR6
 695              		.cfi_endproc
 696              	.LFE6:
 698              		.section	.text.xPortGetFreeHeapSize,"ax",%progbits
 699              		.align	1
 700              		.p2align 2,,3
 701              		.global	xPortGetFreeHeapSize
 702              		.syntax unified
 703              		.thumb
 704              		.thumb_func
 706              	xPortGetFreeHeapSize:
 707              	.LFB7:
 316:Middlewares/Third_Party/FreeRTOS/Source/portable/MemMang/heap_4.c **** 	return xFreeBytesRemaining;
 708              		.loc 1 316 1 is_stmt 1 view -0
 709              		.cfi_startproc
 710              		@ args = 0, pretend = 0, frame = 0
 711              		@ frame_needed = 0, uses_anonymous_args = 0
 712              		@ link register save eliminated.
 317:Middlewares/Third_Party/FreeRTOS/Source/portable/MemMang/heap_4.c **** }
 713              		.loc 1 317 2 view .LVU274
 317:Middlewares/Third_Party/FreeRTOS/Source/portable/MemMang/heap_4.c **** }
 714              		.loc 1 317 9 is_stmt 0 view .LVU275
 715 0000 014B     		ldr	r3, .L60
 318:Middlewares/Third_Party/FreeRTOS/Source/portable/MemMang/heap_4.c **** /*-----------------------------------------------------------*/
 716              		.loc 1 318 1 view .LVU276
 717 0002 1868     		ldr	r0, [r3]
 718 0004 7047     		bx	lr
 719              	.L61:
 720 0006 00BF     		.align	2
 721              	.L60:
 722 0008 00000000 		.word	.LANCHOR4
 723              		.cfi_endproc
 724              	.LFE7:
 726              		.section	.text.xPortGetMinimumEverFreeHeapSize,"ax",%progbits
 727              		.align	1
 728              		.p2align 2,,3
ARM GAS  /tmp/ccyYBu53.s 			page 29


 729              		.global	xPortGetMinimumEverFreeHeapSize
 730              		.syntax unified
 731              		.thumb
 732              		.thumb_func
 734              	xPortGetMinimumEverFreeHeapSize:
 735              	.LFB8:
 322:Middlewares/Third_Party/FreeRTOS/Source/portable/MemMang/heap_4.c **** 	return xMinimumEverFreeBytesRemaining;
 736              		.loc 1 322 1 is_stmt 1 view -0
 737              		.cfi_startproc
 738              		@ args = 0, pretend = 0, frame = 0
 739              		@ frame_needed = 0, uses_anonymous_args = 0
 740              		@ link register save eliminated.
 323:Middlewares/Third_Party/FreeRTOS/Source/portable/MemMang/heap_4.c **** }
 741              		.loc 1 323 2 view .LVU278
 323:Middlewares/Third_Party/FreeRTOS/Source/portable/MemMang/heap_4.c **** }
 742              		.loc 1 323 9 is_stmt 0 view .LVU279
 743 0000 014B     		ldr	r3, .L63
 324:Middlewares/Third_Party/FreeRTOS/Source/portable/MemMang/heap_4.c **** /*-----------------------------------------------------------*/
 744              		.loc 1 324 1 view .LVU280
 745 0002 1868     		ldr	r0, [r3]
 746 0004 7047     		bx	lr
 747              	.L64:
 748 0006 00BF     		.align	2
 749              	.L63:
 750 0008 00000000 		.word	.LANCHOR3
 751              		.cfi_endproc
 752              	.LFE8:
 754              		.section	.text.vPortInitialiseBlocks,"ax",%progbits
 755              		.align	1
 756              		.p2align 2,,3
 757              		.global	vPortInitialiseBlocks
 758              		.syntax unified
 759              		.thumb
 760              		.thumb_func
 762              	vPortInitialiseBlocks:
 763              	.LFB9:
 328:Middlewares/Third_Party/FreeRTOS/Source/portable/MemMang/heap_4.c **** 	/* This just exists to keep the linker quiet. */
 764              		.loc 1 328 1 is_stmt 1 view -0
 765              		.cfi_startproc
 766              		@ args = 0, pretend = 0, frame = 0
 767              		@ frame_needed = 0, uses_anonymous_args = 0
 768              		@ link register save eliminated.
 330:Middlewares/Third_Party/FreeRTOS/Source/portable/MemMang/heap_4.c **** /*-----------------------------------------------------------*/
 769              		.loc 1 330 1 view .LVU282
 770 0000 7047     		bx	lr
 771              		.cfi_endproc
 772              	.LFE9:
 774 0002 00BF     		.section	.text.vPortGetHeapStats,"ax",%progbits
 775              		.align	1
 776              		.p2align 2,,3
 777              		.global	vPortGetHeapStats
 778              		.syntax unified
 779              		.thumb
 780              		.thumb_func
 782              	vPortGetHeapStats:
 783              	.LVL46:
 784              	.LFB12:
ARM GAS  /tmp/ccyYBu53.s 			page 30


 440:Middlewares/Third_Party/FreeRTOS/Source/portable/MemMang/heap_4.c **** /*-----------------------------------------------------------*/
 441:Middlewares/Third_Party/FreeRTOS/Source/portable/MemMang/heap_4.c **** 
 442:Middlewares/Third_Party/FreeRTOS/Source/portable/MemMang/heap_4.c **** void vPortGetHeapStats( HeapStats_t *pxHeapStats )
 443:Middlewares/Third_Party/FreeRTOS/Source/portable/MemMang/heap_4.c **** {
 785              		.loc 1 443 1 view -0
 786              		.cfi_startproc
 787              		@ args = 0, pretend = 0, frame = 0
 788              		@ frame_needed = 0, uses_anonymous_args = 0
 444:Middlewares/Third_Party/FreeRTOS/Source/portable/MemMang/heap_4.c **** BlockLink_t *pxBlock;
 789              		.loc 1 444 1 view .LVU284
 445:Middlewares/Third_Party/FreeRTOS/Source/portable/MemMang/heap_4.c **** size_t xBlocks = 0, xMaxSize = 0, xMinSize = portMAX_DELAY; /* portMAX_DELAY used as a portable way
 790              		.loc 1 445 1 view .LVU285
 446:Middlewares/Third_Party/FreeRTOS/Source/portable/MemMang/heap_4.c **** 
 447:Middlewares/Third_Party/FreeRTOS/Source/portable/MemMang/heap_4.c **** 	vTaskSuspendAll();
 791              		.loc 1 447 2 view .LVU286
 443:Middlewares/Third_Party/FreeRTOS/Source/portable/MemMang/heap_4.c **** BlockLink_t *pxBlock;
 792              		.loc 1 443 1 is_stmt 0 view .LVU287
 793 0000 F8B5     		push	{r3, r4, r5, r6, r7, lr}
 794              	.LCFI9:
 795              		.cfi_def_cfa_offset 24
 796              		.cfi_offset 3, -24
 797              		.cfi_offset 4, -20
 798              		.cfi_offset 5, -16
 799              		.cfi_offset 6, -12
 800              		.cfi_offset 7, -8
 801              		.cfi_offset 14, -4
 443:Middlewares/Third_Party/FreeRTOS/Source/portable/MemMang/heap_4.c **** BlockLink_t *pxBlock;
 802              		.loc 1 443 1 view .LVU288
 803 0002 0746     		mov	r7, r0
 804              		.loc 1 447 2 view .LVU289
 805 0004 FFF7FEFF 		bl	vTaskSuspendAll
 806              	.LVL47:
 448:Middlewares/Third_Party/FreeRTOS/Source/portable/MemMang/heap_4.c **** 	{
 449:Middlewares/Third_Party/FreeRTOS/Source/portable/MemMang/heap_4.c **** 		pxBlock = xStart.pxNextFreeBlock;
 807              		.loc 1 449 3 is_stmt 1 view .LVU290
 808              		.loc 1 449 11 is_stmt 0 view .LVU291
 809 0008 184B     		ldr	r3, .L72
 810 000a 1B68     		ldr	r3, [r3]
 811              	.LVL48:
 450:Middlewares/Third_Party/FreeRTOS/Source/portable/MemMang/heap_4.c **** 
 451:Middlewares/Third_Party/FreeRTOS/Source/portable/MemMang/heap_4.c **** 		/* pxBlock will be NULL if the heap has not been initialised.  The heap
 452:Middlewares/Third_Party/FreeRTOS/Source/portable/MemMang/heap_4.c **** 		is initialised automatically when the first allocation is made. */
 453:Middlewares/Third_Party/FreeRTOS/Source/portable/MemMang/heap_4.c **** 		if( pxBlock != NULL )
 812              		.loc 1 453 3 is_stmt 1 view .LVU292
 813              		.loc 1 453 5 is_stmt 0 view .LVU293
 814 000c 43B3     		cbz	r3, .L69
 454:Middlewares/Third_Party/FreeRTOS/Source/portable/MemMang/heap_4.c **** 		{
 455:Middlewares/Third_Party/FreeRTOS/Source/portable/MemMang/heap_4.c **** 			do
 456:Middlewares/Third_Party/FreeRTOS/Source/portable/MemMang/heap_4.c **** 			{
 457:Middlewares/Third_Party/FreeRTOS/Source/portable/MemMang/heap_4.c **** 				/* Increment the number of blocks and record the largest block seen
 458:Middlewares/Third_Party/FreeRTOS/Source/portable/MemMang/heap_4.c **** 				so far. */
 459:Middlewares/Third_Party/FreeRTOS/Source/portable/MemMang/heap_4.c **** 				xBlocks++;
 460:Middlewares/Third_Party/FreeRTOS/Source/portable/MemMang/heap_4.c **** 
 461:Middlewares/Third_Party/FreeRTOS/Source/portable/MemMang/heap_4.c **** 				if( pxBlock->xBlockSize > xMaxSize )
 462:Middlewares/Third_Party/FreeRTOS/Source/portable/MemMang/heap_4.c **** 				{
 463:Middlewares/Third_Party/FreeRTOS/Source/portable/MemMang/heap_4.c **** 					xMaxSize = pxBlock->xBlockSize;
 464:Middlewares/Third_Party/FreeRTOS/Source/portable/MemMang/heap_4.c **** 				}
ARM GAS  /tmp/ccyYBu53.s 			page 31


 465:Middlewares/Third_Party/FreeRTOS/Source/portable/MemMang/heap_4.c **** 
 466:Middlewares/Third_Party/FreeRTOS/Source/portable/MemMang/heap_4.c **** 				if( pxBlock->xBlockSize < xMinSize )
 467:Middlewares/Third_Party/FreeRTOS/Source/portable/MemMang/heap_4.c **** 				{
 468:Middlewares/Third_Party/FreeRTOS/Source/portable/MemMang/heap_4.c **** 					xMinSize = pxBlock->xBlockSize;
 469:Middlewares/Third_Party/FreeRTOS/Source/portable/MemMang/heap_4.c **** 				}
 470:Middlewares/Third_Party/FreeRTOS/Source/portable/MemMang/heap_4.c **** 
 471:Middlewares/Third_Party/FreeRTOS/Source/portable/MemMang/heap_4.c **** 				/* Move to the next block in the chain until the last block is
 472:Middlewares/Third_Party/FreeRTOS/Source/portable/MemMang/heap_4.c **** 				reached. */
 473:Middlewares/Third_Party/FreeRTOS/Source/portable/MemMang/heap_4.c **** 				pxBlock = pxBlock->pxNextFreeBlock;
 474:Middlewares/Third_Party/FreeRTOS/Source/portable/MemMang/heap_4.c **** 			} while( pxBlock != pxEnd );
 815              		.loc 1 474 21 view .LVU294
 816 000e 184A     		ldr	r2, .L72+4
 445:Middlewares/Third_Party/FreeRTOS/Source/portable/MemMang/heap_4.c **** 
 817              		.loc 1 445 21 view .LVU295
 818 0010 0024     		movs	r4, #0
 819              		.loc 1 474 21 view .LVU296
 820 0012 1168     		ldr	r1, [r2]
 445:Middlewares/Third_Party/FreeRTOS/Source/portable/MemMang/heap_4.c **** 
 821              		.loc 1 445 35 view .LVU297
 822 0014 4FF0FF36 		mov	r6, #-1
 445:Middlewares/Third_Party/FreeRTOS/Source/portable/MemMang/heap_4.c **** 
 823              		.loc 1 445 8 view .LVU298
 824 0018 2546     		mov	r5, r4
 825              	.LVL49:
 826              	.L68:
 455:Middlewares/Third_Party/FreeRTOS/Source/portable/MemMang/heap_4.c **** 			{
 827              		.loc 1 455 4 is_stmt 1 view .LVU299
 459:Middlewares/Third_Party/FreeRTOS/Source/portable/MemMang/heap_4.c **** 
 828              		.loc 1 459 5 view .LVU300
 473:Middlewares/Third_Party/FreeRTOS/Source/portable/MemMang/heap_4.c **** 			} while( pxBlock != pxEnd );
 829              		.loc 1 473 13 is_stmt 0 view .LVU301
 830 001a D3E90032 		ldrd	r3, r2, [r3]
 831              	.LVL50:
 473:Middlewares/Third_Party/FreeRTOS/Source/portable/MemMang/heap_4.c **** 			} while( pxBlock != pxEnd );
 832              		.loc 1 473 13 view .LVU302
 833 001e 9442     		cmp	r4, r2
 834 0020 38BF     		it	cc
 835 0022 1446     		movcc	r4, r2
 836              	.LVL51:
 473:Middlewares/Third_Party/FreeRTOS/Source/portable/MemMang/heap_4.c **** 			} while( pxBlock != pxEnd );
 837              		.loc 1 473 13 view .LVU303
 838 0024 9642     		cmp	r6, r2
 839 0026 28BF     		it	cs
 840 0028 1646     		movcs	r6, r2
 841              	.LVL52:
 842              		.loc 1 474 4 view .LVU304
 843 002a 9942     		cmp	r1, r3
 459:Middlewares/Third_Party/FreeRTOS/Source/portable/MemMang/heap_4.c **** 
 844              		.loc 1 459 12 view .LVU305
 845 002c 05F10105 		add	r5, r5, #1
 846              	.LVL53:
 461:Middlewares/Third_Party/FreeRTOS/Source/portable/MemMang/heap_4.c **** 				{
 847              		.loc 1 461 5 is_stmt 1 view .LVU306
 466:Middlewares/Third_Party/FreeRTOS/Source/portable/MemMang/heap_4.c **** 				{
 848              		.loc 1 466 5 view .LVU307
 473:Middlewares/Third_Party/FreeRTOS/Source/portable/MemMang/heap_4.c **** 			} while( pxBlock != pxEnd );
 849              		.loc 1 473 5 view .LVU308
ARM GAS  /tmp/ccyYBu53.s 			page 32


 850              		.loc 1 474 11 view .LVU309
 851              		.loc 1 474 4 is_stmt 0 view .LVU310
 852 0030 F3D1     		bne	.L68
 853              	.LVL54:
 854              	.L67:
 475:Middlewares/Third_Party/FreeRTOS/Source/portable/MemMang/heap_4.c **** 		}
 476:Middlewares/Third_Party/FreeRTOS/Source/portable/MemMang/heap_4.c **** 	}
 477:Middlewares/Third_Party/FreeRTOS/Source/portable/MemMang/heap_4.c **** 	xTaskResumeAll();
 855              		.loc 1 477 2 is_stmt 1 view .LVU311
 856 0032 FFF7FEFF 		bl	xTaskResumeAll
 857              	.LVL55:
 478:Middlewares/Third_Party/FreeRTOS/Source/portable/MemMang/heap_4.c **** 
 479:Middlewares/Third_Party/FreeRTOS/Source/portable/MemMang/heap_4.c **** 	pxHeapStats->xSizeOfLargestFreeBlockInBytes = xMaxSize;
 858              		.loc 1 479 2 view .LVU312
 480:Middlewares/Third_Party/FreeRTOS/Source/portable/MemMang/heap_4.c **** 	pxHeapStats->xSizeOfSmallestFreeBlockInBytes = xMinSize;
 859              		.loc 1 480 47 is_stmt 0 view .LVU313
 860 0036 C7E90146 		strd	r4, r6, [r7, #4]
 481:Middlewares/Third_Party/FreeRTOS/Source/portable/MemMang/heap_4.c **** 	pxHeapStats->xNumberOfFreeBlocks = xBlocks;
 861              		.loc 1 481 2 is_stmt 1 view .LVU314
 862              		.loc 1 481 35 is_stmt 0 view .LVU315
 863 003a FD60     		str	r5, [r7, #12]
 482:Middlewares/Third_Party/FreeRTOS/Source/portable/MemMang/heap_4.c **** 
 483:Middlewares/Third_Party/FreeRTOS/Source/portable/MemMang/heap_4.c **** 	taskENTER_CRITICAL();
 864              		.loc 1 483 2 is_stmt 1 view .LVU316
 865 003c FFF7FEFF 		bl	vPortEnterCritical
 866              	.LVL56:
 484:Middlewares/Third_Party/FreeRTOS/Source/portable/MemMang/heap_4.c **** 	{
 485:Middlewares/Third_Party/FreeRTOS/Source/portable/MemMang/heap_4.c **** 		pxHeapStats->xAvailableHeapSpaceInBytes = xFreeBytesRemaining;
 867              		.loc 1 485 3 view .LVU317
 486:Middlewares/Third_Party/FreeRTOS/Source/portable/MemMang/heap_4.c **** 		pxHeapStats->xNumberOfSuccessfulAllocations = xNumberOfSuccessfulAllocations;
 868              		.loc 1 486 47 is_stmt 0 view .LVU318
 869 0040 0C49     		ldr	r1, .L72+8
 487:Middlewares/Third_Party/FreeRTOS/Source/portable/MemMang/heap_4.c **** 		pxHeapStats->xNumberOfSuccessfulFrees = xNumberOfSuccessfulFrees;
 870              		.loc 1 487 41 view .LVU319
 871 0042 0D4A     		ldr	r2, .L72+12
 485:Middlewares/Third_Party/FreeRTOS/Source/portable/MemMang/heap_4.c **** 		pxHeapStats->xNumberOfSuccessfulAllocations = xNumberOfSuccessfulAllocations;
 872              		.loc 1 485 43 view .LVU320
 873 0044 0D48     		ldr	r0, .L72+16
 488:Middlewares/Third_Party/FreeRTOS/Source/portable/MemMang/heap_4.c **** 		pxHeapStats->xMinimumEverFreeBytesRemaining = xMinimumEverFreeBytesRemaining;
 874              		.loc 1 488 47 view .LVU321
 875 0046 0E4B     		ldr	r3, .L72+20
 486:Middlewares/Third_Party/FreeRTOS/Source/portable/MemMang/heap_4.c **** 		pxHeapStats->xNumberOfSuccessfulFrees = xNumberOfSuccessfulFrees;
 876              		.loc 1 486 47 view .LVU322
 877 0048 0968     		ldr	r1, [r1]
 487:Middlewares/Third_Party/FreeRTOS/Source/portable/MemMang/heap_4.c **** 		pxHeapStats->xMinimumEverFreeBytesRemaining = xMinimumEverFreeBytesRemaining;
 878              		.loc 1 487 41 view .LVU323
 879 004a 1268     		ldr	r2, [r2]
 880              		.loc 1 488 47 view .LVU324
 881 004c 1B68     		ldr	r3, [r3]
 485:Middlewares/Third_Party/FreeRTOS/Source/portable/MemMang/heap_4.c **** 		pxHeapStats->xNumberOfSuccessfulAllocations = xNumberOfSuccessfulAllocations;
 882              		.loc 1 485 43 view .LVU325
 883 004e 0068     		ldr	r0, [r0]
 884 0050 3860     		str	r0, [r7]
 486:Middlewares/Third_Party/FreeRTOS/Source/portable/MemMang/heap_4.c **** 		pxHeapStats->xNumberOfSuccessfulFrees = xNumberOfSuccessfulFrees;
 885              		.loc 1 486 3 is_stmt 1 view .LVU326
 487:Middlewares/Third_Party/FreeRTOS/Source/portable/MemMang/heap_4.c **** 		pxHeapStats->xMinimumEverFreeBytesRemaining = xMinimumEverFreeBytesRemaining;
 886              		.loc 1 487 41 is_stmt 0 view .LVU327
ARM GAS  /tmp/ccyYBu53.s 			page 33


 887 0052 C7E90512 		strd	r1, r2, [r7, #20]
 888              		.loc 1 488 3 is_stmt 1 view .LVU328
 889              		.loc 1 488 47 is_stmt 0 view .LVU329
 890 0056 3B61     		str	r3, [r7, #16]
 489:Middlewares/Third_Party/FreeRTOS/Source/portable/MemMang/heap_4.c **** 	}
 490:Middlewares/Third_Party/FreeRTOS/Source/portable/MemMang/heap_4.c **** 	taskEXIT_CRITICAL();
 891              		.loc 1 490 2 is_stmt 1 view .LVU330
 491:Middlewares/Third_Party/FreeRTOS/Source/portable/MemMang/heap_4.c **** }
 892              		.loc 1 491 1 is_stmt 0 view .LVU331
 893 0058 BDE8F840 		pop	{r3, r4, r5, r6, r7, lr}
 894              	.LCFI10:
 895              		.cfi_remember_state
 896              		.cfi_restore 14
 897              		.cfi_restore 7
 898              		.cfi_restore 6
 899              		.cfi_restore 5
 900              		.cfi_restore 4
 901              		.cfi_restore 3
 902              		.cfi_def_cfa_offset 0
 903              	.LVL57:
 490:Middlewares/Third_Party/FreeRTOS/Source/portable/MemMang/heap_4.c **** }
 904              		.loc 1 490 2 view .LVU332
 905 005c FFF7FEBF 		b	vPortExitCritical
 906              	.LVL58:
 907              	.L69:
 908              	.LCFI11:
 909              		.cfi_restore_state
 445:Middlewares/Third_Party/FreeRTOS/Source/portable/MemMang/heap_4.c **** 
 910              		.loc 1 445 21 view .LVU333
 911 0060 1C46     		mov	r4, r3
 445:Middlewares/Third_Party/FreeRTOS/Source/portable/MemMang/heap_4.c **** 
 912              		.loc 1 445 35 view .LVU334
 913 0062 4FF0FF36 		mov	r6, #-1
 445:Middlewares/Third_Party/FreeRTOS/Source/portable/MemMang/heap_4.c **** 
 914              		.loc 1 445 8 view .LVU335
 915 0066 1D46     		mov	r5, r3
 916 0068 E3E7     		b	.L67
 917              	.L73:
 918 006a 00BF     		.align	2
 919              	.L72:
 920 006c 00000000 		.word	.LANCHOR0
 921 0070 00000000 		.word	.LANCHOR1
 922 0074 00000000 		.word	.LANCHOR5
 923 0078 00000000 		.word	.LANCHOR6
 924 007c 00000000 		.word	.LANCHOR4
 925 0080 00000000 		.word	.LANCHOR3
 926              		.cfi_endproc
 927              	.LFE12:
 929              		.section	.bss.pxEnd,"aw",%nobits
 930              		.align	2
 931              		.set	.LANCHOR1,. + 0
 934              	pxEnd:
 935 0000 00000000 		.space	4
 936              		.section	.bss.ucHeap,"aw",%nobits
 937              		.align	2
 940              	ucHeap:
 941 0000 00000000 		.space	32768
ARM GAS  /tmp/ccyYBu53.s 			page 34


 941      00000000 
 941      00000000 
 941      00000000 
 941      00000000 
 942              		.section	.bss.xBlockAllocatedBit,"aw",%nobits
 943              		.align	2
 944              		.set	.LANCHOR2,. + 0
 947              	xBlockAllocatedBit:
 948 0000 00000000 		.space	4
 949              		.section	.bss.xFreeBytesRemaining,"aw",%nobits
 950              		.align	2
 951              		.set	.LANCHOR4,. + 0
 954              	xFreeBytesRemaining:
 955 0000 00000000 		.space	4
 956              		.section	.bss.xMinimumEverFreeBytesRemaining,"aw",%nobits
 957              		.align	2
 958              		.set	.LANCHOR3,. + 0
 961              	xMinimumEverFreeBytesRemaining:
 962 0000 00000000 		.space	4
 963              		.section	.bss.xNumberOfSuccessfulAllocations,"aw",%nobits
 964              		.align	2
 965              		.set	.LANCHOR5,. + 0
 968              	xNumberOfSuccessfulAllocations:
 969 0000 00000000 		.space	4
 970              		.section	.bss.xNumberOfSuccessfulFrees,"aw",%nobits
 971              		.align	2
 972              		.set	.LANCHOR6,. + 0
 975              	xNumberOfSuccessfulFrees:
 976 0000 00000000 		.space	4
 977              		.section	.bss.xStart,"aw",%nobits
 978              		.align	2
 979              		.set	.LANCHOR0,. + 0
 982              	xStart:
 983 0000 00000000 		.space	8
 983      00000000 
 984              		.text
 985              	.Letext0:
 986              		.file 3 "/home/irfan/Desktop/arm/gcc-arm-none-eabi-10.3-2021.10-x86_64-linux/gcc-arm-none-eabi-10.
 987              		.file 4 "/home/irfan/Desktop/arm/gcc-arm-none-eabi-10.3-2021.10-x86_64-linux/gcc-arm-none-eabi-10.
 988              		.file 5 "/home/irfan/Desktop/arm/gcc-arm-none-eabi-10.3-2021.10-x86_64-linux/gcc-arm-none-eabi-10.
 989              		.file 6 "Middlewares/Third_Party/FreeRTOS/Source/include/portable.h"
 990              		.file 7 "Middlewares/Third_Party/FreeRTOS/Source/include/task.h"
ARM GAS  /tmp/ccyYBu53.s 			page 35

