ARM GAS  /tmp/ccYgTI9f.s 			page 1


   1              		.cpu cortex-m4
   2              		.arch armv7e-m
   3              		.fpu fpv4-sp-d16
   4              		.eabi_attribute 27, 1
   5              		.eabi_attribute 28, 1
   6              		.eabi_attribute 20, 1
   7              		.eabi_attribute 21, 1
   8              		.eabi_attribute 23, 3
   9              		.eabi_attribute 24, 1
  10              		.eabi_attribute 25, 1
  11              		.eabi_attribute 26, 1
  12              		.eabi_attribute 30, 2
  13              		.eabi_attribute 34, 1
  14              		.eabi_attribute 18, 4
  15              		.file	"main.c"
  16              		.text
  17              	.Ltext0:
  18              		.cfi_sections	.debug_frame
  19              		.section	.text.SystemClock_Config,"ax",%progbits
  20              		.align	1
  21              		.p2align 2,,3
  22              		.global	SystemClock_Config
  23              		.syntax unified
  24              		.thumb
  25              		.thumb_func
  27              	SystemClock_Config:
  28              	.LFB136:
  29              		.file 1 "Core/Src/main.c"
   1:Core/Src/main.c **** /* USER CODE BEGIN Header */
   2:Core/Src/main.c **** /**
   3:Core/Src/main.c ****   ******************************************************************************
   4:Core/Src/main.c ****   * @file           : main.c
   5:Core/Src/main.c ****   * @brief          : Main program body
   6:Core/Src/main.c ****   ******************************************************************************
   7:Core/Src/main.c ****   * @attention
   8:Core/Src/main.c ****   *
   9:Core/Src/main.c ****   * Copyright (c) 2022 STMicroelectronics.
  10:Core/Src/main.c ****   * All rights reserved.
  11:Core/Src/main.c ****   *
  12:Core/Src/main.c ****   * This software is licensed under terms that can be found in the LICENSE file
  13:Core/Src/main.c ****   * in the root directory of this software component.
  14:Core/Src/main.c ****   * If no LICENSE file comes with this software, it is provided AS-IS.
  15:Core/Src/main.c ****   *
  16:Core/Src/main.c ****   ******************************************************************************
  17:Core/Src/main.c ****   */
  18:Core/Src/main.c **** /* USER CODE END Header */
  19:Core/Src/main.c **** /* Includes ------------------------------------------------------------------*/
  20:Core/Src/main.c **** #include "main.h"
  21:Core/Src/main.c **** #include "cmsis_os.h"
  22:Core/Src/main.c **** #include "usb_host.h"
  23:Core/Src/main.c **** 
  24:Core/Src/main.c **** /* Private includes ----------------------------------------------------------*/
  25:Core/Src/main.c **** /* USER CODE BEGIN Includes */
  26:Core/Src/main.c **** 
  27:Core/Src/main.c **** /* USER CODE END Includes */
  28:Core/Src/main.c **** 
  29:Core/Src/main.c **** /* Private typedef -----------------------------------------------------------*/
ARM GAS  /tmp/ccYgTI9f.s 			page 2


  30:Core/Src/main.c **** /* USER CODE BEGIN PTD */
  31:Core/Src/main.c **** 
  32:Core/Src/main.c **** /* USER CODE END PTD */
  33:Core/Src/main.c **** 
  34:Core/Src/main.c **** /* Private define ------------------------------------------------------------*/
  35:Core/Src/main.c **** /* USER CODE BEGIN PD */
  36:Core/Src/main.c **** /* USER CODE END PD */
  37:Core/Src/main.c **** 
  38:Core/Src/main.c **** /* Private macro -------------------------------------------------------------*/
  39:Core/Src/main.c **** /* USER CODE BEGIN PM */
  40:Core/Src/main.c **** 
  41:Core/Src/main.c **** /* USER CODE END PM */
  42:Core/Src/main.c **** 
  43:Core/Src/main.c **** /* Private variables ---------------------------------------------------------*/
  44:Core/Src/main.c **** CRC_HandleTypeDef hcrc;
  45:Core/Src/main.c **** 
  46:Core/Src/main.c **** DMA2D_HandleTypeDef hdma2d;
  47:Core/Src/main.c **** 
  48:Core/Src/main.c **** I2C_HandleTypeDef hi2c3;
  49:Core/Src/main.c **** 
  50:Core/Src/main.c **** LTDC_HandleTypeDef hltdc;
  51:Core/Src/main.c **** 
  52:Core/Src/main.c **** SPI_HandleTypeDef hspi5;
  53:Core/Src/main.c **** 
  54:Core/Src/main.c **** TIM_HandleTypeDef htim1;
  55:Core/Src/main.c **** 
  56:Core/Src/main.c **** UART_HandleTypeDef huart1;
  57:Core/Src/main.c **** 
  58:Core/Src/main.c **** SDRAM_HandleTypeDef hsdram1;
  59:Core/Src/main.c **** 
  60:Core/Src/main.c **** osThreadId defaultTaskHandle;
  61:Core/Src/main.c **** /* USER CODE BEGIN PV */
  62:Core/Src/main.c **** 
  63:Core/Src/main.c **** /* USER CODE END PV */
  64:Core/Src/main.c **** 
  65:Core/Src/main.c **** /* Private function prototypes -----------------------------------------------*/
  66:Core/Src/main.c **** void SystemClock_Config(void);
  67:Core/Src/main.c **** static void MX_GPIO_Init(void);
  68:Core/Src/main.c **** static void MX_CRC_Init(void);
  69:Core/Src/main.c **** static void MX_DMA2D_Init(void);
  70:Core/Src/main.c **** static void MX_FMC_Init(void);
  71:Core/Src/main.c **** static void MX_I2C3_Init(void);
  72:Core/Src/main.c **** static void MX_LTDC_Init(void);
  73:Core/Src/main.c **** static void MX_SPI5_Init(void);
  74:Core/Src/main.c **** static void MX_TIM1_Init(void);
  75:Core/Src/main.c **** static void MX_USART1_UART_Init(void);
  76:Core/Src/main.c **** void StartDefaultTask(void const * argument);
  77:Core/Src/main.c **** 
  78:Core/Src/main.c **** /* USER CODE BEGIN PFP */
  79:Core/Src/main.c **** 
  80:Core/Src/main.c **** /* USER CODE END PFP */
  81:Core/Src/main.c **** 
  82:Core/Src/main.c **** /* Private user code ---------------------------------------------------------*/
  83:Core/Src/main.c **** /* USER CODE BEGIN 0 */
  84:Core/Src/main.c **** 
  85:Core/Src/main.c **** /* USER CODE END 0 */
  86:Core/Src/main.c **** 
ARM GAS  /tmp/ccYgTI9f.s 			page 3


  87:Core/Src/main.c **** /**
  88:Core/Src/main.c ****   * @brief  The application entry point.
  89:Core/Src/main.c ****   * @retval int
  90:Core/Src/main.c ****   */
  91:Core/Src/main.c **** int main(void)
  92:Core/Src/main.c **** {
  93:Core/Src/main.c ****   /* USER CODE BEGIN 1 */
  94:Core/Src/main.c **** 
  95:Core/Src/main.c ****   /* USER CODE END 1 */
  96:Core/Src/main.c **** 
  97:Core/Src/main.c ****   /* MCU Configuration--------------------------------------------------------*/
  98:Core/Src/main.c **** 
  99:Core/Src/main.c ****   /* Reset of all peripherals, Initializes the Flash interface and the Systick. */
 100:Core/Src/main.c ****   HAL_Init();
 101:Core/Src/main.c **** 
 102:Core/Src/main.c ****   /* USER CODE BEGIN Init */
 103:Core/Src/main.c **** 
 104:Core/Src/main.c ****   /* USER CODE END Init */
 105:Core/Src/main.c **** 
 106:Core/Src/main.c ****   /* Configure the system clock */
 107:Core/Src/main.c ****   SystemClock_Config();
 108:Core/Src/main.c **** 
 109:Core/Src/main.c ****   /* USER CODE BEGIN SysInit */
 110:Core/Src/main.c **** 
 111:Core/Src/main.c ****   /* USER CODE END SysInit */
 112:Core/Src/main.c **** 
 113:Core/Src/main.c ****   /* Initialize all configured peripherals */
 114:Core/Src/main.c ****   MX_GPIO_Init();
 115:Core/Src/main.c ****   MX_CRC_Init();
 116:Core/Src/main.c ****   MX_DMA2D_Init();
 117:Core/Src/main.c ****   MX_FMC_Init();
 118:Core/Src/main.c ****   MX_I2C3_Init();
 119:Core/Src/main.c ****   MX_LTDC_Init();
 120:Core/Src/main.c ****   MX_SPI5_Init();
 121:Core/Src/main.c ****   MX_TIM1_Init();
 122:Core/Src/main.c ****   MX_USART1_UART_Init();
 123:Core/Src/main.c ****   /* USER CODE BEGIN 2 */
 124:Core/Src/main.c **** 
 125:Core/Src/main.c ****   /* USER CODE END 2 */
 126:Core/Src/main.c **** 
 127:Core/Src/main.c ****   /* USER CODE BEGIN RTOS_MUTEX */
 128:Core/Src/main.c ****   /* add mutexes, ... */
 129:Core/Src/main.c ****   /* USER CODE END RTOS_MUTEX */
 130:Core/Src/main.c **** 
 131:Core/Src/main.c ****   /* USER CODE BEGIN RTOS_SEMAPHORES */
 132:Core/Src/main.c ****   /* add semaphores, ... */
 133:Core/Src/main.c ****   /* USER CODE END RTOS_SEMAPHORES */
 134:Core/Src/main.c **** 
 135:Core/Src/main.c ****   /* USER CODE BEGIN RTOS_TIMERS */
 136:Core/Src/main.c ****   /* start timers, add new ones, ... */
 137:Core/Src/main.c ****   /* USER CODE END RTOS_TIMERS */
 138:Core/Src/main.c **** 
 139:Core/Src/main.c ****   /* USER CODE BEGIN RTOS_QUEUES */
 140:Core/Src/main.c ****   /* add queues, ... */
 141:Core/Src/main.c ****   /* USER CODE END RTOS_QUEUES */
 142:Core/Src/main.c **** 
 143:Core/Src/main.c ****   /* Create the thread(s) */
ARM GAS  /tmp/ccYgTI9f.s 			page 4


 144:Core/Src/main.c ****   /* definition and creation of defaultTask */
 145:Core/Src/main.c ****   //osThreadDef(defaultTask, StartDefaultTask, osPriorityNormal, 0, 4096);
 146:Core/Src/main.c ****   //defaultTaskHandle = osThreadCreate(osThread(defaultTask), NULL);
 147:Core/Src/main.c **** 
 148:Core/Src/main.c ****   /* USER CODE BEGIN RTOS_THREADS */
 149:Core/Src/main.c ****   /* add threads, ... */
 150:Core/Src/main.c ****   /* USER CODE END RTOS_THREADS */
 151:Core/Src/main.c **** 
 152:Core/Src/main.c ****   /* Start scheduler */
 153:Core/Src/main.c ****   //osKernelStart();
 154:Core/Src/main.c **** 
 155:Core/Src/main.c ****   /* We should never get here as control is now taken by the scheduler */
 156:Core/Src/main.c ****   /* Infinite loop */
 157:Core/Src/main.c ****   /* USER CODE BEGIN WHILE */
 158:Core/Src/main.c ****    #include "stm32f429i_discovery_lcd.h"
 159:Core/Src/main.c ****    #include "string.h"
 160:Core/Src/main.c ****     //__HAL_RCC_CRC_CLK_ENABLE(); /* Enable the CRC Module */
 161:Core/Src/main.c ****     BSP_SDRAM_Init(); /* Initializes the SDRAM device */
 162:Core/Src/main.c ****     BSP_LCD_Init();
 163:Core/Src/main.c ****     //BSP_LCD_LayerDefaultInit(LCD_BACKGROUND_LAYER,LCD_FRAME_BUFFER);
 164:Core/Src/main.c ****     BSP_LCD_LayerDefaultInit(LCD_FOREGROUND_LAYER,LCD_FRAME_BUFFER);
 165:Core/Src/main.c ****     BSP_LCD_SelectLayer(LCD_FOREGROUND_LAYER);
 166:Core/Src/main.c ****     BSP_LCD_DisplayOn();
 167:Core/Src/main.c **** 
 168:Core/Src/main.c ****     HAL_Delay(500);
 169:Core/Src/main.c ****     char pData[15];
 170:Core/Src/main.c ****     memset(pData,0,15);
 171:Core/Src/main.c ****     strcpy(pData,(char*)" Hello from ");
 172:Core/Src/main.c ****     int cx =100, count = 0;
 173:Core/Src/main.c ****     while (1)
 174:Core/Src/main.c ****     {
 175:Core/Src/main.c ****     if(count%2==0)
 176:Core/Src/main.c ****     {
 177:Core/Src/main.c **** 		//HAL_UART_Receive(&huart1, (uint8_t*)pData,10,1000);
 178:Core/Src/main.c **** 		BSP_LCD_Clear(LCD_COLOR_BLUE);
 179:Core/Src/main.c **** 		BSP_LCD_ClearStringLine(1);
 180:Core/Src/main.c **** 		BSP_LCD_SetTextColor(LCD_COLOR_GREEN);
 181:Core/Src/main.c **** 		BSP_LCD_DisplayStringAtLine(1,(uint8_t*)pData);
 182:Core/Src/main.c **** 		//BSP_LCD_DisplayStringAtLine(2,(uint8_t*)"   Irfan!!  ");
 183:Core/Src/main.c **** 		BSP_LCD_SetTextColor(LCD_COLOR_RED);
 184:Core/Src/main.c **** 		BSP_LCD_DrawCircle(cx, 140, 25);
 185:Core/Src/main.c **** 		BSP_LCD_SetTextColor(LCD_COLOR_YELLOW);
 186:Core/Src/main.c **** 		BSP_LCD_DrawHLine(40, 200 , 120);
 187:Core/Src/main.c **** 		BSP_LCD_DrawHLine(40, 220 , 120);
 188:Core/Src/main.c **** 		BSP_LCD_DrawHLine(40, 225 , 120);
 189:Core/Src/main.c **** 		//BSP_LCD_DrawHLine(40, 225 , 120);
 190:Core/Src/main.c **** 		//BSP_LCD_DrawHLine(40, 230 , 120);
 191:Core/Src/main.c ****     }
 192:Core/Src/main.c ****     else{
 193:Core/Src/main.c ****     	//HAL_UART_Receive(&huart1, (uint8_t*)pData,10,1000);
 194:Core/Src/main.c ****     			BSP_LCD_Clear(LCD_COLOR_BLUE);
 195:Core/Src/main.c ****     			BSP_LCD_ClearStringLine(1);
 196:Core/Src/main.c ****     			BSP_LCD_SetTextColor(LCD_COLOR_GREEN);
 197:Core/Src/main.c ****     			//BSP_LCD_DisplayStringAtLine(1,(uint8_t*)pData);
 198:Core/Src/main.c ****     			BSP_LCD_DisplayStringAtLine(1,(uint8_t*)"   Irfan!!  ");
 199:Core/Src/main.c ****     			BSP_LCD_SetTextColor(LCD_COLOR_RED);
 200:Core/Src/main.c ****     			BSP_LCD_DrawCircle(cx, 140, 25);
ARM GAS  /tmp/ccYgTI9f.s 			page 5


 201:Core/Src/main.c ****     			BSP_LCD_SetTextColor(LCD_COLOR_YELLOW);
 202:Core/Src/main.c ****     			BSP_LCD_DrawHLine(40, 200 , 120);
 203:Core/Src/main.c ****     			BSP_LCD_DrawHLine(40, 220 , 120);
 204:Core/Src/main.c ****     			BSP_LCD_DrawHLine(40, 225 , 120);
 205:Core/Src/main.c ****     			//BSP_LCD_DrawHLine(40, 225 , 120);
 206:Core/Src/main.c **** 
 207:Core/Src/main.c ****     }
 208:Core/Src/main.c ****    	HAL_Delay(1000);
 209:Core/Src/main.c ****    	count +=1;
 210:Core/Src/main.c ****    	if(count == 10)	count =0;
 211:Core/Src/main.c ****    	//BSP_LCD_Clear(LCD_COLOR_WHITE);
 212:Core/Src/main.c ****    	//HAL_Delay(500);
 213:Core/Src/main.c ****     /* USER CODE END WHILE */
 214:Core/Src/main.c **** 
 215:Core/Src/main.c ****     /* USER CODE BEGIN 3 */
 216:Core/Src/main.c ****     }
 217:Core/Src/main.c ****   /* USER CODE END 3 */
 218:Core/Src/main.c **** }
 219:Core/Src/main.c **** 
 220:Core/Src/main.c **** /**
 221:Core/Src/main.c ****   * @brief System Clock Configuration
 222:Core/Src/main.c ****   * @retval None
 223:Core/Src/main.c ****   */
 224:Core/Src/main.c **** void SystemClock_Config(void)
 225:Core/Src/main.c **** {
  30              		.loc 1 225 1 view -0
  31              		.cfi_startproc
  32              		@ args = 0, pretend = 0, frame = 80
  33              		@ frame_needed = 0, uses_anonymous_args = 0
 226:Core/Src/main.c ****   RCC_OscInitTypeDef RCC_OscInitStruct = {0};
  34              		.loc 1 226 3 view .LVU1
 225:Core/Src/main.c ****   RCC_OscInitTypeDef RCC_OscInitStruct = {0};
  35              		.loc 1 225 1 is_stmt 0 view .LVU2
  36 0000 10B5     		push	{r4, lr}
  37              	.LCFI0:
  38              		.cfi_def_cfa_offset 8
  39              		.cfi_offset 4, -8
  40              		.cfi_offset 14, -4
  41              		.loc 1 226 22 view .LVU3
  42 0002 0023     		movs	r3, #0
 225:Core/Src/main.c ****   RCC_OscInitTypeDef RCC_OscInitStruct = {0};
  43              		.loc 1 225 1 view .LVU4
  44 0004 94B0     		sub	sp, sp, #80
  45              	.LCFI1:
  46              		.cfi_def_cfa_offset 88
  47              		.loc 1 226 22 view .LVU5
  48 0006 CDE90A33 		strd	r3, r3, [sp, #40]
  49 000a CDE90C33 		strd	r3, r3, [sp, #48]
 227:Core/Src/main.c ****   RCC_ClkInitTypeDef RCC_ClkInitStruct = {0};
  50              		.loc 1 227 3 is_stmt 1 view .LVU6
  51              		.loc 1 227 22 is_stmt 0 view .LVU7
  52 000e CDE90333 		strd	r3, r3, [sp, #12]
  53 0012 CDE90533 		strd	r3, r3, [sp, #20]
  54              	.LBB70:
 228:Core/Src/main.c **** 
 229:Core/Src/main.c ****   /** Configure the main internal regulator output voltage
 230:Core/Src/main.c ****   */
ARM GAS  /tmp/ccYgTI9f.s 			page 6


 231:Core/Src/main.c ****   __HAL_RCC_PWR_CLK_ENABLE();
  55              		.loc 1 231 3 view .LVU8
  56 0016 2149     		ldr	r1, .L8
  57 0018 0193     		str	r3, [sp, #4]
  58              	.LBE70:
 227:Core/Src/main.c ****   RCC_ClkInitTypeDef RCC_ClkInitStruct = {0};
  59              		.loc 1 227 22 view .LVU9
  60 001a 0793     		str	r3, [sp, #28]
  61              		.loc 1 231 3 is_stmt 1 view .LVU10
  62              	.LBB71:
  63              		.loc 1 231 3 view .LVU11
  64              		.loc 1 231 3 view .LVU12
  65 001c 086C     		ldr	r0, [r1, #64]
  66              	.LBE71:
  67              	.LBB72:
 232:Core/Src/main.c ****   __HAL_PWR_VOLTAGESCALING_CONFIG(PWR_REGULATOR_VOLTAGE_SCALE3);
  68              		.loc 1 232 3 is_stmt 0 view .LVU13
  69 001e 204A     		ldr	r2, .L8+4
  70              	.LBE72:
  71              	.LBB73:
 231:Core/Src/main.c ****   __HAL_PWR_VOLTAGESCALING_CONFIG(PWR_REGULATOR_VOLTAGE_SCALE3);
  72              		.loc 1 231 3 view .LVU14
  73 0020 40F08050 		orr	r0, r0, #268435456
  74 0024 0864     		str	r0, [r1, #64]
 231:Core/Src/main.c ****   __HAL_PWR_VOLTAGESCALING_CONFIG(PWR_REGULATOR_VOLTAGE_SCALE3);
  75              		.loc 1 231 3 is_stmt 1 view .LVU15
  76 0026 096C     		ldr	r1, [r1, #64]
  77 0028 01F08051 		and	r1, r1, #268435456
  78 002c 0191     		str	r1, [sp, #4]
 231:Core/Src/main.c ****   __HAL_PWR_VOLTAGESCALING_CONFIG(PWR_REGULATOR_VOLTAGE_SCALE3);
  79              		.loc 1 231 3 view .LVU16
  80 002e 0199     		ldr	r1, [sp, #4]
  81              	.LBE73:
 231:Core/Src/main.c ****   __HAL_PWR_VOLTAGESCALING_CONFIG(PWR_REGULATOR_VOLTAGE_SCALE3);
  82              		.loc 1 231 3 view .LVU17
  83              		.loc 1 232 3 view .LVU18
  84              	.LBB74:
  85              		.loc 1 232 3 view .LVU19
  86 0030 0293     		str	r3, [sp, #8]
  87              		.loc 1 232 3 view .LVU20
  88 0032 1368     		ldr	r3, [r2]
  89 0034 23F44043 		bic	r3, r3, #49152
  90 0038 43F48043 		orr	r3, r3, #16384
  91 003c 1360     		str	r3, [r2]
  92              		.loc 1 232 3 view .LVU21
  93 003e 1368     		ldr	r3, [r2]
  94 0040 03F44043 		and	r3, r3, #49152
  95              	.LBE74:
 233:Core/Src/main.c ****   /** Initializes the RCC Oscillators according to the specified parameters
 234:Core/Src/main.c ****   * in the RCC_OscInitTypeDef structure.
 235:Core/Src/main.c ****   */
 236:Core/Src/main.c ****   RCC_OscInitStruct.OscillatorType = RCC_OSCILLATORTYPE_HSE;
  96              		.loc 1 236 36 is_stmt 0 view .LVU22
  97 0044 0122     		movs	r2, #1
  98              	.LBB75:
 232:Core/Src/main.c ****   /** Initializes the RCC Oscillators according to the specified parameters
  99              		.loc 1 232 3 view .LVU23
ARM GAS  /tmp/ccYgTI9f.s 			page 7


 100 0046 0293     		str	r3, [sp, #8]
 232:Core/Src/main.c ****   /** Initializes the RCC Oscillators according to the specified parameters
 101              		.loc 1 232 3 is_stmt 1 view .LVU24
 102              	.LBE75:
 237:Core/Src/main.c ****   RCC_OscInitStruct.HSEState = RCC_HSE_ON;
 103              		.loc 1 237 30 is_stmt 0 view .LVU25
 104 0048 4FF48033 		mov	r3, #65536
 105 004c CDE90823 		strd	r2, r3, [sp, #32]
 238:Core/Src/main.c ****   RCC_OscInitStruct.PLL.PLLState = RCC_PLL_ON;
 239:Core/Src/main.c ****   RCC_OscInitStruct.PLL.PLLSource = RCC_PLLSOURCE_HSE;
 240:Core/Src/main.c ****   RCC_OscInitStruct.PLL.PLLM = 4;
 106              		.loc 1 240 30 view .LVU26
 107 0050 0423     		movs	r3, #4
 238:Core/Src/main.c ****   RCC_OscInitStruct.PLL.PLLState = RCC_PLL_ON;
 108              		.loc 1 238 34 view .LVU27
 109 0052 0224     		movs	r4, #2
 110              	.LBB76:
 232:Core/Src/main.c ****   /** Initializes the RCC Oscillators according to the specified parameters
 111              		.loc 1 232 3 view .LVU28
 112 0054 0298     		ldr	r0, [sp, #8]
 113              	.LBE76:
 232:Core/Src/main.c ****   /** Initializes the RCC Oscillators according to the specified parameters
 114              		.loc 1 232 3 is_stmt 1 view .LVU29
 236:Core/Src/main.c ****   RCC_OscInitStruct.HSEState = RCC_HSE_ON;
 115              		.loc 1 236 3 view .LVU30
 238:Core/Src/main.c ****   RCC_OscInitStruct.PLL.PLLState = RCC_PLL_ON;
 116              		.loc 1 238 3 view .LVU31
 117              		.loc 1 240 30 is_stmt 0 view .LVU32
 118 0056 1093     		str	r3, [sp, #64]
 239:Core/Src/main.c ****   RCC_OscInitStruct.PLL.PLLM = 4;
 119              		.loc 1 239 35 view .LVU33
 120 0058 4FF48001 		mov	r1, #4194304
 241:Core/Src/main.c ****   RCC_OscInitStruct.PLL.PLLN = 72;
 121              		.loc 1 241 30 view .LVU34
 122 005c 4822     		movs	r2, #72
 242:Core/Src/main.c ****   RCC_OscInitStruct.PLL.PLLP = RCC_PLLP_DIV2;
 243:Core/Src/main.c ****   RCC_OscInitStruct.PLL.PLLQ = 3;
 123              		.loc 1 243 30 view .LVU35
 124 005e 0323     		movs	r3, #3
 244:Core/Src/main.c ****   if (HAL_RCC_OscConfig(&RCC_OscInitStruct) != HAL_OK)
 125              		.loc 1 244 7 view .LVU36
 126 0060 08A8     		add	r0, sp, #32
 239:Core/Src/main.c ****   RCC_OscInitStruct.PLL.PLLM = 4;
 127              		.loc 1 239 35 view .LVU37
 128 0062 CDE90E41 		strd	r4, r1, [sp, #56]
 240:Core/Src/main.c ****   RCC_OscInitStruct.PLL.PLLN = 72;
 129              		.loc 1 240 3 is_stmt 1 view .LVU38
 241:Core/Src/main.c ****   RCC_OscInitStruct.PLL.PLLP = RCC_PLLP_DIV2;
 130              		.loc 1 241 3 view .LVU39
 242:Core/Src/main.c ****   RCC_OscInitStruct.PLL.PLLQ = 3;
 131              		.loc 1 242 30 is_stmt 0 view .LVU40
 132 0066 CDE91124 		strd	r2, r4, [sp, #68]
 243:Core/Src/main.c ****   if (HAL_RCC_OscConfig(&RCC_OscInitStruct) != HAL_OK)
 133              		.loc 1 243 3 is_stmt 1 view .LVU41
 243:Core/Src/main.c ****   if (HAL_RCC_OscConfig(&RCC_OscInitStruct) != HAL_OK)
 134              		.loc 1 243 30 is_stmt 0 view .LVU42
 135 006a 1393     		str	r3, [sp, #76]
ARM GAS  /tmp/ccYgTI9f.s 			page 8


 136              		.loc 1 244 3 is_stmt 1 view .LVU43
 137              		.loc 1 244 7 is_stmt 0 view .LVU44
 138 006c FFF7FEFF 		bl	HAL_RCC_OscConfig
 139              	.LVL0:
 140              		.loc 1 244 6 view .LVU45
 141 0070 08B1     		cbz	r0, .L2
 245:Core/Src/main.c ****   {
 246:Core/Src/main.c ****     Error_Handler();
 142              		.loc 1 246 5 is_stmt 1 view .LVU46
 143              	.LBB77:
 144              	.LBI77:
 247:Core/Src/main.c ****   }
 248:Core/Src/main.c ****   /** Initializes the CPU, AHB and APB buses clocks
 249:Core/Src/main.c ****   */
 250:Core/Src/main.c ****   RCC_ClkInitStruct.ClockType = RCC_CLOCKTYPE_HCLK|RCC_CLOCKTYPE_SYSCLK
 251:Core/Src/main.c ****                               |RCC_CLOCKTYPE_PCLK1|RCC_CLOCKTYPE_PCLK2;
 252:Core/Src/main.c ****   RCC_ClkInitStruct.SYSCLKSource = RCC_SYSCLKSOURCE_PLLCLK;
 253:Core/Src/main.c ****   RCC_ClkInitStruct.AHBCLKDivider = RCC_SYSCLK_DIV1;
 254:Core/Src/main.c ****   RCC_ClkInitStruct.APB1CLKDivider = RCC_HCLK_DIV2;
 255:Core/Src/main.c ****   RCC_ClkInitStruct.APB2CLKDivider = RCC_HCLK_DIV1;
 256:Core/Src/main.c **** 
 257:Core/Src/main.c ****   if (HAL_RCC_ClockConfig(&RCC_ClkInitStruct, FLASH_LATENCY_2) != HAL_OK)
 258:Core/Src/main.c ****   {
 259:Core/Src/main.c ****     Error_Handler();
 260:Core/Src/main.c ****   }
 261:Core/Src/main.c **** }
 262:Core/Src/main.c **** 
 263:Core/Src/main.c **** /**
 264:Core/Src/main.c ****   * @brief CRC Initialization Function
 265:Core/Src/main.c ****   * @param None
 266:Core/Src/main.c ****   * @retval None
 267:Core/Src/main.c ****   */
 268:Core/Src/main.c **** static void MX_CRC_Init(void)
 269:Core/Src/main.c **** {
 270:Core/Src/main.c **** 
 271:Core/Src/main.c ****   /* USER CODE BEGIN CRC_Init 0 */
 272:Core/Src/main.c **** 
 273:Core/Src/main.c ****   /* USER CODE END CRC_Init 0 */
 274:Core/Src/main.c **** 
 275:Core/Src/main.c ****   /* USER CODE BEGIN CRC_Init 1 */
 276:Core/Src/main.c **** 
 277:Core/Src/main.c ****   /* USER CODE END CRC_Init 1 */
 278:Core/Src/main.c ****   hcrc.Instance = CRC;
 279:Core/Src/main.c ****   if (HAL_CRC_Init(&hcrc) != HAL_OK)
 280:Core/Src/main.c ****   {
 281:Core/Src/main.c ****     Error_Handler();
 282:Core/Src/main.c ****   }
 283:Core/Src/main.c ****   /* USER CODE BEGIN CRC_Init 2 */
 284:Core/Src/main.c **** 
 285:Core/Src/main.c ****   /* USER CODE END CRC_Init 2 */
 286:Core/Src/main.c **** 
 287:Core/Src/main.c **** }
 288:Core/Src/main.c **** 
 289:Core/Src/main.c **** /**
 290:Core/Src/main.c ****   * @brief DMA2D Initialization Function
 291:Core/Src/main.c ****   * @param None
 292:Core/Src/main.c ****   * @retval None
ARM GAS  /tmp/ccYgTI9f.s 			page 9


 293:Core/Src/main.c ****   */
 294:Core/Src/main.c **** static void MX_DMA2D_Init(void)
 295:Core/Src/main.c **** {
 296:Core/Src/main.c **** 
 297:Core/Src/main.c ****   /* USER CODE BEGIN DMA2D_Init 0 */
 298:Core/Src/main.c **** 
 299:Core/Src/main.c ****   /* USER CODE END DMA2D_Init 0 */
 300:Core/Src/main.c **** 
 301:Core/Src/main.c ****   /* USER CODE BEGIN DMA2D_Init 1 */
 302:Core/Src/main.c **** 
 303:Core/Src/main.c ****   /* USER CODE END DMA2D_Init 1 */
 304:Core/Src/main.c ****   hdma2d.Instance = DMA2D;
 305:Core/Src/main.c ****   hdma2d.Init.Mode = DMA2D_M2M;
 306:Core/Src/main.c ****   hdma2d.Init.ColorMode = DMA2D_OUTPUT_ARGB8888;
 307:Core/Src/main.c ****   hdma2d.Init.OutputOffset = 0;
 308:Core/Src/main.c ****   hdma2d.LayerCfg[1].InputOffset = 0;
 309:Core/Src/main.c ****   hdma2d.LayerCfg[1].InputColorMode = DMA2D_INPUT_ARGB8888;
 310:Core/Src/main.c ****   hdma2d.LayerCfg[1].AlphaMode = DMA2D_NO_MODIF_ALPHA;
 311:Core/Src/main.c ****   hdma2d.LayerCfg[1].InputAlpha = 0;
 312:Core/Src/main.c ****   if (HAL_DMA2D_Init(&hdma2d) != HAL_OK)
 313:Core/Src/main.c ****   {
 314:Core/Src/main.c ****     Error_Handler();
 315:Core/Src/main.c ****   }
 316:Core/Src/main.c ****   if (HAL_DMA2D_ConfigLayer(&hdma2d, 1) != HAL_OK)
 317:Core/Src/main.c ****   {
 318:Core/Src/main.c ****     Error_Handler();
 319:Core/Src/main.c ****   }
 320:Core/Src/main.c ****   /* USER CODE BEGIN DMA2D_Init 2 */
 321:Core/Src/main.c **** 
 322:Core/Src/main.c ****   /* USER CODE END DMA2D_Init 2 */
 323:Core/Src/main.c **** 
 324:Core/Src/main.c **** }
 325:Core/Src/main.c **** 
 326:Core/Src/main.c **** /**
 327:Core/Src/main.c ****   * @brief I2C3 Initialization Function
 328:Core/Src/main.c ****   * @param None
 329:Core/Src/main.c ****   * @retval None
 330:Core/Src/main.c ****   */
 331:Core/Src/main.c **** static void MX_I2C3_Init(void)
 332:Core/Src/main.c **** {
 333:Core/Src/main.c **** 
 334:Core/Src/main.c ****   /* USER CODE BEGIN I2C3_Init 0 */
 335:Core/Src/main.c **** 
 336:Core/Src/main.c ****   /* USER CODE END I2C3_Init 0 */
 337:Core/Src/main.c **** 
 338:Core/Src/main.c ****   /* USER CODE BEGIN I2C3_Init 1 */
 339:Core/Src/main.c **** 
 340:Core/Src/main.c ****   /* USER CODE END I2C3_Init 1 */
 341:Core/Src/main.c ****   hi2c3.Instance = I2C3;
 342:Core/Src/main.c ****   hi2c3.Init.ClockSpeed = 100000;
 343:Core/Src/main.c ****   hi2c3.Init.DutyCycle = I2C_DUTYCYCLE_2;
 344:Core/Src/main.c ****   hi2c3.Init.OwnAddress1 = 0;
 345:Core/Src/main.c ****   hi2c3.Init.AddressingMode = I2C_ADDRESSINGMODE_7BIT;
 346:Core/Src/main.c ****   hi2c3.Init.DualAddressMode = I2C_DUALADDRESS_DISABLE;
 347:Core/Src/main.c ****   hi2c3.Init.OwnAddress2 = 0;
 348:Core/Src/main.c ****   hi2c3.Init.GeneralCallMode = I2C_GENERALCALL_DISABLE;
 349:Core/Src/main.c ****   hi2c3.Init.NoStretchMode = I2C_NOSTRETCH_DISABLE;
ARM GAS  /tmp/ccYgTI9f.s 			page 10


 350:Core/Src/main.c ****   if (HAL_I2C_Init(&hi2c3) != HAL_OK)
 351:Core/Src/main.c ****   {
 352:Core/Src/main.c ****     Error_Handler();
 353:Core/Src/main.c ****   }
 354:Core/Src/main.c ****   /** Configure Analogue filter
 355:Core/Src/main.c ****   */
 356:Core/Src/main.c ****   if (HAL_I2CEx_ConfigAnalogFilter(&hi2c3, I2C_ANALOGFILTER_ENABLE) != HAL_OK)
 357:Core/Src/main.c ****   {
 358:Core/Src/main.c ****     Error_Handler();
 359:Core/Src/main.c ****   }
 360:Core/Src/main.c ****   /** Configure Digital filter
 361:Core/Src/main.c ****   */
 362:Core/Src/main.c ****   if (HAL_I2CEx_ConfigDigitalFilter(&hi2c3, 0) != HAL_OK)
 363:Core/Src/main.c ****   {
 364:Core/Src/main.c ****     Error_Handler();
 365:Core/Src/main.c ****   }
 366:Core/Src/main.c ****   /* USER CODE BEGIN I2C3_Init 2 */
 367:Core/Src/main.c **** 
 368:Core/Src/main.c ****   /* USER CODE END I2C3_Init 2 */
 369:Core/Src/main.c **** 
 370:Core/Src/main.c **** }
 371:Core/Src/main.c **** 
 372:Core/Src/main.c **** /**
 373:Core/Src/main.c ****   * @brief LTDC Initialization Function
 374:Core/Src/main.c ****   * @param None
 375:Core/Src/main.c ****   * @retval None
 376:Core/Src/main.c ****   */
 377:Core/Src/main.c **** static void MX_LTDC_Init(void)
 378:Core/Src/main.c **** {
 379:Core/Src/main.c **** 
 380:Core/Src/main.c ****   /* USER CODE BEGIN LTDC_Init 0 */
 381:Core/Src/main.c **** 
 382:Core/Src/main.c ****   /* USER CODE END LTDC_Init 0 */
 383:Core/Src/main.c **** 
 384:Core/Src/main.c ****   LTDC_LayerCfgTypeDef pLayerCfg = {0};
 385:Core/Src/main.c **** 
 386:Core/Src/main.c ****   /* USER CODE BEGIN LTDC_Init 1 */
 387:Core/Src/main.c **** 
 388:Core/Src/main.c ****   /* USER CODE END LTDC_Init 1 */
 389:Core/Src/main.c ****   hltdc.Instance = LTDC;
 390:Core/Src/main.c ****   hltdc.Init.HSPolarity = LTDC_HSPOLARITY_AL;
 391:Core/Src/main.c ****   hltdc.Init.VSPolarity = LTDC_VSPOLARITY_AL;
 392:Core/Src/main.c ****   hltdc.Init.DEPolarity = LTDC_DEPOLARITY_AL;
 393:Core/Src/main.c ****   hltdc.Init.PCPolarity = LTDC_PCPOLARITY_IPC;
 394:Core/Src/main.c ****   hltdc.Init.HorizontalSync = 9;
 395:Core/Src/main.c ****   hltdc.Init.VerticalSync = 1;
 396:Core/Src/main.c ****   hltdc.Init.AccumulatedHBP = 29;
 397:Core/Src/main.c ****   hltdc.Init.AccumulatedVBP = 3;
 398:Core/Src/main.c ****   hltdc.Init.AccumulatedActiveW = 269;
 399:Core/Src/main.c ****   hltdc.Init.AccumulatedActiveH = 323;
 400:Core/Src/main.c ****   hltdc.Init.TotalWidth = 279;
 401:Core/Src/main.c ****   hltdc.Init.TotalHeigh = 327;
 402:Core/Src/main.c ****   hltdc.Init.Backcolor.Blue = 0;
 403:Core/Src/main.c ****   hltdc.Init.Backcolor.Green = 0;
 404:Core/Src/main.c ****   hltdc.Init.Backcolor.Red = 0;
 405:Core/Src/main.c ****   if (HAL_LTDC_Init(&hltdc) != HAL_OK)
 406:Core/Src/main.c ****   {
ARM GAS  /tmp/ccYgTI9f.s 			page 11


 407:Core/Src/main.c ****     Error_Handler();
 408:Core/Src/main.c ****   }
 409:Core/Src/main.c ****   pLayerCfg.WindowX0 = 0;
 410:Core/Src/main.c ****   pLayerCfg.WindowX1 = 240;
 411:Core/Src/main.c ****   pLayerCfg.WindowY0 = 0;
 412:Core/Src/main.c ****   pLayerCfg.WindowY1 = 320;
 413:Core/Src/main.c ****   pLayerCfg.PixelFormat = LTDC_PIXEL_FORMAT_RGB888;
 414:Core/Src/main.c ****   pLayerCfg.Alpha = 255;
 415:Core/Src/main.c ****   pLayerCfg.Alpha0 = 0;
 416:Core/Src/main.c ****   pLayerCfg.BlendingFactor1 = LTDC_BLENDING_FACTOR1_PAxCA;
 417:Core/Src/main.c ****   pLayerCfg.BlendingFactor2 = LTDC_BLENDING_FACTOR2_PAxCA;
 418:Core/Src/main.c ****   pLayerCfg.FBStartAdress = 0xD0000000;
 419:Core/Src/main.c ****   pLayerCfg.ImageWidth = 240;
 420:Core/Src/main.c ****   pLayerCfg.ImageHeight = 320;
 421:Core/Src/main.c ****   pLayerCfg.Backcolor.Blue = 0;
 422:Core/Src/main.c ****   pLayerCfg.Backcolor.Green = 0;
 423:Core/Src/main.c ****   pLayerCfg.Backcolor.Red = 0;
 424:Core/Src/main.c ****   if (HAL_LTDC_ConfigLayer(&hltdc, &pLayerCfg, 0) != HAL_OK)
 425:Core/Src/main.c ****   {
 426:Core/Src/main.c ****     Error_Handler();
 427:Core/Src/main.c ****   }
 428:Core/Src/main.c ****   /* USER CODE BEGIN LTDC_Init 2 */
 429:Core/Src/main.c **** 
 430:Core/Src/main.c ****   /* USER CODE END LTDC_Init 2 */
 431:Core/Src/main.c **** 
 432:Core/Src/main.c **** }
 433:Core/Src/main.c **** 
 434:Core/Src/main.c **** /**
 435:Core/Src/main.c ****   * @brief SPI5 Initialization Function
 436:Core/Src/main.c ****   * @param None
 437:Core/Src/main.c ****   * @retval None
 438:Core/Src/main.c ****   */
 439:Core/Src/main.c **** static void MX_SPI5_Init(void)
 440:Core/Src/main.c **** {
 441:Core/Src/main.c **** 
 442:Core/Src/main.c ****   /* USER CODE BEGIN SPI5_Init 0 */
 443:Core/Src/main.c **** 
 444:Core/Src/main.c ****   /* USER CODE END SPI5_Init 0 */
 445:Core/Src/main.c **** 
 446:Core/Src/main.c ****   /* USER CODE BEGIN SPI5_Init 1 */
 447:Core/Src/main.c **** 
 448:Core/Src/main.c ****   /* USER CODE END SPI5_Init 1 */
 449:Core/Src/main.c ****   /* SPI5 parameter configuration*/
 450:Core/Src/main.c ****   hspi5.Instance = SPI5;
 451:Core/Src/main.c ****   hspi5.Init.Mode = SPI_MODE_MASTER;
 452:Core/Src/main.c ****   hspi5.Init.Direction = SPI_DIRECTION_2LINES;
 453:Core/Src/main.c ****   hspi5.Init.DataSize = SPI_DATASIZE_8BIT;
 454:Core/Src/main.c ****   hspi5.Init.CLKPolarity = SPI_POLARITY_LOW;
 455:Core/Src/main.c ****   hspi5.Init.CLKPhase = SPI_PHASE_1EDGE;
 456:Core/Src/main.c ****   hspi5.Init.NSS = SPI_NSS_SOFT;
 457:Core/Src/main.c ****   hspi5.Init.BaudRatePrescaler = SPI_BAUDRATEPRESCALER_16;
 458:Core/Src/main.c ****   hspi5.Init.FirstBit = SPI_FIRSTBIT_MSB;
 459:Core/Src/main.c ****   hspi5.Init.TIMode = SPI_TIMODE_DISABLE;
 460:Core/Src/main.c ****   hspi5.Init.CRCCalculation = SPI_CRCCALCULATION_DISABLE;
 461:Core/Src/main.c ****   hspi5.Init.CRCPolynomial = 10;
 462:Core/Src/main.c ****   if (HAL_SPI_Init(&hspi5) != HAL_OK)
 463:Core/Src/main.c ****   {
ARM GAS  /tmp/ccYgTI9f.s 			page 12


 464:Core/Src/main.c ****     Error_Handler();
 465:Core/Src/main.c ****   }
 466:Core/Src/main.c ****   /* USER CODE BEGIN SPI5_Init 2 */
 467:Core/Src/main.c **** 
 468:Core/Src/main.c ****   /* USER CODE END SPI5_Init 2 */
 469:Core/Src/main.c **** 
 470:Core/Src/main.c **** }
 471:Core/Src/main.c **** 
 472:Core/Src/main.c **** /**
 473:Core/Src/main.c ****   * @brief TIM1 Initialization Function
 474:Core/Src/main.c ****   * @param None
 475:Core/Src/main.c ****   * @retval None
 476:Core/Src/main.c ****   */
 477:Core/Src/main.c **** static void MX_TIM1_Init(void)
 478:Core/Src/main.c **** {
 479:Core/Src/main.c **** 
 480:Core/Src/main.c ****   /* USER CODE BEGIN TIM1_Init 0 */
 481:Core/Src/main.c **** 
 482:Core/Src/main.c ****   /* USER CODE END TIM1_Init 0 */
 483:Core/Src/main.c **** 
 484:Core/Src/main.c ****   TIM_ClockConfigTypeDef sClockSourceConfig = {0};
 485:Core/Src/main.c ****   TIM_MasterConfigTypeDef sMasterConfig = {0};
 486:Core/Src/main.c **** 
 487:Core/Src/main.c ****   /* USER CODE BEGIN TIM1_Init 1 */
 488:Core/Src/main.c **** 
 489:Core/Src/main.c ****   /* USER CODE END TIM1_Init 1 */
 490:Core/Src/main.c ****   htim1.Instance = TIM1;
 491:Core/Src/main.c ****   htim1.Init.Prescaler = 0;
 492:Core/Src/main.c ****   htim1.Init.CounterMode = TIM_COUNTERMODE_UP;
 493:Core/Src/main.c ****   htim1.Init.Period = 65535;
 494:Core/Src/main.c ****   htim1.Init.ClockDivision = TIM_CLOCKDIVISION_DIV1;
 495:Core/Src/main.c ****   htim1.Init.RepetitionCounter = 0;
 496:Core/Src/main.c ****   htim1.Init.AutoReloadPreload = TIM_AUTORELOAD_PRELOAD_DISABLE;
 497:Core/Src/main.c ****   if (HAL_TIM_Base_Init(&htim1) != HAL_OK)
 498:Core/Src/main.c ****   {
 499:Core/Src/main.c ****     Error_Handler();
 500:Core/Src/main.c ****   }
 501:Core/Src/main.c ****   sClockSourceConfig.ClockSource = TIM_CLOCKSOURCE_INTERNAL;
 502:Core/Src/main.c ****   if (HAL_TIM_ConfigClockSource(&htim1, &sClockSourceConfig) != HAL_OK)
 503:Core/Src/main.c ****   {
 504:Core/Src/main.c ****     Error_Handler();
 505:Core/Src/main.c ****   }
 506:Core/Src/main.c ****   sMasterConfig.MasterOutputTrigger = TIM_TRGO_RESET;
 507:Core/Src/main.c ****   sMasterConfig.MasterSlaveMode = TIM_MASTERSLAVEMODE_DISABLE;
 508:Core/Src/main.c ****   if (HAL_TIMEx_MasterConfigSynchronization(&htim1, &sMasterConfig) != HAL_OK)
 509:Core/Src/main.c ****   {
 510:Core/Src/main.c ****     Error_Handler();
 511:Core/Src/main.c ****   }
 512:Core/Src/main.c ****   /* USER CODE BEGIN TIM1_Init 2 */
 513:Core/Src/main.c **** 
 514:Core/Src/main.c ****   /* USER CODE END TIM1_Init 2 */
 515:Core/Src/main.c **** 
 516:Core/Src/main.c **** }
 517:Core/Src/main.c **** 
 518:Core/Src/main.c **** /**
 519:Core/Src/main.c ****   * @brief USART1 Initialization Function
 520:Core/Src/main.c ****   * @param None
ARM GAS  /tmp/ccYgTI9f.s 			page 13


 521:Core/Src/main.c ****   * @retval None
 522:Core/Src/main.c ****   */
 523:Core/Src/main.c **** static void MX_USART1_UART_Init(void)
 524:Core/Src/main.c **** {
 525:Core/Src/main.c **** 
 526:Core/Src/main.c ****   /* USER CODE BEGIN USART1_Init 0 */
 527:Core/Src/main.c **** 
 528:Core/Src/main.c ****   /* USER CODE END USART1_Init 0 */
 529:Core/Src/main.c **** 
 530:Core/Src/main.c ****   /* USER CODE BEGIN USART1_Init 1 */
 531:Core/Src/main.c **** 
 532:Core/Src/main.c ****   /* USER CODE END USART1_Init 1 */
 533:Core/Src/main.c ****   huart1.Instance = USART1;
 534:Core/Src/main.c ****   huart1.Init.BaudRate = 115200;
 535:Core/Src/main.c ****   huart1.Init.WordLength = UART_WORDLENGTH_8B;
 536:Core/Src/main.c ****   huart1.Init.StopBits = UART_STOPBITS_1;
 537:Core/Src/main.c ****   huart1.Init.Parity = UART_PARITY_NONE;
 538:Core/Src/main.c ****   huart1.Init.Mode = UART_MODE_TX_RX;
 539:Core/Src/main.c ****   huart1.Init.HwFlowCtl = UART_HWCONTROL_NONE;
 540:Core/Src/main.c ****   huart1.Init.OverSampling = UART_OVERSAMPLING_16;
 541:Core/Src/main.c ****   if (HAL_UART_Init(&huart1) != HAL_OK)
 542:Core/Src/main.c ****   {
 543:Core/Src/main.c ****     Error_Handler();
 544:Core/Src/main.c ****   }
 545:Core/Src/main.c ****   /* USER CODE BEGIN USART1_Init 2 */
 546:Core/Src/main.c **** 
 547:Core/Src/main.c ****   /* USER CODE END USART1_Init 2 */
 548:Core/Src/main.c **** 
 549:Core/Src/main.c **** }
 550:Core/Src/main.c **** 
 551:Core/Src/main.c **** /* FMC initialization function */
 552:Core/Src/main.c **** static void MX_FMC_Init(void)
 553:Core/Src/main.c **** {
 554:Core/Src/main.c **** 
 555:Core/Src/main.c ****   /* USER CODE BEGIN FMC_Init 0 */
 556:Core/Src/main.c **** 
 557:Core/Src/main.c ****   /* USER CODE END FMC_Init 0 */
 558:Core/Src/main.c **** 
 559:Core/Src/main.c ****   FMC_SDRAM_TimingTypeDef SdramTiming = {0};
 560:Core/Src/main.c **** 
 561:Core/Src/main.c ****   /* USER CODE BEGIN FMC_Init 1 */
 562:Core/Src/main.c **** 
 563:Core/Src/main.c ****   /* USER CODE END FMC_Init 1 */
 564:Core/Src/main.c **** 
 565:Core/Src/main.c ****   /** Perform the SDRAM1 memory initialization sequence
 566:Core/Src/main.c ****   */
 567:Core/Src/main.c ****   hsdram1.Instance = FMC_SDRAM_DEVICE;
 568:Core/Src/main.c ****   /* hsdram1.Init */
 569:Core/Src/main.c ****   hsdram1.Init.SDBank = FMC_SDRAM_BANK2;
 570:Core/Src/main.c ****   hsdram1.Init.ColumnBitsNumber = FMC_SDRAM_COLUMN_BITS_NUM_8;
 571:Core/Src/main.c ****   hsdram1.Init.RowBitsNumber = FMC_SDRAM_ROW_BITS_NUM_12;
 572:Core/Src/main.c ****   hsdram1.Init.MemoryDataWidth = FMC_SDRAM_MEM_BUS_WIDTH_16;
 573:Core/Src/main.c ****   hsdram1.Init.InternalBankNumber = FMC_SDRAM_INTERN_BANKS_NUM_4;
 574:Core/Src/main.c ****   hsdram1.Init.CASLatency = FMC_SDRAM_CAS_LATENCY_3;
 575:Core/Src/main.c ****   hsdram1.Init.WriteProtection = FMC_SDRAM_WRITE_PROTECTION_DISABLE;
 576:Core/Src/main.c ****   hsdram1.Init.SDClockPeriod = FMC_SDRAM_CLOCK_PERIOD_2;
 577:Core/Src/main.c ****   hsdram1.Init.ReadBurst = FMC_SDRAM_RBURST_DISABLE;
ARM GAS  /tmp/ccYgTI9f.s 			page 14


 578:Core/Src/main.c ****   hsdram1.Init.ReadPipeDelay = FMC_SDRAM_RPIPE_DELAY_1;
 579:Core/Src/main.c ****   /* SdramTiming */
 580:Core/Src/main.c ****   SdramTiming.LoadToActiveDelay = 2;
 581:Core/Src/main.c ****   SdramTiming.ExitSelfRefreshDelay = 7;
 582:Core/Src/main.c ****   SdramTiming.SelfRefreshTime = 4;
 583:Core/Src/main.c ****   SdramTiming.RowCycleDelay = 7;
 584:Core/Src/main.c ****   SdramTiming.WriteRecoveryTime = 3;
 585:Core/Src/main.c ****   SdramTiming.RPDelay = 2;
 586:Core/Src/main.c ****   SdramTiming.RCDDelay = 2;
 587:Core/Src/main.c **** 
 588:Core/Src/main.c ****   if (HAL_SDRAM_Init(&hsdram1, &SdramTiming) != HAL_OK)
 589:Core/Src/main.c ****   {
 590:Core/Src/main.c ****     Error_Handler( );
 591:Core/Src/main.c ****   }
 592:Core/Src/main.c **** 
 593:Core/Src/main.c ****   /* USER CODE BEGIN FMC_Init 2 */
 594:Core/Src/main.c **** 
 595:Core/Src/main.c ****   /* USER CODE END FMC_Init 2 */
 596:Core/Src/main.c **** }
 597:Core/Src/main.c **** 
 598:Core/Src/main.c **** /**
 599:Core/Src/main.c ****   * @brief GPIO Initialization Function
 600:Core/Src/main.c ****   * @param None
 601:Core/Src/main.c ****   * @retval None
 602:Core/Src/main.c ****   */
 603:Core/Src/main.c **** static void MX_GPIO_Init(void)
 604:Core/Src/main.c **** {
 605:Core/Src/main.c ****   GPIO_InitTypeDef GPIO_InitStruct = {0};
 606:Core/Src/main.c **** 
 607:Core/Src/main.c ****   /* GPIO Ports Clock Enable */
 608:Core/Src/main.c ****   __HAL_RCC_GPIOC_CLK_ENABLE();
 609:Core/Src/main.c ****   __HAL_RCC_GPIOF_CLK_ENABLE();
 610:Core/Src/main.c ****   __HAL_RCC_GPIOH_CLK_ENABLE();
 611:Core/Src/main.c ****   __HAL_RCC_GPIOA_CLK_ENABLE();
 612:Core/Src/main.c ****   __HAL_RCC_GPIOB_CLK_ENABLE();
 613:Core/Src/main.c ****   __HAL_RCC_GPIOG_CLK_ENABLE();
 614:Core/Src/main.c ****   __HAL_RCC_GPIOE_CLK_ENABLE();
 615:Core/Src/main.c ****   __HAL_RCC_GPIOD_CLK_ENABLE();
 616:Core/Src/main.c **** 
 617:Core/Src/main.c ****   /*Configure GPIO pin Output Level */
 618:Core/Src/main.c ****   HAL_GPIO_WritePin(GPIOC, NCS_MEMS_SPI_Pin|CSX_Pin|OTG_FS_PSO_Pin, GPIO_PIN_RESET);
 619:Core/Src/main.c **** 
 620:Core/Src/main.c ****   /*Configure GPIO pin Output Level */
 621:Core/Src/main.c ****   HAL_GPIO_WritePin(ACP_RST_GPIO_Port, ACP_RST_Pin, GPIO_PIN_RESET);
 622:Core/Src/main.c **** 
 623:Core/Src/main.c ****   /*Configure GPIO pin Output Level */
 624:Core/Src/main.c ****   HAL_GPIO_WritePin(GPIOD, RDX_Pin|WRX_DCX_Pin, GPIO_PIN_RESET);
 625:Core/Src/main.c **** 
 626:Core/Src/main.c ****   /*Configure GPIO pin Output Level */
 627:Core/Src/main.c ****   HAL_GPIO_WritePin(GPIOG, LD3_Pin|LD4_Pin, GPIO_PIN_RESET);
 628:Core/Src/main.c **** 
 629:Core/Src/main.c ****   /*Configure GPIO pins : NCS_MEMS_SPI_Pin CSX_Pin OTG_FS_PSO_Pin */
 630:Core/Src/main.c ****   GPIO_InitStruct.Pin = NCS_MEMS_SPI_Pin|CSX_Pin|OTG_FS_PSO_Pin;
 631:Core/Src/main.c ****   GPIO_InitStruct.Mode = GPIO_MODE_OUTPUT_PP;
 632:Core/Src/main.c ****   GPIO_InitStruct.Pull = GPIO_NOPULL;
 633:Core/Src/main.c ****   GPIO_InitStruct.Speed = GPIO_SPEED_FREQ_LOW;
 634:Core/Src/main.c ****   HAL_GPIO_Init(GPIOC, &GPIO_InitStruct);
ARM GAS  /tmp/ccYgTI9f.s 			page 15


 635:Core/Src/main.c **** 
 636:Core/Src/main.c ****   /*Configure GPIO pins : B1_Pin MEMS_INT1_Pin MEMS_INT2_Pin TP_INT1_Pin */
 637:Core/Src/main.c ****   GPIO_InitStruct.Pin = B1_Pin|MEMS_INT1_Pin|MEMS_INT2_Pin|TP_INT1_Pin;
 638:Core/Src/main.c ****   GPIO_InitStruct.Mode = GPIO_MODE_EVT_RISING;
 639:Core/Src/main.c ****   GPIO_InitStruct.Pull = GPIO_NOPULL;
 640:Core/Src/main.c ****   HAL_GPIO_Init(GPIOA, &GPIO_InitStruct);
 641:Core/Src/main.c **** 
 642:Core/Src/main.c ****   /*Configure GPIO pin : ACP_RST_Pin */
 643:Core/Src/main.c ****   GPIO_InitStruct.Pin = ACP_RST_Pin;
 644:Core/Src/main.c ****   GPIO_InitStruct.Mode = GPIO_MODE_OUTPUT_PP;
 645:Core/Src/main.c ****   GPIO_InitStruct.Pull = GPIO_NOPULL;
 646:Core/Src/main.c ****   GPIO_InitStruct.Speed = GPIO_SPEED_FREQ_LOW;
 647:Core/Src/main.c ****   HAL_GPIO_Init(ACP_RST_GPIO_Port, &GPIO_InitStruct);
 648:Core/Src/main.c **** 
 649:Core/Src/main.c ****   /*Configure GPIO pin : OTG_FS_OC_Pin */
 650:Core/Src/main.c ****   GPIO_InitStruct.Pin = OTG_FS_OC_Pin;
 651:Core/Src/main.c ****   GPIO_InitStruct.Mode = GPIO_MODE_EVT_RISING;
 652:Core/Src/main.c ****   GPIO_InitStruct.Pull = GPIO_NOPULL;
 653:Core/Src/main.c ****   HAL_GPIO_Init(OTG_FS_OC_GPIO_Port, &GPIO_InitStruct);
 654:Core/Src/main.c **** 
 655:Core/Src/main.c ****   /*Configure GPIO pin : BOOT1_Pin */
 656:Core/Src/main.c ****   GPIO_InitStruct.Pin = BOOT1_Pin;
 657:Core/Src/main.c ****   GPIO_InitStruct.Mode = GPIO_MODE_INPUT;
 658:Core/Src/main.c ****   GPIO_InitStruct.Pull = GPIO_NOPULL;
 659:Core/Src/main.c ****   HAL_GPIO_Init(BOOT1_GPIO_Port, &GPIO_InitStruct);
 660:Core/Src/main.c **** 
 661:Core/Src/main.c ****   /*Configure GPIO pin : TE_Pin */
 662:Core/Src/main.c ****   GPIO_InitStruct.Pin = TE_Pin;
 663:Core/Src/main.c ****   GPIO_InitStruct.Mode = GPIO_MODE_INPUT;
 664:Core/Src/main.c ****   GPIO_InitStruct.Pull = GPIO_NOPULL;
 665:Core/Src/main.c ****   HAL_GPIO_Init(TE_GPIO_Port, &GPIO_InitStruct);
 666:Core/Src/main.c **** 
 667:Core/Src/main.c ****   /*Configure GPIO pins : RDX_Pin WRX_DCX_Pin */
 668:Core/Src/main.c ****   GPIO_InitStruct.Pin = RDX_Pin|WRX_DCX_Pin;
 669:Core/Src/main.c ****   GPIO_InitStruct.Mode = GPIO_MODE_OUTPUT_PP;
 670:Core/Src/main.c ****   GPIO_InitStruct.Pull = GPIO_NOPULL;
 671:Core/Src/main.c ****   GPIO_InitStruct.Speed = GPIO_SPEED_FREQ_LOW;
 672:Core/Src/main.c ****   HAL_GPIO_Init(GPIOD, &GPIO_InitStruct);
 673:Core/Src/main.c **** 
 674:Core/Src/main.c ****   /*Configure GPIO pins : LD3_Pin LD4_Pin */
 675:Core/Src/main.c ****   GPIO_InitStruct.Pin = LD3_Pin|LD4_Pin;
 676:Core/Src/main.c ****   GPIO_InitStruct.Mode = GPIO_MODE_OUTPUT_PP;
 677:Core/Src/main.c ****   GPIO_InitStruct.Pull = GPIO_NOPULL;
 678:Core/Src/main.c ****   GPIO_InitStruct.Speed = GPIO_SPEED_FREQ_LOW;
 679:Core/Src/main.c ****   HAL_GPIO_Init(GPIOG, &GPIO_InitStruct);
 680:Core/Src/main.c **** 
 681:Core/Src/main.c **** }
 682:Core/Src/main.c **** 
 683:Core/Src/main.c **** /* USER CODE BEGIN 4 */
 684:Core/Src/main.c **** 
 685:Core/Src/main.c **** /* USER CODE END 4 */
 686:Core/Src/main.c **** 
 687:Core/Src/main.c **** /* USER CODE BEGIN Header_StartDefaultTask */
 688:Core/Src/main.c **** /**
 689:Core/Src/main.c ****   * @brief  Function implementing the defaultTask thread.
 690:Core/Src/main.c ****   * @param  argument: Not used
 691:Core/Src/main.c ****   * @retval None
ARM GAS  /tmp/ccYgTI9f.s 			page 16


 692:Core/Src/main.c ****   */
 693:Core/Src/main.c **** /* USER CODE END Header_StartDefaultTask */
 694:Core/Src/main.c **** void StartDefaultTask(void const * argument)
 695:Core/Src/main.c **** {
 696:Core/Src/main.c ****   /* init code for USB_HOST */
 697:Core/Src/main.c ****   MX_USB_HOST_Init();
 698:Core/Src/main.c ****   /* USER CODE BEGIN 5 */
 699:Core/Src/main.c ****   /* Infinite loop */
 700:Core/Src/main.c ****   for(;;)
 701:Core/Src/main.c ****   {
 702:Core/Src/main.c ****     osDelay(1);
 703:Core/Src/main.c ****   }
 704:Core/Src/main.c ****   /* USER CODE END 5 */
 705:Core/Src/main.c **** }
 706:Core/Src/main.c **** 
 707:Core/Src/main.c **** /**
 708:Core/Src/main.c ****   * @brief  Period elapsed callback in non blocking mode
 709:Core/Src/main.c ****   * @note   This function is called  when TIM6 interrupt took place, inside
 710:Core/Src/main.c ****   * HAL_TIM_IRQHandler(). It makes a direct call to HAL_IncTick() to increment
 711:Core/Src/main.c ****   * a global variable "uwTick" used as application time base.
 712:Core/Src/main.c ****   * @param  htim : TIM handle
 713:Core/Src/main.c ****   * @retval None
 714:Core/Src/main.c ****   */
 715:Core/Src/main.c **** void HAL_TIM_PeriodElapsedCallback(TIM_HandleTypeDef *htim)
 716:Core/Src/main.c **** {
 717:Core/Src/main.c ****   /* USER CODE BEGIN Callback 0 */
 718:Core/Src/main.c **** 
 719:Core/Src/main.c ****   /* USER CODE END Callback 0 */
 720:Core/Src/main.c ****   if (htim->Instance == TIM6) {
 721:Core/Src/main.c ****     HAL_IncTick();
 722:Core/Src/main.c ****   }
 723:Core/Src/main.c ****   /* USER CODE BEGIN Callback 1 */
 724:Core/Src/main.c **** 
 725:Core/Src/main.c ****   /* USER CODE END Callback 1 */
 726:Core/Src/main.c **** }
 727:Core/Src/main.c **** 
 728:Core/Src/main.c **** /**
 729:Core/Src/main.c ****   * @brief  This function is executed in case of error occurrence.
 730:Core/Src/main.c ****   * @retval None
 731:Core/Src/main.c ****   */
 732:Core/Src/main.c **** void Error_Handler(void)
 145              		.loc 1 732 6 view .LVU47
 146              	.LBE77:
 733:Core/Src/main.c **** {
 734:Core/Src/main.c ****   /* USER CODE BEGIN Error_Handler_Debug */
 735:Core/Src/main.c ****   /* User can add his own implementation to report the HAL error return state */
 736:Core/Src/main.c ****   __disable_irq();
 147              		.loc 1 736 3 view .LVU48
 148              	.LBB80:
 149              	.LBB78:
 150              	.LBI78:
 151              		.file 2 "Drivers/CMSIS/Include/cmsis_gcc.h"
   1:Drivers/CMSIS/Include/cmsis_gcc.h **** /**************************************************************************//**
   2:Drivers/CMSIS/Include/cmsis_gcc.h ****  * @file     cmsis_gcc.h
   3:Drivers/CMSIS/Include/cmsis_gcc.h ****  * @brief    CMSIS compiler GCC header file
   4:Drivers/CMSIS/Include/cmsis_gcc.h ****  * @version  V5.0.4
   5:Drivers/CMSIS/Include/cmsis_gcc.h ****  * @date     09. April 2018
ARM GAS  /tmp/ccYgTI9f.s 			page 17


   6:Drivers/CMSIS/Include/cmsis_gcc.h ****  ******************************************************************************/
   7:Drivers/CMSIS/Include/cmsis_gcc.h **** /*
   8:Drivers/CMSIS/Include/cmsis_gcc.h ****  * Copyright (c) 2009-2018 Arm Limited. All rights reserved.
   9:Drivers/CMSIS/Include/cmsis_gcc.h ****  *
  10:Drivers/CMSIS/Include/cmsis_gcc.h ****  * SPDX-License-Identifier: Apache-2.0
  11:Drivers/CMSIS/Include/cmsis_gcc.h ****  *
  12:Drivers/CMSIS/Include/cmsis_gcc.h ****  * Licensed under the Apache License, Version 2.0 (the License); you may
  13:Drivers/CMSIS/Include/cmsis_gcc.h ****  * not use this file except in compliance with the License.
  14:Drivers/CMSIS/Include/cmsis_gcc.h ****  * You may obtain a copy of the License at
  15:Drivers/CMSIS/Include/cmsis_gcc.h ****  *
  16:Drivers/CMSIS/Include/cmsis_gcc.h ****  * www.apache.org/licenses/LICENSE-2.0
  17:Drivers/CMSIS/Include/cmsis_gcc.h ****  *
  18:Drivers/CMSIS/Include/cmsis_gcc.h ****  * Unless required by applicable law or agreed to in writing, software
  19:Drivers/CMSIS/Include/cmsis_gcc.h ****  * distributed under the License is distributed on an AS IS BASIS, WITHOUT
  20:Drivers/CMSIS/Include/cmsis_gcc.h ****  * WARRANTIES OR CONDITIONS OF ANY KIND, either express or implied.
  21:Drivers/CMSIS/Include/cmsis_gcc.h ****  * See the License for the specific language governing permissions and
  22:Drivers/CMSIS/Include/cmsis_gcc.h ****  * limitations under the License.
  23:Drivers/CMSIS/Include/cmsis_gcc.h ****  */
  24:Drivers/CMSIS/Include/cmsis_gcc.h **** 
  25:Drivers/CMSIS/Include/cmsis_gcc.h **** #ifndef __CMSIS_GCC_H
  26:Drivers/CMSIS/Include/cmsis_gcc.h **** #define __CMSIS_GCC_H
  27:Drivers/CMSIS/Include/cmsis_gcc.h **** 
  28:Drivers/CMSIS/Include/cmsis_gcc.h **** /* ignore some GCC warnings */
  29:Drivers/CMSIS/Include/cmsis_gcc.h **** #pragma GCC diagnostic push
  30:Drivers/CMSIS/Include/cmsis_gcc.h **** #pragma GCC diagnostic ignored "-Wsign-conversion"
  31:Drivers/CMSIS/Include/cmsis_gcc.h **** #pragma GCC diagnostic ignored "-Wconversion"
  32:Drivers/CMSIS/Include/cmsis_gcc.h **** #pragma GCC diagnostic ignored "-Wunused-parameter"
  33:Drivers/CMSIS/Include/cmsis_gcc.h **** 
  34:Drivers/CMSIS/Include/cmsis_gcc.h **** /* Fallback for __has_builtin */
  35:Drivers/CMSIS/Include/cmsis_gcc.h **** #ifndef __has_builtin
  36:Drivers/CMSIS/Include/cmsis_gcc.h ****   #define __has_builtin(x) (0)
  37:Drivers/CMSIS/Include/cmsis_gcc.h **** #endif
  38:Drivers/CMSIS/Include/cmsis_gcc.h **** 
  39:Drivers/CMSIS/Include/cmsis_gcc.h **** /* CMSIS compiler specific defines */
  40:Drivers/CMSIS/Include/cmsis_gcc.h **** #ifndef   __ASM
  41:Drivers/CMSIS/Include/cmsis_gcc.h ****   #define __ASM                                  __asm
  42:Drivers/CMSIS/Include/cmsis_gcc.h **** #endif
  43:Drivers/CMSIS/Include/cmsis_gcc.h **** #ifndef   __INLINE
  44:Drivers/CMSIS/Include/cmsis_gcc.h ****   #define __INLINE                               inline
  45:Drivers/CMSIS/Include/cmsis_gcc.h **** #endif
  46:Drivers/CMSIS/Include/cmsis_gcc.h **** #ifndef   __STATIC_INLINE
  47:Drivers/CMSIS/Include/cmsis_gcc.h ****   #define __STATIC_INLINE                        static inline
  48:Drivers/CMSIS/Include/cmsis_gcc.h **** #endif
  49:Drivers/CMSIS/Include/cmsis_gcc.h **** #ifndef   __STATIC_FORCEINLINE                 
  50:Drivers/CMSIS/Include/cmsis_gcc.h ****   #define __STATIC_FORCEINLINE                   __attribute__((always_inline)) static inline
  51:Drivers/CMSIS/Include/cmsis_gcc.h **** #endif                                           
  52:Drivers/CMSIS/Include/cmsis_gcc.h **** #ifndef   __NO_RETURN
  53:Drivers/CMSIS/Include/cmsis_gcc.h ****   #define __NO_RETURN                            __attribute__((__noreturn__))
  54:Drivers/CMSIS/Include/cmsis_gcc.h **** #endif
  55:Drivers/CMSIS/Include/cmsis_gcc.h **** #ifndef   __USED
  56:Drivers/CMSIS/Include/cmsis_gcc.h ****   #define __USED                                 __attribute__((used))
  57:Drivers/CMSIS/Include/cmsis_gcc.h **** #endif
  58:Drivers/CMSIS/Include/cmsis_gcc.h **** #ifndef   __WEAK
  59:Drivers/CMSIS/Include/cmsis_gcc.h ****   #define __WEAK                                 __attribute__((weak))
  60:Drivers/CMSIS/Include/cmsis_gcc.h **** #endif
  61:Drivers/CMSIS/Include/cmsis_gcc.h **** #ifndef   __PACKED
  62:Drivers/CMSIS/Include/cmsis_gcc.h ****   #define __PACKED                               __attribute__((packed, aligned(1)))
ARM GAS  /tmp/ccYgTI9f.s 			page 18


  63:Drivers/CMSIS/Include/cmsis_gcc.h **** #endif
  64:Drivers/CMSIS/Include/cmsis_gcc.h **** #ifndef   __PACKED_STRUCT
  65:Drivers/CMSIS/Include/cmsis_gcc.h ****   #define __PACKED_STRUCT                        struct __attribute__((packed, aligned(1)))
  66:Drivers/CMSIS/Include/cmsis_gcc.h **** #endif
  67:Drivers/CMSIS/Include/cmsis_gcc.h **** #ifndef   __PACKED_UNION
  68:Drivers/CMSIS/Include/cmsis_gcc.h ****   #define __PACKED_UNION                         union __attribute__((packed, aligned(1)))
  69:Drivers/CMSIS/Include/cmsis_gcc.h **** #endif
  70:Drivers/CMSIS/Include/cmsis_gcc.h **** #ifndef   __UNALIGNED_UINT32        /* deprecated */
  71:Drivers/CMSIS/Include/cmsis_gcc.h ****   #pragma GCC diagnostic push
  72:Drivers/CMSIS/Include/cmsis_gcc.h ****   #pragma GCC diagnostic ignored "-Wpacked"
  73:Drivers/CMSIS/Include/cmsis_gcc.h ****   #pragma GCC diagnostic ignored "-Wattributes"
  74:Drivers/CMSIS/Include/cmsis_gcc.h ****   struct __attribute__((packed)) T_UINT32 { uint32_t v; };
  75:Drivers/CMSIS/Include/cmsis_gcc.h ****   #pragma GCC diagnostic pop
  76:Drivers/CMSIS/Include/cmsis_gcc.h ****   #define __UNALIGNED_UINT32(x)                  (((struct T_UINT32 *)(x))->v)
  77:Drivers/CMSIS/Include/cmsis_gcc.h **** #endif
  78:Drivers/CMSIS/Include/cmsis_gcc.h **** #ifndef   __UNALIGNED_UINT16_WRITE
  79:Drivers/CMSIS/Include/cmsis_gcc.h ****   #pragma GCC diagnostic push
  80:Drivers/CMSIS/Include/cmsis_gcc.h ****   #pragma GCC diagnostic ignored "-Wpacked"
  81:Drivers/CMSIS/Include/cmsis_gcc.h ****   #pragma GCC diagnostic ignored "-Wattributes"
  82:Drivers/CMSIS/Include/cmsis_gcc.h ****   __PACKED_STRUCT T_UINT16_WRITE { uint16_t v; };
  83:Drivers/CMSIS/Include/cmsis_gcc.h ****   #pragma GCC diagnostic pop
  84:Drivers/CMSIS/Include/cmsis_gcc.h ****   #define __UNALIGNED_UINT16_WRITE(addr, val)    (void)((((struct T_UINT16_WRITE *)(void *)(addr))-
  85:Drivers/CMSIS/Include/cmsis_gcc.h **** #endif
  86:Drivers/CMSIS/Include/cmsis_gcc.h **** #ifndef   __UNALIGNED_UINT16_READ
  87:Drivers/CMSIS/Include/cmsis_gcc.h ****   #pragma GCC diagnostic push
  88:Drivers/CMSIS/Include/cmsis_gcc.h ****   #pragma GCC diagnostic ignored "-Wpacked"
  89:Drivers/CMSIS/Include/cmsis_gcc.h ****   #pragma GCC diagnostic ignored "-Wattributes"
  90:Drivers/CMSIS/Include/cmsis_gcc.h ****   __PACKED_STRUCT T_UINT16_READ { uint16_t v; };
  91:Drivers/CMSIS/Include/cmsis_gcc.h ****   #pragma GCC diagnostic pop
  92:Drivers/CMSIS/Include/cmsis_gcc.h ****   #define __UNALIGNED_UINT16_READ(addr)          (((const struct T_UINT16_READ *)(const void *)(add
  93:Drivers/CMSIS/Include/cmsis_gcc.h **** #endif
  94:Drivers/CMSIS/Include/cmsis_gcc.h **** #ifndef   __UNALIGNED_UINT32_WRITE
  95:Drivers/CMSIS/Include/cmsis_gcc.h ****   #pragma GCC diagnostic push
  96:Drivers/CMSIS/Include/cmsis_gcc.h ****   #pragma GCC diagnostic ignored "-Wpacked"
  97:Drivers/CMSIS/Include/cmsis_gcc.h ****   #pragma GCC diagnostic ignored "-Wattributes"
  98:Drivers/CMSIS/Include/cmsis_gcc.h ****   __PACKED_STRUCT T_UINT32_WRITE { uint32_t v; };
  99:Drivers/CMSIS/Include/cmsis_gcc.h ****   #pragma GCC diagnostic pop
 100:Drivers/CMSIS/Include/cmsis_gcc.h ****   #define __UNALIGNED_UINT32_WRITE(addr, val)    (void)((((struct T_UINT32_WRITE *)(void *)(addr))-
 101:Drivers/CMSIS/Include/cmsis_gcc.h **** #endif
 102:Drivers/CMSIS/Include/cmsis_gcc.h **** #ifndef   __UNALIGNED_UINT32_READ
 103:Drivers/CMSIS/Include/cmsis_gcc.h ****   #pragma GCC diagnostic push
 104:Drivers/CMSIS/Include/cmsis_gcc.h ****   #pragma GCC diagnostic ignored "-Wpacked"
 105:Drivers/CMSIS/Include/cmsis_gcc.h ****   #pragma GCC diagnostic ignored "-Wattributes"
 106:Drivers/CMSIS/Include/cmsis_gcc.h ****   __PACKED_STRUCT T_UINT32_READ { uint32_t v; };
 107:Drivers/CMSIS/Include/cmsis_gcc.h ****   #pragma GCC diagnostic pop
 108:Drivers/CMSIS/Include/cmsis_gcc.h ****   #define __UNALIGNED_UINT32_READ(addr)          (((const struct T_UINT32_READ *)(const void *)(add
 109:Drivers/CMSIS/Include/cmsis_gcc.h **** #endif
 110:Drivers/CMSIS/Include/cmsis_gcc.h **** #ifndef   __ALIGNED
 111:Drivers/CMSIS/Include/cmsis_gcc.h ****   #define __ALIGNED(x)                           __attribute__((aligned(x)))
 112:Drivers/CMSIS/Include/cmsis_gcc.h **** #endif
 113:Drivers/CMSIS/Include/cmsis_gcc.h **** #ifndef   __RESTRICT
 114:Drivers/CMSIS/Include/cmsis_gcc.h ****   #define __RESTRICT                             __restrict
 115:Drivers/CMSIS/Include/cmsis_gcc.h **** #endif
 116:Drivers/CMSIS/Include/cmsis_gcc.h **** 
 117:Drivers/CMSIS/Include/cmsis_gcc.h **** 
 118:Drivers/CMSIS/Include/cmsis_gcc.h **** /* ###########################  Core Function Access  ########################### */
 119:Drivers/CMSIS/Include/cmsis_gcc.h **** /** \ingroup  CMSIS_Core_FunctionInterface
ARM GAS  /tmp/ccYgTI9f.s 			page 19


 120:Drivers/CMSIS/Include/cmsis_gcc.h ****     \defgroup CMSIS_Core_RegAccFunctions CMSIS Core Register Access Functions
 121:Drivers/CMSIS/Include/cmsis_gcc.h ****   @{
 122:Drivers/CMSIS/Include/cmsis_gcc.h ****  */
 123:Drivers/CMSIS/Include/cmsis_gcc.h **** 
 124:Drivers/CMSIS/Include/cmsis_gcc.h **** /**
 125:Drivers/CMSIS/Include/cmsis_gcc.h ****   \brief   Enable IRQ Interrupts
 126:Drivers/CMSIS/Include/cmsis_gcc.h ****   \details Enables IRQ interrupts by clearing the I-bit in the CPSR.
 127:Drivers/CMSIS/Include/cmsis_gcc.h ****            Can only be executed in Privileged modes.
 128:Drivers/CMSIS/Include/cmsis_gcc.h ****  */
 129:Drivers/CMSIS/Include/cmsis_gcc.h **** __STATIC_FORCEINLINE void __enable_irq(void)
 130:Drivers/CMSIS/Include/cmsis_gcc.h **** {
 131:Drivers/CMSIS/Include/cmsis_gcc.h ****   __ASM volatile ("cpsie i" : : : "memory");
 132:Drivers/CMSIS/Include/cmsis_gcc.h **** }
 133:Drivers/CMSIS/Include/cmsis_gcc.h **** 
 134:Drivers/CMSIS/Include/cmsis_gcc.h **** 
 135:Drivers/CMSIS/Include/cmsis_gcc.h **** /**
 136:Drivers/CMSIS/Include/cmsis_gcc.h ****   \brief   Disable IRQ Interrupts
 137:Drivers/CMSIS/Include/cmsis_gcc.h ****   \details Disables IRQ interrupts by setting the I-bit in the CPSR.
 138:Drivers/CMSIS/Include/cmsis_gcc.h ****            Can only be executed in Privileged modes.
 139:Drivers/CMSIS/Include/cmsis_gcc.h ****  */
 140:Drivers/CMSIS/Include/cmsis_gcc.h **** __STATIC_FORCEINLINE void __disable_irq(void)
 152              		.loc 2 140 27 view .LVU49
 153              	.LBB79:
 141:Drivers/CMSIS/Include/cmsis_gcc.h **** {
 142:Drivers/CMSIS/Include/cmsis_gcc.h ****   __ASM volatile ("cpsid i" : : : "memory");
 154              		.loc 2 142 3 view .LVU50
 155              		.syntax unified
 156              	@ 142 "Drivers/CMSIS/Include/cmsis_gcc.h" 1
 157 0072 72B6     		cpsid i
 158              	@ 0 "" 2
 159              		.thumb
 160              		.syntax unified
 161              	.L3:
 162              	.LBE79:
 163              	.LBE78:
 164              	.LBE80:
 737:Core/Src/main.c ****   while (1)
 165              		.loc 1 737 3 view .LVU51
 738:Core/Src/main.c ****   {
 739:Core/Src/main.c ****   }
 166              		.loc 1 739 3 view .LVU52
 737:Core/Src/main.c ****   while (1)
 167              		.loc 1 737 9 view .LVU53
 737:Core/Src/main.c ****   while (1)
 168              		.loc 1 737 3 view .LVU54
 169              		.loc 1 739 3 view .LVU55
 737:Core/Src/main.c ****   while (1)
 170              		.loc 1 737 9 view .LVU56
 171 0074 FEE7     		b	.L3
 172              	.L2:
 250:Core/Src/main.c ****                               |RCC_CLOCKTYPE_PCLK1|RCC_CLOCKTYPE_PCLK2;
 173              		.loc 1 250 3 view .LVU57
 250:Core/Src/main.c ****                               |RCC_CLOCKTYPE_PCLK1|RCC_CLOCKTYPE_PCLK2;
 174              		.loc 1 250 31 is_stmt 0 view .LVU58
 175 0076 0F21     		movs	r1, #15
 176 0078 0346     		mov	r3, r0
 252:Core/Src/main.c ****   RCC_ClkInitStruct.AHBCLKDivider = RCC_SYSCLK_DIV1;
ARM GAS  /tmp/ccYgTI9f.s 			page 20


 177              		.loc 1 252 34 view .LVU59
 178 007a CDE90314 		strd	r1, r4, [sp, #12]
 253:Core/Src/main.c ****   RCC_ClkInitStruct.APB1CLKDivider = RCC_HCLK_DIV2;
 179              		.loc 1 253 3 is_stmt 1 view .LVU60
 254:Core/Src/main.c ****   RCC_ClkInitStruct.APB2CLKDivider = RCC_HCLK_DIV1;
 180              		.loc 1 254 36 is_stmt 0 view .LVU61
 181 007e 4FF48052 		mov	r2, #4096
 257:Core/Src/main.c ****   {
 182              		.loc 1 257 7 view .LVU62
 183 0082 03A8     		add	r0, sp, #12
 184 0084 2146     		mov	r1, r4
 254:Core/Src/main.c ****   RCC_ClkInitStruct.APB2CLKDivider = RCC_HCLK_DIV1;
 185              		.loc 1 254 36 view .LVU63
 186 0086 CDE90532 		strd	r3, r2, [sp, #20]
 255:Core/Src/main.c **** 
 187              		.loc 1 255 3 is_stmt 1 view .LVU64
 255:Core/Src/main.c **** 
 188              		.loc 1 255 36 is_stmt 0 view .LVU65
 189 008a 0793     		str	r3, [sp, #28]
 257:Core/Src/main.c ****   {
 190              		.loc 1 257 3 is_stmt 1 view .LVU66
 257:Core/Src/main.c ****   {
 191              		.loc 1 257 7 is_stmt 0 view .LVU67
 192 008c FFF7FEFF 		bl	HAL_RCC_ClockConfig
 193              	.LVL1:
 257:Core/Src/main.c ****   {
 194              		.loc 1 257 6 view .LVU68
 195 0090 08B1     		cbz	r0, .L1
 259:Core/Src/main.c ****   }
 196              		.loc 1 259 5 is_stmt 1 view .LVU69
 197              	.LBB81:
 198              	.LBI81:
 732:Core/Src/main.c **** {
 199              		.loc 1 732 6 view .LVU70
 200              	.LBE81:
 736:Core/Src/main.c ****   while (1)
 201              		.loc 1 736 3 view .LVU71
 202              	.LBB84:
 203              	.LBB82:
 204              	.LBI82:
 140:Drivers/CMSIS/Include/cmsis_gcc.h **** {
 205              		.loc 2 140 27 view .LVU72
 206              	.LBB83:
 207              		.loc 2 142 3 view .LVU73
 208              		.syntax unified
 209              	@ 142 "Drivers/CMSIS/Include/cmsis_gcc.h" 1
 210 0092 72B6     		cpsid i
 211              	@ 0 "" 2
 212              		.thumb
 213              		.syntax unified
 214              	.L5:
 215              	.LBE83:
 216              	.LBE82:
 217              	.LBE84:
 737:Core/Src/main.c ****   {
 218              		.loc 1 737 3 view .LVU74
 219              		.loc 1 739 3 view .LVU75
ARM GAS  /tmp/ccYgTI9f.s 			page 21


 737:Core/Src/main.c ****   {
 220              		.loc 1 737 9 view .LVU76
 737:Core/Src/main.c ****   {
 221              		.loc 1 737 3 view .LVU77
 222              		.loc 1 739 3 view .LVU78
 737:Core/Src/main.c ****   {
 223              		.loc 1 737 9 view .LVU79
 224 0094 FEE7     		b	.L5
 225              	.L1:
 261:Core/Src/main.c **** 
 226              		.loc 1 261 1 is_stmt 0 view .LVU80
 227 0096 14B0     		add	sp, sp, #80
 228              	.LCFI2:
 229              		.cfi_def_cfa_offset 8
 230              		@ sp needed
 231 0098 10BD     		pop	{r4, pc}
 232              	.L9:
 233 009a 00BF     		.align	2
 234              	.L8:
 235 009c 00380240 		.word	1073887232
 236 00a0 00700040 		.word	1073770496
 237              		.cfi_endproc
 238              	.LFE136:
 240              		.section	.rodata.main.str1.4,"aMS",%progbits,1
 241              		.align	2
 242              	.LC0:
 243 0000 2048656C 		.ascii	" Hello from \000"
 243      6C6F2066 
 243      726F6D20 
 243      00
 244 000d 000000   		.align	2
 245              	.LC1:
 246 0010 20202049 		.ascii	"   Irfan!!  \000"
 246      7266616E 
 246      21212020 
 246      00
 247              		.section	.text.startup.main,"ax",%progbits
 248              		.align	1
 249              		.p2align 2,,3
 250              		.global	main
 251              		.syntax unified
 252              		.thumb
 253              		.thumb_func
 255              	main:
 256              	.LFB135:
  92:Core/Src/main.c ****   /* USER CODE BEGIN 1 */
 257              		.loc 1 92 1 is_stmt 1 view -0
 258              		.cfi_startproc
 259              		@ args = 0, pretend = 0, frame = 96
 260              		@ frame_needed = 0, uses_anonymous_args = 0
 100:Core/Src/main.c **** 
 261              		.loc 1 100 3 view .LVU82
  92:Core/Src/main.c ****   /* USER CODE BEGIN 1 */
 262              		.loc 1 92 1 is_stmt 0 view .LVU83
 263 0000 2DE9F041 		push	{r4, r5, r6, r7, r8, lr}
 264              	.LCFI3:
 265              		.cfi_def_cfa_offset 24
ARM GAS  /tmp/ccYgTI9f.s 			page 22


 266              		.cfi_offset 4, -24
 267              		.cfi_offset 5, -20
 268              		.cfi_offset 6, -16
 269              		.cfi_offset 7, -12
 270              		.cfi_offset 8, -8
 271              		.cfi_offset 14, -4
 272              	.LBB153:
 273              	.LBB154:
 605:Core/Src/main.c **** 
 274              		.loc 1 605 20 view .LVU84
 275 0004 0024     		movs	r4, #0
 276              	.LBE154:
 277              	.LBE153:
  92:Core/Src/main.c ****   /* USER CODE BEGIN 1 */
 278              		.loc 1 92 1 view .LVU85
 279 0006 98B0     		sub	sp, sp, #96
 280              	.LCFI4:
 281              		.cfi_def_cfa_offset 120
 100:Core/Src/main.c **** 
 282              		.loc 1 100 3 view .LVU86
 283 0008 FFF7FEFF 		bl	HAL_Init
 284              	.LVL2:
 107:Core/Src/main.c **** 
 285              		.loc 1 107 3 is_stmt 1 view .LVU87
 286 000c FFF7FEFF 		bl	SystemClock_Config
 287              	.LVL3:
 114:Core/Src/main.c ****   MX_CRC_Init();
 288              		.loc 1 114 3 view .LVU88
 289              	.LBB168:
 290              	.LBI153:
 603:Core/Src/main.c **** {
 291              		.loc 1 603 13 view .LVU89
 292              	.LBB167:
 605:Core/Src/main.c **** 
 293              		.loc 1 605 3 view .LVU90
 605:Core/Src/main.c **** 
 294              		.loc 1 605 20 is_stmt 0 view .LVU91
 295 0010 CDE90B44 		strd	r4, r4, [sp, #44]
 296 0014 CDE90D44 		strd	r4, r4, [sp, #52]
 297              	.LBB155:
 608:Core/Src/main.c ****   __HAL_RCC_GPIOF_CLK_ENABLE();
 298              		.loc 1 608 3 view .LVU92
 299 0018 A14B     		ldr	r3, .L47
 300 001a 0194     		str	r4, [sp, #4]
 301              	.LBE155:
 605:Core/Src/main.c **** 
 302              		.loc 1 605 20 view .LVU93
 303 001c 0F94     		str	r4, [sp, #60]
 608:Core/Src/main.c ****   __HAL_RCC_GPIOF_CLK_ENABLE();
 304              		.loc 1 608 3 is_stmt 1 view .LVU94
 305              	.LBB156:
 608:Core/Src/main.c ****   __HAL_RCC_GPIOF_CLK_ENABLE();
 306              		.loc 1 608 3 view .LVU95
 608:Core/Src/main.c ****   __HAL_RCC_GPIOF_CLK_ENABLE();
 307              		.loc 1 608 3 view .LVU96
 308 001e 1A6B     		ldr	r2, [r3, #48]
 309              	.LBE156:
ARM GAS  /tmp/ccYgTI9f.s 			page 23


 618:Core/Src/main.c **** 
 310              		.loc 1 618 3 is_stmt 0 view .LVU97
 311 0020 A048     		ldr	r0, .L47+4
 312              	.LBB157:
 608:Core/Src/main.c ****   __HAL_RCC_GPIOF_CLK_ENABLE();
 313              		.loc 1 608 3 view .LVU98
 314 0022 42F00402 		orr	r2, r2, #4
 315 0026 1A63     		str	r2, [r3, #48]
 608:Core/Src/main.c ****   __HAL_RCC_GPIOF_CLK_ENABLE();
 316              		.loc 1 608 3 is_stmt 1 view .LVU99
 317 0028 1A6B     		ldr	r2, [r3, #48]
 318 002a 02F00402 		and	r2, r2, #4
 319 002e 0192     		str	r2, [sp, #4]
 608:Core/Src/main.c ****   __HAL_RCC_GPIOF_CLK_ENABLE();
 320              		.loc 1 608 3 view .LVU100
 321 0030 019A     		ldr	r2, [sp, #4]
 322              	.LBE157:
 608:Core/Src/main.c ****   __HAL_RCC_GPIOF_CLK_ENABLE();
 323              		.loc 1 608 3 view .LVU101
 609:Core/Src/main.c ****   __HAL_RCC_GPIOH_CLK_ENABLE();
 324              		.loc 1 609 3 view .LVU102
 325              	.LBB158:
 609:Core/Src/main.c ****   __HAL_RCC_GPIOH_CLK_ENABLE();
 326              		.loc 1 609 3 view .LVU103
 327 0032 0294     		str	r4, [sp, #8]
 609:Core/Src/main.c ****   __HAL_RCC_GPIOH_CLK_ENABLE();
 328              		.loc 1 609 3 view .LVU104
 329 0034 1A6B     		ldr	r2, [r3, #48]
 330 0036 42F02002 		orr	r2, r2, #32
 331 003a 1A63     		str	r2, [r3, #48]
 609:Core/Src/main.c ****   __HAL_RCC_GPIOH_CLK_ENABLE();
 332              		.loc 1 609 3 view .LVU105
 333 003c 1A6B     		ldr	r2, [r3, #48]
 334 003e 02F02002 		and	r2, r2, #32
 335 0042 0292     		str	r2, [sp, #8]
 609:Core/Src/main.c ****   __HAL_RCC_GPIOH_CLK_ENABLE();
 336              		.loc 1 609 3 view .LVU106
 337 0044 029A     		ldr	r2, [sp, #8]
 338              	.LBE158:
 609:Core/Src/main.c ****   __HAL_RCC_GPIOH_CLK_ENABLE();
 339              		.loc 1 609 3 view .LVU107
 610:Core/Src/main.c ****   __HAL_RCC_GPIOA_CLK_ENABLE();
 340              		.loc 1 610 3 view .LVU108
 341              	.LBB159:
 610:Core/Src/main.c ****   __HAL_RCC_GPIOA_CLK_ENABLE();
 342              		.loc 1 610 3 view .LVU109
 343 0046 0394     		str	r4, [sp, #12]
 610:Core/Src/main.c ****   __HAL_RCC_GPIOA_CLK_ENABLE();
 344              		.loc 1 610 3 view .LVU110
 345 0048 1A6B     		ldr	r2, [r3, #48]
 346 004a 42F08002 		orr	r2, r2, #128
 347 004e 1A63     		str	r2, [r3, #48]
 610:Core/Src/main.c ****   __HAL_RCC_GPIOA_CLK_ENABLE();
 348              		.loc 1 610 3 view .LVU111
 349 0050 1A6B     		ldr	r2, [r3, #48]
 350 0052 02F08002 		and	r2, r2, #128
 351 0056 0392     		str	r2, [sp, #12]
ARM GAS  /tmp/ccYgTI9f.s 			page 24


 610:Core/Src/main.c ****   __HAL_RCC_GPIOA_CLK_ENABLE();
 352              		.loc 1 610 3 view .LVU112
 353 0058 039A     		ldr	r2, [sp, #12]
 354              	.LBE159:
 610:Core/Src/main.c ****   __HAL_RCC_GPIOA_CLK_ENABLE();
 355              		.loc 1 610 3 view .LVU113
 611:Core/Src/main.c ****   __HAL_RCC_GPIOB_CLK_ENABLE();
 356              		.loc 1 611 3 view .LVU114
 357              	.LBB160:
 611:Core/Src/main.c ****   __HAL_RCC_GPIOB_CLK_ENABLE();
 358              		.loc 1 611 3 view .LVU115
 359 005a 0494     		str	r4, [sp, #16]
 611:Core/Src/main.c ****   __HAL_RCC_GPIOB_CLK_ENABLE();
 360              		.loc 1 611 3 view .LVU116
 361 005c 1A6B     		ldr	r2, [r3, #48]
 362 005e 42F00102 		orr	r2, r2, #1
 363 0062 1A63     		str	r2, [r3, #48]
 611:Core/Src/main.c ****   __HAL_RCC_GPIOB_CLK_ENABLE();
 364              		.loc 1 611 3 view .LVU117
 365 0064 1A6B     		ldr	r2, [r3, #48]
 366 0066 02F00102 		and	r2, r2, #1
 367 006a 0492     		str	r2, [sp, #16]
 611:Core/Src/main.c ****   __HAL_RCC_GPIOB_CLK_ENABLE();
 368              		.loc 1 611 3 view .LVU118
 369 006c 049A     		ldr	r2, [sp, #16]
 370              	.LBE160:
 611:Core/Src/main.c ****   __HAL_RCC_GPIOB_CLK_ENABLE();
 371              		.loc 1 611 3 view .LVU119
 612:Core/Src/main.c ****   __HAL_RCC_GPIOG_CLK_ENABLE();
 372              		.loc 1 612 3 view .LVU120
 373              	.LBB161:
 612:Core/Src/main.c ****   __HAL_RCC_GPIOG_CLK_ENABLE();
 374              		.loc 1 612 3 view .LVU121
 375 006e 0594     		str	r4, [sp, #20]
 612:Core/Src/main.c ****   __HAL_RCC_GPIOG_CLK_ENABLE();
 376              		.loc 1 612 3 view .LVU122
 377 0070 1A6B     		ldr	r2, [r3, #48]
 378 0072 42F00202 		orr	r2, r2, #2
 379 0076 1A63     		str	r2, [r3, #48]
 612:Core/Src/main.c ****   __HAL_RCC_GPIOG_CLK_ENABLE();
 380              		.loc 1 612 3 view .LVU123
 381 0078 1A6B     		ldr	r2, [r3, #48]
 382 007a 02F00202 		and	r2, r2, #2
 383 007e 0592     		str	r2, [sp, #20]
 612:Core/Src/main.c ****   __HAL_RCC_GPIOG_CLK_ENABLE();
 384              		.loc 1 612 3 view .LVU124
 385 0080 059A     		ldr	r2, [sp, #20]
 386              	.LBE161:
 612:Core/Src/main.c ****   __HAL_RCC_GPIOG_CLK_ENABLE();
 387              		.loc 1 612 3 view .LVU125
 613:Core/Src/main.c ****   __HAL_RCC_GPIOE_CLK_ENABLE();
 388              		.loc 1 613 3 view .LVU126
 389              	.LBB162:
 613:Core/Src/main.c ****   __HAL_RCC_GPIOE_CLK_ENABLE();
 390              		.loc 1 613 3 view .LVU127
 391 0082 0694     		str	r4, [sp, #24]
 613:Core/Src/main.c ****   __HAL_RCC_GPIOE_CLK_ENABLE();
ARM GAS  /tmp/ccYgTI9f.s 			page 25


 392              		.loc 1 613 3 view .LVU128
 393 0084 1A6B     		ldr	r2, [r3, #48]
 394 0086 42F04002 		orr	r2, r2, #64
 395 008a 1A63     		str	r2, [r3, #48]
 613:Core/Src/main.c ****   __HAL_RCC_GPIOE_CLK_ENABLE();
 396              		.loc 1 613 3 view .LVU129
 397 008c 1A6B     		ldr	r2, [r3, #48]
 398 008e 02F04002 		and	r2, r2, #64
 399 0092 0692     		str	r2, [sp, #24]
 613:Core/Src/main.c ****   __HAL_RCC_GPIOE_CLK_ENABLE();
 400              		.loc 1 613 3 view .LVU130
 401 0094 069A     		ldr	r2, [sp, #24]
 402              	.LBE162:
 613:Core/Src/main.c ****   __HAL_RCC_GPIOE_CLK_ENABLE();
 403              		.loc 1 613 3 view .LVU131
 614:Core/Src/main.c ****   __HAL_RCC_GPIOD_CLK_ENABLE();
 404              		.loc 1 614 3 view .LVU132
 405              	.LBB163:
 614:Core/Src/main.c ****   __HAL_RCC_GPIOD_CLK_ENABLE();
 406              		.loc 1 614 3 view .LVU133
 407 0096 0794     		str	r4, [sp, #28]
 614:Core/Src/main.c ****   __HAL_RCC_GPIOD_CLK_ENABLE();
 408              		.loc 1 614 3 view .LVU134
 409 0098 1A6B     		ldr	r2, [r3, #48]
 410 009a 42F01002 		orr	r2, r2, #16
 411 009e 1A63     		str	r2, [r3, #48]
 614:Core/Src/main.c ****   __HAL_RCC_GPIOD_CLK_ENABLE();
 412              		.loc 1 614 3 view .LVU135
 413 00a0 1A6B     		ldr	r2, [r3, #48]
 414 00a2 02F01002 		and	r2, r2, #16
 415 00a6 0792     		str	r2, [sp, #28]
 614:Core/Src/main.c ****   __HAL_RCC_GPIOD_CLK_ENABLE();
 416              		.loc 1 614 3 view .LVU136
 417 00a8 079A     		ldr	r2, [sp, #28]
 418              	.LBE163:
 614:Core/Src/main.c ****   __HAL_RCC_GPIOD_CLK_ENABLE();
 419              		.loc 1 614 3 view .LVU137
 615:Core/Src/main.c **** 
 420              		.loc 1 615 3 view .LVU138
 421              	.LBB164:
 615:Core/Src/main.c **** 
 422              		.loc 1 615 3 view .LVU139
 423 00aa 0894     		str	r4, [sp, #32]
 615:Core/Src/main.c **** 
 424              		.loc 1 615 3 view .LVU140
 425 00ac 1A6B     		ldr	r2, [r3, #48]
 426 00ae 42F00802 		orr	r2, r2, #8
 427 00b2 1A63     		str	r2, [r3, #48]
 615:Core/Src/main.c **** 
 428              		.loc 1 615 3 view .LVU141
 429 00b4 1B6B     		ldr	r3, [r3, #48]
 430 00b6 03F00803 		and	r3, r3, #8
 431              	.LBE164:
 618:Core/Src/main.c **** 
 432              		.loc 1 618 3 is_stmt 0 view .LVU142
 433 00ba 1621     		movs	r1, #22
 434              	.LBB165:
ARM GAS  /tmp/ccYgTI9f.s 			page 26


 615:Core/Src/main.c **** 
 435              		.loc 1 615 3 view .LVU143
 436 00bc 0893     		str	r3, [sp, #32]
 615:Core/Src/main.c **** 
 437              		.loc 1 615 3 is_stmt 1 view .LVU144
 438              	.LBE165:
 618:Core/Src/main.c **** 
 439              		.loc 1 618 3 is_stmt 0 view .LVU145
 440 00be 2246     		mov	r2, r4
 441              	.LBB166:
 615:Core/Src/main.c **** 
 442              		.loc 1 615 3 view .LVU146
 443 00c0 089B     		ldr	r3, [sp, #32]
 444              	.LBE166:
 615:Core/Src/main.c **** 
 445              		.loc 1 615 3 is_stmt 1 view .LVU147
 618:Core/Src/main.c **** 
 446              		.loc 1 618 3 view .LVU148
 447 00c2 FFF7FEFF 		bl	HAL_GPIO_WritePin
 448              	.LVL4:
 621:Core/Src/main.c **** 
 449              		.loc 1 621 3 view .LVU149
 450 00c6 7848     		ldr	r0, .L47+8
 451 00c8 2246     		mov	r2, r4
 452 00ca 8021     		movs	r1, #128
 453 00cc FFF7FEFF 		bl	HAL_GPIO_WritePin
 454              	.LVL5:
 624:Core/Src/main.c **** 
 455              		.loc 1 624 3 view .LVU150
 456 00d0 7648     		ldr	r0, .L47+12
 457 00d2 2246     		mov	r2, r4
 458 00d4 4FF44051 		mov	r1, #12288
 459 00d8 FFF7FEFF 		bl	HAL_GPIO_WritePin
 460              	.LVL6:
 627:Core/Src/main.c **** 
 461              		.loc 1 627 3 view .LVU151
 462 00dc 2246     		mov	r2, r4
 463 00de 7448     		ldr	r0, .L47+16
 464 00e0 4FF4C041 		mov	r1, #24576
 465 00e4 FFF7FEFF 		bl	HAL_GPIO_WritePin
 466              	.LVL7:
 630:Core/Src/main.c ****   GPIO_InitStruct.Mode = GPIO_MODE_OUTPUT_PP;
 467              		.loc 1 630 3 view .LVU152
 631:Core/Src/main.c ****   GPIO_InitStruct.Pull = GPIO_NOPULL;
 468              		.loc 1 631 24 is_stmt 0 view .LVU153
 469 00e8 0125     		movs	r5, #1
 630:Core/Src/main.c ****   GPIO_InitStruct.Mode = GPIO_MODE_OUTPUT_PP;
 470              		.loc 1 630 23 view .LVU154
 471 00ea 1623     		movs	r3, #22
 634:Core/Src/main.c **** 
 472              		.loc 1 634 3 view .LVU155
 473 00ec 6D48     		ldr	r0, .L47+4
 474 00ee 0BA9     		add	r1, sp, #44
 638:Core/Src/main.c ****   GPIO_InitStruct.Pull = GPIO_NOPULL;
 475              		.loc 1 638 24 view .LVU156
 476 00f0 4FF49016 		mov	r6, #1179648
 631:Core/Src/main.c ****   GPIO_InitStruct.Pull = GPIO_NOPULL;
ARM GAS  /tmp/ccYgTI9f.s 			page 27


 477              		.loc 1 631 24 view .LVU157
 478 00f4 CDE90B35 		strd	r3, r5, [sp, #44]
 632:Core/Src/main.c ****   GPIO_InitStruct.Speed = GPIO_SPEED_FREQ_LOW;
 479              		.loc 1 632 3 is_stmt 1 view .LVU158
 633:Core/Src/main.c ****   HAL_GPIO_Init(GPIOC, &GPIO_InitStruct);
 480              		.loc 1 633 25 is_stmt 0 view .LVU159
 481 00f8 CDE90D44 		strd	r4, r4, [sp, #52]
 634:Core/Src/main.c **** 
 482              		.loc 1 634 3 is_stmt 1 view .LVU160
 483 00fc FFF7FEFF 		bl	HAL_GPIO_Init
 484              	.LVL8:
 637:Core/Src/main.c ****   GPIO_InitStruct.Mode = GPIO_MODE_EVT_RISING;
 485              		.loc 1 637 3 view .LVU161
 637:Core/Src/main.c ****   GPIO_InitStruct.Mode = GPIO_MODE_EVT_RISING;
 486              		.loc 1 637 23 is_stmt 0 view .LVU162
 487 0100 48F20703 		movw	r3, #32775
 640:Core/Src/main.c **** 
 488              		.loc 1 640 3 view .LVU163
 489 0104 6848     		ldr	r0, .L47+8
 639:Core/Src/main.c ****   HAL_GPIO_Init(GPIOA, &GPIO_InitStruct);
 490              		.loc 1 639 24 view .LVU164
 491 0106 0D94     		str	r4, [sp, #52]
 640:Core/Src/main.c **** 
 492              		.loc 1 640 3 view .LVU165
 493 0108 0BA9     		add	r1, sp, #44
 638:Core/Src/main.c ****   GPIO_InitStruct.Pull = GPIO_NOPULL;
 494              		.loc 1 638 24 view .LVU166
 495 010a CDE90B36 		strd	r3, r6, [sp, #44]
 639:Core/Src/main.c ****   HAL_GPIO_Init(GPIOA, &GPIO_InitStruct);
 496              		.loc 1 639 3 is_stmt 1 view .LVU167
 640:Core/Src/main.c **** 
 497              		.loc 1 640 3 view .LVU168
 498 010e FFF7FEFF 		bl	HAL_GPIO_Init
 499              	.LVL9:
 643:Core/Src/main.c ****   GPIO_InitStruct.Mode = GPIO_MODE_OUTPUT_PP;
 500              		.loc 1 643 3 view .LVU169
 643:Core/Src/main.c ****   GPIO_InitStruct.Mode = GPIO_MODE_OUTPUT_PP;
 501              		.loc 1 643 23 is_stmt 0 view .LVU170
 502 0112 8023     		movs	r3, #128
 647:Core/Src/main.c **** 
 503              		.loc 1 647 3 view .LVU171
 504 0114 6448     		ldr	r0, .L47+8
 643:Core/Src/main.c ****   GPIO_InitStruct.Mode = GPIO_MODE_OUTPUT_PP;
 505              		.loc 1 643 23 view .LVU172
 506 0116 0B93     		str	r3, [sp, #44]
 644:Core/Src/main.c ****   GPIO_InitStruct.Pull = GPIO_NOPULL;
 507              		.loc 1 644 3 is_stmt 1 view .LVU173
 647:Core/Src/main.c **** 
 508              		.loc 1 647 3 is_stmt 0 view .LVU174
 509 0118 0BA9     		add	r1, sp, #44
 645:Core/Src/main.c ****   GPIO_InitStruct.Speed = GPIO_SPEED_FREQ_LOW;
 510              		.loc 1 645 24 view .LVU175
 511 011a CDE90C54 		strd	r5, r4, [sp, #48]
 646:Core/Src/main.c ****   HAL_GPIO_Init(ACP_RST_GPIO_Port, &GPIO_InitStruct);
 512              		.loc 1 646 3 is_stmt 1 view .LVU176
 646:Core/Src/main.c ****   HAL_GPIO_Init(ACP_RST_GPIO_Port, &GPIO_InitStruct);
 513              		.loc 1 646 25 is_stmt 0 view .LVU177
ARM GAS  /tmp/ccYgTI9f.s 			page 28


 514 011e 0E94     		str	r4, [sp, #56]
 647:Core/Src/main.c **** 
 515              		.loc 1 647 3 is_stmt 1 view .LVU178
 516 0120 FFF7FEFF 		bl	HAL_GPIO_Init
 517              	.LVL10:
 650:Core/Src/main.c ****   GPIO_InitStruct.Mode = GPIO_MODE_EVT_RISING;
 518              		.loc 1 650 3 view .LVU179
 650:Core/Src/main.c ****   GPIO_InitStruct.Mode = GPIO_MODE_EVT_RISING;
 519              		.loc 1 650 23 is_stmt 0 view .LVU180
 520 0124 2023     		movs	r3, #32
 653:Core/Src/main.c **** 
 521              		.loc 1 653 3 view .LVU181
 522 0126 5F48     		ldr	r0, .L47+4
 650:Core/Src/main.c ****   GPIO_InitStruct.Mode = GPIO_MODE_EVT_RISING;
 523              		.loc 1 650 23 view .LVU182
 524 0128 0B93     		str	r3, [sp, #44]
 651:Core/Src/main.c ****   GPIO_InitStruct.Pull = GPIO_NOPULL;
 525              		.loc 1 651 3 is_stmt 1 view .LVU183
 653:Core/Src/main.c **** 
 526              		.loc 1 653 3 is_stmt 0 view .LVU184
 527 012a 0BA9     		add	r1, sp, #44
 652:Core/Src/main.c ****   HAL_GPIO_Init(OTG_FS_OC_GPIO_Port, &GPIO_InitStruct);
 528              		.loc 1 652 24 view .LVU185
 529 012c CDE90C64 		strd	r6, r4, [sp, #48]
 653:Core/Src/main.c **** 
 530              		.loc 1 653 3 is_stmt 1 view .LVU186
 531 0130 FFF7FEFF 		bl	HAL_GPIO_Init
 532              	.LVL11:
 656:Core/Src/main.c ****   GPIO_InitStruct.Mode = GPIO_MODE_INPUT;
 533              		.loc 1 656 3 view .LVU187
 656:Core/Src/main.c ****   GPIO_InitStruct.Mode = GPIO_MODE_INPUT;
 534              		.loc 1 656 23 is_stmt 0 view .LVU188
 535 0134 0426     		movs	r6, #4
 659:Core/Src/main.c **** 
 536              		.loc 1 659 3 view .LVU189
 537 0136 5F48     		ldr	r0, .L47+20
 658:Core/Src/main.c ****   HAL_GPIO_Init(BOOT1_GPIO_Port, &GPIO_InitStruct);
 538              		.loc 1 658 24 view .LVU190
 539 0138 0D94     		str	r4, [sp, #52]
 659:Core/Src/main.c **** 
 540              		.loc 1 659 3 view .LVU191
 541 013a 0BA9     		add	r1, sp, #44
 657:Core/Src/main.c ****   GPIO_InitStruct.Pull = GPIO_NOPULL;
 542              		.loc 1 657 24 view .LVU192
 543 013c CDE90B64 		strd	r6, r4, [sp, #44]
 658:Core/Src/main.c ****   HAL_GPIO_Init(BOOT1_GPIO_Port, &GPIO_InitStruct);
 544              		.loc 1 658 3 is_stmt 1 view .LVU193
 659:Core/Src/main.c **** 
 545              		.loc 1 659 3 view .LVU194
 662:Core/Src/main.c ****   GPIO_InitStruct.Mode = GPIO_MODE_INPUT;
 546              		.loc 1 662 23 is_stmt 0 view .LVU195
 547 0140 4FF40067 		mov	r7, #2048
 659:Core/Src/main.c **** 
 548              		.loc 1 659 3 view .LVU196
 549 0144 FFF7FEFF 		bl	HAL_GPIO_Init
 550              	.LVL12:
 662:Core/Src/main.c ****   GPIO_InitStruct.Mode = GPIO_MODE_INPUT;
ARM GAS  /tmp/ccYgTI9f.s 			page 29


 551              		.loc 1 662 3 is_stmt 1 view .LVU197
 665:Core/Src/main.c **** 
 552              		.loc 1 665 3 is_stmt 0 view .LVU198
 553 0148 5848     		ldr	r0, .L47+12
 664:Core/Src/main.c ****   HAL_GPIO_Init(TE_GPIO_Port, &GPIO_InitStruct);
 554              		.loc 1 664 24 view .LVU199
 555 014a 0D94     		str	r4, [sp, #52]
 665:Core/Src/main.c **** 
 556              		.loc 1 665 3 view .LVU200
 557 014c 0BA9     		add	r1, sp, #44
 663:Core/Src/main.c ****   GPIO_InitStruct.Pull = GPIO_NOPULL;
 558              		.loc 1 663 24 view .LVU201
 559 014e CDE90B74 		strd	r7, r4, [sp, #44]
 664:Core/Src/main.c ****   HAL_GPIO_Init(TE_GPIO_Port, &GPIO_InitStruct);
 560              		.loc 1 664 3 is_stmt 1 view .LVU202
 665:Core/Src/main.c **** 
 561              		.loc 1 665 3 view .LVU203
 562 0152 FFF7FEFF 		bl	HAL_GPIO_Init
 563              	.LVL13:
 668:Core/Src/main.c ****   GPIO_InitStruct.Mode = GPIO_MODE_OUTPUT_PP;
 564              		.loc 1 668 3 view .LVU204
 668:Core/Src/main.c ****   GPIO_InitStruct.Mode = GPIO_MODE_OUTPUT_PP;
 565              		.loc 1 668 23 is_stmt 0 view .LVU205
 566 0156 4FF44053 		mov	r3, #12288
 672:Core/Src/main.c **** 
 567              		.loc 1 672 3 view .LVU206
 568 015a 5448     		ldr	r0, .L47+12
 668:Core/Src/main.c ****   GPIO_InitStruct.Mode = GPIO_MODE_OUTPUT_PP;
 569              		.loc 1 668 23 view .LVU207
 570 015c 0B93     		str	r3, [sp, #44]
 669:Core/Src/main.c ****   GPIO_InitStruct.Pull = GPIO_NOPULL;
 571              		.loc 1 669 3 is_stmt 1 view .LVU208
 670:Core/Src/main.c ****   GPIO_InitStruct.Speed = GPIO_SPEED_FREQ_LOW;
 572              		.loc 1 670 3 view .LVU209
 671:Core/Src/main.c ****   HAL_GPIO_Init(GPIOD, &GPIO_InitStruct);
 573              		.loc 1 671 3 view .LVU210
 672:Core/Src/main.c **** 
 574              		.loc 1 672 3 view .LVU211
 575 015e 0BA9     		add	r1, sp, #44
 670:Core/Src/main.c ****   GPIO_InitStruct.Speed = GPIO_SPEED_FREQ_LOW;
 576              		.loc 1 670 24 is_stmt 0 view .LVU212
 577 0160 CDE90C54 		strd	r5, r4, [sp, #48]
 671:Core/Src/main.c ****   HAL_GPIO_Init(GPIOD, &GPIO_InitStruct);
 578              		.loc 1 671 25 view .LVU213
 579 0164 0E94     		str	r4, [sp, #56]
 672:Core/Src/main.c **** 
 580              		.loc 1 672 3 view .LVU214
 581 0166 FFF7FEFF 		bl	HAL_GPIO_Init
 582              	.LVL14:
 675:Core/Src/main.c ****   GPIO_InitStruct.Mode = GPIO_MODE_OUTPUT_PP;
 583              		.loc 1 675 3 is_stmt 1 view .LVU215
 675:Core/Src/main.c ****   GPIO_InitStruct.Mode = GPIO_MODE_OUTPUT_PP;
 584              		.loc 1 675 23 is_stmt 0 view .LVU216
 585 016a 4FF4C043 		mov	r3, #24576
 679:Core/Src/main.c **** 
 586              		.loc 1 679 3 view .LVU217
 587 016e 5048     		ldr	r0, .L47+16
ARM GAS  /tmp/ccYgTI9f.s 			page 30


 675:Core/Src/main.c ****   GPIO_InitStruct.Mode = GPIO_MODE_OUTPUT_PP;
 588              		.loc 1 675 23 view .LVU218
 589 0170 0B93     		str	r3, [sp, #44]
 676:Core/Src/main.c ****   GPIO_InitStruct.Pull = GPIO_NOPULL;
 590              		.loc 1 676 3 is_stmt 1 view .LVU219
 677:Core/Src/main.c ****   GPIO_InitStruct.Speed = GPIO_SPEED_FREQ_LOW;
 591              		.loc 1 677 3 view .LVU220
 678:Core/Src/main.c ****   HAL_GPIO_Init(GPIOG, &GPIO_InitStruct);
 592              		.loc 1 678 3 view .LVU221
 679:Core/Src/main.c **** 
 593              		.loc 1 679 3 view .LVU222
 594 0172 0BA9     		add	r1, sp, #44
 677:Core/Src/main.c ****   GPIO_InitStruct.Speed = GPIO_SPEED_FREQ_LOW;
 595              		.loc 1 677 24 is_stmt 0 view .LVU223
 596 0174 CDE90C54 		strd	r5, r4, [sp, #48]
 678:Core/Src/main.c ****   HAL_GPIO_Init(GPIOG, &GPIO_InitStruct);
 597              		.loc 1 678 25 view .LVU224
 598 0178 0E94     		str	r4, [sp, #56]
 679:Core/Src/main.c **** 
 599              		.loc 1 679 3 view .LVU225
 600 017a FFF7FEFF 		bl	HAL_GPIO_Init
 601              	.LVL15:
 602              	.LBE167:
 603              	.LBE168:
 115:Core/Src/main.c ****   MX_DMA2D_Init();
 604              		.loc 1 115 3 is_stmt 1 view .LVU226
 605              	.LBB169:
 606              	.LBI169:
 268:Core/Src/main.c **** {
 607              		.loc 1 268 13 view .LVU227
 608              	.LBB170:
 278:Core/Src/main.c ****   if (HAL_CRC_Init(&hcrc) != HAL_OK)
 609              		.loc 1 278 3 view .LVU228
 278:Core/Src/main.c ****   if (HAL_CRC_Init(&hcrc) != HAL_OK)
 610              		.loc 1 278 17 is_stmt 0 view .LVU229
 611 017e 4E48     		ldr	r0, .L47+24
 612 0180 4E4B     		ldr	r3, .L47+28
 613 0182 0360     		str	r3, [r0]
 279:Core/Src/main.c ****   {
 614              		.loc 1 279 3 is_stmt 1 view .LVU230
 279:Core/Src/main.c ****   {
 615              		.loc 1 279 7 is_stmt 0 view .LVU231
 616 0184 FFF7FEFF 		bl	HAL_CRC_Init
 617              	.LVL16:
 279:Core/Src/main.c ****   {
 618              		.loc 1 279 6 view .LVU232
 619 0188 08B1     		cbz	r0, .L11
 281:Core/Src/main.c ****   }
 620              		.loc 1 281 5 is_stmt 1 view .LVU233
 621              	.LBB171:
 622              	.LBI171:
 732:Core/Src/main.c **** {
 623              		.loc 1 732 6 view .LVU234
 624              	.LBE171:
 625              	.LBE170:
 626              	.LBE169:
 736:Core/Src/main.c ****   while (1)
ARM GAS  /tmp/ccYgTI9f.s 			page 31


 627              		.loc 1 736 3 view .LVU235
 628              	.LBB176:
 629              	.LBB175:
 630              	.LBB174:
 631              	.LBB172:
 632              	.LBI172:
 140:Drivers/CMSIS/Include/cmsis_gcc.h **** {
 633              		.loc 2 140 27 view .LVU236
 634              	.LBB173:
 635              		.loc 2 142 3 view .LVU237
 636              		.syntax unified
 637              	@ 142 "Drivers/CMSIS/Include/cmsis_gcc.h" 1
 638 018a 72B6     		cpsid i
 639              	@ 0 "" 2
 640              		.thumb
 641              		.syntax unified
 642              	.L12:
 643              	.LBE173:
 644              	.LBE172:
 645              	.LBE174:
 646              	.LBE175:
 647              	.LBE176:
 737:Core/Src/main.c ****   {
 648              		.loc 1 737 3 view .LVU238
 649              		.loc 1 739 3 view .LVU239
 737:Core/Src/main.c ****   {
 650              		.loc 1 737 9 view .LVU240
 737:Core/Src/main.c ****   {
 651              		.loc 1 737 3 view .LVU241
 652              		.loc 1 739 3 view .LVU242
 737:Core/Src/main.c ****   {
 653              		.loc 1 737 9 view .LVU243
 654 018c FEE7     		b	.L12
 655              	.L11:
 116:Core/Src/main.c ****   MX_FMC_Init();
 656              		.loc 1 116 3 view .LVU244
 657              	.LBB177:
 658              	.LBI177:
 294:Core/Src/main.c **** {
 659              		.loc 1 294 13 view .LVU245
 660              	.LBB178:
 304:Core/Src/main.c ****   hdma2d.Init.Mode = DMA2D_M2M;
 661              		.loc 1 304 3 view .LVU246
 304:Core/Src/main.c ****   hdma2d.Init.Mode = DMA2D_M2M;
 662              		.loc 1 304 19 is_stmt 0 view .LVU247
 663 018e 4C4C     		ldr	r4, .L47+32
 664 0190 4C4B     		ldr	r3, .L47+36
 307:Core/Src/main.c ****   hdma2d.LayerCfg[1].InputOffset = 0;
 665              		.loc 1 307 28 view .LVU248
 666 0192 E060     		str	r0, [r4, #12]
 306:Core/Src/main.c ****   hdma2d.Init.OutputOffset = 0;
 667              		.loc 1 306 25 view .LVU249
 668 0194 C4E90100 		strd	r0, r0, [r4, #4]
 309:Core/Src/main.c ****   hdma2d.LayerCfg[1].AlphaMode = DMA2D_NO_MODIF_ALPHA;
 669              		.loc 1 309 37 view .LVU250
 670 0198 C4E90A00 		strd	r0, r0, [r4, #40]
 311:Core/Src/main.c ****   if (HAL_DMA2D_Init(&hdma2d) != HAL_OK)
ARM GAS  /tmp/ccYgTI9f.s 			page 32


 671              		.loc 1 311 33 view .LVU251
 672 019c C4E90C00 		strd	r0, r0, [r4, #48]
 312:Core/Src/main.c ****   {
 673              		.loc 1 312 7 view .LVU252
 674 01a0 2046     		mov	r0, r4
 304:Core/Src/main.c ****   hdma2d.Init.Mode = DMA2D_M2M;
 675              		.loc 1 304 19 view .LVU253
 676 01a2 2360     		str	r3, [r4]
 305:Core/Src/main.c ****   hdma2d.Init.ColorMode = DMA2D_OUTPUT_ARGB8888;
 677              		.loc 1 305 3 is_stmt 1 view .LVU254
 306:Core/Src/main.c ****   hdma2d.Init.OutputOffset = 0;
 678              		.loc 1 306 3 view .LVU255
 307:Core/Src/main.c ****   hdma2d.LayerCfg[1].InputOffset = 0;
 679              		.loc 1 307 3 view .LVU256
 308:Core/Src/main.c ****   hdma2d.LayerCfg[1].InputColorMode = DMA2D_INPUT_ARGB8888;
 680              		.loc 1 308 3 view .LVU257
 309:Core/Src/main.c ****   hdma2d.LayerCfg[1].AlphaMode = DMA2D_NO_MODIF_ALPHA;
 681              		.loc 1 309 3 view .LVU258
 310:Core/Src/main.c ****   hdma2d.LayerCfg[1].InputAlpha = 0;
 682              		.loc 1 310 3 view .LVU259
 311:Core/Src/main.c ****   if (HAL_DMA2D_Init(&hdma2d) != HAL_OK)
 683              		.loc 1 311 3 view .LVU260
 312:Core/Src/main.c ****   {
 684              		.loc 1 312 3 view .LVU261
 312:Core/Src/main.c ****   {
 685              		.loc 1 312 7 is_stmt 0 view .LVU262
 686 01a4 FFF7FEFF 		bl	HAL_DMA2D_Init
 687              	.LVL17:
 312:Core/Src/main.c ****   {
 688              		.loc 1 312 6 view .LVU263
 689 01a8 08B1     		cbz	r0, .L13
 314:Core/Src/main.c ****   }
 690              		.loc 1 314 5 is_stmt 1 view .LVU264
 691              	.LBB179:
 692              	.LBI179:
 732:Core/Src/main.c **** {
 693              		.loc 1 732 6 view .LVU265
 694              	.LBE179:
 695              	.LBE178:
 696              	.LBE177:
 736:Core/Src/main.c ****   while (1)
 697              		.loc 1 736 3 view .LVU266
 698              	.LBB190:
 699              	.LBB187:
 700              	.LBB182:
 701              	.LBB180:
 702              	.LBI180:
 140:Drivers/CMSIS/Include/cmsis_gcc.h **** {
 703              		.loc 2 140 27 view .LVU267
 704              	.LBB181:
 705              		.loc 2 142 3 view .LVU268
 706              		.syntax unified
 707              	@ 142 "Drivers/CMSIS/Include/cmsis_gcc.h" 1
 708 01aa 72B6     		cpsid i
 709              	@ 0 "" 2
 710              		.thumb
 711              		.syntax unified
ARM GAS  /tmp/ccYgTI9f.s 			page 33


 712              	.L14:
 713              	.LBE181:
 714              	.LBE180:
 715              	.LBE182:
 716              	.LBE187:
 717              	.LBE190:
 737:Core/Src/main.c ****   {
 718              		.loc 1 737 3 view .LVU269
 719              		.loc 1 739 3 view .LVU270
 737:Core/Src/main.c ****   {
 720              		.loc 1 737 9 view .LVU271
 737:Core/Src/main.c ****   {
 721              		.loc 1 737 3 view .LVU272
 722              		.loc 1 739 3 view .LVU273
 737:Core/Src/main.c ****   {
 723              		.loc 1 737 9 view .LVU274
 724 01ac FEE7     		b	.L14
 725              	.L13:
 726              	.LBB191:
 727              	.LBB188:
 316:Core/Src/main.c ****   {
 728              		.loc 1 316 3 view .LVU275
 316:Core/Src/main.c ****   {
 729              		.loc 1 316 7 is_stmt 0 view .LVU276
 730 01ae 2046     		mov	r0, r4
 731 01b0 2946     		mov	r1, r5
 732 01b2 FFF7FEFF 		bl	HAL_DMA2D_ConfigLayer
 733              	.LVL18:
 316:Core/Src/main.c ****   {
 734              		.loc 1 316 6 view .LVU277
 735 01b6 08B1     		cbz	r0, .L15
 318:Core/Src/main.c ****   }
 736              		.loc 1 318 5 is_stmt 1 view .LVU278
 737              	.LBB183:
 738              	.LBI183:
 732:Core/Src/main.c **** {
 739              		.loc 1 732 6 view .LVU279
 740              	.LBE183:
 741              	.LBE188:
 742              	.LBE191:
 736:Core/Src/main.c ****   while (1)
 743              		.loc 1 736 3 view .LVU280
 744              	.LBB192:
 745              	.LBB189:
 746              	.LBB186:
 747              	.LBB184:
 748              	.LBI184:
 140:Drivers/CMSIS/Include/cmsis_gcc.h **** {
 749              		.loc 2 140 27 view .LVU281
 750              	.LBB185:
 751              		.loc 2 142 3 view .LVU282
 752              		.syntax unified
 753              	@ 142 "Drivers/CMSIS/Include/cmsis_gcc.h" 1
 754 01b8 72B6     		cpsid i
 755              	@ 0 "" 2
 756              		.thumb
 757              		.syntax unified
ARM GAS  /tmp/ccYgTI9f.s 			page 34


 758              	.L16:
 759              	.LBE185:
 760              	.LBE184:
 761              	.LBE186:
 762              	.LBE189:
 763              	.LBE192:
 737:Core/Src/main.c ****   {
 764              		.loc 1 737 3 view .LVU283
 765              		.loc 1 739 3 view .LVU284
 737:Core/Src/main.c ****   {
 766              		.loc 1 737 9 view .LVU285
 737:Core/Src/main.c ****   {
 767              		.loc 1 737 3 view .LVU286
 768              		.loc 1 739 3 view .LVU287
 737:Core/Src/main.c ****   {
 769              		.loc 1 737 9 view .LVU288
 770 01ba FEE7     		b	.L16
 771              	.L15:
 117:Core/Src/main.c ****   MX_I2C3_Init();
 772              		.loc 1 117 3 view .LVU289
 773              	.LBB193:
 774              	.LBI193:
 552:Core/Src/main.c **** {
 775              		.loc 1 552 13 view .LVU290
 776              	.LBB194:
 559:Core/Src/main.c **** 
 777              		.loc 1 559 3 view .LVU291
 567:Core/Src/main.c ****   /* hsdram1.Init */
 778              		.loc 1 567 3 view .LVU292
 567:Core/Src/main.c ****   /* hsdram1.Init */
 779              		.loc 1 567 20 is_stmt 0 view .LVU293
 780 01bc 424B     		ldr	r3, .L47+40
 582:Core/Src/main.c ****   SdramTiming.RowCycleDelay = 7;
 781              		.loc 1 582 31 view .LVU294
 782 01be 0D96     		str	r6, [sp, #52]
 578:Core/Src/main.c ****   /* SdramTiming */
 783              		.loc 1 578 30 view .LVU295
 784 01c0 4FF40052 		mov	r2, #8192
 785 01c4 C3E90902 		strd	r0, r2, [r3, #36]
 576:Core/Src/main.c ****   hsdram1.Init.ReadBurst = FMC_SDRAM_RBURST_DISABLE;
 786              		.loc 1 576 30 view .LVU296
 787 01c8 1F62     		str	r7, [r3, #32]
 581:Core/Src/main.c ****   SdramTiming.SelfRefreshTime = 4;
 788              		.loc 1 581 36 view .LVU297
 789 01ca 0222     		movs	r2, #2
 790 01cc 0727     		movs	r7, #7
 791 01ce CDE90B27 		strd	r2, r7, [sp, #44]
 586:Core/Src/main.c **** 
 792              		.loc 1 586 24 view .LVU298
 793 01d2 CDE91022 		strd	r2, r2, [sp, #64]
 567:Core/Src/main.c ****   /* hsdram1.Init */
 794              		.loc 1 567 20 view .LVU299
 795 01d6 3D4A     		ldr	r2, .L47+44
 796 01d8 1A60     		str	r2, [r3]
 569:Core/Src/main.c ****   hsdram1.Init.ColumnBitsNumber = FMC_SDRAM_COLUMN_BITS_NUM_8;
 797              		.loc 1 569 3 is_stmt 1 view .LVU300
 570:Core/Src/main.c ****   hsdram1.Init.RowBitsNumber = FMC_SDRAM_ROW_BITS_NUM_12;
ARM GAS  /tmp/ccYgTI9f.s 			page 35


 798              		.loc 1 570 3 view .LVU301
 571:Core/Src/main.c ****   hsdram1.Init.MemoryDataWidth = FMC_SDRAM_MEM_BUS_WIDTH_16;
 799              		.loc 1 571 3 view .LVU302
 572:Core/Src/main.c ****   hsdram1.Init.InternalBankNumber = FMC_SDRAM_INTERN_BANKS_NUM_4;
 800              		.loc 1 572 3 view .LVU303
 573:Core/Src/main.c ****   hsdram1.Init.CASLatency = FMC_SDRAM_CAS_LATENCY_3;
 801              		.loc 1 573 35 is_stmt 0 view .LVU304
 802 01da 1024     		movs	r4, #16
 803 01dc 4022     		movs	r2, #64
 570:Core/Src/main.c ****   hsdram1.Init.RowBitsNumber = FMC_SDRAM_ROW_BITS_NUM_12;
 804              		.loc 1 570 33 view .LVU305
 805 01de C3E90150 		strd	r5, r0, [r3, #4]
 573:Core/Src/main.c ****   hsdram1.Init.CASLatency = FMC_SDRAM_CAS_LATENCY_3;
 806              		.loc 1 573 35 view .LVU306
 807 01e2 C3E90442 		strd	r4, r2, [r3, #16]
 574:Core/Src/main.c ****   hsdram1.Init.WriteProtection = FMC_SDRAM_WRITE_PROTECTION_DISABLE;
 808              		.loc 1 574 3 is_stmt 1 view .LVU307
 575:Core/Src/main.c ****   hsdram1.Init.SDClockPeriod = FMC_SDRAM_CLOCK_PERIOD_2;
 809              		.loc 1 575 32 is_stmt 0 view .LVU308
 810 01e6 D861     		str	r0, [r3, #28]
 574:Core/Src/main.c ****   hsdram1.Init.WriteProtection = FMC_SDRAM_WRITE_PROTECTION_DISABLE;
 811              		.loc 1 574 27 view .LVU309
 812 01e8 4FF4C072 		mov	r2, #384
 584:Core/Src/main.c ****   SdramTiming.RPDelay = 2;
 813              		.loc 1 584 33 view .LVU310
 814 01ec 4FF00308 		mov	r8, #3
 588:Core/Src/main.c ****   {
 815              		.loc 1 588 7 view .LVU311
 816 01f0 0BA9     		add	r1, sp, #44
 817 01f2 1846     		mov	r0, r3
 571:Core/Src/main.c ****   hsdram1.Init.MemoryDataWidth = FMC_SDRAM_MEM_BUS_WIDTH_16;
 818              		.loc 1 571 30 view .LVU312
 819 01f4 DE60     		str	r6, [r3, #12]
 583:Core/Src/main.c ****   SdramTiming.WriteRecoveryTime = 3;
 820              		.loc 1 583 29 view .LVU313
 821 01f6 0E97     		str	r7, [sp, #56]
 574:Core/Src/main.c ****   hsdram1.Init.WriteProtection = FMC_SDRAM_WRITE_PROTECTION_DISABLE;
 822              		.loc 1 574 27 view .LVU314
 823 01f8 9A61     		str	r2, [r3, #24]
 575:Core/Src/main.c ****   hsdram1.Init.SDClockPeriod = FMC_SDRAM_CLOCK_PERIOD_2;
 824              		.loc 1 575 3 is_stmt 1 view .LVU315
 576:Core/Src/main.c ****   hsdram1.Init.ReadBurst = FMC_SDRAM_RBURST_DISABLE;
 825              		.loc 1 576 3 view .LVU316
 577:Core/Src/main.c ****   hsdram1.Init.ReadPipeDelay = FMC_SDRAM_RPIPE_DELAY_1;
 826              		.loc 1 577 3 view .LVU317
 578:Core/Src/main.c ****   /* SdramTiming */
 827              		.loc 1 578 3 view .LVU318
 580:Core/Src/main.c ****   SdramTiming.ExitSelfRefreshDelay = 7;
 828              		.loc 1 580 3 view .LVU319
 581:Core/Src/main.c ****   SdramTiming.SelfRefreshTime = 4;
 829              		.loc 1 581 3 view .LVU320
 582:Core/Src/main.c ****   SdramTiming.RowCycleDelay = 7;
 830              		.loc 1 582 3 view .LVU321
 583:Core/Src/main.c ****   SdramTiming.WriteRecoveryTime = 3;
 831              		.loc 1 583 3 view .LVU322
 584:Core/Src/main.c ****   SdramTiming.RPDelay = 2;
 832              		.loc 1 584 3 view .LVU323
ARM GAS  /tmp/ccYgTI9f.s 			page 36


 584:Core/Src/main.c ****   SdramTiming.RPDelay = 2;
 833              		.loc 1 584 33 is_stmt 0 view .LVU324
 834 01fa CDF83C80 		str	r8, [sp, #60]
 585:Core/Src/main.c ****   SdramTiming.RCDDelay = 2;
 835              		.loc 1 585 3 is_stmt 1 view .LVU325
 586:Core/Src/main.c **** 
 836              		.loc 1 586 3 view .LVU326
 588:Core/Src/main.c ****   {
 837              		.loc 1 588 3 view .LVU327
 588:Core/Src/main.c ****   {
 838              		.loc 1 588 7 is_stmt 0 view .LVU328
 839 01fe FFF7FEFF 		bl	HAL_SDRAM_Init
 840              	.LVL19:
 588:Core/Src/main.c ****   {
 841              		.loc 1 588 6 view .LVU329
 842 0202 A0B9     		cbnz	r0, .L45
 843              	.LBE194:
 844              	.LBE193:
 118:Core/Src/main.c ****   MX_LTDC_Init();
 845              		.loc 1 118 3 is_stmt 1 view .LVU330
 846              	.LBB201:
 847              	.LBI201:
 331:Core/Src/main.c **** {
 848              		.loc 1 331 13 view .LVU331
 849              	.LBB202:
 341:Core/Src/main.c ****   hi2c3.Init.ClockSpeed = 100000;
 850              		.loc 1 341 3 view .LVU332
 341:Core/Src/main.c ****   hi2c3.Init.ClockSpeed = 100000;
 851              		.loc 1 341 18 is_stmt 0 view .LVU333
 852 0204 324C     		ldr	r4, .L47+48
 342:Core/Src/main.c ****   hi2c3.Init.DutyCycle = I2C_DUTYCYCLE_2;
 853              		.loc 1 342 25 view .LVU334
 854 0206 334A     		ldr	r2, .L47+52
 855 0208 334B     		ldr	r3, .L47+56
 344:Core/Src/main.c ****   hi2c3.Init.AddressingMode = I2C_ADDRESSINGMODE_7BIT;
 856              		.loc 1 344 26 view .LVU335
 857 020a C4E90200 		strd	r0, r0, [r4, #8]
 347:Core/Src/main.c ****   hi2c3.Init.GeneralCallMode = I2C_GENERALCALL_DISABLE;
 858              		.loc 1 347 26 view .LVU336
 859 020e C4E90500 		strd	r0, r0, [r4, #20]
 349:Core/Src/main.c ****   if (HAL_I2C_Init(&hi2c3) != HAL_OK)
 860              		.loc 1 349 28 view .LVU337
 861 0212 C4E90700 		strd	r0, r0, [r4, #28]
 342:Core/Src/main.c ****   hi2c3.Init.DutyCycle = I2C_DUTYCYCLE_2;
 862              		.loc 1 342 25 view .LVU338
 863 0216 C4E90023 		strd	r2, r3, [r4]
 343:Core/Src/main.c ****   hi2c3.Init.OwnAddress1 = 0;
 864              		.loc 1 343 3 is_stmt 1 view .LVU339
 344:Core/Src/main.c ****   hi2c3.Init.AddressingMode = I2C_ADDRESSINGMODE_7BIT;
 865              		.loc 1 344 3 view .LVU340
 345:Core/Src/main.c ****   hi2c3.Init.DualAddressMode = I2C_DUALADDRESS_DISABLE;
 866              		.loc 1 345 3 view .LVU341
 350:Core/Src/main.c ****   {
 867              		.loc 1 350 7 is_stmt 0 view .LVU342
 868 021a 2046     		mov	r0, r4
 345:Core/Src/main.c ****   hi2c3.Init.DualAddressMode = I2C_DUALADDRESS_DISABLE;
 869              		.loc 1 345 29 view .LVU343
ARM GAS  /tmp/ccYgTI9f.s 			page 37


 870 021c 4FF48043 		mov	r3, #16384
 871 0220 2361     		str	r3, [r4, #16]
 346:Core/Src/main.c ****   hi2c3.Init.OwnAddress2 = 0;
 872              		.loc 1 346 3 is_stmt 1 view .LVU344
 347:Core/Src/main.c ****   hi2c3.Init.GeneralCallMode = I2C_GENERALCALL_DISABLE;
 873              		.loc 1 347 3 view .LVU345
 348:Core/Src/main.c ****   hi2c3.Init.NoStretchMode = I2C_NOSTRETCH_DISABLE;
 874              		.loc 1 348 3 view .LVU346
 349:Core/Src/main.c ****   if (HAL_I2C_Init(&hi2c3) != HAL_OK)
 875              		.loc 1 349 3 view .LVU347
 350:Core/Src/main.c ****   {
 876              		.loc 1 350 3 view .LVU348
 350:Core/Src/main.c ****   {
 877              		.loc 1 350 7 is_stmt 0 view .LVU349
 878 0222 FFF7FEFF 		bl	HAL_I2C_Init
 879              	.LVL20:
 350:Core/Src/main.c ****   {
 880              		.loc 1 350 6 view .LVU350
 881 0226 0146     		mov	r1, r0
 882 0228 18B1     		cbz	r0, .L19
 352:Core/Src/main.c ****   }
 883              		.loc 1 352 5 is_stmt 1 view .LVU351
 884              	.LBB203:
 885              	.LBI203:
 732:Core/Src/main.c **** {
 886              		.loc 1 732 6 view .LVU352
 887              	.LBE203:
 888              	.LBE202:
 889              	.LBE201:
 736:Core/Src/main.c ****   while (1)
 890              		.loc 1 736 3 view .LVU353
 891              	.LBB220:
 892              	.LBB215:
 893              	.LBB206:
 894              	.LBB204:
 895              	.LBI204:
 140:Drivers/CMSIS/Include/cmsis_gcc.h **** {
 896              		.loc 2 140 27 view .LVU354
 897              	.LBB205:
 898              		.loc 2 142 3 view .LVU355
 899              		.syntax unified
 900              	@ 142 "Drivers/CMSIS/Include/cmsis_gcc.h" 1
 901 022a 72B6     		cpsid i
 902              	@ 0 "" 2
 903              		.thumb
 904              		.syntax unified
 905              	.L20:
 906              	.LBE205:
 907              	.LBE204:
 908              	.LBE206:
 909              	.LBE215:
 910              	.LBE220:
 737:Core/Src/main.c ****   {
 911              		.loc 1 737 3 view .LVU356
 912              		.loc 1 739 3 view .LVU357
 737:Core/Src/main.c ****   {
 913              		.loc 1 737 9 view .LVU358
ARM GAS  /tmp/ccYgTI9f.s 			page 38


 737:Core/Src/main.c ****   {
 914              		.loc 1 737 3 view .LVU359
 915              		.loc 1 739 3 view .LVU360
 737:Core/Src/main.c ****   {
 916              		.loc 1 737 9 view .LVU361
 917 022c FEE7     		b	.L20
 918              	.L45:
 919              	.LBB221:
 920              	.LBB199:
 590:Core/Src/main.c ****   }
 921              		.loc 1 590 5 view .LVU362
 922              	.LBB195:
 923              	.LBI195:
 732:Core/Src/main.c **** {
 924              		.loc 1 732 6 view .LVU363
 925              	.LBE195:
 926              	.LBE199:
 927              	.LBE221:
 736:Core/Src/main.c ****   while (1)
 928              		.loc 1 736 3 view .LVU364
 929              	.LBB222:
 930              	.LBB200:
 931              	.LBB198:
 932              	.LBB196:
 933              	.LBI196:
 140:Drivers/CMSIS/Include/cmsis_gcc.h **** {
 934              		.loc 2 140 27 view .LVU365
 935              	.LBB197:
 936              		.loc 2 142 3 view .LVU366
 937              		.syntax unified
 938              	@ 142 "Drivers/CMSIS/Include/cmsis_gcc.h" 1
 939 022e 72B6     		cpsid i
 940              	@ 0 "" 2
 941              		.thumb
 942              		.syntax unified
 943              	.L18:
 944              	.LBE197:
 945              	.LBE196:
 946              	.LBE198:
 947              	.LBE200:
 948              	.LBE222:
 737:Core/Src/main.c ****   {
 949              		.loc 1 737 3 view .LVU367
 950              		.loc 1 739 3 view .LVU368
 737:Core/Src/main.c ****   {
 951              		.loc 1 737 9 view .LVU369
 737:Core/Src/main.c ****   {
 952              		.loc 1 737 3 view .LVU370
 953              		.loc 1 739 3 view .LVU371
 737:Core/Src/main.c ****   {
 954              		.loc 1 737 9 view .LVU372
 955 0230 FEE7     		b	.L18
 956              	.L19:
 957              	.LBB223:
 958              	.LBB216:
 356:Core/Src/main.c ****   {
 959              		.loc 1 356 3 view .LVU373
ARM GAS  /tmp/ccYgTI9f.s 			page 39


 356:Core/Src/main.c ****   {
 960              		.loc 1 356 7 is_stmt 0 view .LVU374
 961 0232 2046     		mov	r0, r4
 962 0234 FFF7FEFF 		bl	HAL_I2CEx_ConfigAnalogFilter
 963              	.LVL21:
 356:Core/Src/main.c ****   {
 964              		.loc 1 356 6 view .LVU375
 965 0238 0146     		mov	r1, r0
 966 023a 08B1     		cbz	r0, .L21
 358:Core/Src/main.c ****   }
 967              		.loc 1 358 5 is_stmt 1 view .LVU376
 968              	.LBB207:
 969              	.LBI207:
 732:Core/Src/main.c **** {
 970              		.loc 1 732 6 view .LVU377
 971              	.LBE207:
 972              	.LBE216:
 973              	.LBE223:
 736:Core/Src/main.c ****   while (1)
 974              		.loc 1 736 3 view .LVU378
 975              	.LBB224:
 976              	.LBB217:
 977              	.LBB210:
 978              	.LBB208:
 979              	.LBI208:
 140:Drivers/CMSIS/Include/cmsis_gcc.h **** {
 980              		.loc 2 140 27 view .LVU379
 981              	.LBB209:
 982              		.loc 2 142 3 view .LVU380
 983              		.syntax unified
 984              	@ 142 "Drivers/CMSIS/Include/cmsis_gcc.h" 1
 985 023c 72B6     		cpsid i
 986              	@ 0 "" 2
 987              		.thumb
 988              		.syntax unified
 989              	.L22:
 990              	.LBE209:
 991              	.LBE208:
 992              	.LBE210:
 993              	.LBE217:
 994              	.LBE224:
 737:Core/Src/main.c ****   {
 995              		.loc 1 737 3 view .LVU381
 996              		.loc 1 739 3 view .LVU382
 737:Core/Src/main.c ****   {
 997              		.loc 1 737 9 view .LVU383
 737:Core/Src/main.c ****   {
 998              		.loc 1 737 3 view .LVU384
 999              		.loc 1 739 3 view .LVU385
 737:Core/Src/main.c ****   {
 1000              		.loc 1 737 9 view .LVU386
 1001 023e FEE7     		b	.L22
 1002              	.L21:
 1003              	.LBB225:
 1004              	.LBB218:
 362:Core/Src/main.c ****   {
 1005              		.loc 1 362 3 view .LVU387
ARM GAS  /tmp/ccYgTI9f.s 			page 40


 362:Core/Src/main.c ****   {
 1006              		.loc 1 362 7 is_stmt 0 view .LVU388
 1007 0240 2046     		mov	r0, r4
 1008 0242 FFF7FEFF 		bl	HAL_I2CEx_ConfigDigitalFilter
 1009              	.LVL22:
 362:Core/Src/main.c ****   {
 1010              		.loc 1 362 6 view .LVU389
 1011 0246 0646     		mov	r6, r0
 1012 0248 08B1     		cbz	r0, .L23
 364:Core/Src/main.c ****   }
 1013              		.loc 1 364 5 is_stmt 1 view .LVU390
 1014              	.LBB211:
 1015              	.LBI211:
 732:Core/Src/main.c **** {
 1016              		.loc 1 732 6 view .LVU391
 1017              	.LBE211:
 1018              	.LBE218:
 1019              	.LBE225:
 736:Core/Src/main.c ****   while (1)
 1020              		.loc 1 736 3 view .LVU392
 1021              	.LBB226:
 1022              	.LBB219:
 1023              	.LBB214:
 1024              	.LBB212:
 1025              	.LBI212:
 140:Drivers/CMSIS/Include/cmsis_gcc.h **** {
 1026              		.loc 2 140 27 view .LVU393
 1027              	.LBB213:
 1028              		.loc 2 142 3 view .LVU394
 1029              		.syntax unified
 1030              	@ 142 "Drivers/CMSIS/Include/cmsis_gcc.h" 1
 1031 024a 72B6     		cpsid i
 1032              	@ 0 "" 2
 1033              		.thumb
 1034              		.syntax unified
 1035              	.L24:
 1036              	.LBE213:
 1037              	.LBE212:
 1038              	.LBE214:
 1039              	.LBE219:
 1040              	.LBE226:
 737:Core/Src/main.c ****   {
 1041              		.loc 1 737 3 view .LVU395
 1042              		.loc 1 739 3 view .LVU396
 737:Core/Src/main.c ****   {
 1043              		.loc 1 737 9 view .LVU397
 737:Core/Src/main.c ****   {
 1044              		.loc 1 737 3 view .LVU398
 1045              		.loc 1 739 3 view .LVU399
 737:Core/Src/main.c ****   {
 1046              		.loc 1 737 9 view .LVU400
 1047 024c FEE7     		b	.L24
 1048              	.L23:
 119:Core/Src/main.c ****   MX_SPI5_Init();
 1049              		.loc 1 119 3 view .LVU401
 1050              	.LBB227:
 1051              	.LBI227:
ARM GAS  /tmp/ccYgTI9f.s 			page 41


 377:Core/Src/main.c **** {
 1052              		.loc 1 377 13 view .LVU402
 1053              	.LBB228:
 384:Core/Src/main.c **** 
 1054              		.loc 1 384 3 view .LVU403
 389:Core/Src/main.c ****   hltdc.Init.HSPolarity = LTDC_HSPOLARITY_AL;
 1055              		.loc 1 389 18 is_stmt 0 view .LVU404
 1056 024e 234C     		ldr	r4, .L47+60
 384:Core/Src/main.c **** 
 1057              		.loc 1 384 24 view .LVU405
 1058 0250 3422     		movs	r2, #52
 1059 0252 0146     		mov	r1, r0
 1060 0254 0BA8     		add	r0, sp, #44
 1061 0256 FFF7FEFF 		bl	memset
 1062              	.LVL23:
 389:Core/Src/main.c ****   hltdc.Init.HSPolarity = LTDC_HSPOLARITY_AL;
 1063              		.loc 1 389 3 is_stmt 1 view .LVU406
 390:Core/Src/main.c ****   hltdc.Init.VSPolarity = LTDC_VSPOLARITY_AL;
 1064              		.loc 1 390 3 view .LVU407
 391:Core/Src/main.c ****   hltdc.Init.DEPolarity = LTDC_DEPOLARITY_AL;
 1065              		.loc 1 391 3 view .LVU408
 392:Core/Src/main.c ****   hltdc.Init.PCPolarity = LTDC_PCPOLARITY_IPC;
 1066              		.loc 1 392 3 view .LVU409
 393:Core/Src/main.c ****   hltdc.Init.HorizontalSync = 9;
 1067              		.loc 1 393 3 view .LVU410
 394:Core/Src/main.c ****   hltdc.Init.VerticalSync = 1;
 1068              		.loc 1 394 3 view .LVU411
 395:Core/Src/main.c ****   hltdc.Init.AccumulatedHBP = 29;
 1069              		.loc 1 395 3 view .LVU412
 396:Core/Src/main.c ****   hltdc.Init.AccumulatedVBP = 3;
 1070              		.loc 1 396 3 view .LVU413
 397:Core/Src/main.c ****   hltdc.Init.AccumulatedActiveW = 269;
 1071              		.loc 1 397 3 view .LVU414
 398:Core/Src/main.c ****   hltdc.Init.AccumulatedActiveH = 323;
 1072              		.loc 1 398 3 view .LVU415
 399:Core/Src/main.c ****   hltdc.Init.TotalWidth = 279;
 1073              		.loc 1 399 3 view .LVU416
 400:Core/Src/main.c ****   hltdc.Init.TotalHeigh = 327;
 1074              		.loc 1 400 3 view .LVU417
 401:Core/Src/main.c ****   hltdc.Init.Backcolor.Blue = 0;
 1075              		.loc 1 401 3 view .LVU418
 402:Core/Src/main.c ****   hltdc.Init.Backcolor.Green = 0;
 1076              		.loc 1 402 3 view .LVU419
 403:Core/Src/main.c ****   hltdc.Init.Backcolor.Red = 0;
 1077              		.loc 1 403 3 view .LVU420
 404:Core/Src/main.c ****   if (HAL_LTDC_Init(&hltdc) != HAL_OK)
 1078              		.loc 1 404 3 view .LVU421
 389:Core/Src/main.c ****   hltdc.Init.HSPolarity = LTDC_HSPOLARITY_AL;
 1079              		.loc 1 389 18 is_stmt 0 view .LVU422
 1080 025a 214B     		ldr	r3, .L47+64
 1081 025c 2360     		str	r3, [r4]
 394:Core/Src/main.c ****   hltdc.Init.VerticalSync = 1;
 1082              		.loc 1 394 29 view .LVU423
 1083 025e 0923     		movs	r3, #9
 1084 0260 6361     		str	r3, [r4, #20]
 396:Core/Src/main.c ****   hltdc.Init.AccumulatedVBP = 3;
 1085              		.loc 1 396 29 view .LVU424
ARM GAS  /tmp/ccYgTI9f.s 			page 42


 1086 0262 1D23     		movs	r3, #29
 1087 0264 E361     		str	r3, [r4, #28]
 399:Core/Src/main.c ****   hltdc.Init.TotalWidth = 279;
 1088              		.loc 1 399 33 view .LVU425
 1089 0266 40F20D1C 		movw	ip, #269
 1090 026a 40F24313 		movw	r3, #323
 1091 026e C4E909C3 		strd	ip, r3, [r4, #36]
 401:Core/Src/main.c ****   hltdc.Init.Backcolor.Blue = 0;
 1092              		.loc 1 401 25 view .LVU426
 1093 0272 40F2171E 		movw	lr, #279
 1094 0276 40F24713 		movw	r3, #327
 402:Core/Src/main.c ****   hltdc.Init.Backcolor.Green = 0;
 1095              		.loc 1 402 29 view .LVU427
 1096 027a A686     		strh	r6, [r4, #52]	@ movhi
 405:Core/Src/main.c ****   {
 1097              		.loc 1 405 7 view .LVU428
 1098 027c 2046     		mov	r0, r4
 391:Core/Src/main.c ****   hltdc.Init.DEPolarity = LTDC_DEPOLARITY_AL;
 1099              		.loc 1 391 25 view .LVU429
 1100 027e C4E90166 		strd	r6, r6, [r4, #4]
 393:Core/Src/main.c ****   hltdc.Init.HorizontalSync = 9;
 1101              		.loc 1 393 25 view .LVU430
 1102 0282 C4E90366 		strd	r6, r6, [r4, #12]
 401:Core/Src/main.c ****   hltdc.Init.Backcolor.Blue = 0;
 1103              		.loc 1 401 25 view .LVU431
 1104 0286 C4E90BE3 		strd	lr, r3, [r4, #44]
 397:Core/Src/main.c ****   hltdc.Init.AccumulatedActiveW = 269;
 1105              		.loc 1 397 29 view .LVU432
 1106 028a C4F82080 		str	r8, [r4, #32]
 395:Core/Src/main.c ****   hltdc.Init.AccumulatedHBP = 29;
 1107              		.loc 1 395 27 view .LVU433
 1108 028e A561     		str	r5, [r4, #24]
 404:Core/Src/main.c ****   if (HAL_LTDC_Init(&hltdc) != HAL_OK)
 1109              		.loc 1 404 28 view .LVU434
 1110 0290 84F83660 		strb	r6, [r4, #54]
 405:Core/Src/main.c ****   {
 1111              		.loc 1 405 3 is_stmt 1 view .LVU435
 405:Core/Src/main.c ****   {
 1112              		.loc 1 405 7 is_stmt 0 view .LVU436
 1113 0294 FFF7FEFF 		bl	HAL_LTDC_Init
 1114              	.LVL24:
 405:Core/Src/main.c ****   {
 1115              		.loc 1 405 6 view .LVU437
 1116 0298 0246     		mov	r2, r0
 1117 029a 18B3     		cbz	r0, .L25
 407:Core/Src/main.c ****   }
 1118              		.loc 1 407 5 is_stmt 1 view .LVU438
 1119              	.LBB229:
 1120              	.LBI229:
 732:Core/Src/main.c **** {
 1121              		.loc 1 732 6 view .LVU439
 1122              	.LBE229:
 1123              	.LBE228:
 1124              	.LBE227:
 736:Core/Src/main.c ****   while (1)
 1125              		.loc 1 736 3 view .LVU440
 1126              	.LBB240:
ARM GAS  /tmp/ccYgTI9f.s 			page 43


 1127              	.LBB237:
 1128              	.LBB232:
 1129              	.LBB230:
 1130              	.LBI230:
 140:Drivers/CMSIS/Include/cmsis_gcc.h **** {
 1131              		.loc 2 140 27 view .LVU441
 1132              	.LBB231:
 1133              		.loc 2 142 3 view .LVU442
 1134              		.syntax unified
 1135              	@ 142 "Drivers/CMSIS/Include/cmsis_gcc.h" 1
 1136 029c 72B6     		cpsid i
 1137              	@ 0 "" 2
 1138              		.thumb
 1139              		.syntax unified
 1140              	.L26:
 1141              	.LBE231:
 1142              	.LBE230:
 1143              	.LBE232:
 1144              	.LBE237:
 1145              	.LBE240:
 737:Core/Src/main.c ****   {
 1146              		.loc 1 737 3 view .LVU443
 1147              		.loc 1 739 3 view .LVU444
 737:Core/Src/main.c ****   {
 1148              		.loc 1 737 9 view .LVU445
 737:Core/Src/main.c ****   {
 1149              		.loc 1 737 3 view .LVU446
 1150              		.loc 1 739 3 view .LVU447
 737:Core/Src/main.c ****   {
 1151              		.loc 1 737 9 view .LVU448
 1152 029e FEE7     		b	.L26
 1153              	.L48:
 1154              		.align	2
 1155              	.L47:
 1156 02a0 00380240 		.word	1073887232
 1157 02a4 00080240 		.word	1073874944
 1158 02a8 00000240 		.word	1073872896
 1159 02ac 000C0240 		.word	1073875968
 1160 02b0 00180240 		.word	1073879040
 1161 02b4 00040240 		.word	1073873920
 1162 02b8 00000000 		.word	.LANCHOR0
 1163 02bc 00300240 		.word	1073885184
 1164 02c0 00000000 		.word	.LANCHOR1
 1165 02c4 00B00240 		.word	1073917952
 1166 02c8 00000000 		.word	.LANCHOR2
 1167 02cc 400100A0 		.word	-1610612416
 1168 02d0 00000000 		.word	.LANCHOR3
 1169 02d4 005C0040 		.word	1073765376
 1170 02d8 A0860100 		.word	100000
 1171 02dc 00000000 		.word	.LANCHOR4
 1172 02e0 00680140 		.word	1073833984
 1173              	.L25:
 1174              	.LBB241:
 1175              	.LBB238:
 409:Core/Src/main.c ****   pLayerCfg.WindowX1 = 240;
 1176              		.loc 1 409 3 view .LVU449
 410:Core/Src/main.c ****   pLayerCfg.WindowY0 = 0;
ARM GAS  /tmp/ccYgTI9f.s 			page 44


 1177              		.loc 1 410 3 view .LVU450
 411:Core/Src/main.c ****   pLayerCfg.WindowY1 = 320;
 1178              		.loc 1 411 3 view .LVU451
 412:Core/Src/main.c ****   pLayerCfg.PixelFormat = LTDC_PIXEL_FORMAT_RGB888;
 1179              		.loc 1 412 3 view .LVU452
 413:Core/Src/main.c ****   pLayerCfg.Alpha = 255;
 1180              		.loc 1 413 3 view .LVU453
 414:Core/Src/main.c ****   pLayerCfg.Alpha0 = 0;
 1181              		.loc 1 414 3 view .LVU454
 415:Core/Src/main.c ****   pLayerCfg.BlendingFactor1 = LTDC_BLENDING_FACTOR1_PAxCA;
 1182              		.loc 1 415 3 view .LVU455
 416:Core/Src/main.c ****   pLayerCfg.BlendingFactor2 = LTDC_BLENDING_FACTOR2_PAxCA;
 1183              		.loc 1 416 3 view .LVU456
 417:Core/Src/main.c ****   pLayerCfg.FBStartAdress = 0xD0000000;
 1184              		.loc 1 417 3 view .LVU457
 418:Core/Src/main.c ****   pLayerCfg.ImageWidth = 240;
 1185              		.loc 1 418 3 view .LVU458
 419:Core/Src/main.c ****   pLayerCfg.ImageHeight = 320;
 1186              		.loc 1 419 3 view .LVU459
 420:Core/Src/main.c ****   pLayerCfg.Backcolor.Blue = 0;
 1187              		.loc 1 420 3 view .LVU460
 421:Core/Src/main.c ****   pLayerCfg.Backcolor.Green = 0;
 1188              		.loc 1 421 3 view .LVU461
 422:Core/Src/main.c ****   pLayerCfg.Backcolor.Red = 0;
 1189              		.loc 1 422 3 view .LVU462
 423:Core/Src/main.c ****   if (HAL_LTDC_ConfigLayer(&hltdc, &pLayerCfg, 0) != HAL_OK)
 1190              		.loc 1 423 3 view .LVU463
 414:Core/Src/main.c ****   pLayerCfg.Alpha0 = 0;
 1191              		.loc 1 414 19 is_stmt 0 view .LVU464
 1192 02e4 FF23     		movs	r3, #255
 1193 02e6 1093     		str	r3, [sp, #64]
 416:Core/Src/main.c ****   pLayerCfg.BlendingFactor2 = LTDC_BLENDING_FACTOR2_PAxCA;
 1194              		.loc 1 416 29 view .LVU465
 1195 02e8 4FF4C063 		mov	r3, #1536
 1196 02ec CDE91123 		strd	r2, r3, [sp, #68]
 418:Core/Src/main.c ****   pLayerCfg.ImageWidth = 240;
 1197              		.loc 1 418 27 view .LVU466
 1198 02f0 4FF05043 		mov	r3, #-805306368
 1199 02f4 CDE91373 		strd	r7, r3, [sp, #76]
 410:Core/Src/main.c ****   pLayerCfg.WindowY0 = 0;
 1200              		.loc 1 410 22 view .LVU467
 1201 02f8 F023     		movs	r3, #240
 1202 02fa 0C93     		str	r3, [sp, #48]
 419:Core/Src/main.c ****   pLayerCfg.ImageHeight = 320;
 1203              		.loc 1 419 24 view .LVU468
 1204 02fc 1593     		str	r3, [sp, #84]
 424:Core/Src/main.c ****   {
 1205              		.loc 1 424 7 view .LVU469
 1206 02fe 2046     		mov	r0, r4
 412:Core/Src/main.c ****   pLayerCfg.PixelFormat = LTDC_PIXEL_FORMAT_RGB888;
 1207              		.loc 1 412 22 view .LVU470
 1208 0300 4FF4A073 		mov	r3, #320
 424:Core/Src/main.c ****   {
 1209              		.loc 1 424 7 view .LVU471
 1210 0304 0BA9     		add	r1, sp, #44
 409:Core/Src/main.c ****   pLayerCfg.WindowX1 = 240;
 1211              		.loc 1 409 22 view .LVU472
ARM GAS  /tmp/ccYgTI9f.s 			page 45


 1212 0306 0B92     		str	r2, [sp, #44]
 411:Core/Src/main.c ****   pLayerCfg.WindowY1 = 320;
 1213              		.loc 1 411 22 view .LVU473
 1214 0308 0D92     		str	r2, [sp, #52]
 421:Core/Src/main.c ****   pLayerCfg.Backcolor.Green = 0;
 1215              		.loc 1 421 28 view .LVU474
 1216 030a ADF85C20 		strh	r2, [sp, #92]	@ movhi
 423:Core/Src/main.c ****   if (HAL_LTDC_ConfigLayer(&hltdc, &pLayerCfg, 0) != HAL_OK)
 1217              		.loc 1 423 27 view .LVU475
 1218 030e 8DF85E20 		strb	r2, [sp, #94]
 424:Core/Src/main.c ****   {
 1219              		.loc 1 424 3 is_stmt 1 view .LVU476
 413:Core/Src/main.c ****   pLayerCfg.Alpha = 255;
 1220              		.loc 1 413 25 is_stmt 0 view .LVU477
 1221 0312 0F95     		str	r5, [sp, #60]
 412:Core/Src/main.c ****   pLayerCfg.PixelFormat = LTDC_PIXEL_FORMAT_RGB888;
 1222              		.loc 1 412 22 view .LVU478
 1223 0314 0E93     		str	r3, [sp, #56]
 420:Core/Src/main.c ****   pLayerCfg.Backcolor.Blue = 0;
 1224              		.loc 1 420 25 view .LVU479
 1225 0316 1693     		str	r3, [sp, #88]
 424:Core/Src/main.c ****   {
 1226              		.loc 1 424 7 view .LVU480
 1227 0318 FFF7FEFF 		bl	HAL_LTDC_ConfigLayer
 1228              	.LVL25:
 424:Core/Src/main.c ****   {
 1229              		.loc 1 424 6 view .LVU481
 1230 031c 0246     		mov	r2, r0
 1231 031e 08B1     		cbz	r0, .L27
 426:Core/Src/main.c ****   }
 1232              		.loc 1 426 5 is_stmt 1 view .LVU482
 1233              	.LBB233:
 1234              	.LBI233:
 732:Core/Src/main.c **** {
 1235              		.loc 1 732 6 view .LVU483
 1236              	.LBE233:
 1237              	.LBE238:
 1238              	.LBE241:
 736:Core/Src/main.c ****   while (1)
 1239              		.loc 1 736 3 view .LVU484
 1240              	.LBB242:
 1241              	.LBB239:
 1242              	.LBB236:
 1243              	.LBB234:
 1244              	.LBI234:
 140:Drivers/CMSIS/Include/cmsis_gcc.h **** {
 1245              		.loc 2 140 27 view .LVU485
 1246              	.LBB235:
 1247              		.loc 2 142 3 view .LVU486
 1248              		.syntax unified
 1249              	@ 142 "Drivers/CMSIS/Include/cmsis_gcc.h" 1
 1250 0320 72B6     		cpsid i
 1251              	@ 0 "" 2
 1252              		.thumb
 1253              		.syntax unified
 1254              	.L28:
 1255              	.LBE235:
ARM GAS  /tmp/ccYgTI9f.s 			page 46


 1256              	.LBE234:
 1257              	.LBE236:
 1258              	.LBE239:
 1259              	.LBE242:
 737:Core/Src/main.c ****   {
 1260              		.loc 1 737 3 view .LVU487
 1261              		.loc 1 739 3 view .LVU488
 737:Core/Src/main.c ****   {
 1262              		.loc 1 737 9 view .LVU489
 737:Core/Src/main.c ****   {
 1263              		.loc 1 737 3 view .LVU490
 1264              		.loc 1 739 3 view .LVU491
 737:Core/Src/main.c ****   {
 1265              		.loc 1 737 9 view .LVU492
 1266 0322 FEE7     		b	.L28
 1267              	.L27:
 120:Core/Src/main.c ****   MX_TIM1_Init();
 1268              		.loc 1 120 3 view .LVU493
 1269              	.LBB243:
 1270              	.LBI243:
 439:Core/Src/main.c **** {
 1271              		.loc 1 439 13 view .LVU494
 1272              	.LBB244:
 450:Core/Src/main.c ****   hspi5.Init.Mode = SPI_MODE_MASTER;
 1273              		.loc 1 450 3 view .LVU495
 450:Core/Src/main.c ****   hspi5.Init.Mode = SPI_MODE_MASTER;
 1274              		.loc 1 450 18 is_stmt 0 view .LVU496
 1275 0324 5B4B     		ldr	r3, .L49
 451:Core/Src/main.c ****   hspi5.Init.Direction = SPI_DIRECTION_2LINES;
 1276              		.loc 1 451 19 view .LVU497
 1277 0326 5C48     		ldr	r0, .L49+4
 1278 0328 4FF48271 		mov	r1, #260
 1279 032c C3E90001 		strd	r0, r1, [r3]
 452:Core/Src/main.c ****   hspi5.Init.DataSize = SPI_DATASIZE_8BIT;
 1280              		.loc 1 452 3 is_stmt 1 view .LVU498
 456:Core/Src/main.c ****   hspi5.Init.BaudRatePrescaler = SPI_BAUDRATEPRESCALER_16;
 1281              		.loc 1 456 18 is_stmt 0 view .LVU499
 1282 0330 4FF40070 		mov	r0, #512
 457:Core/Src/main.c ****   hspi5.Init.FirstBit = SPI_FIRSTBIT_MSB;
 1283              		.loc 1 457 32 view .LVU500
 1284 0334 1821     		movs	r1, #24
 1285 0336 C3E90601 		strd	r0, r1, [r3, #24]
 461:Core/Src/main.c ****   if (HAL_SPI_Init(&hspi5) != HAL_OK)
 1286              		.loc 1 461 28 view .LVU501
 1287 033a 0A21     		movs	r1, #10
 462:Core/Src/main.c ****   {
 1288              		.loc 1 462 7 view .LVU502
 1289 033c 1846     		mov	r0, r3
 453:Core/Src/main.c ****   hspi5.Init.CLKPolarity = SPI_POLARITY_LOW;
 1290              		.loc 1 453 23 view .LVU503
 1291 033e C3E90222 		strd	r2, r2, [r3, #8]
 454:Core/Src/main.c ****   hspi5.Init.CLKPhase = SPI_PHASE_1EDGE;
 1292              		.loc 1 454 3 is_stmt 1 view .LVU504
 455:Core/Src/main.c ****   hspi5.Init.NSS = SPI_NSS_SOFT;
 1293              		.loc 1 455 23 is_stmt 0 view .LVU505
 1294 0342 C3E90422 		strd	r2, r2, [r3, #16]
 456:Core/Src/main.c ****   hspi5.Init.BaudRatePrescaler = SPI_BAUDRATEPRESCALER_16;
ARM GAS  /tmp/ccYgTI9f.s 			page 47


 1295              		.loc 1 456 3 is_stmt 1 view .LVU506
 458:Core/Src/main.c ****   hspi5.Init.TIMode = SPI_TIMODE_DISABLE;
 1296              		.loc 1 458 3 view .LVU507
 459:Core/Src/main.c ****   hspi5.Init.CRCCalculation = SPI_CRCCALCULATION_DISABLE;
 1297              		.loc 1 459 21 is_stmt 0 view .LVU508
 1298 0346 C3E90822 		strd	r2, r2, [r3, #32]
 460:Core/Src/main.c ****   hspi5.Init.CRCPolynomial = 10;
 1299              		.loc 1 460 3 is_stmt 1 view .LVU509
 461:Core/Src/main.c ****   if (HAL_SPI_Init(&hspi5) != HAL_OK)
 1300              		.loc 1 461 28 is_stmt 0 view .LVU510
 1301 034a C3E90A21 		strd	r2, r1, [r3, #40]
 462:Core/Src/main.c ****   {
 1302              		.loc 1 462 3 is_stmt 1 view .LVU511
 462:Core/Src/main.c ****   {
 1303              		.loc 1 462 7 is_stmt 0 view .LVU512
 1304 034e FFF7FEFF 		bl	HAL_SPI_Init
 1305              	.LVL26:
 462:Core/Src/main.c ****   {
 1306              		.loc 1 462 6 view .LVU513
 1307 0352 08B1     		cbz	r0, .L29
 464:Core/Src/main.c ****   }
 1308              		.loc 1 464 5 is_stmt 1 view .LVU514
 1309              	.LBB245:
 1310              	.LBI245:
 732:Core/Src/main.c **** {
 1311              		.loc 1 732 6 view .LVU515
 1312              	.LBE245:
 1313              	.LBE244:
 1314              	.LBE243:
 736:Core/Src/main.c ****   while (1)
 1315              		.loc 1 736 3 view .LVU516
 1316              	.LBB250:
 1317              	.LBB249:
 1318              	.LBB248:
 1319              	.LBB246:
 1320              	.LBI246:
 140:Drivers/CMSIS/Include/cmsis_gcc.h **** {
 1321              		.loc 2 140 27 view .LVU517
 1322              	.LBB247:
 1323              		.loc 2 142 3 view .LVU518
 1324              		.syntax unified
 1325              	@ 142 "Drivers/CMSIS/Include/cmsis_gcc.h" 1
 1326 0354 72B6     		cpsid i
 1327              	@ 0 "" 2
 1328              		.thumb
 1329              		.syntax unified
 1330              	.L30:
 1331              	.LBE247:
 1332              	.LBE246:
 1333              	.LBE248:
 1334              	.LBE249:
 1335              	.LBE250:
 737:Core/Src/main.c ****   {
 1336              		.loc 1 737 3 view .LVU519
 1337              		.loc 1 739 3 view .LVU520
 737:Core/Src/main.c ****   {
 1338              		.loc 1 737 9 view .LVU521
ARM GAS  /tmp/ccYgTI9f.s 			page 48


 737:Core/Src/main.c ****   {
 1339              		.loc 1 737 3 view .LVU522
 1340              		.loc 1 739 3 view .LVU523
 737:Core/Src/main.c ****   {
 1341              		.loc 1 737 9 view .LVU524
 1342 0356 FEE7     		b	.L30
 1343              	.L29:
 121:Core/Src/main.c ****   MX_USART1_UART_Init();
 1344              		.loc 1 121 3 view .LVU525
 1345              	.LBB251:
 1346              	.LBI251:
 477:Core/Src/main.c **** {
 1347              		.loc 1 477 13 view .LVU526
 1348              	.LBB252:
 484:Core/Src/main.c ****   TIM_MasterConfigTypeDef sMasterConfig = {0};
 1349              		.loc 1 484 3 view .LVU527
 490:Core/Src/main.c ****   htim1.Init.Prescaler = 0;
 1350              		.loc 1 490 18 is_stmt 0 view .LVU528
 1351 0358 504C     		ldr	r4, .L49+8
 1352 035a 514A     		ldr	r2, .L49+12
 1353 035c 2260     		str	r2, [r4]
 484:Core/Src/main.c ****   TIM_MasterConfigTypeDef sMasterConfig = {0};
 1354              		.loc 1 484 26 view .LVU529
 1355 035e 0023     		movs	r3, #0
 493:Core/Src/main.c ****   htim1.Init.ClockDivision = TIM_CLOCKDIVISION_DIV1;
 1356              		.loc 1 493 21 view .LVU530
 1357 0360 4FF6FF72 		movw	r2, #65535
 497:Core/Src/main.c ****   {
 1358              		.loc 1 497 7 view .LVU531
 1359 0364 2046     		mov	r0, r4
 484:Core/Src/main.c ****   TIM_MasterConfigTypeDef sMasterConfig = {0};
 1360              		.loc 1 484 26 view .LVU532
 1361 0366 CDE90B33 		strd	r3, r3, [sp, #44]
 1362 036a CDE90D33 		strd	r3, r3, [sp, #52]
 485:Core/Src/main.c **** 
 1363              		.loc 1 485 3 is_stmt 1 view .LVU533
 485:Core/Src/main.c **** 
 1364              		.loc 1 485 27 is_stmt 0 view .LVU534
 1365 036e CDE90933 		strd	r3, r3, [sp, #36]
 490:Core/Src/main.c ****   htim1.Init.Prescaler = 0;
 1366              		.loc 1 490 3 is_stmt 1 view .LVU535
 491:Core/Src/main.c ****   htim1.Init.CounterMode = TIM_COUNTERMODE_UP;
 1367              		.loc 1 491 3 view .LVU536
 492:Core/Src/main.c ****   htim1.Init.Period = 65535;
 1368              		.loc 1 492 26 is_stmt 0 view .LVU537
 1369 0372 C4E90133 		strd	r3, r3, [r4, #4]
 493:Core/Src/main.c ****   htim1.Init.ClockDivision = TIM_CLOCKDIVISION_DIV1;
 1370              		.loc 1 493 3 is_stmt 1 view .LVU538
 495:Core/Src/main.c ****   htim1.Init.AutoReloadPreload = TIM_AUTORELOAD_PRELOAD_DISABLE;
 1371              		.loc 1 495 32 is_stmt 0 view .LVU539
 1372 0376 C4E90433 		strd	r3, r3, [r4, #16]
 493:Core/Src/main.c ****   htim1.Init.ClockDivision = TIM_CLOCKDIVISION_DIV1;
 1373              		.loc 1 493 21 view .LVU540
 1374 037a E260     		str	r2, [r4, #12]
 494:Core/Src/main.c ****   htim1.Init.RepetitionCounter = 0;
 1375              		.loc 1 494 3 is_stmt 1 view .LVU541
 496:Core/Src/main.c ****   if (HAL_TIM_Base_Init(&htim1) != HAL_OK)
ARM GAS  /tmp/ccYgTI9f.s 			page 49


 1376              		.loc 1 496 3 view .LVU542
 496:Core/Src/main.c ****   if (HAL_TIM_Base_Init(&htim1) != HAL_OK)
 1377              		.loc 1 496 32 is_stmt 0 view .LVU543
 1378 037c A361     		str	r3, [r4, #24]
 497:Core/Src/main.c ****   {
 1379              		.loc 1 497 3 is_stmt 1 view .LVU544
 497:Core/Src/main.c ****   {
 1380              		.loc 1 497 7 is_stmt 0 view .LVU545
 1381 037e FFF7FEFF 		bl	HAL_TIM_Base_Init
 1382              	.LVL27:
 497:Core/Src/main.c ****   {
 1383              		.loc 1 497 6 view .LVU546
 1384 0382 08B1     		cbz	r0, .L31
 499:Core/Src/main.c ****   }
 1385              		.loc 1 499 5 is_stmt 1 view .LVU547
 1386              	.LBB253:
 1387              	.LBI253:
 732:Core/Src/main.c **** {
 1388              		.loc 1 732 6 view .LVU548
 1389              	.LBE253:
 1390              	.LBE252:
 1391              	.LBE251:
 736:Core/Src/main.c ****   while (1)
 1392              		.loc 1 736 3 view .LVU549
 1393              	.LBB270:
 1394              	.LBB265:
 1395              	.LBB256:
 1396              	.LBB254:
 1397              	.LBI254:
 140:Drivers/CMSIS/Include/cmsis_gcc.h **** {
 1398              		.loc 2 140 27 view .LVU550
 1399              	.LBB255:
 1400              		.loc 2 142 3 view .LVU551
 1401              		.syntax unified
 1402              	@ 142 "Drivers/CMSIS/Include/cmsis_gcc.h" 1
 1403 0384 72B6     		cpsid i
 1404              	@ 0 "" 2
 1405              		.thumb
 1406              		.syntax unified
 1407              	.L32:
 1408              	.LBE255:
 1409              	.LBE254:
 1410              	.LBE256:
 1411              	.LBE265:
 1412              	.LBE270:
 737:Core/Src/main.c ****   {
 1413              		.loc 1 737 3 view .LVU552
 1414              		.loc 1 739 3 view .LVU553
 737:Core/Src/main.c ****   {
 1415              		.loc 1 737 9 view .LVU554
 737:Core/Src/main.c ****   {
 1416              		.loc 1 737 3 view .LVU555
 1417              		.loc 1 739 3 view .LVU556
 737:Core/Src/main.c ****   {
 1418              		.loc 1 737 9 view .LVU557
 1419 0386 FEE7     		b	.L32
 1420              	.L31:
ARM GAS  /tmp/ccYgTI9f.s 			page 50


 1421              	.LBB271:
 1422              	.LBB266:
 501:Core/Src/main.c ****   if (HAL_TIM_ConfigClockSource(&htim1, &sClockSourceConfig) != HAL_OK)
 1423              		.loc 1 501 3 view .LVU558
 501:Core/Src/main.c ****   if (HAL_TIM_ConfigClockSource(&htim1, &sClockSourceConfig) != HAL_OK)
 1424              		.loc 1 501 34 is_stmt 0 view .LVU559
 1425 0388 4FF48053 		mov	r3, #4096
 502:Core/Src/main.c ****   {
 1426              		.loc 1 502 7 view .LVU560
 1427 038c 0BA9     		add	r1, sp, #44
 1428 038e 2046     		mov	r0, r4
 501:Core/Src/main.c ****   if (HAL_TIM_ConfigClockSource(&htim1, &sClockSourceConfig) != HAL_OK)
 1429              		.loc 1 501 34 view .LVU561
 1430 0390 0B93     		str	r3, [sp, #44]
 502:Core/Src/main.c ****   {
 1431              		.loc 1 502 3 is_stmt 1 view .LVU562
 502:Core/Src/main.c ****   {
 1432              		.loc 1 502 7 is_stmt 0 view .LVU563
 1433 0392 FFF7FEFF 		bl	HAL_TIM_ConfigClockSource
 1434              	.LVL28:
 502:Core/Src/main.c ****   {
 1435              		.loc 1 502 6 view .LVU564
 1436 0396 0346     		mov	r3, r0
 1437 0398 08B1     		cbz	r0, .L33
 504:Core/Src/main.c ****   }
 1438              		.loc 1 504 5 is_stmt 1 view .LVU565
 1439              	.LBB257:
 1440              	.LBI257:
 732:Core/Src/main.c **** {
 1441              		.loc 1 732 6 view .LVU566
 1442              	.LBE257:
 1443              	.LBE266:
 1444              	.LBE271:
 736:Core/Src/main.c ****   while (1)
 1445              		.loc 1 736 3 view .LVU567
 1446              	.LBB272:
 1447              	.LBB267:
 1448              	.LBB260:
 1449              	.LBB258:
 1450              	.LBI258:
 140:Drivers/CMSIS/Include/cmsis_gcc.h **** {
 1451              		.loc 2 140 27 view .LVU568
 1452              	.LBB259:
 1453              		.loc 2 142 3 view .LVU569
 1454              		.syntax unified
 1455              	@ 142 "Drivers/CMSIS/Include/cmsis_gcc.h" 1
 1456 039a 72B6     		cpsid i
 1457              	@ 0 "" 2
 1458              		.thumb
 1459              		.syntax unified
 1460              	.L34:
 1461              	.LBE259:
 1462              	.LBE258:
 1463              	.LBE260:
 1464              	.LBE267:
 1465              	.LBE272:
 737:Core/Src/main.c ****   {
ARM GAS  /tmp/ccYgTI9f.s 			page 51


 1466              		.loc 1 737 3 view .LVU570
 1467              		.loc 1 739 3 view .LVU571
 737:Core/Src/main.c ****   {
 1468              		.loc 1 737 9 view .LVU572
 737:Core/Src/main.c ****   {
 1469              		.loc 1 737 3 view .LVU573
 1470              		.loc 1 739 3 view .LVU574
 737:Core/Src/main.c ****   {
 1471              		.loc 1 737 9 view .LVU575
 1472 039c FEE7     		b	.L34
 1473              	.L33:
 1474              	.LBB273:
 1475              	.LBB268:
 506:Core/Src/main.c ****   sMasterConfig.MasterSlaveMode = TIM_MASTERSLAVEMODE_DISABLE;
 1476              		.loc 1 506 3 view .LVU576
 508:Core/Src/main.c ****   {
 1477              		.loc 1 508 7 is_stmt 0 view .LVU577
 1478 039e 09A9     		add	r1, sp, #36
 1479 03a0 2046     		mov	r0, r4
 507:Core/Src/main.c ****   if (HAL_TIMEx_MasterConfigSynchronization(&htim1, &sMasterConfig) != HAL_OK)
 1480              		.loc 1 507 33 view .LVU578
 1481 03a2 CDE90933 		strd	r3, r3, [sp, #36]
 508:Core/Src/main.c ****   {
 1482              		.loc 1 508 3 is_stmt 1 view .LVU579
 508:Core/Src/main.c ****   {
 1483              		.loc 1 508 7 is_stmt 0 view .LVU580
 1484 03a6 FFF7FEFF 		bl	HAL_TIMEx_MasterConfigSynchronization
 1485              	.LVL29:
 508:Core/Src/main.c ****   {
 1486              		.loc 1 508 6 view .LVU581
 1487 03aa 0246     		mov	r2, r0
 1488 03ac 08B1     		cbz	r0, .L35
 510:Core/Src/main.c ****   }
 1489              		.loc 1 510 5 is_stmt 1 view .LVU582
 1490              	.LBB261:
 1491              	.LBI261:
 732:Core/Src/main.c **** {
 1492              		.loc 1 732 6 view .LVU583
 1493              	.LBE261:
 1494              	.LBE268:
 1495              	.LBE273:
 736:Core/Src/main.c ****   while (1)
 1496              		.loc 1 736 3 view .LVU584
 1497              	.LBB274:
 1498              	.LBB269:
 1499              	.LBB264:
 1500              	.LBB262:
 1501              	.LBI262:
 140:Drivers/CMSIS/Include/cmsis_gcc.h **** {
 1502              		.loc 2 140 27 view .LVU585
 1503              	.LBB263:
 1504              		.loc 2 142 3 view .LVU586
 1505              		.syntax unified
 1506              	@ 142 "Drivers/CMSIS/Include/cmsis_gcc.h" 1
 1507 03ae 72B6     		cpsid i
 1508              	@ 0 "" 2
 1509              		.thumb
ARM GAS  /tmp/ccYgTI9f.s 			page 52


 1510              		.syntax unified
 1511              	.L36:
 1512              	.LBE263:
 1513              	.LBE262:
 1514              	.LBE264:
 1515              	.LBE269:
 1516              	.LBE274:
 737:Core/Src/main.c ****   {
 1517              		.loc 1 737 3 view .LVU587
 1518              		.loc 1 739 3 view .LVU588
 737:Core/Src/main.c ****   {
 1519              		.loc 1 737 9 view .LVU589
 737:Core/Src/main.c ****   {
 1520              		.loc 1 737 3 view .LVU590
 1521              		.loc 1 739 3 view .LVU591
 737:Core/Src/main.c ****   {
 1522              		.loc 1 737 9 view .LVU592
 1523 03b0 FEE7     		b	.L36
 1524              	.L35:
 122:Core/Src/main.c ****   /* USER CODE BEGIN 2 */
 1525              		.loc 1 122 3 view .LVU593
 1526              	.LBB275:
 1527              	.LBI275:
 523:Core/Src/main.c **** {
 1528              		.loc 1 523 13 view .LVU594
 1529              	.LBB276:
 533:Core/Src/main.c ****   huart1.Init.BaudRate = 115200;
 1530              		.loc 1 533 3 view .LVU595
 533:Core/Src/main.c ****   huart1.Init.BaudRate = 115200;
 1531              		.loc 1 533 19 is_stmt 0 view .LVU596
 1532 03b2 3C4B     		ldr	r3, .L49+16
 534:Core/Src/main.c ****   huart1.Init.WordLength = UART_WORDLENGTH_8B;
 1533              		.loc 1 534 24 view .LVU597
 1534 03b4 3C48     		ldr	r0, .L49+20
 1535 03b6 4FF4E131 		mov	r1, #115200
 1536 03ba C3E90001 		strd	r0, r1, [r3]
 535:Core/Src/main.c ****   huart1.Init.StopBits = UART_STOPBITS_1;
 1537              		.loc 1 535 3 is_stmt 1 view .LVU598
 538:Core/Src/main.c ****   huart1.Init.HwFlowCtl = UART_HWCONTROL_NONE;
 1538              		.loc 1 538 20 is_stmt 0 view .LVU599
 1539 03be 0C21     		movs	r1, #12
 541:Core/Src/main.c ****   {
 1540              		.loc 1 541 7 view .LVU600
 1541 03c0 1846     		mov	r0, r3
 536:Core/Src/main.c ****   huart1.Init.Parity = UART_PARITY_NONE;
 1542              		.loc 1 536 24 view .LVU601
 1543 03c2 C3E90222 		strd	r2, r2, [r3, #8]
 537:Core/Src/main.c ****   huart1.Init.Mode = UART_MODE_TX_RX;
 1544              		.loc 1 537 3 is_stmt 1 view .LVU602
 538:Core/Src/main.c ****   huart1.Init.HwFlowCtl = UART_HWCONTROL_NONE;
 1545              		.loc 1 538 20 is_stmt 0 view .LVU603
 1546 03c6 C3E90421 		strd	r2, r1, [r3, #16]
 539:Core/Src/main.c ****   huart1.Init.OverSampling = UART_OVERSAMPLING_16;
 1547              		.loc 1 539 3 is_stmt 1 view .LVU604
 540:Core/Src/main.c ****   if (HAL_UART_Init(&huart1) != HAL_OK)
 1548              		.loc 1 540 28 is_stmt 0 view .LVU605
 1549 03ca C3E90622 		strd	r2, r2, [r3, #24]
ARM GAS  /tmp/ccYgTI9f.s 			page 53


 541:Core/Src/main.c ****   {
 1550              		.loc 1 541 3 is_stmt 1 view .LVU606
 541:Core/Src/main.c ****   {
 1551              		.loc 1 541 7 is_stmt 0 view .LVU607
 1552 03ce FFF7FEFF 		bl	HAL_UART_Init
 1553              	.LVL30:
 541:Core/Src/main.c ****   {
 1554              		.loc 1 541 6 view .LVU608
 1555 03d2 0446     		mov	r4, r0
 1556 03d4 08B1     		cbz	r0, .L37
 543:Core/Src/main.c ****   }
 1557              		.loc 1 543 5 is_stmt 1 view .LVU609
 1558              	.LBB277:
 1559              	.LBI277:
 732:Core/Src/main.c **** {
 1560              		.loc 1 732 6 view .LVU610
 1561              	.LBE277:
 1562              	.LBE276:
 1563              	.LBE275:
 736:Core/Src/main.c ****   while (1)
 1564              		.loc 1 736 3 view .LVU611
 1565              	.LBB282:
 1566              	.LBB281:
 1567              	.LBB280:
 1568              	.LBB278:
 1569              	.LBI278:
 140:Drivers/CMSIS/Include/cmsis_gcc.h **** {
 1570              		.loc 2 140 27 view .LVU612
 1571              	.LBB279:
 1572              		.loc 2 142 3 view .LVU613
 1573              		.syntax unified
 1574              	@ 142 "Drivers/CMSIS/Include/cmsis_gcc.h" 1
 1575 03d6 72B6     		cpsid i
 1576              	@ 0 "" 2
 1577              		.thumb
 1578              		.syntax unified
 1579              	.L38:
 1580              	.LBE279:
 1581              	.LBE278:
 1582              	.LBE280:
 1583              	.LBE281:
 1584              	.LBE282:
 737:Core/Src/main.c ****   {
 1585              		.loc 1 737 3 view .LVU614
 1586              		.loc 1 739 3 view .LVU615
 737:Core/Src/main.c ****   {
 1587              		.loc 1 737 9 view .LVU616
 737:Core/Src/main.c ****   {
 1588              		.loc 1 737 3 view .LVU617
 1589              		.loc 1 739 3 view .LVU618
 737:Core/Src/main.c ****   {
 1590              		.loc 1 737 9 view .LVU619
 1591 03d8 FEE7     		b	.L38
 1592              	.L37:
 1593              		.file 3 "Core/Inc/stm32f429i_discovery.h"
   1:Core/Inc/stm32f429i_discovery.h **** /**
   2:Core/Inc/stm32f429i_discovery.h ****   ******************************************************************************
ARM GAS  /tmp/ccYgTI9f.s 			page 54


   3:Core/Inc/stm32f429i_discovery.h ****   * @file    stm32f429i_discovery.h
   4:Core/Inc/stm32f429i_discovery.h ****   * @author  MCD Application Team
   5:Core/Inc/stm32f429i_discovery.h ****   * @brief   This file contains definitions for STM32F429I-Discovery Kit LEDs,
   6:Core/Inc/stm32f429i_discovery.h ****   *          push-buttons hardware resources.
   7:Core/Inc/stm32f429i_discovery.h ****   ******************************************************************************
   8:Core/Inc/stm32f429i_discovery.h ****   * @attention
   9:Core/Inc/stm32f429i_discovery.h ****   *
  10:Core/Inc/stm32f429i_discovery.h ****   * <h2><center>&copy; COPYRIGHT(c) 2017 STMicroelectronics</center></h2>
  11:Core/Inc/stm32f429i_discovery.h ****   *
  12:Core/Inc/stm32f429i_discovery.h ****   * Redistribution and use in source and binary forms, with or without modification,
  13:Core/Inc/stm32f429i_discovery.h ****   * are permitted provided that the following conditions are met:
  14:Core/Inc/stm32f429i_discovery.h ****   *   1. Redistributions of source code must retain the above copyright notice,
  15:Core/Inc/stm32f429i_discovery.h ****   *      this list of conditions and the following disclaimer.
  16:Core/Inc/stm32f429i_discovery.h ****   *   2. Redistributions in binary form must reproduce the above copyright notice,
  17:Core/Inc/stm32f429i_discovery.h ****   *      this list of conditions and the following disclaimer in the documentation
  18:Core/Inc/stm32f429i_discovery.h ****   *      and/or other materials provided with the distribution.
  19:Core/Inc/stm32f429i_discovery.h ****   *   3. Neither the name of STMicroelectronics nor the names of its contributors
  20:Core/Inc/stm32f429i_discovery.h ****   *      may be used to endorse or promote products derived from this software
  21:Core/Inc/stm32f429i_discovery.h ****   *      without specific prior written permission.
  22:Core/Inc/stm32f429i_discovery.h ****   *
  23:Core/Inc/stm32f429i_discovery.h ****   * THIS SOFTWARE IS PROVIDED BY THE COPYRIGHT HOLDERS AND CONTRIBUTORS "AS IS"
  24:Core/Inc/stm32f429i_discovery.h ****   * AND ANY EXPRESS OR IMPLIED WARRANTIES, INCLUDING, BUT NOT LIMITED TO, THE
  25:Core/Inc/stm32f429i_discovery.h ****   * IMPLIED WARRANTIES OF MERCHANTABILITY AND FITNESS FOR A PARTICULAR PURPOSE ARE
  26:Core/Inc/stm32f429i_discovery.h ****   * DISCLAIMED. IN NO EVENT SHALL THE COPYRIGHT HOLDER OR CONTRIBUTORS BE LIABLE
  27:Core/Inc/stm32f429i_discovery.h ****   * FOR ANY DIRECT, INDIRECT, INCIDENTAL, SPECIAL, EXEMPLARY, OR CONSEQUENTIAL
  28:Core/Inc/stm32f429i_discovery.h ****   * DAMAGES (INCLUDING, BUT NOT LIMITED TO, PROCUREMENT OF SUBSTITUTE GOODS OR
  29:Core/Inc/stm32f429i_discovery.h ****   * SERVICES; LOSS OF USE, DATA, OR PROFITS; OR BUSINESS INTERRUPTION) HOWEVER
  30:Core/Inc/stm32f429i_discovery.h ****   * CAUSED AND ON ANY THEORY OF LIABILITY, WHETHER IN CONTRACT, STRICT LIABILITY,
  31:Core/Inc/stm32f429i_discovery.h ****   * OR TORT (INCLUDING NEGLIGENCE OR OTHERWISE) ARISING IN ANY WAY OUT OF THE USE
  32:Core/Inc/stm32f429i_discovery.h ****   * OF THIS SOFTWARE, EVEN IF ADVISED OF THE POSSIBILITY OF SUCH DAMAGE.
  33:Core/Inc/stm32f429i_discovery.h ****   *
  34:Core/Inc/stm32f429i_discovery.h ****   ******************************************************************************
  35:Core/Inc/stm32f429i_discovery.h ****   */
  36:Core/Inc/stm32f429i_discovery.h **** 
  37:Core/Inc/stm32f429i_discovery.h **** /* Define to prevent recursive inclusion -------------------------------------*/
  38:Core/Inc/stm32f429i_discovery.h **** #ifndef __STM32F429I_DISCOVERY_H
  39:Core/Inc/stm32f429i_discovery.h **** #define __STM32F429I_DISCOVERY_H
  40:Core/Inc/stm32f429i_discovery.h **** 
  41:Core/Inc/stm32f429i_discovery.h **** #ifdef __cplusplus
  42:Core/Inc/stm32f429i_discovery.h ****  extern "C" {
  43:Core/Inc/stm32f429i_discovery.h **** #endif
  44:Core/Inc/stm32f429i_discovery.h ****                                               
  45:Core/Inc/stm32f429i_discovery.h **** /* Includes ------------------------------------------------------------------*/
  46:Core/Inc/stm32f429i_discovery.h **** #include "stm32f4xx_hal.h"
  47:Core/Inc/stm32f429i_discovery.h ****    
  48:Core/Inc/stm32f429i_discovery.h **** /** @addtogroup BSP
  49:Core/Inc/stm32f429i_discovery.h ****   * @{
  50:Core/Inc/stm32f429i_discovery.h ****   */
  51:Core/Inc/stm32f429i_discovery.h ****   
  52:Core/Inc/stm32f429i_discovery.h **** /** @addtogroup STM32F429I_DISCOVERY
  53:Core/Inc/stm32f429i_discovery.h ****   * @{
  54:Core/Inc/stm32f429i_discovery.h ****   */
  55:Core/Inc/stm32f429i_discovery.h ****    
  56:Core/Inc/stm32f429i_discovery.h **** /** @addtogroup STM32F429I_DISCOVERY_LOW_LEVEL
  57:Core/Inc/stm32f429i_discovery.h ****   * @{
  58:Core/Inc/stm32f429i_discovery.h ****   */
  59:Core/Inc/stm32f429i_discovery.h ****    
ARM GAS  /tmp/ccYgTI9f.s 			page 55


  60:Core/Inc/stm32f429i_discovery.h **** /** @addtogroup STM32F429I_DISCOVERY_LOW_LEVEL_Exported_Types STM32F429I DISCOVERY LOW LEVEL Export
  61:Core/Inc/stm32f429i_discovery.h ****   * @{
  62:Core/Inc/stm32f429i_discovery.h ****   */
  63:Core/Inc/stm32f429i_discovery.h **** typedef enum 
 1594              		.loc 3 63 1 view .LVU620
  64:Core/Inc/stm32f429i_discovery.h **** {
  65:Core/Inc/stm32f429i_discovery.h ****   LED3 = 0,
  66:Core/Inc/stm32f429i_discovery.h ****   LED4 = 1
  67:Core/Inc/stm32f429i_discovery.h **** }Led_TypeDef;
  68:Core/Inc/stm32f429i_discovery.h **** 
  69:Core/Inc/stm32f429i_discovery.h **** typedef enum 
 1595              		.loc 3 69 1 view .LVU621
  70:Core/Inc/stm32f429i_discovery.h **** {  
  71:Core/Inc/stm32f429i_discovery.h ****   BUTTON_KEY = 0,
  72:Core/Inc/stm32f429i_discovery.h **** }Button_TypeDef;
  73:Core/Inc/stm32f429i_discovery.h **** 
  74:Core/Inc/stm32f429i_discovery.h **** typedef enum 
 1596              		.loc 3 74 1 view .LVU622
  75:Core/Inc/stm32f429i_discovery.h **** {  
  76:Core/Inc/stm32f429i_discovery.h ****   BUTTON_MODE_GPIO = 0,
  77:Core/Inc/stm32f429i_discovery.h ****   BUTTON_MODE_EXTI = 1
  78:Core/Inc/stm32f429i_discovery.h **** }ButtonMode_TypeDef;     
  79:Core/Inc/stm32f429i_discovery.h **** 
  80:Core/Inc/stm32f429i_discovery.h **** /**
  81:Core/Inc/stm32f429i_discovery.h ****   * @}
  82:Core/Inc/stm32f429i_discovery.h ****   */ 
  83:Core/Inc/stm32f429i_discovery.h **** 
  84:Core/Inc/stm32f429i_discovery.h **** /** @defgroup STM32F429I_DISCOVERY_LOW_LEVEL_Exported_Constants STM32F429I DISCOVERY LOW LEVEL Expo
  85:Core/Inc/stm32f429i_discovery.h ****   * @{
  86:Core/Inc/stm32f429i_discovery.h ****   */ 
  87:Core/Inc/stm32f429i_discovery.h **** 
  88:Core/Inc/stm32f429i_discovery.h **** /** 
  89:Core/Inc/stm32f429i_discovery.h ****   * @brief Define for STM32F429I_DISCO board  
  90:Core/Inc/stm32f429i_discovery.h ****   */ 
  91:Core/Inc/stm32f429i_discovery.h **** #if !defined (USE_STM32F429I_DISCO)
  92:Core/Inc/stm32f429i_discovery.h ****  #define USE_STM32F429I_DISCO
  93:Core/Inc/stm32f429i_discovery.h **** #endif
  94:Core/Inc/stm32f429i_discovery.h **** 
  95:Core/Inc/stm32f429i_discovery.h **** /** @defgroup STM32F429I_DISCOVERY_LOW_LEVEL_LED STM32F429I DISCOVERY LOW LEVEL LED
  96:Core/Inc/stm32f429i_discovery.h ****   * @{
  97:Core/Inc/stm32f429i_discovery.h ****   */
  98:Core/Inc/stm32f429i_discovery.h **** #define LEDn                                    2
  99:Core/Inc/stm32f429i_discovery.h ****   
 100:Core/Inc/stm32f429i_discovery.h **** #define LED3_PIN                                GPIO_PIN_13
 101:Core/Inc/stm32f429i_discovery.h **** #define LED3_GPIO_PORT                          GPIOG
 102:Core/Inc/stm32f429i_discovery.h **** #define LED3_GPIO_CLK_ENABLE()                  __HAL_RCC_GPIOG_CLK_ENABLE()  
 103:Core/Inc/stm32f429i_discovery.h **** #define LED3_GPIO_CLK_DISABLE()                 __HAL_RCC_GPIOG_CLK_DISABLE()  
 104:Core/Inc/stm32f429i_discovery.h **** 
 105:Core/Inc/stm32f429i_discovery.h **** #define LED4_PIN                                GPIO_PIN_14
 106:Core/Inc/stm32f429i_discovery.h **** #define LED4_GPIO_PORT                          GPIOG
 107:Core/Inc/stm32f429i_discovery.h **** #define LED4_GPIO_CLK_ENABLE()                  __HAL_RCC_GPIOG_CLK_ENABLE()  
 108:Core/Inc/stm32f429i_discovery.h **** #define LED4_GPIO_CLK_DISABLE()                 __HAL_RCC_GPIOG_CLK_DISABLE()  
 109:Core/Inc/stm32f429i_discovery.h **** 
 110:Core/Inc/stm32f429i_discovery.h **** #define LEDx_GPIO_CLK_ENABLE(__INDEX__)  do{if((__INDEX__) == 0) LED3_GPIO_CLK_ENABLE(); else \
 111:Core/Inc/stm32f429i_discovery.h ****                                             if((__INDEX__) == 1) LED4_GPIO_CLK_ENABLE(); \
 112:Core/Inc/stm32f429i_discovery.h ****                                             }while(0)
 113:Core/Inc/stm32f429i_discovery.h **** #define LEDx_GPIO_CLK_DISABLE(__INDEX__) do{if((__INDEX__) == 0) LED3_GPIO_CLK_DISABLE(); else \
ARM GAS  /tmp/ccYgTI9f.s 			page 56


 114:Core/Inc/stm32f429i_discovery.h ****                                             if((__INDEX__) == 1) LED4_GPIO_CLK_DISABLE(); \
 115:Core/Inc/stm32f429i_discovery.h ****                                             }while(0)
 116:Core/Inc/stm32f429i_discovery.h **** /**
 117:Core/Inc/stm32f429i_discovery.h ****   * @}
 118:Core/Inc/stm32f429i_discovery.h ****   */ 
 119:Core/Inc/stm32f429i_discovery.h ****   
 120:Core/Inc/stm32f429i_discovery.h **** /** @defgroup STM32F429I_DISCOVERY_LOW_LEVEL_BUTTON STM32F429I DISCOVERY LOW LEVEL BUTTON
 121:Core/Inc/stm32f429i_discovery.h ****   * @{
 122:Core/Inc/stm32f429i_discovery.h ****   */  
 123:Core/Inc/stm32f429i_discovery.h **** #define BUTTONn                                1
 124:Core/Inc/stm32f429i_discovery.h **** 
 125:Core/Inc/stm32f429i_discovery.h **** /**
 126:Core/Inc/stm32f429i_discovery.h ****  * @brief Wakeup push-button
 127:Core/Inc/stm32f429i_discovery.h ****  */
 128:Core/Inc/stm32f429i_discovery.h **** #define KEY_BUTTON_PIN                         GPIO_PIN_0
 129:Core/Inc/stm32f429i_discovery.h **** #define KEY_BUTTON_GPIO_PORT                   GPIOA
 130:Core/Inc/stm32f429i_discovery.h **** #define KEY_BUTTON_GPIO_CLK_ENABLE()           __HAL_RCC_GPIOA_CLK_ENABLE()
 131:Core/Inc/stm32f429i_discovery.h **** #define KEY_BUTTON_GPIO_CLK_DISABLE()          __HAL_RCC_GPIOA_CLK_DISABLE()
 132:Core/Inc/stm32f429i_discovery.h **** #define KEY_BUTTON_EXTI_IRQn                   EXTI0_IRQn
 133:Core/Inc/stm32f429i_discovery.h **** 
 134:Core/Inc/stm32f429i_discovery.h **** #define BUTTONx_GPIO_CLK_ENABLE(__INDEX__)     do{if((__INDEX__) == 0) KEY_BUTTON_GPIO_CLK_ENABLE()
 135:Core/Inc/stm32f429i_discovery.h ****                                                  }while(0)
 136:Core/Inc/stm32f429i_discovery.h **** #define BUTTONx_GPIO_CLK_DISABLE(__INDEX__)    do{if((__INDEX__) == 0) KEY_BUTTON_GPIO_CLK_DISABLE(
 137:Core/Inc/stm32f429i_discovery.h ****                                                  }while(0)
 138:Core/Inc/stm32f429i_discovery.h **** /**
 139:Core/Inc/stm32f429i_discovery.h ****   * @}
 140:Core/Inc/stm32f429i_discovery.h ****   */
 141:Core/Inc/stm32f429i_discovery.h **** 
 142:Core/Inc/stm32f429i_discovery.h **** /** @defgroup STM32F429I_DISCOVERY_LOW_LEVEL_BUS STM32F429I DISCOVERY LOW LEVEL BUS
 143:Core/Inc/stm32f429i_discovery.h ****   * @{
 144:Core/Inc/stm32f429i_discovery.h ****   */  
 145:Core/Inc/stm32f429i_discovery.h **** /* Exported constanIO --------------------------------------------------------*/
 146:Core/Inc/stm32f429i_discovery.h **** #define IO_I2C_ADDRESS                      0x82 
 147:Core/Inc/stm32f429i_discovery.h **** #define TS_I2C_ADDRESS                      0x82
 148:Core/Inc/stm32f429i_discovery.h **** 
 149:Core/Inc/stm32f429i_discovery.h **** #ifdef EE_M24LR64
 150:Core/Inc/stm32f429i_discovery.h **** #define EEPROM_I2C_ADDRESS_A01              0xA0
 151:Core/Inc/stm32f429i_discovery.h **** #define EEPROM_I2C_ADDRESS_A02              0xA6
 152:Core/Inc/stm32f429i_discovery.h **** #endif /* EE_M24LR64 */ 
 153:Core/Inc/stm32f429i_discovery.h **** 
 154:Core/Inc/stm32f429i_discovery.h **** /*############################### I2Cx #######################################*/
 155:Core/Inc/stm32f429i_discovery.h **** /* User can use this section to tailor I2Cx instance used and associated 
 156:Core/Inc/stm32f429i_discovery.h ****    resources */
 157:Core/Inc/stm32f429i_discovery.h **** #define DISCOVERY_I2Cx                          I2C3
 158:Core/Inc/stm32f429i_discovery.h **** #define DISCOVERY_I2Cx_CLOCK_ENABLE()           __HAL_RCC_I2C3_CLK_ENABLE()
 159:Core/Inc/stm32f429i_discovery.h **** #define DISCOVERY_I2Cx_FORCE_RESET()            __HAL_RCC_I2C3_FORCE_RESET()
 160:Core/Inc/stm32f429i_discovery.h **** #define DISCOVERY_I2Cx_RELEASE_RESET()          __HAL_RCC_I2C3_RELEASE_RESET()
 161:Core/Inc/stm32f429i_discovery.h **** #define DISCOVERY_I2Cx_SDA_GPIO_CLK_ENABLE()    __HAL_RCC_GPIOC_CLK_ENABLE()
 162:Core/Inc/stm32f429i_discovery.h **** #define DISCOVERY_I2Cx_SCL_GPIO_CLK_ENABLE()    __HAL_RCC_GPIOA_CLK_ENABLE() 
 163:Core/Inc/stm32f429i_discovery.h **** #define DISCOVERY_I2Cx_SDA_GPIO_CLK_DISABLE()   __HAL_RCC_GPIOC_CLK_DISABLE()
 164:Core/Inc/stm32f429i_discovery.h **** 
 165:Core/Inc/stm32f429i_discovery.h **** /* Definition for DISCO I2Cx Pins */
 166:Core/Inc/stm32f429i_discovery.h **** #define DISCOVERY_I2Cx_SCL_PIN                  GPIO_PIN_8
 167:Core/Inc/stm32f429i_discovery.h **** #define DISCOVERY_I2Cx_SCL_GPIO_PORT            GPIOA
 168:Core/Inc/stm32f429i_discovery.h **** #define DISCOVERY_I2Cx_SCL_SDA_AF               GPIO_AF4_I2C3
 169:Core/Inc/stm32f429i_discovery.h **** #define DISCOVERY_I2Cx_SDA_PIN                  GPIO_PIN_9
 170:Core/Inc/stm32f429i_discovery.h **** #define DISCOVERY_I2Cx_SDA_GPIO_PORT            GPIOC
ARM GAS  /tmp/ccYgTI9f.s 			page 57


 171:Core/Inc/stm32f429i_discovery.h **** 
 172:Core/Inc/stm32f429i_discovery.h **** /* Definition for IOE I2Cx's NVIC */
 173:Core/Inc/stm32f429i_discovery.h **** #define DISCOVERY_I2Cx_EV_IRQn                  I2C3_EV_IRQn
 174:Core/Inc/stm32f429i_discovery.h **** #define DISCOVERY_I2Cx_ER_IRQn                  I2C3_ER_IRQn
 175:Core/Inc/stm32f429i_discovery.h **** 
 176:Core/Inc/stm32f429i_discovery.h **** /* I2C clock speed configuration (in Hz) 
 177:Core/Inc/stm32f429i_discovery.h ****   WARNING: 
 178:Core/Inc/stm32f429i_discovery.h ****    Make sure that this define is not already declared in other files.
 179:Core/Inc/stm32f429i_discovery.h ****    It can be used in parallel by other modules. */
 180:Core/Inc/stm32f429i_discovery.h **** #ifndef BSP_I2C_SPEED
 181:Core/Inc/stm32f429i_discovery.h ****  #define BSP_I2C_SPEED                          100000
 182:Core/Inc/stm32f429i_discovery.h **** #endif /* BSP_I2C_SPEED */
 183:Core/Inc/stm32f429i_discovery.h **** 
 184:Core/Inc/stm32f429i_discovery.h **** #define I2Cx_TIMEOUT_MAX                    0x3000 /*<! The value of the maximal timeout for I2C wa
 185:Core/Inc/stm32f429i_discovery.h **** 
 186:Core/Inc/stm32f429i_discovery.h **** /*############################### SPIx #######################################*/
 187:Core/Inc/stm32f429i_discovery.h **** #define DISCOVERY_SPIx                          SPI5
 188:Core/Inc/stm32f429i_discovery.h **** #define DISCOVERY_SPIx_CLK_ENABLE()             __HAL_RCC_SPI5_CLK_ENABLE()
 189:Core/Inc/stm32f429i_discovery.h **** #define DISCOVERY_SPIx_GPIO_PORT                GPIOF                      /* GPIOF */
 190:Core/Inc/stm32f429i_discovery.h **** #define DISCOVERY_SPIx_AF                       GPIO_AF5_SPI5
 191:Core/Inc/stm32f429i_discovery.h **** #define DISCOVERY_SPIx_GPIO_CLK_ENABLE()        __HAL_RCC_GPIOF_CLK_ENABLE()
 192:Core/Inc/stm32f429i_discovery.h **** #define DISCOVERY_SPIx_GPIO_CLK_DISABLE()       __HAL_RCC_GPIOF_CLK_DISABLE()
 193:Core/Inc/stm32f429i_discovery.h **** #define DISCOVERY_SPIx_SCK_PIN                  GPIO_PIN_7                 /* PF.07 */
 194:Core/Inc/stm32f429i_discovery.h **** #define DISCOVERY_SPIx_MISO_PIN                 GPIO_PIN_8                 /* PF.08 */
 195:Core/Inc/stm32f429i_discovery.h **** #define DISCOVERY_SPIx_MOSI_PIN                 GPIO_PIN_9                 /* PF.09 */
 196:Core/Inc/stm32f429i_discovery.h **** /* Maximum Timeout values for flags waiting loops. These timeouts are not based
 197:Core/Inc/stm32f429i_discovery.h ****    on accurate values, they just guarantee that the application will not remain
 198:Core/Inc/stm32f429i_discovery.h ****    stuck if the SPI communication is corrupted.
 199:Core/Inc/stm32f429i_discovery.h ****    You may modify these timeout values depending on CPU frequency and application
 200:Core/Inc/stm32f429i_discovery.h ****    conditions (interrupts routines ...). */   
 201:Core/Inc/stm32f429i_discovery.h **** #define SPIx_TIMEOUT_MAX              ((uint32_t)0x1000)
 202:Core/Inc/stm32f429i_discovery.h **** 
 203:Core/Inc/stm32f429i_discovery.h **** 
 204:Core/Inc/stm32f429i_discovery.h **** /*################################ IOE #######################################*/
 205:Core/Inc/stm32f429i_discovery.h **** /** 
 206:Core/Inc/stm32f429i_discovery.h ****   * @brief  IOE Control pin  
 207:Core/Inc/stm32f429i_discovery.h ****   */ 
 208:Core/Inc/stm32f429i_discovery.h **** /* Definition for external IT for STMPE811 */
 209:Core/Inc/stm32f429i_discovery.h **** #define STMPE811_INT_PIN                        GPIO_PIN_15
 210:Core/Inc/stm32f429i_discovery.h **** #define STMPE811_INT_GPIO_PORT                  GPIOA
 211:Core/Inc/stm32f429i_discovery.h **** #define STMPE811_INT_CLK_ENABLE()               __HAL_RCC_GPIOA_CLK_ENABLE()
 212:Core/Inc/stm32f429i_discovery.h **** #define STMPE811_INT_CLK_DISABLE()              __HAL_RCC_GPIOA_CLK_DISABLE()
 213:Core/Inc/stm32f429i_discovery.h **** #define STMPE811_INT_EXTI                       EXTI15_10_IRQn
 214:Core/Inc/stm32f429i_discovery.h **** #define STMPE811_INT_EXTIHandler                EXTI15_10_IRQHandler
 215:Core/Inc/stm32f429i_discovery.h **** 
 216:Core/Inc/stm32f429i_discovery.h **** /*################################ LCD #######################################*/
 217:Core/Inc/stm32f429i_discovery.h **** /* Chip Select macro definition */
 218:Core/Inc/stm32f429i_discovery.h **** #define LCD_CS_LOW()       HAL_GPIO_WritePin(LCD_NCS_GPIO_PORT, LCD_NCS_PIN, GPIO_PIN_RESET)
 219:Core/Inc/stm32f429i_discovery.h **** #define LCD_CS_HIGH()      HAL_GPIO_WritePin(LCD_NCS_GPIO_PORT, LCD_NCS_PIN, GPIO_PIN_SET)
 220:Core/Inc/stm32f429i_discovery.h **** 
 221:Core/Inc/stm32f429i_discovery.h **** /* Set WRX High to send data */
 222:Core/Inc/stm32f429i_discovery.h **** #define LCD_WRX_LOW()      HAL_GPIO_WritePin(LCD_WRX_GPIO_PORT, LCD_WRX_PIN, GPIO_PIN_RESET)
 223:Core/Inc/stm32f429i_discovery.h **** #define LCD_WRX_HIGH()     HAL_GPIO_WritePin(LCD_WRX_GPIO_PORT, LCD_WRX_PIN, GPIO_PIN_SET)
 224:Core/Inc/stm32f429i_discovery.h **** 
 225:Core/Inc/stm32f429i_discovery.h **** /* Set WRX High to send data */
 226:Core/Inc/stm32f429i_discovery.h **** #define LCD_RDX_LOW()      HAL_GPIO_WritePin(LCD_RDX_GPIO_PORT, LCD_RDX_PIN, GPIO_PIN_RESET)
 227:Core/Inc/stm32f429i_discovery.h **** #define LCD_RDX_HIGH()     HAL_GPIO_WritePin(LCD_RDX_GPIO_PORT, LCD_RDX_PIN, GPIO_PIN_SET)
ARM GAS  /tmp/ccYgTI9f.s 			page 58


 228:Core/Inc/stm32f429i_discovery.h **** 
 229:Core/Inc/stm32f429i_discovery.h **** /** 
 230:Core/Inc/stm32f429i_discovery.h ****   * @brief  LCD Control pin  
 231:Core/Inc/stm32f429i_discovery.h ****   */ 
 232:Core/Inc/stm32f429i_discovery.h **** #define LCD_NCS_PIN                             GPIO_PIN_2
 233:Core/Inc/stm32f429i_discovery.h **** #define LCD_NCS_GPIO_PORT                       GPIOC
 234:Core/Inc/stm32f429i_discovery.h **** #define LCD_NCS_GPIO_CLK_ENABLE()               __HAL_RCC_GPIOC_CLK_ENABLE()
 235:Core/Inc/stm32f429i_discovery.h **** #define LCD_NCS_GPIO_CLK_DISABLE()              __HAL_RCC_GPIOC_CLK_DISABLE()
 236:Core/Inc/stm32f429i_discovery.h **** /**             
 237:Core/Inc/stm32f429i_discovery.h ****   * @}
 238:Core/Inc/stm32f429i_discovery.h ****   */ 
 239:Core/Inc/stm32f429i_discovery.h **** /** 
 240:Core/Inc/stm32f429i_discovery.h ****   * @brief  LCD Command/data pin  
 241:Core/Inc/stm32f429i_discovery.h ****   */
 242:Core/Inc/stm32f429i_discovery.h **** #define LCD_WRX_PIN                             GPIO_PIN_13
 243:Core/Inc/stm32f429i_discovery.h **** #define LCD_WRX_GPIO_PORT                       GPIOD
 244:Core/Inc/stm32f429i_discovery.h **** #define LCD_WRX_GPIO_CLK_ENABLE()               __HAL_RCC_GPIOD_CLK_ENABLE()
 245:Core/Inc/stm32f429i_discovery.h **** #define LCD_WRX_GPIO_CLK_DISABLE()              __HAL_RCC_GPIOD_CLK_DISABLE()
 246:Core/Inc/stm32f429i_discovery.h ****   
 247:Core/Inc/stm32f429i_discovery.h **** #define LCD_RDX_PIN                             GPIO_PIN_12
 248:Core/Inc/stm32f429i_discovery.h **** #define LCD_RDX_GPIO_PORT                       GPIOD
 249:Core/Inc/stm32f429i_discovery.h **** #define LCD_RDX_GPIO_CLK_ENABLE()               __HAL_RCC_GPIOD_CLK_ENABLE()
 250:Core/Inc/stm32f429i_discovery.h **** #define LCD_RDX_GPIO_CLK_DISABLE()              __HAL_RCC_GPIOD_CLK_DISABLE()
 251:Core/Inc/stm32f429i_discovery.h **** 
 252:Core/Inc/stm32f429i_discovery.h **** /*################################ GYROSCOPE #################################*/
 253:Core/Inc/stm32f429i_discovery.h **** /* Read/Write command */
 254:Core/Inc/stm32f429i_discovery.h **** #define READWRITE_CMD              ((uint8_t)0x80) 
 255:Core/Inc/stm32f429i_discovery.h **** /* Multiple byte read/write command */ 
 256:Core/Inc/stm32f429i_discovery.h **** #define MULTIPLEBYTE_CMD           ((uint8_t)0x40)
 257:Core/Inc/stm32f429i_discovery.h **** /* Dummy Byte Send by the SPI Master device in order to generate the Clock to the Slave device */
 258:Core/Inc/stm32f429i_discovery.h **** #define DUMMY_BYTE                 ((uint8_t)0x00)
 259:Core/Inc/stm32f429i_discovery.h **** 
 260:Core/Inc/stm32f429i_discovery.h **** /* Chip Select macro definition */
 261:Core/Inc/stm32f429i_discovery.h **** #define GYRO_CS_LOW()       HAL_GPIO_WritePin(GYRO_CS_GPIO_PORT, GYRO_CS_PIN, GPIO_PIN_RESET)
 262:Core/Inc/stm32f429i_discovery.h **** #define GYRO_CS_HIGH()      HAL_GPIO_WritePin(GYRO_CS_GPIO_PORT, GYRO_CS_PIN, GPIO_PIN_SET)
 263:Core/Inc/stm32f429i_discovery.h **** 
 264:Core/Inc/stm32f429i_discovery.h **** /**
 265:Core/Inc/stm32f429i_discovery.h ****   * @brief  GYROSCOPE SPI Interface pins
 266:Core/Inc/stm32f429i_discovery.h ****   */
 267:Core/Inc/stm32f429i_discovery.h **** #define GYRO_CS_PIN                             GPIO_PIN_1                  /* PC.01 */
 268:Core/Inc/stm32f429i_discovery.h **** #define GYRO_CS_GPIO_PORT                       GPIOC                       /* GPIOC */
 269:Core/Inc/stm32f429i_discovery.h **** #define GYRO_CS_GPIO_CLK_ENABLE()               __HAL_RCC_GPIOC_CLK_ENABLE()
 270:Core/Inc/stm32f429i_discovery.h **** #define GYRO_CS_GPIO_CLK_DISABLE()              __HAL_RCC_GPIOC_CLK_DISABLE()
 271:Core/Inc/stm32f429i_discovery.h **** 
 272:Core/Inc/stm32f429i_discovery.h **** #define GYRO_INT_GPIO_CLK_ENABLE()              __HAL_RCC_GPIOA_CLK_ENABLE()
 273:Core/Inc/stm32f429i_discovery.h **** #define GYRO_INT_GPIO_CLK_DISABLE()             __HAL_RCC_GPIOA_CLK_DISABLE()
 274:Core/Inc/stm32f429i_discovery.h **** #define GYRO_INT_GPIO_PORT                      GPIOA                       /* GPIOA */
 275:Core/Inc/stm32f429i_discovery.h **** #define GYRO_INT1_PIN                           GPIO_PIN_1                  /* PA.01 */
 276:Core/Inc/stm32f429i_discovery.h **** #define GYRO_INT1_EXTI_IRQn                     EXTI1_IRQn 
 277:Core/Inc/stm32f429i_discovery.h **** #define GYRO_INT2_PIN                           GPIO_PIN_2                  /* PA.02 */
 278:Core/Inc/stm32f429i_discovery.h **** #define GYRO_INT2_EXTI_IRQn                     EXTI2_IRQn 
 279:Core/Inc/stm32f429i_discovery.h **** /**
 280:Core/Inc/stm32f429i_discovery.h ****   * @}
 281:Core/Inc/stm32f429i_discovery.h ****   */ 
 282:Core/Inc/stm32f429i_discovery.h **** 
 283:Core/Inc/stm32f429i_discovery.h **** #ifdef EE_M24LR64
 284:Core/Inc/stm32f429i_discovery.h **** /** @defgroup STM32F429I_DISCOVERY_LOW_LEVEL_I2C_EEPROM STM32F429I DISCOVERY LOW LEVEL I2C EEPROM
ARM GAS  /tmp/ccYgTI9f.s 			page 59


 285:Core/Inc/stm32f429i_discovery.h ****   * @{
 286:Core/Inc/stm32f429i_discovery.h ****   */
 287:Core/Inc/stm32f429i_discovery.h **** /**
 288:Core/Inc/stm32f429i_discovery.h ****   * @brief  I2C EEPROM Interface pins
 289:Core/Inc/stm32f429i_discovery.h ****   */
 290:Core/Inc/stm32f429i_discovery.h **** #define EEPROM_I2C_DMA                          DMA1   
 291:Core/Inc/stm32f429i_discovery.h **** #define EEPROM_I2C_DMA_CHANNEL                  DMA_CHANNEL_3
 292:Core/Inc/stm32f429i_discovery.h **** #define EEPROM_I2C_DMA_STREAM_TX                DMA1_Stream4
 293:Core/Inc/stm32f429i_discovery.h **** #define EEPROM_I2C_DMA_STREAM_RX                DMA1_Stream2
 294:Core/Inc/stm32f429i_discovery.h **** #define EEPROM_I2C_DMA_CLK_ENABLE()             __HAL_RCC_DMA1_CLK_ENABLE()
 295:Core/Inc/stm32f429i_discovery.h ****    
 296:Core/Inc/stm32f429i_discovery.h **** #define EEPROM_I2C_DMA_TX_IRQn                  DMA1_Stream4_IRQn
 297:Core/Inc/stm32f429i_discovery.h **** #define EEPROM_I2C_DMA_RX_IRQn                  DMA1_Stream2_IRQn
 298:Core/Inc/stm32f429i_discovery.h **** #define EEPROM_I2C_DMA_TX_IRQHandler            DMA1_Stream4_IRQHandler
 299:Core/Inc/stm32f429i_discovery.h **** #define EEPROM_I2C_DMA_RX_IRQHandler            DMA1_Stream2_IRQHandler
 300:Core/Inc/stm32f429i_discovery.h **** #define EEPROM_I2C_DMA_PREPRIO                  0x0F
 301:Core/Inc/stm32f429i_discovery.h **** /**
 302:Core/Inc/stm32f429i_discovery.h ****   * @}
 303:Core/Inc/stm32f429i_discovery.h ****   */ 
 304:Core/Inc/stm32f429i_discovery.h **** 
 305:Core/Inc/stm32f429i_discovery.h **** #endif /* EE_M24LR64 */
 306:Core/Inc/stm32f429i_discovery.h **** 
 307:Core/Inc/stm32f429i_discovery.h **** /** @defgroup STM32F429I_DISCOVERY_LOW_LEVEL_Exported_Macros STM32F429I DISCOVERY LOW LEVEL Exporte
 308:Core/Inc/stm32f429i_discovery.h ****   * @{
 309:Core/Inc/stm32f429i_discovery.h ****   */  
 310:Core/Inc/stm32f429i_discovery.h **** /**
 311:Core/Inc/stm32f429i_discovery.h ****   * @}
 312:Core/Inc/stm32f429i_discovery.h ****   */ 
 313:Core/Inc/stm32f429i_discovery.h **** 
 314:Core/Inc/stm32f429i_discovery.h **** /** @defgroup STM32F429I_DISCOVERY_LOW_LEVEL_Exported_Functions STM32F429I DISCOVERY LOW LEVEL Expo
 315:Core/Inc/stm32f429i_discovery.h ****   * @{
 316:Core/Inc/stm32f429i_discovery.h ****   */
 317:Core/Inc/stm32f429i_discovery.h **** uint32_t BSP_GetVersion(void);  
 1597              		.loc 3 317 1 view .LVU623
 318:Core/Inc/stm32f429i_discovery.h **** void     BSP_LED_Init(Led_TypeDef Led);
 1598              		.loc 3 318 1 view .LVU624
 319:Core/Inc/stm32f429i_discovery.h **** void     BSP_LED_On(Led_TypeDef Led);
 1599              		.loc 3 319 1 view .LVU625
 320:Core/Inc/stm32f429i_discovery.h **** void     BSP_LED_Off(Led_TypeDef Led);
 1600              		.loc 3 320 1 view .LVU626
 321:Core/Inc/stm32f429i_discovery.h **** void     BSP_LED_Toggle(Led_TypeDef Led);
 1601              		.loc 3 321 1 view .LVU627
 322:Core/Inc/stm32f429i_discovery.h **** void     BSP_PB_Init(Button_TypeDef Button, ButtonMode_TypeDef ButtonMode);
 1602              		.loc 3 322 1 view .LVU628
 323:Core/Inc/stm32f429i_discovery.h **** uint32_t BSP_PB_GetState(Button_TypeDef Button);
 1603              		.loc 3 323 1 view .LVU629
 1604              		.file 4 "Core/Inc/stm32f429i_discovery_sdram.h"
   1:Core/Inc/stm32f429i_discovery_sdram.h **** /**
   2:Core/Inc/stm32f429i_discovery_sdram.h ****   ******************************************************************************
   3:Core/Inc/stm32f429i_discovery_sdram.h ****   * @file    stm32f429i_discovery_sdram.h
   4:Core/Inc/stm32f429i_discovery_sdram.h ****   * @author  MCD Application Team
   5:Core/Inc/stm32f429i_discovery_sdram.h ****   * @brief   This file contains all the functions prototypes for the 
   6:Core/Inc/stm32f429i_discovery_sdram.h ****   *          stm32f429i_discovery_sdram.c driver.
   7:Core/Inc/stm32f429i_discovery_sdram.h ****   ******************************************************************************
   8:Core/Inc/stm32f429i_discovery_sdram.h ****   * @attention
   9:Core/Inc/stm32f429i_discovery_sdram.h ****   *
  10:Core/Inc/stm32f429i_discovery_sdram.h ****   * <h2><center>&copy; COPYRIGHT(c) 2017 STMicroelectronics</center></h2>
ARM GAS  /tmp/ccYgTI9f.s 			page 60


  11:Core/Inc/stm32f429i_discovery_sdram.h ****   *
  12:Core/Inc/stm32f429i_discovery_sdram.h ****   * Redistribution and use in source and binary forms, with or without modification,
  13:Core/Inc/stm32f429i_discovery_sdram.h ****   * are permitted provided that the following conditions are met:
  14:Core/Inc/stm32f429i_discovery_sdram.h ****   *   1. Redistributions of source code must retain the above copyright notice,
  15:Core/Inc/stm32f429i_discovery_sdram.h ****   *      this list of conditions and the following disclaimer.
  16:Core/Inc/stm32f429i_discovery_sdram.h ****   *   2. Redistributions in binary form must reproduce the above copyright notice,
  17:Core/Inc/stm32f429i_discovery_sdram.h ****   *      this list of conditions and the following disclaimer in the documentation
  18:Core/Inc/stm32f429i_discovery_sdram.h ****   *      and/or other materials provided with the distribution.
  19:Core/Inc/stm32f429i_discovery_sdram.h ****   *   3. Neither the name of STMicroelectronics nor the names of its contributors
  20:Core/Inc/stm32f429i_discovery_sdram.h ****   *      may be used to endorse or promote products derived from this software
  21:Core/Inc/stm32f429i_discovery_sdram.h ****   *      without specific prior written permission.
  22:Core/Inc/stm32f429i_discovery_sdram.h ****   *
  23:Core/Inc/stm32f429i_discovery_sdram.h ****   * THIS SOFTWARE IS PROVIDED BY THE COPYRIGHT HOLDERS AND CONTRIBUTORS "AS IS"
  24:Core/Inc/stm32f429i_discovery_sdram.h ****   * AND ANY EXPRESS OR IMPLIED WARRANTIES, INCLUDING, BUT NOT LIMITED TO, THE
  25:Core/Inc/stm32f429i_discovery_sdram.h ****   * IMPLIED WARRANTIES OF MERCHANTABILITY AND FITNESS FOR A PARTICULAR PURPOSE ARE
  26:Core/Inc/stm32f429i_discovery_sdram.h ****   * DISCLAIMED. IN NO EVENT SHALL THE COPYRIGHT HOLDER OR CONTRIBUTORS BE LIABLE
  27:Core/Inc/stm32f429i_discovery_sdram.h ****   * FOR ANY DIRECT, INDIRECT, INCIDENTAL, SPECIAL, EXEMPLARY, OR CONSEQUENTIAL
  28:Core/Inc/stm32f429i_discovery_sdram.h ****   * DAMAGES (INCLUDING, BUT NOT LIMITED TO, PROCUREMENT OF SUBSTITUTE GOODS OR
  29:Core/Inc/stm32f429i_discovery_sdram.h ****   * SERVICES; LOSS OF USE, DATA, OR PROFITS; OR BUSINESS INTERRUPTION) HOWEVER
  30:Core/Inc/stm32f429i_discovery_sdram.h ****   * CAUSED AND ON ANY THEORY OF LIABILITY, WHETHER IN CONTRACT, STRICT LIABILITY,
  31:Core/Inc/stm32f429i_discovery_sdram.h ****   * OR TORT (INCLUDING NEGLIGENCE OR OTHERWISE) ARISING IN ANY WAY OUT OF THE USE
  32:Core/Inc/stm32f429i_discovery_sdram.h ****   * OF THIS SOFTWARE, EVEN IF ADVISED OF THE POSSIBILITY OF SUCH DAMAGE.
  33:Core/Inc/stm32f429i_discovery_sdram.h ****   *
  34:Core/Inc/stm32f429i_discovery_sdram.h ****   ******************************************************************************
  35:Core/Inc/stm32f429i_discovery_sdram.h ****   */   
  36:Core/Inc/stm32f429i_discovery_sdram.h **** 
  37:Core/Inc/stm32f429i_discovery_sdram.h **** /* Define to prevent recursive inclusion -------------------------------------*/
  38:Core/Inc/stm32f429i_discovery_sdram.h **** #ifndef __STM32F429I_DISCOVERY_SDRAM_H
  39:Core/Inc/stm32f429i_discovery_sdram.h **** #define __STM32F429I_DISCOVERY_SDRAM_H
  40:Core/Inc/stm32f429i_discovery_sdram.h **** 
  41:Core/Inc/stm32f429i_discovery_sdram.h **** #ifdef __cplusplus
  42:Core/Inc/stm32f429i_discovery_sdram.h ****  extern "C" {
  43:Core/Inc/stm32f429i_discovery_sdram.h **** #endif
  44:Core/Inc/stm32f429i_discovery_sdram.h **** 
  45:Core/Inc/stm32f429i_discovery_sdram.h **** /* Includes ------------------------------------------------------------------*/
  46:Core/Inc/stm32f429i_discovery_sdram.h **** #include "stm32f429i_discovery.h"
  47:Core/Inc/stm32f429i_discovery_sdram.h **** 
  48:Core/Inc/stm32f429i_discovery_sdram.h **** /** @addtogroup BSP
  49:Core/Inc/stm32f429i_discovery_sdram.h ****   * @{
  50:Core/Inc/stm32f429i_discovery_sdram.h ****   */
  51:Core/Inc/stm32f429i_discovery_sdram.h ****   
  52:Core/Inc/stm32f429i_discovery_sdram.h **** /** @addtogroup STM32F429I_DISCOVERY
  53:Core/Inc/stm32f429i_discovery_sdram.h ****   * @{
  54:Core/Inc/stm32f429i_discovery_sdram.h ****   */
  55:Core/Inc/stm32f429i_discovery_sdram.h ****  
  56:Core/Inc/stm32f429i_discovery_sdram.h **** /** @addtogroup STM32F429I_DISCOVERY_SDRAM
  57:Core/Inc/stm32f429i_discovery_sdram.h ****   * @{
  58:Core/Inc/stm32f429i_discovery_sdram.h ****   */
  59:Core/Inc/stm32f429i_discovery_sdram.h ****   
  60:Core/Inc/stm32f429i_discovery_sdram.h **** /** @defgroup STM32F429I_DISCOVERY_SDRAM_Exported_Types STM32F429I DISCOVERY SDRAM Exported Types
  61:Core/Inc/stm32f429i_discovery_sdram.h ****   * @{
  62:Core/Inc/stm32f429i_discovery_sdram.h ****   */
  63:Core/Inc/stm32f429i_discovery_sdram.h **** /**
  64:Core/Inc/stm32f429i_discovery_sdram.h ****   * @}
  65:Core/Inc/stm32f429i_discovery_sdram.h ****   */
  66:Core/Inc/stm32f429i_discovery_sdram.h **** 
  67:Core/Inc/stm32f429i_discovery_sdram.h **** /** @defgroup STM32F429I_DISCOVERY_SDRAM_Exported_Constants STM32F429I DISCOVERY SDRAM Exported Con
ARM GAS  /tmp/ccYgTI9f.s 			page 61


  68:Core/Inc/stm32f429i_discovery_sdram.h ****   * @{
  69:Core/Inc/stm32f429i_discovery_sdram.h ****   */ 
  70:Core/Inc/stm32f429i_discovery_sdram.h **** 
  71:Core/Inc/stm32f429i_discovery_sdram.h **** /**
  72:Core/Inc/stm32f429i_discovery_sdram.h ****   * @brief  SDRAM status structure definition
  73:Core/Inc/stm32f429i_discovery_sdram.h ****   */
  74:Core/Inc/stm32f429i_discovery_sdram.h **** #define   SDRAM_OK         ((uint8_t)0x00)
  75:Core/Inc/stm32f429i_discovery_sdram.h **** #define   SDRAM_ERROR      ((uint8_t)0x01)
  76:Core/Inc/stm32f429i_discovery_sdram.h ****   
  77:Core/Inc/stm32f429i_discovery_sdram.h **** /**
  78:Core/Inc/stm32f429i_discovery_sdram.h ****   * @brief  FMC SDRAM Bank address
  79:Core/Inc/stm32f429i_discovery_sdram.h ****   */   
  80:Core/Inc/stm32f429i_discovery_sdram.h **** #define SDRAM_DEVICE_ADDR         ((uint32_t)0xD0000000)
  81:Core/Inc/stm32f429i_discovery_sdram.h **** #define SDRAM_DEVICE_SIZE         ((uint32_t)0x800000)  /* SDRAM device size in Bytes */
  82:Core/Inc/stm32f429i_discovery_sdram.h ****   
  83:Core/Inc/stm32f429i_discovery_sdram.h **** /**
  84:Core/Inc/stm32f429i_discovery_sdram.h ****   * @brief  FMC SDRAM Memory Width
  85:Core/Inc/stm32f429i_discovery_sdram.h ****   */  
  86:Core/Inc/stm32f429i_discovery_sdram.h **** /* #define SDRAM_MEMORY_WIDTH   FMC_SDRAM_MEM_BUS_WIDTH_8 */
  87:Core/Inc/stm32f429i_discovery_sdram.h **** #define SDRAM_MEMORY_WIDTH      FMC_SDRAM_MEM_BUS_WIDTH_16
  88:Core/Inc/stm32f429i_discovery_sdram.h **** 
  89:Core/Inc/stm32f429i_discovery_sdram.h **** /**
  90:Core/Inc/stm32f429i_discovery_sdram.h ****   * @brief  FMC SDRAM CAS Latency
  91:Core/Inc/stm32f429i_discovery_sdram.h ****   */  
  92:Core/Inc/stm32f429i_discovery_sdram.h **** /* #define SDRAM_CAS_LATENCY    FMC_SDRAM_CAS_LATENCY_2 */
  93:Core/Inc/stm32f429i_discovery_sdram.h **** #define SDRAM_CAS_LATENCY       FMC_SDRAM_CAS_LATENCY_3 
  94:Core/Inc/stm32f429i_discovery_sdram.h **** 
  95:Core/Inc/stm32f429i_discovery_sdram.h **** /**
  96:Core/Inc/stm32f429i_discovery_sdram.h ****   * @brief  FMC SDRAM Memory clock period
  97:Core/Inc/stm32f429i_discovery_sdram.h ****   */  
  98:Core/Inc/stm32f429i_discovery_sdram.h **** #define SDCLOCK_PERIOD          FMC_SDRAM_CLOCK_PERIOD_2    /* Default configuration used with LCD 
  99:Core/Inc/stm32f429i_discovery_sdram.h **** /* #define SDCLOCK_PERIOD       FMC_SDRAM_CLOCK_PERIOD_3 */
 100:Core/Inc/stm32f429i_discovery_sdram.h **** 
 101:Core/Inc/stm32f429i_discovery_sdram.h **** /**
 102:Core/Inc/stm32f429i_discovery_sdram.h ****   * @brief  FMC SDRAM Memory Read Burst feature
 103:Core/Inc/stm32f429i_discovery_sdram.h ****   */  
 104:Core/Inc/stm32f429i_discovery_sdram.h **** #define SDRAM_READBURST         FMC_SDRAM_RBURST_DISABLE    /* Default configuration used with LCD 
 105:Core/Inc/stm32f429i_discovery_sdram.h **** /* #define SDRAM_READBURST      FMC_SDRAM_RBURST_ENABLE */
 106:Core/Inc/stm32f429i_discovery_sdram.h **** 
 107:Core/Inc/stm32f429i_discovery_sdram.h **** /**
 108:Core/Inc/stm32f429i_discovery_sdram.h ****   * @brief  FMC SDRAM Bank Remap
 109:Core/Inc/stm32f429i_discovery_sdram.h ****   */    
 110:Core/Inc/stm32f429i_discovery_sdram.h **** /* #define SDRAM_BANK_REMAP */
 111:Core/Inc/stm32f429i_discovery_sdram.h **** 
 112:Core/Inc/stm32f429i_discovery_sdram.h **** /* Set the refresh rate counter */
 113:Core/Inc/stm32f429i_discovery_sdram.h **** /* (15.62 us x Freq) - 20 */
 114:Core/Inc/stm32f429i_discovery_sdram.h **** #define REFRESH_COUNT           ((uint32_t)1386)   /* SDRAM refresh counter */
 115:Core/Inc/stm32f429i_discovery_sdram.h **** #define SDRAM_TIMEOUT           ((uint32_t)0xFFFF)
 116:Core/Inc/stm32f429i_discovery_sdram.h **** 
 117:Core/Inc/stm32f429i_discovery_sdram.h **** /* DMA definitions for SDRAM DMA transfer */
 118:Core/Inc/stm32f429i_discovery_sdram.h **** #define __DMAx_CLK_ENABLE       __HAL_RCC_DMA2_CLK_ENABLE
 119:Core/Inc/stm32f429i_discovery_sdram.h **** #define SDRAM_DMAx_CHANNEL      DMA_CHANNEL_0
 120:Core/Inc/stm32f429i_discovery_sdram.h **** #define SDRAM_DMAx_STREAM       DMA2_Stream0
 121:Core/Inc/stm32f429i_discovery_sdram.h **** #define SDRAM_DMAx_IRQn         DMA2_Stream0_IRQn
 122:Core/Inc/stm32f429i_discovery_sdram.h **** #define SDRAM_DMAx_IRQHandler   DMA2_Stream0_IRQHandler
 123:Core/Inc/stm32f429i_discovery_sdram.h **** 
 124:Core/Inc/stm32f429i_discovery_sdram.h **** /**
ARM GAS  /tmp/ccYgTI9f.s 			page 62


 125:Core/Inc/stm32f429i_discovery_sdram.h ****   * @brief  FMC SDRAM Mode definition register defines
 126:Core/Inc/stm32f429i_discovery_sdram.h ****   */
 127:Core/Inc/stm32f429i_discovery_sdram.h **** #define SDRAM_MODEREG_BURST_LENGTH_1             ((uint16_t)0x0000)
 128:Core/Inc/stm32f429i_discovery_sdram.h **** #define SDRAM_MODEREG_BURST_LENGTH_2             ((uint16_t)0x0001)
 129:Core/Inc/stm32f429i_discovery_sdram.h **** #define SDRAM_MODEREG_BURST_LENGTH_4             ((uint16_t)0x0002)
 130:Core/Inc/stm32f429i_discovery_sdram.h **** #define SDRAM_MODEREG_BURST_LENGTH_8             ((uint16_t)0x0004)
 131:Core/Inc/stm32f429i_discovery_sdram.h **** #define SDRAM_MODEREG_BURST_TYPE_SEQUENTIAL      ((uint16_t)0x0000)
 132:Core/Inc/stm32f429i_discovery_sdram.h **** #define SDRAM_MODEREG_BURST_TYPE_INTERLEAVED     ((uint16_t)0x0008)
 133:Core/Inc/stm32f429i_discovery_sdram.h **** #define SDRAM_MODEREG_CAS_LATENCY_2              ((uint16_t)0x0020)
 134:Core/Inc/stm32f429i_discovery_sdram.h **** #define SDRAM_MODEREG_CAS_LATENCY_3              ((uint16_t)0x0030)
 135:Core/Inc/stm32f429i_discovery_sdram.h **** #define SDRAM_MODEREG_OPERATING_MODE_STANDARD    ((uint16_t)0x0000)
 136:Core/Inc/stm32f429i_discovery_sdram.h **** #define SDRAM_MODEREG_WRITEBURST_MODE_PROGRAMMED ((uint16_t)0x0000)
 137:Core/Inc/stm32f429i_discovery_sdram.h **** #define SDRAM_MODEREG_WRITEBURST_MODE_SINGLE     ((uint16_t)0x0200)
 138:Core/Inc/stm32f429i_discovery_sdram.h **** /**
 139:Core/Inc/stm32f429i_discovery_sdram.h ****   * @}
 140:Core/Inc/stm32f429i_discovery_sdram.h ****   */
 141:Core/Inc/stm32f429i_discovery_sdram.h ****   
 142:Core/Inc/stm32f429i_discovery_sdram.h **** /** @defgroup STM32F429I_DISCOVERY_SDRAM_Exported_Macro STM32F429I DISCOVERY SDRAM Exported Macro
 143:Core/Inc/stm32f429i_discovery_sdram.h ****   * @{
 144:Core/Inc/stm32f429i_discovery_sdram.h ****   */
 145:Core/Inc/stm32f429i_discovery_sdram.h **** /**
 146:Core/Inc/stm32f429i_discovery_sdram.h ****   * @}
 147:Core/Inc/stm32f429i_discovery_sdram.h ****   */ 
 148:Core/Inc/stm32f429i_discovery_sdram.h **** 
 149:Core/Inc/stm32f429i_discovery_sdram.h **** /** @defgroup STM32F429I_DISCOVERY_SDRAM_Exported_Functions STM32F429I DISCOVERY SDRAM Exported Fun
 150:Core/Inc/stm32f429i_discovery_sdram.h ****   * @{
 151:Core/Inc/stm32f429i_discovery_sdram.h ****   */
 152:Core/Inc/stm32f429i_discovery_sdram.h **** uint8_t           BSP_SDRAM_Init(void);
 1605              		.loc 4 152 1 view .LVU630
 153:Core/Inc/stm32f429i_discovery_sdram.h **** void              BSP_SDRAM_Initialization_sequence(uint32_t RefreshCount);
 1606              		.loc 4 153 1 view .LVU631
 154:Core/Inc/stm32f429i_discovery_sdram.h **** uint8_t           BSP_SDRAM_ReadData(uint32_t uwStartAddress, uint32_t* pData, uint32_t uwDataSize)
 1607              		.loc 4 154 1 view .LVU632
 155:Core/Inc/stm32f429i_discovery_sdram.h **** uint8_t           BSP_SDRAM_ReadData_DMA(uint32_t uwStartAddress, uint32_t* pData, uint32_t uwDataS
 1608              		.loc 4 155 1 view .LVU633
 156:Core/Inc/stm32f429i_discovery_sdram.h **** uint8_t           BSP_SDRAM_WriteData(uint32_t uwStartAddress, uint32_t* pData, uint32_t uwDataSize
 1609              		.loc 4 156 1 view .LVU634
 157:Core/Inc/stm32f429i_discovery_sdram.h **** uint8_t           BSP_SDRAM_WriteData_DMA(uint32_t uwStartAddress, uint32_t* pData, uint32_t uwData
 1610              		.loc 4 157 1 view .LVU635
 158:Core/Inc/stm32f429i_discovery_sdram.h **** uint8_t           BSP_SDRAM_Sendcmd(FMC_SDRAM_CommandTypeDef *SdramCmd);
 1611              		.loc 4 158 1 view .LVU636
 159:Core/Inc/stm32f429i_discovery_sdram.h **** void              BSP_SDRAM_DMA_IRQHandler(void);
 1612              		.loc 4 159 1 view .LVU637
 160:Core/Inc/stm32f429i_discovery_sdram.h **** 
 161:Core/Inc/stm32f429i_discovery_sdram.h **** /* These function can be modified in case the current settings (e.g. DMA stream)
 162:Core/Inc/stm32f429i_discovery_sdram.h ****    need to be changed for specific application needs */
 163:Core/Inc/stm32f429i_discovery_sdram.h **** void    BSP_SDRAM_MspInit(SDRAM_HandleTypeDef  *hsdram, void *Params);
 1613              		.loc 4 163 1 view .LVU638
 164:Core/Inc/stm32f429i_discovery_sdram.h **** void    BSP_SDRAM_MspDeInit(SDRAM_HandleTypeDef  *hsdram, void *Params);
 1614              		.loc 4 164 1 view .LVU639
 1615              		.file 5 "Drivers/STM32F4xx_HAL_Driver/Inc/../../../Utilities/Fonts/fonts.h"
   1:Drivers/STM32F4xx_HAL_Driver/Inc/../../../Utilities/Fonts/fonts.h **** /**
   2:Drivers/STM32F4xx_HAL_Driver/Inc/../../../Utilities/Fonts/fonts.h ****   ******************************************************************************
   3:Drivers/STM32F4xx_HAL_Driver/Inc/../../../Utilities/Fonts/fonts.h ****   * @file    fonts.h
   4:Drivers/STM32F4xx_HAL_Driver/Inc/../../../Utilities/Fonts/fonts.h ****   * @author  MCD Application Team
   5:Drivers/STM32F4xx_HAL_Driver/Inc/../../../Utilities/Fonts/fonts.h ****   * @version V1.0.0
   6:Drivers/STM32F4xx_HAL_Driver/Inc/../../../Utilities/Fonts/fonts.h ****   * @date    18-February-2014
ARM GAS  /tmp/ccYgTI9f.s 			page 63


   7:Drivers/STM32F4xx_HAL_Driver/Inc/../../../Utilities/Fonts/fonts.h ****   * @brief   Header for fonts.c file
   8:Drivers/STM32F4xx_HAL_Driver/Inc/../../../Utilities/Fonts/fonts.h ****   ******************************************************************************
   9:Drivers/STM32F4xx_HAL_Driver/Inc/../../../Utilities/Fonts/fonts.h ****   * @attention
  10:Drivers/STM32F4xx_HAL_Driver/Inc/../../../Utilities/Fonts/fonts.h ****   *
  11:Drivers/STM32F4xx_HAL_Driver/Inc/../../../Utilities/Fonts/fonts.h ****   * <h2><center>&copy; COPYRIGHT(c) 2014 STMicroelectronics</center></h2>
  12:Drivers/STM32F4xx_HAL_Driver/Inc/../../../Utilities/Fonts/fonts.h ****   *
  13:Drivers/STM32F4xx_HAL_Driver/Inc/../../../Utilities/Fonts/fonts.h ****   * Redistribution and use in source and binary forms, with or without modification,
  14:Drivers/STM32F4xx_HAL_Driver/Inc/../../../Utilities/Fonts/fonts.h ****   * are permitted provided that the following conditions are met:
  15:Drivers/STM32F4xx_HAL_Driver/Inc/../../../Utilities/Fonts/fonts.h ****   *   1. Redistributions of source code must retain the above copyright notice,
  16:Drivers/STM32F4xx_HAL_Driver/Inc/../../../Utilities/Fonts/fonts.h ****   *      this list of conditions and the following disclaimer.
  17:Drivers/STM32F4xx_HAL_Driver/Inc/../../../Utilities/Fonts/fonts.h ****   *   2. Redistributions in binary form must reproduce the above copyright notice,
  18:Drivers/STM32F4xx_HAL_Driver/Inc/../../../Utilities/Fonts/fonts.h ****   *      this list of conditions and the following disclaimer in the documentation
  19:Drivers/STM32F4xx_HAL_Driver/Inc/../../../Utilities/Fonts/fonts.h ****   *      and/or other materials provided with the distribution.
  20:Drivers/STM32F4xx_HAL_Driver/Inc/../../../Utilities/Fonts/fonts.h ****   *   3. Neither the name of STMicroelectronics nor the names of its contributors
  21:Drivers/STM32F4xx_HAL_Driver/Inc/../../../Utilities/Fonts/fonts.h ****   *      may be used to endorse or promote products derived from this software
  22:Drivers/STM32F4xx_HAL_Driver/Inc/../../../Utilities/Fonts/fonts.h ****   *      without specific prior written permission.
  23:Drivers/STM32F4xx_HAL_Driver/Inc/../../../Utilities/Fonts/fonts.h ****   *
  24:Drivers/STM32F4xx_HAL_Driver/Inc/../../../Utilities/Fonts/fonts.h ****   * THIS SOFTWARE IS PROVIDED BY THE COPYRIGHT HOLDERS AND CONTRIBUTORS "AS IS"
  25:Drivers/STM32F4xx_HAL_Driver/Inc/../../../Utilities/Fonts/fonts.h ****   * AND ANY EXPRESS OR IMPLIED WARRANTIES, INCLUDING, BUT NOT LIMITED TO, THE
  26:Drivers/STM32F4xx_HAL_Driver/Inc/../../../Utilities/Fonts/fonts.h ****   * IMPLIED WARRANTIES OF MERCHANTABILITY AND FITNESS FOR A PARTICULAR PURPOSE ARE
  27:Drivers/STM32F4xx_HAL_Driver/Inc/../../../Utilities/Fonts/fonts.h ****   * DISCLAIMED. IN NO EVENT SHALL THE COPYRIGHT HOLDER OR CONTRIBUTORS BE LIABLE
  28:Drivers/STM32F4xx_HAL_Driver/Inc/../../../Utilities/Fonts/fonts.h ****   * FOR ANY DIRECT, INDIRECT, INCIDENTAL, SPECIAL, EXEMPLARY, OR CONSEQUENTIAL
  29:Drivers/STM32F4xx_HAL_Driver/Inc/../../../Utilities/Fonts/fonts.h ****   * DAMAGES (INCLUDING, BUT NOT LIMITED TO, PROCUREMENT OF SUBSTITUTE GOODS OR
  30:Drivers/STM32F4xx_HAL_Driver/Inc/../../../Utilities/Fonts/fonts.h ****   * SERVICES; LOSS OF USE, DATA, OR PROFITS; OR BUSINESS INTERRUPTION) HOWEVER
  31:Drivers/STM32F4xx_HAL_Driver/Inc/../../../Utilities/Fonts/fonts.h ****   * CAUSED AND ON ANY THEORY OF LIABILITY, WHETHER IN CONTRACT, STRICT LIABILITY,
  32:Drivers/STM32F4xx_HAL_Driver/Inc/../../../Utilities/Fonts/fonts.h ****   * OR TORT (INCLUDING NEGLIGENCE OR OTHERWISE) ARISING IN ANY WAY OUT OF THE USE
  33:Drivers/STM32F4xx_HAL_Driver/Inc/../../../Utilities/Fonts/fonts.h ****   * OF THIS SOFTWARE, EVEN IF ADVISED OF THE POSSIBILITY OF SUCH DAMAGE.
  34:Drivers/STM32F4xx_HAL_Driver/Inc/../../../Utilities/Fonts/fonts.h ****   *
  35:Drivers/STM32F4xx_HAL_Driver/Inc/../../../Utilities/Fonts/fonts.h ****   ******************************************************************************
  36:Drivers/STM32F4xx_HAL_Driver/Inc/../../../Utilities/Fonts/fonts.h ****   */
  37:Drivers/STM32F4xx_HAL_Driver/Inc/../../../Utilities/Fonts/fonts.h **** 
  38:Drivers/STM32F4xx_HAL_Driver/Inc/../../../Utilities/Fonts/fonts.h **** /* Define to prevent recursive inclusion -------------------------------------*/
  39:Drivers/STM32F4xx_HAL_Driver/Inc/../../../Utilities/Fonts/fonts.h **** #ifndef __FONTS_H
  40:Drivers/STM32F4xx_HAL_Driver/Inc/../../../Utilities/Fonts/fonts.h **** #define __FONTS_H
  41:Drivers/STM32F4xx_HAL_Driver/Inc/../../../Utilities/Fonts/fonts.h **** 
  42:Drivers/STM32F4xx_HAL_Driver/Inc/../../../Utilities/Fonts/fonts.h **** #ifdef __cplusplus
  43:Drivers/STM32F4xx_HAL_Driver/Inc/../../../Utilities/Fonts/fonts.h ****  extern "C" {
  44:Drivers/STM32F4xx_HAL_Driver/Inc/../../../Utilities/Fonts/fonts.h **** #endif
  45:Drivers/STM32F4xx_HAL_Driver/Inc/../../../Utilities/Fonts/fonts.h **** 
  46:Drivers/STM32F4xx_HAL_Driver/Inc/../../../Utilities/Fonts/fonts.h **** /* Includes ------------------------------------------------------------------*/
  47:Drivers/STM32F4xx_HAL_Driver/Inc/../../../Utilities/Fonts/fonts.h **** #include <stdint.h>
  48:Drivers/STM32F4xx_HAL_Driver/Inc/../../../Utilities/Fonts/fonts.h **** 
  49:Drivers/STM32F4xx_HAL_Driver/Inc/../../../Utilities/Fonts/fonts.h **** /** @addtogroup Utilities
  50:Drivers/STM32F4xx_HAL_Driver/Inc/../../../Utilities/Fonts/fonts.h ****   * @{
  51:Drivers/STM32F4xx_HAL_Driver/Inc/../../../Utilities/Fonts/fonts.h ****   */
  52:Drivers/STM32F4xx_HAL_Driver/Inc/../../../Utilities/Fonts/fonts.h ****   
  53:Drivers/STM32F4xx_HAL_Driver/Inc/../../../Utilities/Fonts/fonts.h **** /** @addtogroup STM32_EVAL
  54:Drivers/STM32F4xx_HAL_Driver/Inc/../../../Utilities/Fonts/fonts.h ****   * @{
  55:Drivers/STM32F4xx_HAL_Driver/Inc/../../../Utilities/Fonts/fonts.h ****   */ 
  56:Drivers/STM32F4xx_HAL_Driver/Inc/../../../Utilities/Fonts/fonts.h **** 
  57:Drivers/STM32F4xx_HAL_Driver/Inc/../../../Utilities/Fonts/fonts.h **** /** @addtogroup Common
  58:Drivers/STM32F4xx_HAL_Driver/Inc/../../../Utilities/Fonts/fonts.h ****   * @{
  59:Drivers/STM32F4xx_HAL_Driver/Inc/../../../Utilities/Fonts/fonts.h ****   */
  60:Drivers/STM32F4xx_HAL_Driver/Inc/../../../Utilities/Fonts/fonts.h **** 
  61:Drivers/STM32F4xx_HAL_Driver/Inc/../../../Utilities/Fonts/fonts.h **** /** @addtogroup FONTS
  62:Drivers/STM32F4xx_HAL_Driver/Inc/../../../Utilities/Fonts/fonts.h ****   * @{
  63:Drivers/STM32F4xx_HAL_Driver/Inc/../../../Utilities/Fonts/fonts.h ****   */ 
ARM GAS  /tmp/ccYgTI9f.s 			page 64


  64:Drivers/STM32F4xx_HAL_Driver/Inc/../../../Utilities/Fonts/fonts.h **** 
  65:Drivers/STM32F4xx_HAL_Driver/Inc/../../../Utilities/Fonts/fonts.h **** /** @defgroup FONTS_Exported_Types
  66:Drivers/STM32F4xx_HAL_Driver/Inc/../../../Utilities/Fonts/fonts.h ****   * @{
  67:Drivers/STM32F4xx_HAL_Driver/Inc/../../../Utilities/Fonts/fonts.h ****   */ 
  68:Drivers/STM32F4xx_HAL_Driver/Inc/../../../Utilities/Fonts/fonts.h **** typedef struct _tFont
 1616              		.loc 5 68 1 view .LVU640
  69:Drivers/STM32F4xx_HAL_Driver/Inc/../../../Utilities/Fonts/fonts.h **** {    
  70:Drivers/STM32F4xx_HAL_Driver/Inc/../../../Utilities/Fonts/fonts.h ****   const uint8_t *table;
  71:Drivers/STM32F4xx_HAL_Driver/Inc/../../../Utilities/Fonts/fonts.h ****   uint16_t Width;
  72:Drivers/STM32F4xx_HAL_Driver/Inc/../../../Utilities/Fonts/fonts.h ****   uint16_t Height;
  73:Drivers/STM32F4xx_HAL_Driver/Inc/../../../Utilities/Fonts/fonts.h ****   
  74:Drivers/STM32F4xx_HAL_Driver/Inc/../../../Utilities/Fonts/fonts.h **** } sFONT;
  75:Drivers/STM32F4xx_HAL_Driver/Inc/../../../Utilities/Fonts/fonts.h **** 
  76:Drivers/STM32F4xx_HAL_Driver/Inc/../../../Utilities/Fonts/fonts.h **** extern sFONT Font24;
 1617              		.loc 5 76 1 view .LVU641
  77:Drivers/STM32F4xx_HAL_Driver/Inc/../../../Utilities/Fonts/fonts.h **** extern sFONT Font20;
 1618              		.loc 5 77 1 view .LVU642
  78:Drivers/STM32F4xx_HAL_Driver/Inc/../../../Utilities/Fonts/fonts.h **** extern sFONT Font16;
 1619              		.loc 5 78 1 view .LVU643
  79:Drivers/STM32F4xx_HAL_Driver/Inc/../../../Utilities/Fonts/fonts.h **** extern sFONT Font12;
 1620              		.loc 5 79 1 view .LVU644
  80:Drivers/STM32F4xx_HAL_Driver/Inc/../../../Utilities/Fonts/fonts.h **** extern sFONT Font8;
 1621              		.loc 5 80 1 view .LVU645
 1622              		.file 6 "Core/Inc/lcd.h"
   1:Core/Inc/lcd.h **** /**
   2:Core/Inc/lcd.h ****   ******************************************************************************
   3:Core/Inc/lcd.h ****   * @file    lcd.h
   4:Core/Inc/lcd.h ****   * @author  MCD Application Team
   5:Core/Inc/lcd.h ****   * @version V4.0.1
   6:Core/Inc/lcd.h ****   * @date    21-July-2015
   7:Core/Inc/lcd.h ****   * @brief   This file contains all the functions prototypes for the LCD driver.   
   8:Core/Inc/lcd.h ****   ******************************************************************************
   9:Core/Inc/lcd.h ****   * @attention
  10:Core/Inc/lcd.h ****   *
  11:Core/Inc/lcd.h ****   * <h2><center>&copy; COPYRIGHT(c) 2015 STMicroelectronics</center></h2>
  12:Core/Inc/lcd.h ****   *
  13:Core/Inc/lcd.h ****   * Redistribution and use in source and binary forms, with or without modification,
  14:Core/Inc/lcd.h ****   * are permitted provided that the following conditions are met:
  15:Core/Inc/lcd.h ****   *   1. Redistributions of source code must retain the above copyright notice,
  16:Core/Inc/lcd.h ****   *      this list of conditions and the following disclaimer.
  17:Core/Inc/lcd.h ****   *   2. Redistributions in binary form must reproduce the above copyright notice,
  18:Core/Inc/lcd.h ****   *      this list of conditions and the following disclaimer in the documentation
  19:Core/Inc/lcd.h ****   *      and/or other materials provided with the distribution.
  20:Core/Inc/lcd.h ****   *   3. Neither the name of STMicroelectronics nor the names of its contributors
  21:Core/Inc/lcd.h ****   *      may be used to endorse or promote products derived from this software
  22:Core/Inc/lcd.h ****   *      without specific prior written permission.
  23:Core/Inc/lcd.h ****   *
  24:Core/Inc/lcd.h ****   * THIS SOFTWARE IS PROVIDED BY THE COPYRIGHT HOLDERS AND CONTRIBUTORS "AS IS"
  25:Core/Inc/lcd.h ****   * AND ANY EXPRESS OR IMPLIED WARRANTIES, INCLUDING, BUT NOT LIMITED TO, THE
  26:Core/Inc/lcd.h ****   * IMPLIED WARRANTIES OF MERCHANTABILITY AND FITNESS FOR A PARTICULAR PURPOSE ARE
  27:Core/Inc/lcd.h ****   * DISCLAIMED. IN NO EVENT SHALL THE COPYRIGHT HOLDER OR CONTRIBUTORS BE LIABLE
  28:Core/Inc/lcd.h ****   * FOR ANY DIRECT, INDIRECT, INCIDENTAL, SPECIAL, EXEMPLARY, OR CONSEQUENTIAL
  29:Core/Inc/lcd.h ****   * DAMAGES (INCLUDING, BUT NOT LIMITED TO, PROCUREMENT OF SUBSTITUTE GOODS OR
  30:Core/Inc/lcd.h ****   * SERVICES; LOSS OF USE, DATA, OR PROFITS; OR BUSINESS INTERRUPTION) HOWEVER
  31:Core/Inc/lcd.h ****   * CAUSED AND ON ANY THEORY OF LIABILITY, WHETHER IN CONTRACT, STRICT LIABILITY,
  32:Core/Inc/lcd.h ****   * OR TORT (INCLUDING NEGLIGENCE OR OTHERWISE) ARISING IN ANY WAY OUT OF THE USE
  33:Core/Inc/lcd.h ****   * OF THIS SOFTWARE, EVEN IF ADVISED OF THE POSSIBILITY OF SUCH DAMAGE.
ARM GAS  /tmp/ccYgTI9f.s 			page 65


  34:Core/Inc/lcd.h ****   *
  35:Core/Inc/lcd.h ****   ******************************************************************************
  36:Core/Inc/lcd.h ****   */ 
  37:Core/Inc/lcd.h **** 
  38:Core/Inc/lcd.h **** /* Define to prevent recursive inclusion -------------------------------------*/
  39:Core/Inc/lcd.h **** #ifndef __LCD_H
  40:Core/Inc/lcd.h **** #define __LCD_H
  41:Core/Inc/lcd.h **** 
  42:Core/Inc/lcd.h **** #ifdef __cplusplus
  43:Core/Inc/lcd.h ****  extern "C" {
  44:Core/Inc/lcd.h **** #endif 
  45:Core/Inc/lcd.h **** 
  46:Core/Inc/lcd.h **** /* Includes ------------------------------------------------------------------*/
  47:Core/Inc/lcd.h **** #include <stdint.h>
  48:Core/Inc/lcd.h ****    
  49:Core/Inc/lcd.h **** /** @addtogroup BSP
  50:Core/Inc/lcd.h ****   * @{
  51:Core/Inc/lcd.h ****   */
  52:Core/Inc/lcd.h **** 
  53:Core/Inc/lcd.h **** /** @addtogroup Components
  54:Core/Inc/lcd.h ****   * @{
  55:Core/Inc/lcd.h ****   */
  56:Core/Inc/lcd.h **** 
  57:Core/Inc/lcd.h **** /** @addtogroup LCD
  58:Core/Inc/lcd.h ****   * @{
  59:Core/Inc/lcd.h ****   */
  60:Core/Inc/lcd.h ****  
  61:Core/Inc/lcd.h **** /** @defgroup LCD_Exported_Types
  62:Core/Inc/lcd.h ****   * @{
  63:Core/Inc/lcd.h ****   */
  64:Core/Inc/lcd.h **** 
  65:Core/Inc/lcd.h **** /** @defgroup LCD_Driver_structure  LCD Driver structure
  66:Core/Inc/lcd.h ****   * @{
  67:Core/Inc/lcd.h ****   */
  68:Core/Inc/lcd.h **** typedef struct
 1623              		.loc 6 68 1 view .LVU646
 1624              		.file 7 "Core/Inc/ili9341.h"
   1:Core/Inc/ili9341.h **** /**
   2:Core/Inc/ili9341.h ****   ******************************************************************************
   3:Core/Inc/ili9341.h ****   * @file    ili9341.h
   4:Core/Inc/ili9341.h ****   * @author  MCD Application Team
   5:Core/Inc/ili9341.h ****   * @version V1.0.2
   6:Core/Inc/ili9341.h ****   * @date    02-December-2014
   7:Core/Inc/ili9341.h ****   * @brief   This file contains all the functions prototypes for the ili9341.c
   8:Core/Inc/ili9341.h ****   *          driver.
   9:Core/Inc/ili9341.h ****   ******************************************************************************
  10:Core/Inc/ili9341.h ****   * @attention
  11:Core/Inc/ili9341.h ****   *
  12:Core/Inc/ili9341.h ****   * <h2><center>&copy; COPYRIGHT(c) 2014 STMicroelectronics</center></h2>
  13:Core/Inc/ili9341.h ****   *
  14:Core/Inc/ili9341.h ****   * Redistribution and use in source and binary forms, with or without modification,
  15:Core/Inc/ili9341.h ****   * are permitted provided that the following conditions are met:
  16:Core/Inc/ili9341.h ****   *   1. Redistributions of source code must retain the above copyright notice,
  17:Core/Inc/ili9341.h ****   *      this list of conditions and the following disclaimer.
  18:Core/Inc/ili9341.h ****   *   2. Redistributions in binary form must reproduce the above copyright notice,
  19:Core/Inc/ili9341.h ****   *      this list of conditions and the following disclaimer in the documentation
  20:Core/Inc/ili9341.h ****   *      and/or other materials provided with the distribution.
ARM GAS  /tmp/ccYgTI9f.s 			page 66


  21:Core/Inc/ili9341.h ****   *   3. Neither the name of STMicroelectronics nor the names of its contributors
  22:Core/Inc/ili9341.h ****   *      may be used to endorse or promote products derived from this software
  23:Core/Inc/ili9341.h ****   *      without specific prior written permission.
  24:Core/Inc/ili9341.h ****   *
  25:Core/Inc/ili9341.h ****   * THIS SOFTWARE IS PROVIDED BY THE COPYRIGHT HOLDERS AND CONTRIBUTORS "AS IS"
  26:Core/Inc/ili9341.h ****   * AND ANY EXPRESS OR IMPLIED WARRANTIES, INCLUDING, BUT NOT LIMITED TO, THE
  27:Core/Inc/ili9341.h ****   * IMPLIED WARRANTIES OF MERCHANTABILITY AND FITNESS FOR A PARTICULAR PURPOSE ARE
  28:Core/Inc/ili9341.h ****   * DISCLAIMED. IN NO EVENT SHALL THE COPYRIGHT HOLDER OR CONTRIBUTORS BE LIABLE
  29:Core/Inc/ili9341.h ****   * FOR ANY DIRECT, INDIRECT, INCIDENTAL, SPECIAL, EXEMPLARY, OR CONSEQUENTIAL
  30:Core/Inc/ili9341.h ****   * DAMAGES (INCLUDING, BUT NOT LIMITED TO, PROCUREMENT OF SUBSTITUTE GOODS OR
  31:Core/Inc/ili9341.h ****   * SERVICES; LOSS OF USE, DATA, OR PROFITS; OR BUSINESS INTERRUPTION) HOWEVER
  32:Core/Inc/ili9341.h ****   * CAUSED AND ON ANY THEORY OF LIABILITY, WHETHER IN CONTRACT, STRICT LIABILITY,
  33:Core/Inc/ili9341.h ****   * OR TORT (INCLUDING NEGLIGENCE OR OTHERWISE) ARISING IN ANY WAY OUT OF THE USE
  34:Core/Inc/ili9341.h ****   * OF THIS SOFTWARE, EVEN IF ADVISED OF THE POSSIBILITY OF SUCH DAMAGE.
  35:Core/Inc/ili9341.h ****   *
  36:Core/Inc/ili9341.h ****   ******************************************************************************
  37:Core/Inc/ili9341.h ****   */ 
  38:Core/Inc/ili9341.h **** 
  39:Core/Inc/ili9341.h **** /* Define to prevent recursive inclusion -------------------------------------*/
  40:Core/Inc/ili9341.h **** #ifndef __ILI9341_H
  41:Core/Inc/ili9341.h **** #define __ILI9341_H
  42:Core/Inc/ili9341.h **** 
  43:Core/Inc/ili9341.h **** #ifdef __cplusplus
  44:Core/Inc/ili9341.h ****  extern "C" {
  45:Core/Inc/ili9341.h **** #endif 
  46:Core/Inc/ili9341.h **** 
  47:Core/Inc/ili9341.h **** /* Includes ------------------------------------------------------------------*/
  48:Core/Inc/ili9341.h **** #include "lcd.h"
  49:Core/Inc/ili9341.h **** 
  50:Core/Inc/ili9341.h **** /** @addtogroup BSP
  51:Core/Inc/ili9341.h ****   * @{
  52:Core/Inc/ili9341.h ****   */ 
  53:Core/Inc/ili9341.h **** 
  54:Core/Inc/ili9341.h **** /** @addtogroup Components
  55:Core/Inc/ili9341.h ****   * @{
  56:Core/Inc/ili9341.h ****   */ 
  57:Core/Inc/ili9341.h ****   
  58:Core/Inc/ili9341.h **** /** @addtogroup ILI9341
  59:Core/Inc/ili9341.h ****   * @{
  60:Core/Inc/ili9341.h ****   */
  61:Core/Inc/ili9341.h **** 
  62:Core/Inc/ili9341.h **** /** @defgroup ILI9341_Exported_Types
  63:Core/Inc/ili9341.h ****   * @{
  64:Core/Inc/ili9341.h ****   */
  65:Core/Inc/ili9341.h **** /**
  66:Core/Inc/ili9341.h ****   * @}
  67:Core/Inc/ili9341.h ****   */ 
  68:Core/Inc/ili9341.h **** 
  69:Core/Inc/ili9341.h **** /** @defgroup ILI9341_Exported_Constants
  70:Core/Inc/ili9341.h ****   * @{
  71:Core/Inc/ili9341.h ****   */
  72:Core/Inc/ili9341.h **** 
  73:Core/Inc/ili9341.h **** /** 
  74:Core/Inc/ili9341.h ****   * @brief ILI9341 chip IDs  
  75:Core/Inc/ili9341.h ****   */ 
  76:Core/Inc/ili9341.h **** #define ILI9341_ID                  0x9341
  77:Core/Inc/ili9341.h **** 
ARM GAS  /tmp/ccYgTI9f.s 			page 67


  78:Core/Inc/ili9341.h **** /** 
  79:Core/Inc/ili9341.h ****   * @brief  ILI9341 Size  
  80:Core/Inc/ili9341.h ****   */  
  81:Core/Inc/ili9341.h **** #define  ILI9341_LCD_PIXEL_WIDTH    ((uint16_t)240)
  82:Core/Inc/ili9341.h **** #define  ILI9341_LCD_PIXEL_HEIGHT   ((uint16_t)320)
  83:Core/Inc/ili9341.h **** 
  84:Core/Inc/ili9341.h **** /** 
  85:Core/Inc/ili9341.h ****   * @brief  ILI9341 Timing  
  86:Core/Inc/ili9341.h ****   */     
  87:Core/Inc/ili9341.h **** /* Timing configuration  (Typical configuration from ILI9341 datasheet)
  88:Core/Inc/ili9341.h ****   HSYNC=10 (9+1)
  89:Core/Inc/ili9341.h ****   HBP=20 (29-10+1)
  90:Core/Inc/ili9341.h ****   ActiveW=240 (269-20-10+1)
  91:Core/Inc/ili9341.h ****   HFP=10 (279-240-20-10+1)
  92:Core/Inc/ili9341.h **** 
  93:Core/Inc/ili9341.h ****   VSYNC=2 (1+1)
  94:Core/Inc/ili9341.h ****   VBP=2 (3-2+1)
  95:Core/Inc/ili9341.h ****   ActiveH=320 (323-2-2+1)
  96:Core/Inc/ili9341.h ****   VFP=4 (327-320-2-2+1)
  97:Core/Inc/ili9341.h **** */
  98:Core/Inc/ili9341.h **** #define  ILI9341_HSYNC            ((uint32_t)9)   /* Horizontal synchronization */
  99:Core/Inc/ili9341.h **** #define  ILI9341_HBP              ((uint32_t)29)    /* Horizontal back porch      */ 
 100:Core/Inc/ili9341.h **** #define  ILI9341_HFP              ((uint32_t)2)    /* Horizontal front porch     */
 101:Core/Inc/ili9341.h **** #define  ILI9341_VSYNC            ((uint32_t)1)   /* Vertical synchronization   */
 102:Core/Inc/ili9341.h **** #define  ILI9341_VBP              ((uint32_t)3)    /* Vertical back porch        */
 103:Core/Inc/ili9341.h **** #define  ILI9341_VFP              ((uint32_t)2)    /* Vertical front porch       */
 104:Core/Inc/ili9341.h **** 
 105:Core/Inc/ili9341.h **** /** 
 106:Core/Inc/ili9341.h ****   * @brief  ILI9341 Registers  
 107:Core/Inc/ili9341.h ****   */
 108:Core/Inc/ili9341.h **** 
 109:Core/Inc/ili9341.h **** /* Level 1 Commands */
 110:Core/Inc/ili9341.h **** #define LCD_SWRESET             0x01   /* Software Reset */
 111:Core/Inc/ili9341.h **** #define LCD_READ_DISPLAY_ID     0x04   /* Read display identification information */
 112:Core/Inc/ili9341.h **** #define LCD_RDDST               0x09   /* Read Display Status */
 113:Core/Inc/ili9341.h **** #define LCD_RDDPM               0x0A   /* Read Display Power Mode */
 114:Core/Inc/ili9341.h **** #define LCD_RDDMADCTL           0x0B   /* Read Display MADCTL */
 115:Core/Inc/ili9341.h **** #define LCD_RDDCOLMOD           0x0C   /* Read Display Pixel Format */
 116:Core/Inc/ili9341.h **** #define LCD_RDDIM               0x0D   /* Read Display Image Format */
 117:Core/Inc/ili9341.h **** #define LCD_RDDSM               0x0E   /* Read Display Signal Mode */
 118:Core/Inc/ili9341.h **** #define LCD_RDDSDR              0x0F   /* Read Display Self-Diagnostic Result */
 119:Core/Inc/ili9341.h **** #define LCD_SPLIN               0x10   /* Enter Sleep Mode */
 120:Core/Inc/ili9341.h **** #define LCD_SLEEP_OUT           0x11   /* Sleep out register */
 121:Core/Inc/ili9341.h **** #define LCD_PTLON               0x12   /* Partial Mode ON */
 122:Core/Inc/ili9341.h **** #define LCD_NORMAL_MODE_ON      0x13   /* Normal Display Mode ON */
 123:Core/Inc/ili9341.h **** #define LCD_DINVOFF             0x20   /* Display Inversion OFF */
 124:Core/Inc/ili9341.h **** #define LCD_DINVON              0x21   /* Display Inversion ON */
 125:Core/Inc/ili9341.h **** #define LCD_GAMMA               0x26   /* Gamma register */
 126:Core/Inc/ili9341.h **** #define LCD_DISPLAY_OFF         0x28   /* Display off register */
 127:Core/Inc/ili9341.h **** #define LCD_DISPLAY_ON          0x29   /* Display on register */
 128:Core/Inc/ili9341.h **** #define LCD_COLUMN_ADDR         0x2A   /* Colomn address register */ 
 129:Core/Inc/ili9341.h **** #define LCD_PAGE_ADDR           0x2B   /* Page address register */ 
 130:Core/Inc/ili9341.h **** #define LCD_GRAM                0x2C   /* GRAM register */   
 131:Core/Inc/ili9341.h **** #define LCD_RGBSET              0x2D   /* Color SET */   
 132:Core/Inc/ili9341.h **** #define LCD_RAMRD               0x2E   /* Memory Read */   
 133:Core/Inc/ili9341.h **** #define LCD_PLTAR               0x30   /* Partial Area */   
 134:Core/Inc/ili9341.h **** #define LCD_VSCRDEF             0x33   /* Vertical Scrolling Definition */   
ARM GAS  /tmp/ccYgTI9f.s 			page 68


 135:Core/Inc/ili9341.h **** #define LCD_TEOFF               0x34   /* Tearing Effect Line OFF */   
 136:Core/Inc/ili9341.h **** #define LCD_TEON                0x35   /* Tearing Effect Line ON */   
 137:Core/Inc/ili9341.h **** #define LCD_MAC                 0x36   /* Memory Access Control register*/
 138:Core/Inc/ili9341.h **** #define LCD_VSCRSADD            0x37   /* Vertical Scrolling Start Address */   
 139:Core/Inc/ili9341.h **** #define LCD_IDMOFF              0x38   /* Idle Mode OFF */   
 140:Core/Inc/ili9341.h **** #define LCD_IDMON               0x39   /* Idle Mode ON */   
 141:Core/Inc/ili9341.h **** #define LCD_PIXEL_FORMAT        0x3A   /* Pixel Format register */
 142:Core/Inc/ili9341.h **** #define LCD_WRITE_MEM_CONTINUE  0x3C   /* Write Memory Continue */   
 143:Core/Inc/ili9341.h **** #define LCD_READ_MEM_CONTINUE   0x3E   /* Read Memory Continue */   
 144:Core/Inc/ili9341.h **** #define LCD_SET_TEAR_SCANLINE   0x44   /* Set Tear Scanline */   
 145:Core/Inc/ili9341.h **** #define LCD_GET_SCANLINE        0x45   /* Get Scanline */   
 146:Core/Inc/ili9341.h **** #define LCD_WDB                 0x51   /* Write Brightness Display register */
 147:Core/Inc/ili9341.h **** #define LCD_RDDISBV             0x52   /* Read Display Brightness */   
 148:Core/Inc/ili9341.h **** #define LCD_WCD                 0x53   /* Write Control Display register*/
 149:Core/Inc/ili9341.h **** #define LCD_RDCTRLD             0x54   /* Read CTRL Display */   
 150:Core/Inc/ili9341.h **** #define LCD_WRCABC              0x55   /* Write Content Adaptive Brightness Control */   
 151:Core/Inc/ili9341.h **** #define LCD_RDCABC              0x56   /* Read Content Adaptive Brightness Control */   
 152:Core/Inc/ili9341.h **** #define LCD_WRITE_CABC          0x5E   /* Write CABC Minimum Brightness */   
 153:Core/Inc/ili9341.h **** #define LCD_READ_CABC           0x5F   /* Read CABC Minimum Brightness */   
 154:Core/Inc/ili9341.h **** #define LCD_READ_ID1            0xDA   /* Read ID1 */
 155:Core/Inc/ili9341.h **** #define LCD_READ_ID2            0xDB   /* Read ID2 */
 156:Core/Inc/ili9341.h **** #define LCD_READ_ID3            0xDC   /* Read ID3 */
 157:Core/Inc/ili9341.h **** 
 158:Core/Inc/ili9341.h **** /* Level 2 Commands */
 159:Core/Inc/ili9341.h **** #define LCD_RGB_INTERFACE       0xB0   /* RGB Interface Signal Control */
 160:Core/Inc/ili9341.h **** #define LCD_FRMCTR1             0xB1   /* Frame Rate Control (In Normal Mode) */
 161:Core/Inc/ili9341.h **** #define LCD_FRMCTR2             0xB2   /* Frame Rate Control (In Idle Mode) */
 162:Core/Inc/ili9341.h **** #define LCD_FRMCTR3             0xB3   /* Frame Rate Control (In Partial Mode) */
 163:Core/Inc/ili9341.h **** #define LCD_INVTR               0xB4   /* Display Inversion Control */
 164:Core/Inc/ili9341.h **** #define LCD_BPC                 0xB5   /* Blanking Porch Control register */
 165:Core/Inc/ili9341.h **** #define LCD_DFC                 0xB6   /* Display Function Control register */
 166:Core/Inc/ili9341.h **** #define LCD_ETMOD               0xB7   /* Entry Mode Set */
 167:Core/Inc/ili9341.h **** #define LCD_BACKLIGHT1          0xB8   /* Backlight Control 1 */
 168:Core/Inc/ili9341.h **** #define LCD_BACKLIGHT2          0xB9   /* Backlight Control 2 */
 169:Core/Inc/ili9341.h **** #define LCD_BACKLIGHT3          0xBA   /* Backlight Control 3 */
 170:Core/Inc/ili9341.h **** #define LCD_BACKLIGHT4          0xBB   /* Backlight Control 4 */
 171:Core/Inc/ili9341.h **** #define LCD_BACKLIGHT5          0xBC   /* Backlight Control 5 */
 172:Core/Inc/ili9341.h **** #define LCD_BACKLIGHT7          0xBE   /* Backlight Control 7 */
 173:Core/Inc/ili9341.h **** #define LCD_BACKLIGHT8          0xBF   /* Backlight Control 8 */
 174:Core/Inc/ili9341.h **** #define LCD_POWER1              0xC0   /* Power Control 1 register */
 175:Core/Inc/ili9341.h **** #define LCD_POWER2              0xC1   /* Power Control 2 register */
 176:Core/Inc/ili9341.h **** #define LCD_VCOM1               0xC5   /* VCOM Control 1 register */
 177:Core/Inc/ili9341.h **** #define LCD_VCOM2               0xC7   /* VCOM Control 2 register */
 178:Core/Inc/ili9341.h **** #define LCD_NVMWR               0xD0   /* NV Memory Write */
 179:Core/Inc/ili9341.h **** #define LCD_NVMPKEY             0xD1   /* NV Memory Protection Key */
 180:Core/Inc/ili9341.h **** #define LCD_RDNVM               0xD2   /* NV Memory Status Read */
 181:Core/Inc/ili9341.h **** #define LCD_READ_ID4            0xD3   /* Read ID4 */
 182:Core/Inc/ili9341.h **** #define LCD_PGAMMA              0xE0   /* Positive Gamma Correction register */
 183:Core/Inc/ili9341.h **** #define LCD_NGAMMA              0xE1   /* Negative Gamma Correction register */
 184:Core/Inc/ili9341.h **** #define LCD_DGAMCTRL1           0xE2   /* Digital Gamma Control 1 */
 185:Core/Inc/ili9341.h **** #define LCD_DGAMCTRL2           0xE3   /* Digital Gamma Control 2 */
 186:Core/Inc/ili9341.h **** #define LCD_INTERFACE           0xF6   /* Interface control register */
 187:Core/Inc/ili9341.h **** 
 188:Core/Inc/ili9341.h **** /* Extend register commands */
 189:Core/Inc/ili9341.h **** #define LCD_POWERA               0xCB   /* Power control A register */
 190:Core/Inc/ili9341.h **** #define LCD_POWERB               0xCF   /* Power control B register */
 191:Core/Inc/ili9341.h **** #define LCD_DTCA                 0xE8   /* Driver timing control A */
ARM GAS  /tmp/ccYgTI9f.s 			page 69


 192:Core/Inc/ili9341.h **** #define LCD_DTCB                 0xEA   /* Driver timing control B */
 193:Core/Inc/ili9341.h **** #define LCD_POWER_SEQ            0xED   /* Power on sequence register */
 194:Core/Inc/ili9341.h **** #define LCD_3GAMMA_EN            0xF2   /* 3 Gamma enable register */
 195:Core/Inc/ili9341.h **** #define LCD_PRC                  0xF7   /* Pump ratio control register */
 196:Core/Inc/ili9341.h **** 
 197:Core/Inc/ili9341.h **** /* Size of read registers */
 198:Core/Inc/ili9341.h **** #define LCD_READ_ID4_SIZE        3      /* Size of Read ID4 */
 199:Core/Inc/ili9341.h **** 
 200:Core/Inc/ili9341.h **** /**
 201:Core/Inc/ili9341.h ****   * @}
 202:Core/Inc/ili9341.h ****   */
 203:Core/Inc/ili9341.h ****   
 204:Core/Inc/ili9341.h **** /** @defgroup ILI9341_Exported_Functions
 205:Core/Inc/ili9341.h ****   * @{
 206:Core/Inc/ili9341.h ****   */ 
 207:Core/Inc/ili9341.h **** void     ili9341_Init(void);
 1625              		.loc 7 207 1 view .LVU647
 208:Core/Inc/ili9341.h **** uint16_t ili9341_ReadID(void);
 1626              		.loc 7 208 1 view .LVU648
 209:Core/Inc/ili9341.h **** void     ili9341_WriteReg(uint8_t LCD_Reg);
 1627              		.loc 7 209 1 view .LVU649
 210:Core/Inc/ili9341.h **** void     ili9341_WriteData(uint16_t RegValue);
 1628              		.loc 7 210 1 view .LVU650
 211:Core/Inc/ili9341.h **** uint32_t ili9341_ReadData(uint16_t RegValue, uint8_t ReadSize);
 1629              		.loc 7 211 1 view .LVU651
 212:Core/Inc/ili9341.h **** void     ili9341_DisplayOn(void);
 1630              		.loc 7 212 1 view .LVU652
 213:Core/Inc/ili9341.h **** void     ili9341_DisplayOff(void);
 1631              		.loc 7 213 1 view .LVU653
 214:Core/Inc/ili9341.h **** uint16_t ili9341_GetLcdPixelWidth(void);
 1632              		.loc 7 214 1 view .LVU654
 215:Core/Inc/ili9341.h **** uint16_t ili9341_GetLcdPixelHeight(void);
 1633              		.loc 7 215 1 view .LVU655
 216:Core/Inc/ili9341.h **** 
 217:Core/Inc/ili9341.h **** /* LCD driver structure */
 218:Core/Inc/ili9341.h **** extern LCD_DrvTypeDef   ili9341_drv;
 1634              		.loc 7 218 1 view .LVU656
 219:Core/Inc/ili9341.h **** 
 220:Core/Inc/ili9341.h **** /* LCD IO functions */
 221:Core/Inc/ili9341.h **** void     LCD_IO_Init(void);
 1635              		.loc 7 221 1 view .LVU657
 222:Core/Inc/ili9341.h **** void     LCD_IO_WriteData(uint16_t RegValue);
 1636              		.loc 7 222 1 view .LVU658
 223:Core/Inc/ili9341.h **** void     LCD_IO_WriteReg(uint8_t Reg);
 1637              		.loc 7 223 1 view .LVU659
 224:Core/Inc/ili9341.h **** uint32_t LCD_IO_ReadData(uint16_t RegValue, uint8_t ReadSize);
 1638              		.loc 7 224 1 view .LVU660
 225:Core/Inc/ili9341.h **** void     LCD_Delay (uint32_t delay);
 1639              		.loc 7 225 1 view .LVU661
 1640              		.file 8 "Core/Inc/stm32f429i_discovery_lcd.h"
   1:Core/Inc/stm32f429i_discovery_lcd.h **** /**
   2:Core/Inc/stm32f429i_discovery_lcd.h ****   ******************************************************************************
   3:Core/Inc/stm32f429i_discovery_lcd.h ****   * @file    stm32f429i_discovery_lcd.h
   4:Core/Inc/stm32f429i_discovery_lcd.h ****   * @author  MCD Application Team
   5:Core/Inc/stm32f429i_discovery_lcd.h ****   * @brief   This file contains all the functions prototypes for the 
   6:Core/Inc/stm32f429i_discovery_lcd.h ****   *          stm32f429i_discovery_lcd.c driver.
   7:Core/Inc/stm32f429i_discovery_lcd.h ****   ******************************************************************************
ARM GAS  /tmp/ccYgTI9f.s 			page 70


   8:Core/Inc/stm32f429i_discovery_lcd.h ****   * @attention
   9:Core/Inc/stm32f429i_discovery_lcd.h ****   *
  10:Core/Inc/stm32f429i_discovery_lcd.h ****   * <h2><center>&copy; COPYRIGHT(c) 2017 STMicroelectronics</center></h2>
  11:Core/Inc/stm32f429i_discovery_lcd.h ****   *
  12:Core/Inc/stm32f429i_discovery_lcd.h ****   * Redistribution and use in source and binary forms, with or without modification,
  13:Core/Inc/stm32f429i_discovery_lcd.h ****   * are permitted provided that the following conditions are met:
  14:Core/Inc/stm32f429i_discovery_lcd.h ****   *   1. Redistributions of source code must retain the above copyright notice,
  15:Core/Inc/stm32f429i_discovery_lcd.h ****   *      this list of conditions and the following disclaimer.
  16:Core/Inc/stm32f429i_discovery_lcd.h ****   *   2. Redistributions in binary form must reproduce the above copyright notice,
  17:Core/Inc/stm32f429i_discovery_lcd.h ****   *      this list of conditions and the following disclaimer in the documentation
  18:Core/Inc/stm32f429i_discovery_lcd.h ****   *      and/or other materials provided with the distribution.
  19:Core/Inc/stm32f429i_discovery_lcd.h ****   *   3. Neither the name of STMicroelectronics nor the names of its contributors
  20:Core/Inc/stm32f429i_discovery_lcd.h ****   *      may be used to endorse or promote products derived from this software
  21:Core/Inc/stm32f429i_discovery_lcd.h ****   *      without specific prior written permission.
  22:Core/Inc/stm32f429i_discovery_lcd.h ****   *
  23:Core/Inc/stm32f429i_discovery_lcd.h ****   * THIS SOFTWARE IS PROVIDED BY THE COPYRIGHT HOLDERS AND CONTRIBUTORS "AS IS"
  24:Core/Inc/stm32f429i_discovery_lcd.h ****   * AND ANY EXPRESS OR IMPLIED WARRANTIES, INCLUDING, BUT NOT LIMITED TO, THE
  25:Core/Inc/stm32f429i_discovery_lcd.h ****   * IMPLIED WARRANTIES OF MERCHANTABILITY AND FITNESS FOR A PARTICULAR PURPOSE ARE
  26:Core/Inc/stm32f429i_discovery_lcd.h ****   * DISCLAIMED. IN NO EVENT SHALL THE COPYRIGHT HOLDER OR CONTRIBUTORS BE LIABLE
  27:Core/Inc/stm32f429i_discovery_lcd.h ****   * FOR ANY DIRECT, INDIRECT, INCIDENTAL, SPECIAL, EXEMPLARY, OR CONSEQUENTIAL
  28:Core/Inc/stm32f429i_discovery_lcd.h ****   * DAMAGES (INCLUDING, BUT NOT LIMITED TO, PROCUREMENT OF SUBSTITUTE GOODS OR
  29:Core/Inc/stm32f429i_discovery_lcd.h ****   * SERVICES; LOSS OF USE, DATA, OR PROFITS; OR BUSINESS INTERRUPTION) HOWEVER
  30:Core/Inc/stm32f429i_discovery_lcd.h ****   * CAUSED AND ON ANY THEORY OF LIABILITY, WHETHER IN CONTRACT, STRICT LIABILITY,
  31:Core/Inc/stm32f429i_discovery_lcd.h ****   * OR TORT (INCLUDING NEGLIGENCE OR OTHERWISE) ARISING IN ANY WAY OUT OF THE USE
  32:Core/Inc/stm32f429i_discovery_lcd.h ****   * OF THIS SOFTWARE, EVEN IF ADVISED OF THE POSSIBILITY OF SUCH DAMAGE.
  33:Core/Inc/stm32f429i_discovery_lcd.h ****   *
  34:Core/Inc/stm32f429i_discovery_lcd.h ****   ******************************************************************************
  35:Core/Inc/stm32f429i_discovery_lcd.h ****   */
  36:Core/Inc/stm32f429i_discovery_lcd.h **** 
  37:Core/Inc/stm32f429i_discovery_lcd.h **** /* Define to prevent recursive inclusion -------------------------------------*/
  38:Core/Inc/stm32f429i_discovery_lcd.h **** #ifndef __STM32F429I_DISCOVERY_LCD_H
  39:Core/Inc/stm32f429i_discovery_lcd.h **** #define __STM32F429I_DISCOVERY_LCD_H
  40:Core/Inc/stm32f429i_discovery_lcd.h **** 
  41:Core/Inc/stm32f429i_discovery_lcd.h **** #ifdef __cplusplus
  42:Core/Inc/stm32f429i_discovery_lcd.h ****  extern "C" {
  43:Core/Inc/stm32f429i_discovery_lcd.h **** #endif 
  44:Core/Inc/stm32f429i_discovery_lcd.h **** 
  45:Core/Inc/stm32f429i_discovery_lcd.h **** /* Includes ------------------------------------------------------------------*/
  46:Core/Inc/stm32f429i_discovery_lcd.h **** #include "stm32f429i_discovery.h"
  47:Core/Inc/stm32f429i_discovery_lcd.h **** /* Include SDRAM Driver */
  48:Core/Inc/stm32f429i_discovery_lcd.h **** #include "stm32f429i_discovery_sdram.h"
  49:Core/Inc/stm32f429i_discovery_lcd.h **** #include "../../../Utilities/Fonts/fonts.h"
  50:Core/Inc/stm32f429i_discovery_lcd.h **** /* Include LCD component driver */
  51:Core/Inc/stm32f429i_discovery_lcd.h **** //#include "../Components/ili9341/ili9341.h"
  52:Core/Inc/stm32f429i_discovery_lcd.h **** #include "ili9341.h"
  53:Core/Inc/stm32f429i_discovery_lcd.h **** /** @addtogroup BSP
  54:Core/Inc/stm32f429i_discovery_lcd.h ****   * @{
  55:Core/Inc/stm32f429i_discovery_lcd.h ****   */
  56:Core/Inc/stm32f429i_discovery_lcd.h **** 
  57:Core/Inc/stm32f429i_discovery_lcd.h **** /** @addtogroup STM32F429I_DISCOVERY
  58:Core/Inc/stm32f429i_discovery_lcd.h ****   * @{
  59:Core/Inc/stm32f429i_discovery_lcd.h ****   */ 
  60:Core/Inc/stm32f429i_discovery_lcd.h ****     
  61:Core/Inc/stm32f429i_discovery_lcd.h **** /** @addtogroup STM32F429I_DISCOVERY_LCD
  62:Core/Inc/stm32f429i_discovery_lcd.h ****   * @{
  63:Core/Inc/stm32f429i_discovery_lcd.h ****   */ 
  64:Core/Inc/stm32f429i_discovery_lcd.h **** 
ARM GAS  /tmp/ccYgTI9f.s 			page 71


  65:Core/Inc/stm32f429i_discovery_lcd.h **** /** @defgroup STM32F429I_DISCOVERY_LCD_Exported_Types STM32F429I DISCOVERY LCD Exported Types
  66:Core/Inc/stm32f429i_discovery_lcd.h ****   * @{
  67:Core/Inc/stm32f429i_discovery_lcd.h ****   */
  68:Core/Inc/stm32f429i_discovery_lcd.h **** typedef enum 
 1641              		.loc 8 68 1 view .LVU662
  69:Core/Inc/stm32f429i_discovery_lcd.h **** {
  70:Core/Inc/stm32f429i_discovery_lcd.h ****   LCD_OK = 0,
  71:Core/Inc/stm32f429i_discovery_lcd.h ****   LCD_ERROR = 1,
  72:Core/Inc/stm32f429i_discovery_lcd.h ****   LCD_TIMEOUT = 2
  73:Core/Inc/stm32f429i_discovery_lcd.h **** }LCD_StatusTypeDef;
  74:Core/Inc/stm32f429i_discovery_lcd.h **** 
  75:Core/Inc/stm32f429i_discovery_lcd.h **** typedef struct 
 1642              		.loc 8 75 1 view .LVU663
  76:Core/Inc/stm32f429i_discovery_lcd.h **** { 
  77:Core/Inc/stm32f429i_discovery_lcd.h ****   uint32_t  TextColor; 
  78:Core/Inc/stm32f429i_discovery_lcd.h ****   uint32_t  BackColor;  
  79:Core/Inc/stm32f429i_discovery_lcd.h ****   sFONT     *pFont;
  80:Core/Inc/stm32f429i_discovery_lcd.h **** }LCD_DrawPropTypeDef;
  81:Core/Inc/stm32f429i_discovery_lcd.h ****    
  82:Core/Inc/stm32f429i_discovery_lcd.h **** typedef struct 
 1643              		.loc 8 82 1 view .LVU664
  83:Core/Inc/stm32f429i_discovery_lcd.h **** {
  84:Core/Inc/stm32f429i_discovery_lcd.h ****   int16_t X;
  85:Core/Inc/stm32f429i_discovery_lcd.h ****   int16_t Y;
  86:Core/Inc/stm32f429i_discovery_lcd.h **** } Point, * pPoint;	 
  87:Core/Inc/stm32f429i_discovery_lcd.h **** 	 
  88:Core/Inc/stm32f429i_discovery_lcd.h **** /** 
  89:Core/Inc/stm32f429i_discovery_lcd.h ****   * @brief  Line mode structures definition  
  90:Core/Inc/stm32f429i_discovery_lcd.h ****   */ 
  91:Core/Inc/stm32f429i_discovery_lcd.h **** typedef enum
 1644              		.loc 8 91 1 view .LVU665
  92:Core/Inc/stm32f429i_discovery_lcd.h **** {
  93:Core/Inc/stm32f429i_discovery_lcd.h ****   CENTER_MODE             = 0x01,    /* center mode */
  94:Core/Inc/stm32f429i_discovery_lcd.h ****   RIGHT_MODE              = 0x02,    /* right mode  */     
  95:Core/Inc/stm32f429i_discovery_lcd.h ****   LEFT_MODE               = 0x03,    /* left mode   */                                             
  96:Core/Inc/stm32f429i_discovery_lcd.h **** }Text_AlignModeTypdef;
  97:Core/Inc/stm32f429i_discovery_lcd.h **** /**
  98:Core/Inc/stm32f429i_discovery_lcd.h ****   * @}
  99:Core/Inc/stm32f429i_discovery_lcd.h ****   */ 
 100:Core/Inc/stm32f429i_discovery_lcd.h **** 
 101:Core/Inc/stm32f429i_discovery_lcd.h **** /** @defgroup STM32F429I_DISCOVERY_LCD_Exported_Constants STM32F429I DISCOVERY LCD Exported Constan
 102:Core/Inc/stm32f429i_discovery_lcd.h ****   * @{
 103:Core/Inc/stm32f429i_discovery_lcd.h ****   */ 
 104:Core/Inc/stm32f429i_discovery_lcd.h **** #define LCD_LayerCfgTypeDef    LTDC_LayerCfgTypeDef
 105:Core/Inc/stm32f429i_discovery_lcd.h **** 
 106:Core/Inc/stm32f429i_discovery_lcd.h **** /** 
 107:Core/Inc/stm32f429i_discovery_lcd.h ****   * @brief  LCD status structure definition  
 108:Core/Inc/stm32f429i_discovery_lcd.h ****   */     
 109:Core/Inc/stm32f429i_discovery_lcd.h **** #define MAX_LAYER_NUMBER       2
 110:Core/Inc/stm32f429i_discovery_lcd.h **** #define LCD_FRAME_BUFFER       ((uint32_t)0xD0000000)
 111:Core/Inc/stm32f429i_discovery_lcd.h **** #define BUFFER_OFFSET          ((uint32_t)0x50000) 
 112:Core/Inc/stm32f429i_discovery_lcd.h **** 
 113:Core/Inc/stm32f429i_discovery_lcd.h **** /** 
 114:Core/Inc/stm32f429i_discovery_lcd.h ****   * @brief  LCD color  
 115:Core/Inc/stm32f429i_discovery_lcd.h ****   */ 
 116:Core/Inc/stm32f429i_discovery_lcd.h **** #define LCD_COLOR_BLUE          0xFF0000FF
 117:Core/Inc/stm32f429i_discovery_lcd.h **** #define LCD_COLOR_GREEN         0xFF00FF00
ARM GAS  /tmp/ccYgTI9f.s 			page 72


 118:Core/Inc/stm32f429i_discovery_lcd.h **** #define LCD_COLOR_RED           0xFFFF0000
 119:Core/Inc/stm32f429i_discovery_lcd.h **** #define LCD_COLOR_CYAN          0xFF00FFFF
 120:Core/Inc/stm32f429i_discovery_lcd.h **** #define LCD_COLOR_MAGENTA       0xFFFF00FF
 121:Core/Inc/stm32f429i_discovery_lcd.h **** #define LCD_COLOR_YELLOW        0xFFFFFF00
 122:Core/Inc/stm32f429i_discovery_lcd.h **** #define LCD_COLOR_LIGHTBLUE     0xFF8080FF
 123:Core/Inc/stm32f429i_discovery_lcd.h **** #define LCD_COLOR_LIGHTGREEN    0xFF80FF80
 124:Core/Inc/stm32f429i_discovery_lcd.h **** #define LCD_COLOR_LIGHTRED      0xFFFF8080
 125:Core/Inc/stm32f429i_discovery_lcd.h **** #define LCD_COLOR_LIGHTCYAN     0xFF80FFFF
 126:Core/Inc/stm32f429i_discovery_lcd.h **** #define LCD_COLOR_LIGHTMAGENTA  0xFFFF80FF
 127:Core/Inc/stm32f429i_discovery_lcd.h **** #define LCD_COLOR_LIGHTYELLOW   0xFFFFFF80
 128:Core/Inc/stm32f429i_discovery_lcd.h **** #define LCD_COLOR_DARKBLUE      0xFF000080
 129:Core/Inc/stm32f429i_discovery_lcd.h **** #define LCD_COLOR_DARKGREEN     0xFF008000
 130:Core/Inc/stm32f429i_discovery_lcd.h **** #define LCD_COLOR_DARKRED       0xFF800000
 131:Core/Inc/stm32f429i_discovery_lcd.h **** #define LCD_COLOR_DARKCYAN      0xFF008080
 132:Core/Inc/stm32f429i_discovery_lcd.h **** #define LCD_COLOR_DARKMAGENTA   0xFF800080
 133:Core/Inc/stm32f429i_discovery_lcd.h **** #define LCD_COLOR_DARKYELLOW    0xFF808000
 134:Core/Inc/stm32f429i_discovery_lcd.h **** #define LCD_COLOR_WHITE         0xFFFFFFFF
 135:Core/Inc/stm32f429i_discovery_lcd.h **** #define LCD_COLOR_LIGHTGRAY     0xFFD3D3D3
 136:Core/Inc/stm32f429i_discovery_lcd.h **** #define LCD_COLOR_GRAY          0xFF808080
 137:Core/Inc/stm32f429i_discovery_lcd.h **** #define LCD_COLOR_DARKGRAY      0xFF404040
 138:Core/Inc/stm32f429i_discovery_lcd.h **** #define LCD_COLOR_BLACK         0xFF000000
 139:Core/Inc/stm32f429i_discovery_lcd.h **** #define LCD_COLOR_BROWN         0xFFA52A2A
 140:Core/Inc/stm32f429i_discovery_lcd.h **** #define LCD_COLOR_ORANGE        0xFFFFA500
 141:Core/Inc/stm32f429i_discovery_lcd.h **** #define LCD_COLOR_TRANSPARENT   0xFF000000
 142:Core/Inc/stm32f429i_discovery_lcd.h **** /** 
 143:Core/Inc/stm32f429i_discovery_lcd.h ****   * @brief LCD default font 
 144:Core/Inc/stm32f429i_discovery_lcd.h ****   */ 
 145:Core/Inc/stm32f429i_discovery_lcd.h **** #define LCD_DEFAULT_FONT         Font24
 146:Core/Inc/stm32f429i_discovery_lcd.h **** 
 147:Core/Inc/stm32f429i_discovery_lcd.h **** /** 
 148:Core/Inc/stm32f429i_discovery_lcd.h ****   * @brief  LCD Reload Types
 149:Core/Inc/stm32f429i_discovery_lcd.h ****   */
 150:Core/Inc/stm32f429i_discovery_lcd.h **** #define LCD_RELOAD_IMMEDIATE               ((uint32_t)LTDC_SRCR_IMR)
 151:Core/Inc/stm32f429i_discovery_lcd.h **** #define LCD_RELOAD_VERTICAL_BLANKING       ((uint32_t)LTDC_SRCR_VBR)
 152:Core/Inc/stm32f429i_discovery_lcd.h **** 
 153:Core/Inc/stm32f429i_discovery_lcd.h **** /** 
 154:Core/Inc/stm32f429i_discovery_lcd.h ****   * @brief  LCD Layer  
 155:Core/Inc/stm32f429i_discovery_lcd.h ****   */ 
 156:Core/Inc/stm32f429i_discovery_lcd.h **** #define LCD_BACKGROUND_LAYER     0x0000
 157:Core/Inc/stm32f429i_discovery_lcd.h **** #define LCD_FOREGROUND_LAYER     0x0001
 158:Core/Inc/stm32f429i_discovery_lcd.h **** 
 159:Core/Inc/stm32f429i_discovery_lcd.h **** /**
 160:Core/Inc/stm32f429i_discovery_lcd.h ****   * @}
 161:Core/Inc/stm32f429i_discovery_lcd.h ****   */ 
 162:Core/Inc/stm32f429i_discovery_lcd.h **** 
 163:Core/Inc/stm32f429i_discovery_lcd.h **** /** @defgroup STM32F429I_DISCOVERY_LCD_Exported_Macros STM32F429I DISCOVERY LCD Exported Macros
 164:Core/Inc/stm32f429i_discovery_lcd.h ****   * @{
 165:Core/Inc/stm32f429i_discovery_lcd.h ****   */ 
 166:Core/Inc/stm32f429i_discovery_lcd.h **** /** 
 167:Core/Inc/stm32f429i_discovery_lcd.h ****   * @brief LCD Pixel format 
 168:Core/Inc/stm32f429i_discovery_lcd.h ****   */  
 169:Core/Inc/stm32f429i_discovery_lcd.h **** #define LCD_PIXEL_FORMAT_ARGB8888         LTDC_PIXEL_FORMAT_ARGB8888
 170:Core/Inc/stm32f429i_discovery_lcd.h **** #define LCD_PIXEL_FORMAT_RGB888           LTDC_PIXEL_FORMAT_RGB888        
 171:Core/Inc/stm32f429i_discovery_lcd.h **** #define LCD_PIXEL_FORMAT_RGB565           LTDC_PIXEL_FORMAT_RGB565                
 172:Core/Inc/stm32f429i_discovery_lcd.h **** #define LCD_PIXEL_FORMAT_ARGB1555         LTDC_PIXEL_FORMAT_ARGB1555        
 173:Core/Inc/stm32f429i_discovery_lcd.h **** #define LCD_PIXEL_FORMAT_ARGB4444         LTDC_PIXEL_FORMAT_ARGB4444        
 174:Core/Inc/stm32f429i_discovery_lcd.h **** #define LCD_PIXEL_FORMAT_L8               LTDC_PIXEL_FORMAT_L8        
ARM GAS  /tmp/ccYgTI9f.s 			page 73


 175:Core/Inc/stm32f429i_discovery_lcd.h **** #define LCD_PIXEL_FORMAT_AL44             LTDC_PIXEL_FORMAT_AL44        
 176:Core/Inc/stm32f429i_discovery_lcd.h **** #define LCD_PIXEL_FORMAT_AL88             LTDC_PIXEL_FORMAT_AL88
 177:Core/Inc/stm32f429i_discovery_lcd.h **** /**
 178:Core/Inc/stm32f429i_discovery_lcd.h ****   * @}
 179:Core/Inc/stm32f429i_discovery_lcd.h ****   */ 
 180:Core/Inc/stm32f429i_discovery_lcd.h **** 
 181:Core/Inc/stm32f429i_discovery_lcd.h **** /** @defgroup STM32F429I_DISCOVERY_LCD_Exported_Functions STM32F429I DISCOVERY LCD Exported Functio
 182:Core/Inc/stm32f429i_discovery_lcd.h ****   * @{
 183:Core/Inc/stm32f429i_discovery_lcd.h ****   */ 
 184:Core/Inc/stm32f429i_discovery_lcd.h **** uint8_t  BSP_LCD_Init(void);
 1645              		.loc 8 184 1 view .LVU666
 185:Core/Inc/stm32f429i_discovery_lcd.h **** uint32_t BSP_LCD_GetXSize(void);
 1646              		.loc 8 185 1 view .LVU667
 186:Core/Inc/stm32f429i_discovery_lcd.h **** uint32_t BSP_LCD_GetYSize(void);
 1647              		.loc 8 186 1 view .LVU668
 187:Core/Inc/stm32f429i_discovery_lcd.h **** 
 188:Core/Inc/stm32f429i_discovery_lcd.h **** /* functions using the LTDC controller */
 189:Core/Inc/stm32f429i_discovery_lcd.h **** void     BSP_LCD_LayerDefaultInit(uint16_t LayerIndex, uint32_t FrameBuffer);
 1648              		.loc 8 189 1 view .LVU669
 190:Core/Inc/stm32f429i_discovery_lcd.h **** void     BSP_LCD_SetTransparency(uint32_t LayerIndex, uint8_t Transparency);
 1649              		.loc 8 190 1 view .LVU670
 191:Core/Inc/stm32f429i_discovery_lcd.h **** void     BSP_LCD_SetTransparency_NoReload(uint32_t LayerIndex, uint8_t Transparency);
 1650              		.loc 8 191 1 view .LVU671
 192:Core/Inc/stm32f429i_discovery_lcd.h **** void     BSP_LCD_SetLayerAddress(uint32_t LayerIndex, uint32_t Address);
 1651              		.loc 8 192 1 view .LVU672
 193:Core/Inc/stm32f429i_discovery_lcd.h **** void     BSP_LCD_SetLayerAddress_NoReload(uint32_t LayerIndex, uint32_t Address);
 1652              		.loc 8 193 1 view .LVU673
 194:Core/Inc/stm32f429i_discovery_lcd.h **** void     BSP_LCD_SetColorKeying(uint32_t LayerIndex, uint32_t RGBValue);
 1653              		.loc 8 194 1 view .LVU674
 195:Core/Inc/stm32f429i_discovery_lcd.h **** void     BSP_LCD_SetColorKeying_NoReload(uint32_t LayerIndex, uint32_t RGBValue);
 1654              		.loc 8 195 1 view .LVU675
 196:Core/Inc/stm32f429i_discovery_lcd.h **** void     BSP_LCD_ResetColorKeying(uint32_t LayerIndex);
 1655              		.loc 8 196 1 view .LVU676
 197:Core/Inc/stm32f429i_discovery_lcd.h **** void     BSP_LCD_ResetColorKeying_NoReload(uint32_t LayerIndex);
 1656              		.loc 8 197 1 view .LVU677
 198:Core/Inc/stm32f429i_discovery_lcd.h **** void     BSP_LCD_SetLayerWindow(uint16_t LayerIndex, uint16_t Xpos, uint16_t Ypos, uint16_t Width, 
 1657              		.loc 8 198 1 view .LVU678
 199:Core/Inc/stm32f429i_discovery_lcd.h **** void     BSP_LCD_SetLayerWindow_NoReload(uint16_t LayerIndex, uint16_t Xpos, uint16_t Ypos, uint16_
 1658              		.loc 8 199 1 view .LVU679
 200:Core/Inc/stm32f429i_discovery_lcd.h **** void     BSP_LCD_SelectLayer(uint32_t LayerIndex);
 1659              		.loc 8 200 1 view .LVU680
 201:Core/Inc/stm32f429i_discovery_lcd.h **** void     BSP_LCD_SetLayerVisible(uint32_t LayerIndex, FunctionalState state);
 1660              		.loc 8 201 1 view .LVU681
 202:Core/Inc/stm32f429i_discovery_lcd.h **** void     BSP_LCD_SetLayerVisible_NoReload(uint32_t LayerIndex, FunctionalState State);
 1661              		.loc 8 202 1 view .LVU682
 203:Core/Inc/stm32f429i_discovery_lcd.h **** void     BSP_LCD_Relaod(uint32_t ReloadType);
 1662              		.loc 8 203 1 view .LVU683
 204:Core/Inc/stm32f429i_discovery_lcd.h **** 
 205:Core/Inc/stm32f429i_discovery_lcd.h **** void     BSP_LCD_SetTextColor(uint32_t Color);
 1663              		.loc 8 205 1 view .LVU684
 206:Core/Inc/stm32f429i_discovery_lcd.h **** void     BSP_LCD_SetBackColor(uint32_t Color);
 1664              		.loc 8 206 1 view .LVU685
 207:Core/Inc/stm32f429i_discovery_lcd.h **** uint32_t BSP_LCD_GetTextColor(void);
 1665              		.loc 8 207 1 view .LVU686
 208:Core/Inc/stm32f429i_discovery_lcd.h **** uint32_t BSP_LCD_GetBackColor(void);
 1666              		.loc 8 208 1 view .LVU687
 209:Core/Inc/stm32f429i_discovery_lcd.h **** void     BSP_LCD_SetFont(sFONT *pFonts);
ARM GAS  /tmp/ccYgTI9f.s 			page 74


 1667              		.loc 8 209 1 view .LVU688
 210:Core/Inc/stm32f429i_discovery_lcd.h **** sFONT    *BSP_LCD_GetFont(void);
 1668              		.loc 8 210 1 view .LVU689
 211:Core/Inc/stm32f429i_discovery_lcd.h **** 
 212:Core/Inc/stm32f429i_discovery_lcd.h **** uint32_t BSP_LCD_ReadPixel(uint16_t Xpos, uint16_t Ypos);
 1669              		.loc 8 212 1 view .LVU690
 213:Core/Inc/stm32f429i_discovery_lcd.h **** void     BSP_LCD_DrawPixel(uint16_t Xpos, uint16_t Ypos, uint32_t pixel);
 1670              		.loc 8 213 1 view .LVU691
 214:Core/Inc/stm32f429i_discovery_lcd.h **** void     BSP_LCD_Clear(uint32_t Color);
 1671              		.loc 8 214 1 view .LVU692
 215:Core/Inc/stm32f429i_discovery_lcd.h **** void     BSP_LCD_ClearStringLine(uint32_t Line);
 1672              		.loc 8 215 1 view .LVU693
 216:Core/Inc/stm32f429i_discovery_lcd.h **** void     BSP_LCD_DisplayStringAtLine(uint16_t Line, uint8_t *ptr);
 1673              		.loc 8 216 1 view .LVU694
 217:Core/Inc/stm32f429i_discovery_lcd.h **** void     BSP_LCD_DisplayStringAt(uint16_t X, uint16_t Y, uint8_t *pText, Text_AlignModeTypdef mode)
 1674              		.loc 8 217 1 view .LVU695
 218:Core/Inc/stm32f429i_discovery_lcd.h **** void     BSP_LCD_DisplayChar(uint16_t Xpos, uint16_t Ypos, uint8_t Ascii);
 1675              		.loc 8 218 1 view .LVU696
 219:Core/Inc/stm32f429i_discovery_lcd.h **** 
 220:Core/Inc/stm32f429i_discovery_lcd.h **** void     BSP_LCD_DrawHLine(uint16_t Xpos, uint16_t Ypos, uint16_t Length);
 1676              		.loc 8 220 1 view .LVU697
 221:Core/Inc/stm32f429i_discovery_lcd.h **** void     BSP_LCD_DrawVLine(uint16_t Xpos, uint16_t Ypos, uint16_t Length);
 1677              		.loc 8 221 1 view .LVU698
 222:Core/Inc/stm32f429i_discovery_lcd.h **** void     BSP_LCD_DrawLine(uint16_t X1, uint16_t Y1, uint16_t X2, uint16_t Y2);
 1678              		.loc 8 222 1 view .LVU699
 223:Core/Inc/stm32f429i_discovery_lcd.h **** void     BSP_LCD_DrawRect(uint16_t Xpos, uint16_t Ypos, uint16_t Width, uint16_t Height);
 1679              		.loc 8 223 1 view .LVU700
 224:Core/Inc/stm32f429i_discovery_lcd.h **** void     BSP_LCD_DrawCircle(uint16_t Xpos, uint16_t Ypos, uint16_t Radius);
 1680              		.loc 8 224 1 view .LVU701
 225:Core/Inc/stm32f429i_discovery_lcd.h **** void     BSP_LCD_DrawPolygon(pPoint Points, uint16_t PointCount);
 1681              		.loc 8 225 1 view .LVU702
 226:Core/Inc/stm32f429i_discovery_lcd.h **** void     BSP_LCD_DrawEllipse(int Xpos, int Ypos, int XRadius, int YRadius);
 1682              		.loc 8 226 1 view .LVU703
 227:Core/Inc/stm32f429i_discovery_lcd.h **** void     BSP_LCD_DrawBitmap(uint32_t X, uint32_t Y, uint8_t *pBmp);
 1683              		.loc 8 227 1 view .LVU704
 228:Core/Inc/stm32f429i_discovery_lcd.h **** 
 229:Core/Inc/stm32f429i_discovery_lcd.h **** void     BSP_LCD_FillRect(uint16_t Xpos, uint16_t Ypos, uint16_t Width, uint16_t Height);
 1684              		.loc 8 229 1 view .LVU705
 230:Core/Inc/stm32f429i_discovery_lcd.h **** void     BSP_LCD_FillCircle(uint16_t Xpos, uint16_t Ypos, uint16_t Radius);
 1685              		.loc 8 230 1 view .LVU706
 231:Core/Inc/stm32f429i_discovery_lcd.h **** void     BSP_LCD_FillTriangle(uint16_t X1, uint16_t X2, uint16_t X3, uint16_t Y1, uint16_t Y2, uint
 1686              		.loc 8 231 1 view .LVU707
 232:Core/Inc/stm32f429i_discovery_lcd.h **** void     BSP_LCD_FillPolygon(pPoint Points, uint16_t PointCount);
 1687              		.loc 8 232 1 view .LVU708
 233:Core/Inc/stm32f429i_discovery_lcd.h **** void     BSP_LCD_FillEllipse(int Xpos, int Ypos, int XRadius, int YRadius);
 1688              		.loc 8 233 1 view .LVU709
 234:Core/Inc/stm32f429i_discovery_lcd.h **** 
 235:Core/Inc/stm32f429i_discovery_lcd.h **** void     BSP_LCD_DisplayOff(void);
 1689              		.loc 8 235 1 view .LVU710
 236:Core/Inc/stm32f429i_discovery_lcd.h **** void     BSP_LCD_DisplayOn(void);
 1690              		.loc 8 236 1 view .LVU711
 237:Core/Inc/stm32f429i_discovery_lcd.h **** 
 238:Core/Inc/stm32f429i_discovery_lcd.h **** /* This function can be modified in case the current settings need to be changed 
 239:Core/Inc/stm32f429i_discovery_lcd.h ****    for specific application needs */
 240:Core/Inc/stm32f429i_discovery_lcd.h **** void    BSP_LCD_MspInit(void);
 1691              		.loc 8 240 1 view .LVU712
 1692              		.file 9 "/home/irfan/Desktop/arm/gcc-arm-none-eabi-10.3-2021.10-x86_64-linux/gcc-arm-none-eabi-10.
ARM GAS  /tmp/ccYgTI9f.s 			page 75


   1:/home/irfan/Desktop/arm/gcc-arm-none-eabi-10.3-2021.10-x86_64-linux/gcc-arm-none-eabi-10.3-2021.10/lib/gcc/arm-none-eabi/10.3.1/include/stddef.h **** /* Copyright (C) 1989-2020 Free Software Foundation, Inc.
   2:/home/irfan/Desktop/arm/gcc-arm-none-eabi-10.3-2021.10-x86_64-linux/gcc-arm-none-eabi-10.3-2021.10/lib/gcc/arm-none-eabi/10.3.1/include/stddef.h **** 
   3:/home/irfan/Desktop/arm/gcc-arm-none-eabi-10.3-2021.10-x86_64-linux/gcc-arm-none-eabi-10.3-2021.10/lib/gcc/arm-none-eabi/10.3.1/include/stddef.h **** This file is part of GCC.
   4:/home/irfan/Desktop/arm/gcc-arm-none-eabi-10.3-2021.10-x86_64-linux/gcc-arm-none-eabi-10.3-2021.10/lib/gcc/arm-none-eabi/10.3.1/include/stddef.h **** 
   5:/home/irfan/Desktop/arm/gcc-arm-none-eabi-10.3-2021.10-x86_64-linux/gcc-arm-none-eabi-10.3-2021.10/lib/gcc/arm-none-eabi/10.3.1/include/stddef.h **** GCC is free software; you can redistribute it and/or modify
   6:/home/irfan/Desktop/arm/gcc-arm-none-eabi-10.3-2021.10-x86_64-linux/gcc-arm-none-eabi-10.3-2021.10/lib/gcc/arm-none-eabi/10.3.1/include/stddef.h **** it under the terms of the GNU General Public License as published by
   7:/home/irfan/Desktop/arm/gcc-arm-none-eabi-10.3-2021.10-x86_64-linux/gcc-arm-none-eabi-10.3-2021.10/lib/gcc/arm-none-eabi/10.3.1/include/stddef.h **** the Free Software Foundation; either version 3, or (at your option)
   8:/home/irfan/Desktop/arm/gcc-arm-none-eabi-10.3-2021.10-x86_64-linux/gcc-arm-none-eabi-10.3-2021.10/lib/gcc/arm-none-eabi/10.3.1/include/stddef.h **** any later version.
   9:/home/irfan/Desktop/arm/gcc-arm-none-eabi-10.3-2021.10-x86_64-linux/gcc-arm-none-eabi-10.3-2021.10/lib/gcc/arm-none-eabi/10.3.1/include/stddef.h **** 
  10:/home/irfan/Desktop/arm/gcc-arm-none-eabi-10.3-2021.10-x86_64-linux/gcc-arm-none-eabi-10.3-2021.10/lib/gcc/arm-none-eabi/10.3.1/include/stddef.h **** GCC is distributed in the hope that it will be useful,
  11:/home/irfan/Desktop/arm/gcc-arm-none-eabi-10.3-2021.10-x86_64-linux/gcc-arm-none-eabi-10.3-2021.10/lib/gcc/arm-none-eabi/10.3.1/include/stddef.h **** but WITHOUT ANY WARRANTY; without even the implied warranty of
  12:/home/irfan/Desktop/arm/gcc-arm-none-eabi-10.3-2021.10-x86_64-linux/gcc-arm-none-eabi-10.3-2021.10/lib/gcc/arm-none-eabi/10.3.1/include/stddef.h **** MERCHANTABILITY or FITNESS FOR A PARTICULAR PURPOSE.  See the
  13:/home/irfan/Desktop/arm/gcc-arm-none-eabi-10.3-2021.10-x86_64-linux/gcc-arm-none-eabi-10.3-2021.10/lib/gcc/arm-none-eabi/10.3.1/include/stddef.h **** GNU General Public License for more details.
  14:/home/irfan/Desktop/arm/gcc-arm-none-eabi-10.3-2021.10-x86_64-linux/gcc-arm-none-eabi-10.3-2021.10/lib/gcc/arm-none-eabi/10.3.1/include/stddef.h **** 
  15:/home/irfan/Desktop/arm/gcc-arm-none-eabi-10.3-2021.10-x86_64-linux/gcc-arm-none-eabi-10.3-2021.10/lib/gcc/arm-none-eabi/10.3.1/include/stddef.h **** Under Section 7 of GPL version 3, you are granted additional
  16:/home/irfan/Desktop/arm/gcc-arm-none-eabi-10.3-2021.10-x86_64-linux/gcc-arm-none-eabi-10.3-2021.10/lib/gcc/arm-none-eabi/10.3.1/include/stddef.h **** permissions described in the GCC Runtime Library Exception, version
  17:/home/irfan/Desktop/arm/gcc-arm-none-eabi-10.3-2021.10-x86_64-linux/gcc-arm-none-eabi-10.3-2021.10/lib/gcc/arm-none-eabi/10.3.1/include/stddef.h **** 3.1, as published by the Free Software Foundation.
  18:/home/irfan/Desktop/arm/gcc-arm-none-eabi-10.3-2021.10-x86_64-linux/gcc-arm-none-eabi-10.3-2021.10/lib/gcc/arm-none-eabi/10.3.1/include/stddef.h **** 
  19:/home/irfan/Desktop/arm/gcc-arm-none-eabi-10.3-2021.10-x86_64-linux/gcc-arm-none-eabi-10.3-2021.10/lib/gcc/arm-none-eabi/10.3.1/include/stddef.h **** You should have received a copy of the GNU General Public License and
  20:/home/irfan/Desktop/arm/gcc-arm-none-eabi-10.3-2021.10-x86_64-linux/gcc-arm-none-eabi-10.3-2021.10/lib/gcc/arm-none-eabi/10.3.1/include/stddef.h **** a copy of the GCC Runtime Library Exception along with this program;
  21:/home/irfan/Desktop/arm/gcc-arm-none-eabi-10.3-2021.10-x86_64-linux/gcc-arm-none-eabi-10.3-2021.10/lib/gcc/arm-none-eabi/10.3.1/include/stddef.h **** see the files COPYING3 and COPYING.RUNTIME respectively.  If not, see
  22:/home/irfan/Desktop/arm/gcc-arm-none-eabi-10.3-2021.10-x86_64-linux/gcc-arm-none-eabi-10.3-2021.10/lib/gcc/arm-none-eabi/10.3.1/include/stddef.h **** <http://www.gnu.org/licenses/>.  */
  23:/home/irfan/Desktop/arm/gcc-arm-none-eabi-10.3-2021.10-x86_64-linux/gcc-arm-none-eabi-10.3-2021.10/lib/gcc/arm-none-eabi/10.3.1/include/stddef.h **** 
  24:/home/irfan/Desktop/arm/gcc-arm-none-eabi-10.3-2021.10-x86_64-linux/gcc-arm-none-eabi-10.3-2021.10/lib/gcc/arm-none-eabi/10.3.1/include/stddef.h **** /*
  25:/home/irfan/Desktop/arm/gcc-arm-none-eabi-10.3-2021.10-x86_64-linux/gcc-arm-none-eabi-10.3-2021.10/lib/gcc/arm-none-eabi/10.3.1/include/stddef.h ****  * ISO C Standard:  7.17  Common definitions  <stddef.h>
  26:/home/irfan/Desktop/arm/gcc-arm-none-eabi-10.3-2021.10-x86_64-linux/gcc-arm-none-eabi-10.3-2021.10/lib/gcc/arm-none-eabi/10.3.1/include/stddef.h ****  */
  27:/home/irfan/Desktop/arm/gcc-arm-none-eabi-10.3-2021.10-x86_64-linux/gcc-arm-none-eabi-10.3-2021.10/lib/gcc/arm-none-eabi/10.3.1/include/stddef.h **** #if (!defined(_STDDEF_H) && !defined(_STDDEF_H_) && !defined(_ANSI_STDDEF_H) \
  28:/home/irfan/Desktop/arm/gcc-arm-none-eabi-10.3-2021.10-x86_64-linux/gcc-arm-none-eabi-10.3-2021.10/lib/gcc/arm-none-eabi/10.3.1/include/stddef.h ****      && !defined(__STDDEF_H__)) \
  29:/home/irfan/Desktop/arm/gcc-arm-none-eabi-10.3-2021.10-x86_64-linux/gcc-arm-none-eabi-10.3-2021.10/lib/gcc/arm-none-eabi/10.3.1/include/stddef.h ****     || defined(__need_wchar_t) || defined(__need_size_t) \
  30:/home/irfan/Desktop/arm/gcc-arm-none-eabi-10.3-2021.10-x86_64-linux/gcc-arm-none-eabi-10.3-2021.10/lib/gcc/arm-none-eabi/10.3.1/include/stddef.h ****     || defined(__need_ptrdiff_t) || defined(__need_NULL) \
  31:/home/irfan/Desktop/arm/gcc-arm-none-eabi-10.3-2021.10-x86_64-linux/gcc-arm-none-eabi-10.3-2021.10/lib/gcc/arm-none-eabi/10.3.1/include/stddef.h ****     || defined(__need_wint_t)
  32:/home/irfan/Desktop/arm/gcc-arm-none-eabi-10.3-2021.10-x86_64-linux/gcc-arm-none-eabi-10.3-2021.10/lib/gcc/arm-none-eabi/10.3.1/include/stddef.h **** 
  33:/home/irfan/Desktop/arm/gcc-arm-none-eabi-10.3-2021.10-x86_64-linux/gcc-arm-none-eabi-10.3-2021.10/lib/gcc/arm-none-eabi/10.3.1/include/stddef.h **** /* Any one of these symbols __need_* means that GNU libc
  34:/home/irfan/Desktop/arm/gcc-arm-none-eabi-10.3-2021.10-x86_64-linux/gcc-arm-none-eabi-10.3-2021.10/lib/gcc/arm-none-eabi/10.3.1/include/stddef.h ****    wants us just to define one data type.  So don't define
  35:/home/irfan/Desktop/arm/gcc-arm-none-eabi-10.3-2021.10-x86_64-linux/gcc-arm-none-eabi-10.3-2021.10/lib/gcc/arm-none-eabi/10.3.1/include/stddef.h ****    the symbols that indicate this file's entire job has been done.  */
  36:/home/irfan/Desktop/arm/gcc-arm-none-eabi-10.3-2021.10-x86_64-linux/gcc-arm-none-eabi-10.3-2021.10/lib/gcc/arm-none-eabi/10.3.1/include/stddef.h **** #if (!defined(__need_wchar_t) && !defined(__need_size_t)	\
  37:/home/irfan/Desktop/arm/gcc-arm-none-eabi-10.3-2021.10-x86_64-linux/gcc-arm-none-eabi-10.3-2021.10/lib/gcc/arm-none-eabi/10.3.1/include/stddef.h ****      && !defined(__need_ptrdiff_t) && !defined(__need_NULL)	\
  38:/home/irfan/Desktop/arm/gcc-arm-none-eabi-10.3-2021.10-x86_64-linux/gcc-arm-none-eabi-10.3-2021.10/lib/gcc/arm-none-eabi/10.3.1/include/stddef.h ****      && !defined(__need_wint_t))
  39:/home/irfan/Desktop/arm/gcc-arm-none-eabi-10.3-2021.10-x86_64-linux/gcc-arm-none-eabi-10.3-2021.10/lib/gcc/arm-none-eabi/10.3.1/include/stddef.h **** #define _STDDEF_H
  40:/home/irfan/Desktop/arm/gcc-arm-none-eabi-10.3-2021.10-x86_64-linux/gcc-arm-none-eabi-10.3-2021.10/lib/gcc/arm-none-eabi/10.3.1/include/stddef.h **** #define _STDDEF_H_
  41:/home/irfan/Desktop/arm/gcc-arm-none-eabi-10.3-2021.10-x86_64-linux/gcc-arm-none-eabi-10.3-2021.10/lib/gcc/arm-none-eabi/10.3.1/include/stddef.h **** /* snaroff@next.com says the NeXT needs this.  */
  42:/home/irfan/Desktop/arm/gcc-arm-none-eabi-10.3-2021.10-x86_64-linux/gcc-arm-none-eabi-10.3-2021.10/lib/gcc/arm-none-eabi/10.3.1/include/stddef.h **** #define _ANSI_STDDEF_H
  43:/home/irfan/Desktop/arm/gcc-arm-none-eabi-10.3-2021.10-x86_64-linux/gcc-arm-none-eabi-10.3-2021.10/lib/gcc/arm-none-eabi/10.3.1/include/stddef.h **** #endif
  44:/home/irfan/Desktop/arm/gcc-arm-none-eabi-10.3-2021.10-x86_64-linux/gcc-arm-none-eabi-10.3-2021.10/lib/gcc/arm-none-eabi/10.3.1/include/stddef.h **** 
  45:/home/irfan/Desktop/arm/gcc-arm-none-eabi-10.3-2021.10-x86_64-linux/gcc-arm-none-eabi-10.3-2021.10/lib/gcc/arm-none-eabi/10.3.1/include/stddef.h **** #ifndef __sys_stdtypes_h
  46:/home/irfan/Desktop/arm/gcc-arm-none-eabi-10.3-2021.10-x86_64-linux/gcc-arm-none-eabi-10.3-2021.10/lib/gcc/arm-none-eabi/10.3.1/include/stddef.h **** /* This avoids lossage on SunOS but only if stdtypes.h comes first.
  47:/home/irfan/Desktop/arm/gcc-arm-none-eabi-10.3-2021.10-x86_64-linux/gcc-arm-none-eabi-10.3-2021.10/lib/gcc/arm-none-eabi/10.3.1/include/stddef.h ****    There's no way to win with the other order!  Sun lossage.  */
  48:/home/irfan/Desktop/arm/gcc-arm-none-eabi-10.3-2021.10-x86_64-linux/gcc-arm-none-eabi-10.3-2021.10/lib/gcc/arm-none-eabi/10.3.1/include/stddef.h **** 
  49:/home/irfan/Desktop/arm/gcc-arm-none-eabi-10.3-2021.10-x86_64-linux/gcc-arm-none-eabi-10.3-2021.10/lib/gcc/arm-none-eabi/10.3.1/include/stddef.h **** #if defined(__NetBSD__)
  50:/home/irfan/Desktop/arm/gcc-arm-none-eabi-10.3-2021.10-x86_64-linux/gcc-arm-none-eabi-10.3-2021.10/lib/gcc/arm-none-eabi/10.3.1/include/stddef.h **** #include <machine/ansi.h>
  51:/home/irfan/Desktop/arm/gcc-arm-none-eabi-10.3-2021.10-x86_64-linux/gcc-arm-none-eabi-10.3-2021.10/lib/gcc/arm-none-eabi/10.3.1/include/stddef.h **** #endif
  52:/home/irfan/Desktop/arm/gcc-arm-none-eabi-10.3-2021.10-x86_64-linux/gcc-arm-none-eabi-10.3-2021.10/lib/gcc/arm-none-eabi/10.3.1/include/stddef.h **** 
  53:/home/irfan/Desktop/arm/gcc-arm-none-eabi-10.3-2021.10-x86_64-linux/gcc-arm-none-eabi-10.3-2021.10/lib/gcc/arm-none-eabi/10.3.1/include/stddef.h **** #if defined (__FreeBSD__)
  54:/home/irfan/Desktop/arm/gcc-arm-none-eabi-10.3-2021.10-x86_64-linux/gcc-arm-none-eabi-10.3-2021.10/lib/gcc/arm-none-eabi/10.3.1/include/stddef.h **** #include <sys/_types.h>
  55:/home/irfan/Desktop/arm/gcc-arm-none-eabi-10.3-2021.10-x86_64-linux/gcc-arm-none-eabi-10.3-2021.10/lib/gcc/arm-none-eabi/10.3.1/include/stddef.h **** #endif
  56:/home/irfan/Desktop/arm/gcc-arm-none-eabi-10.3-2021.10-x86_64-linux/gcc-arm-none-eabi-10.3-2021.10/lib/gcc/arm-none-eabi/10.3.1/include/stddef.h **** 
  57:/home/irfan/Desktop/arm/gcc-arm-none-eabi-10.3-2021.10-x86_64-linux/gcc-arm-none-eabi-10.3-2021.10/lib/gcc/arm-none-eabi/10.3.1/include/stddef.h **** #if defined(__NetBSD__)
ARM GAS  /tmp/ccYgTI9f.s 			page 76


  58:/home/irfan/Desktop/arm/gcc-arm-none-eabi-10.3-2021.10-x86_64-linux/gcc-arm-none-eabi-10.3-2021.10/lib/gcc/arm-none-eabi/10.3.1/include/stddef.h **** #if !defined(_SIZE_T_) && !defined(_BSD_SIZE_T_)
  59:/home/irfan/Desktop/arm/gcc-arm-none-eabi-10.3-2021.10-x86_64-linux/gcc-arm-none-eabi-10.3-2021.10/lib/gcc/arm-none-eabi/10.3.1/include/stddef.h **** #define _SIZE_T
  60:/home/irfan/Desktop/arm/gcc-arm-none-eabi-10.3-2021.10-x86_64-linux/gcc-arm-none-eabi-10.3-2021.10/lib/gcc/arm-none-eabi/10.3.1/include/stddef.h **** #endif
  61:/home/irfan/Desktop/arm/gcc-arm-none-eabi-10.3-2021.10-x86_64-linux/gcc-arm-none-eabi-10.3-2021.10/lib/gcc/arm-none-eabi/10.3.1/include/stddef.h **** #if !defined(_PTRDIFF_T_) && !defined(_BSD_PTRDIFF_T_)
  62:/home/irfan/Desktop/arm/gcc-arm-none-eabi-10.3-2021.10-x86_64-linux/gcc-arm-none-eabi-10.3-2021.10/lib/gcc/arm-none-eabi/10.3.1/include/stddef.h **** #define _PTRDIFF_T
  63:/home/irfan/Desktop/arm/gcc-arm-none-eabi-10.3-2021.10-x86_64-linux/gcc-arm-none-eabi-10.3-2021.10/lib/gcc/arm-none-eabi/10.3.1/include/stddef.h **** #endif
  64:/home/irfan/Desktop/arm/gcc-arm-none-eabi-10.3-2021.10-x86_64-linux/gcc-arm-none-eabi-10.3-2021.10/lib/gcc/arm-none-eabi/10.3.1/include/stddef.h **** /* On BSD/386 1.1, at least, machine/ansi.h defines _BSD_WCHAR_T_
  65:/home/irfan/Desktop/arm/gcc-arm-none-eabi-10.3-2021.10-x86_64-linux/gcc-arm-none-eabi-10.3-2021.10/lib/gcc/arm-none-eabi/10.3.1/include/stddef.h ****    instead of _WCHAR_T_. */
  66:/home/irfan/Desktop/arm/gcc-arm-none-eabi-10.3-2021.10-x86_64-linux/gcc-arm-none-eabi-10.3-2021.10/lib/gcc/arm-none-eabi/10.3.1/include/stddef.h **** #if !defined(_WCHAR_T_) && !defined(_BSD_WCHAR_T_)
  67:/home/irfan/Desktop/arm/gcc-arm-none-eabi-10.3-2021.10-x86_64-linux/gcc-arm-none-eabi-10.3-2021.10/lib/gcc/arm-none-eabi/10.3.1/include/stddef.h **** #ifndef _BSD_WCHAR_T_
  68:/home/irfan/Desktop/arm/gcc-arm-none-eabi-10.3-2021.10-x86_64-linux/gcc-arm-none-eabi-10.3-2021.10/lib/gcc/arm-none-eabi/10.3.1/include/stddef.h **** #define _WCHAR_T
  69:/home/irfan/Desktop/arm/gcc-arm-none-eabi-10.3-2021.10-x86_64-linux/gcc-arm-none-eabi-10.3-2021.10/lib/gcc/arm-none-eabi/10.3.1/include/stddef.h **** #endif
  70:/home/irfan/Desktop/arm/gcc-arm-none-eabi-10.3-2021.10-x86_64-linux/gcc-arm-none-eabi-10.3-2021.10/lib/gcc/arm-none-eabi/10.3.1/include/stddef.h **** #endif
  71:/home/irfan/Desktop/arm/gcc-arm-none-eabi-10.3-2021.10-x86_64-linux/gcc-arm-none-eabi-10.3-2021.10/lib/gcc/arm-none-eabi/10.3.1/include/stddef.h **** /* Undef _FOO_T_ if we are supposed to define foo_t.  */
  72:/home/irfan/Desktop/arm/gcc-arm-none-eabi-10.3-2021.10-x86_64-linux/gcc-arm-none-eabi-10.3-2021.10/lib/gcc/arm-none-eabi/10.3.1/include/stddef.h **** #if defined (__need_ptrdiff_t) || defined (_STDDEF_H_)
  73:/home/irfan/Desktop/arm/gcc-arm-none-eabi-10.3-2021.10-x86_64-linux/gcc-arm-none-eabi-10.3-2021.10/lib/gcc/arm-none-eabi/10.3.1/include/stddef.h **** #undef _PTRDIFF_T_
  74:/home/irfan/Desktop/arm/gcc-arm-none-eabi-10.3-2021.10-x86_64-linux/gcc-arm-none-eabi-10.3-2021.10/lib/gcc/arm-none-eabi/10.3.1/include/stddef.h **** #undef _BSD_PTRDIFF_T_
  75:/home/irfan/Desktop/arm/gcc-arm-none-eabi-10.3-2021.10-x86_64-linux/gcc-arm-none-eabi-10.3-2021.10/lib/gcc/arm-none-eabi/10.3.1/include/stddef.h **** #endif
  76:/home/irfan/Desktop/arm/gcc-arm-none-eabi-10.3-2021.10-x86_64-linux/gcc-arm-none-eabi-10.3-2021.10/lib/gcc/arm-none-eabi/10.3.1/include/stddef.h **** #if defined (__need_size_t) || defined (_STDDEF_H_)
  77:/home/irfan/Desktop/arm/gcc-arm-none-eabi-10.3-2021.10-x86_64-linux/gcc-arm-none-eabi-10.3-2021.10/lib/gcc/arm-none-eabi/10.3.1/include/stddef.h **** #undef _SIZE_T_
  78:/home/irfan/Desktop/arm/gcc-arm-none-eabi-10.3-2021.10-x86_64-linux/gcc-arm-none-eabi-10.3-2021.10/lib/gcc/arm-none-eabi/10.3.1/include/stddef.h **** #undef _BSD_SIZE_T_
  79:/home/irfan/Desktop/arm/gcc-arm-none-eabi-10.3-2021.10-x86_64-linux/gcc-arm-none-eabi-10.3-2021.10/lib/gcc/arm-none-eabi/10.3.1/include/stddef.h **** #endif
  80:/home/irfan/Desktop/arm/gcc-arm-none-eabi-10.3-2021.10-x86_64-linux/gcc-arm-none-eabi-10.3-2021.10/lib/gcc/arm-none-eabi/10.3.1/include/stddef.h **** #if defined (__need_wchar_t) || defined (_STDDEF_H_)
  81:/home/irfan/Desktop/arm/gcc-arm-none-eabi-10.3-2021.10-x86_64-linux/gcc-arm-none-eabi-10.3-2021.10/lib/gcc/arm-none-eabi/10.3.1/include/stddef.h **** #undef _WCHAR_T_
  82:/home/irfan/Desktop/arm/gcc-arm-none-eabi-10.3-2021.10-x86_64-linux/gcc-arm-none-eabi-10.3-2021.10/lib/gcc/arm-none-eabi/10.3.1/include/stddef.h **** #undef _BSD_WCHAR_T_
  83:/home/irfan/Desktop/arm/gcc-arm-none-eabi-10.3-2021.10-x86_64-linux/gcc-arm-none-eabi-10.3-2021.10/lib/gcc/arm-none-eabi/10.3.1/include/stddef.h **** #endif
  84:/home/irfan/Desktop/arm/gcc-arm-none-eabi-10.3-2021.10-x86_64-linux/gcc-arm-none-eabi-10.3-2021.10/lib/gcc/arm-none-eabi/10.3.1/include/stddef.h **** #endif /* defined(__NetBSD__) */
  85:/home/irfan/Desktop/arm/gcc-arm-none-eabi-10.3-2021.10-x86_64-linux/gcc-arm-none-eabi-10.3-2021.10/lib/gcc/arm-none-eabi/10.3.1/include/stddef.h **** 
  86:/home/irfan/Desktop/arm/gcc-arm-none-eabi-10.3-2021.10-x86_64-linux/gcc-arm-none-eabi-10.3-2021.10/lib/gcc/arm-none-eabi/10.3.1/include/stddef.h **** /* Sequent's header files use _PTRDIFF_T_ in some conflicting way.
  87:/home/irfan/Desktop/arm/gcc-arm-none-eabi-10.3-2021.10-x86_64-linux/gcc-arm-none-eabi-10.3-2021.10/lib/gcc/arm-none-eabi/10.3.1/include/stddef.h ****    Just ignore it.  */
  88:/home/irfan/Desktop/arm/gcc-arm-none-eabi-10.3-2021.10-x86_64-linux/gcc-arm-none-eabi-10.3-2021.10/lib/gcc/arm-none-eabi/10.3.1/include/stddef.h **** #if defined (__sequent__) && defined (_PTRDIFF_T_)
  89:/home/irfan/Desktop/arm/gcc-arm-none-eabi-10.3-2021.10-x86_64-linux/gcc-arm-none-eabi-10.3-2021.10/lib/gcc/arm-none-eabi/10.3.1/include/stddef.h **** #undef _PTRDIFF_T_
  90:/home/irfan/Desktop/arm/gcc-arm-none-eabi-10.3-2021.10-x86_64-linux/gcc-arm-none-eabi-10.3-2021.10/lib/gcc/arm-none-eabi/10.3.1/include/stddef.h **** #endif
  91:/home/irfan/Desktop/arm/gcc-arm-none-eabi-10.3-2021.10-x86_64-linux/gcc-arm-none-eabi-10.3-2021.10/lib/gcc/arm-none-eabi/10.3.1/include/stddef.h **** 
  92:/home/irfan/Desktop/arm/gcc-arm-none-eabi-10.3-2021.10-x86_64-linux/gcc-arm-none-eabi-10.3-2021.10/lib/gcc/arm-none-eabi/10.3.1/include/stddef.h **** /* On VxWorks, <type/vxTypesBase.h> may have defined macros like
  93:/home/irfan/Desktop/arm/gcc-arm-none-eabi-10.3-2021.10-x86_64-linux/gcc-arm-none-eabi-10.3-2021.10/lib/gcc/arm-none-eabi/10.3.1/include/stddef.h ****    _TYPE_size_t which will typedef size_t.  fixincludes patched the
  94:/home/irfan/Desktop/arm/gcc-arm-none-eabi-10.3-2021.10-x86_64-linux/gcc-arm-none-eabi-10.3-2021.10/lib/gcc/arm-none-eabi/10.3.1/include/stddef.h ****    vxTypesBase.h so that this macro is only defined if _GCC_SIZE_T is
  95:/home/irfan/Desktop/arm/gcc-arm-none-eabi-10.3-2021.10-x86_64-linux/gcc-arm-none-eabi-10.3-2021.10/lib/gcc/arm-none-eabi/10.3.1/include/stddef.h ****    not defined, and so that defining this macro defines _GCC_SIZE_T.
  96:/home/irfan/Desktop/arm/gcc-arm-none-eabi-10.3-2021.10-x86_64-linux/gcc-arm-none-eabi-10.3-2021.10/lib/gcc/arm-none-eabi/10.3.1/include/stddef.h ****    If we find that the macros are still defined at this point, we must
  97:/home/irfan/Desktop/arm/gcc-arm-none-eabi-10.3-2021.10-x86_64-linux/gcc-arm-none-eabi-10.3-2021.10/lib/gcc/arm-none-eabi/10.3.1/include/stddef.h ****    invoke them so that the type is defined as expected.  */
  98:/home/irfan/Desktop/arm/gcc-arm-none-eabi-10.3-2021.10-x86_64-linux/gcc-arm-none-eabi-10.3-2021.10/lib/gcc/arm-none-eabi/10.3.1/include/stddef.h **** #if defined (_TYPE_ptrdiff_t) && (defined (__need_ptrdiff_t) || defined (_STDDEF_H_))
  99:/home/irfan/Desktop/arm/gcc-arm-none-eabi-10.3-2021.10-x86_64-linux/gcc-arm-none-eabi-10.3-2021.10/lib/gcc/arm-none-eabi/10.3.1/include/stddef.h **** _TYPE_ptrdiff_t;
 100:/home/irfan/Desktop/arm/gcc-arm-none-eabi-10.3-2021.10-x86_64-linux/gcc-arm-none-eabi-10.3-2021.10/lib/gcc/arm-none-eabi/10.3.1/include/stddef.h **** #undef _TYPE_ptrdiff_t
 101:/home/irfan/Desktop/arm/gcc-arm-none-eabi-10.3-2021.10-x86_64-linux/gcc-arm-none-eabi-10.3-2021.10/lib/gcc/arm-none-eabi/10.3.1/include/stddef.h **** #endif
 102:/home/irfan/Desktop/arm/gcc-arm-none-eabi-10.3-2021.10-x86_64-linux/gcc-arm-none-eabi-10.3-2021.10/lib/gcc/arm-none-eabi/10.3.1/include/stddef.h **** #if defined (_TYPE_size_t) && (defined (__need_size_t) || defined (_STDDEF_H_))
 103:/home/irfan/Desktop/arm/gcc-arm-none-eabi-10.3-2021.10-x86_64-linux/gcc-arm-none-eabi-10.3-2021.10/lib/gcc/arm-none-eabi/10.3.1/include/stddef.h **** _TYPE_size_t;
 104:/home/irfan/Desktop/arm/gcc-arm-none-eabi-10.3-2021.10-x86_64-linux/gcc-arm-none-eabi-10.3-2021.10/lib/gcc/arm-none-eabi/10.3.1/include/stddef.h **** #undef _TYPE_size_t
 105:/home/irfan/Desktop/arm/gcc-arm-none-eabi-10.3-2021.10-x86_64-linux/gcc-arm-none-eabi-10.3-2021.10/lib/gcc/arm-none-eabi/10.3.1/include/stddef.h **** #endif
 106:/home/irfan/Desktop/arm/gcc-arm-none-eabi-10.3-2021.10-x86_64-linux/gcc-arm-none-eabi-10.3-2021.10/lib/gcc/arm-none-eabi/10.3.1/include/stddef.h **** #if defined (_TYPE_wchar_t) && (defined (__need_wchar_t) || defined (_STDDEF_H_))
 107:/home/irfan/Desktop/arm/gcc-arm-none-eabi-10.3-2021.10-x86_64-linux/gcc-arm-none-eabi-10.3-2021.10/lib/gcc/arm-none-eabi/10.3.1/include/stddef.h **** _TYPE_wchar_t;
 108:/home/irfan/Desktop/arm/gcc-arm-none-eabi-10.3-2021.10-x86_64-linux/gcc-arm-none-eabi-10.3-2021.10/lib/gcc/arm-none-eabi/10.3.1/include/stddef.h **** #undef _TYPE_wchar_t
 109:/home/irfan/Desktop/arm/gcc-arm-none-eabi-10.3-2021.10-x86_64-linux/gcc-arm-none-eabi-10.3-2021.10/lib/gcc/arm-none-eabi/10.3.1/include/stddef.h **** #endif
 110:/home/irfan/Desktop/arm/gcc-arm-none-eabi-10.3-2021.10-x86_64-linux/gcc-arm-none-eabi-10.3-2021.10/lib/gcc/arm-none-eabi/10.3.1/include/stddef.h **** 
 111:/home/irfan/Desktop/arm/gcc-arm-none-eabi-10.3-2021.10-x86_64-linux/gcc-arm-none-eabi-10.3-2021.10/lib/gcc/arm-none-eabi/10.3.1/include/stddef.h **** /* In case nobody has defined these types, but we aren't running under
 112:/home/irfan/Desktop/arm/gcc-arm-none-eabi-10.3-2021.10-x86_64-linux/gcc-arm-none-eabi-10.3-2021.10/lib/gcc/arm-none-eabi/10.3.1/include/stddef.h ****    GCC 2.00, make sure that __PTRDIFF_TYPE__, __SIZE_TYPE__, and
 113:/home/irfan/Desktop/arm/gcc-arm-none-eabi-10.3-2021.10-x86_64-linux/gcc-arm-none-eabi-10.3-2021.10/lib/gcc/arm-none-eabi/10.3.1/include/stddef.h ****    __WCHAR_TYPE__ have reasonable values.  This can happen if the
 114:/home/irfan/Desktop/arm/gcc-arm-none-eabi-10.3-2021.10-x86_64-linux/gcc-arm-none-eabi-10.3-2021.10/lib/gcc/arm-none-eabi/10.3.1/include/stddef.h ****    parts of GCC is compiled by an older compiler, that actually
ARM GAS  /tmp/ccYgTI9f.s 			page 77


 115:/home/irfan/Desktop/arm/gcc-arm-none-eabi-10.3-2021.10-x86_64-linux/gcc-arm-none-eabi-10.3-2021.10/lib/gcc/arm-none-eabi/10.3.1/include/stddef.h ****    include gstddef.h, such as collect2.  */
 116:/home/irfan/Desktop/arm/gcc-arm-none-eabi-10.3-2021.10-x86_64-linux/gcc-arm-none-eabi-10.3-2021.10/lib/gcc/arm-none-eabi/10.3.1/include/stddef.h **** 
 117:/home/irfan/Desktop/arm/gcc-arm-none-eabi-10.3-2021.10-x86_64-linux/gcc-arm-none-eabi-10.3-2021.10/lib/gcc/arm-none-eabi/10.3.1/include/stddef.h **** /* Signed type of difference of two pointers.  */
 118:/home/irfan/Desktop/arm/gcc-arm-none-eabi-10.3-2021.10-x86_64-linux/gcc-arm-none-eabi-10.3-2021.10/lib/gcc/arm-none-eabi/10.3.1/include/stddef.h **** 
 119:/home/irfan/Desktop/arm/gcc-arm-none-eabi-10.3-2021.10-x86_64-linux/gcc-arm-none-eabi-10.3-2021.10/lib/gcc/arm-none-eabi/10.3.1/include/stddef.h **** /* Define this type if we are doing the whole job,
 120:/home/irfan/Desktop/arm/gcc-arm-none-eabi-10.3-2021.10-x86_64-linux/gcc-arm-none-eabi-10.3-2021.10/lib/gcc/arm-none-eabi/10.3.1/include/stddef.h ****    or if we want this type in particular.  */
 121:/home/irfan/Desktop/arm/gcc-arm-none-eabi-10.3-2021.10-x86_64-linux/gcc-arm-none-eabi-10.3-2021.10/lib/gcc/arm-none-eabi/10.3.1/include/stddef.h **** #if defined (_STDDEF_H) || defined (__need_ptrdiff_t)
 122:/home/irfan/Desktop/arm/gcc-arm-none-eabi-10.3-2021.10-x86_64-linux/gcc-arm-none-eabi-10.3-2021.10/lib/gcc/arm-none-eabi/10.3.1/include/stddef.h **** #ifndef _PTRDIFF_T	/* in case <sys/types.h> has defined it. */
 123:/home/irfan/Desktop/arm/gcc-arm-none-eabi-10.3-2021.10-x86_64-linux/gcc-arm-none-eabi-10.3-2021.10/lib/gcc/arm-none-eabi/10.3.1/include/stddef.h **** #ifndef _T_PTRDIFF_
 124:/home/irfan/Desktop/arm/gcc-arm-none-eabi-10.3-2021.10-x86_64-linux/gcc-arm-none-eabi-10.3-2021.10/lib/gcc/arm-none-eabi/10.3.1/include/stddef.h **** #ifndef _T_PTRDIFF
 125:/home/irfan/Desktop/arm/gcc-arm-none-eabi-10.3-2021.10-x86_64-linux/gcc-arm-none-eabi-10.3-2021.10/lib/gcc/arm-none-eabi/10.3.1/include/stddef.h **** #ifndef __PTRDIFF_T
 126:/home/irfan/Desktop/arm/gcc-arm-none-eabi-10.3-2021.10-x86_64-linux/gcc-arm-none-eabi-10.3-2021.10/lib/gcc/arm-none-eabi/10.3.1/include/stddef.h **** #ifndef _PTRDIFF_T_
 127:/home/irfan/Desktop/arm/gcc-arm-none-eabi-10.3-2021.10-x86_64-linux/gcc-arm-none-eabi-10.3-2021.10/lib/gcc/arm-none-eabi/10.3.1/include/stddef.h **** #ifndef _BSD_PTRDIFF_T_
 128:/home/irfan/Desktop/arm/gcc-arm-none-eabi-10.3-2021.10-x86_64-linux/gcc-arm-none-eabi-10.3-2021.10/lib/gcc/arm-none-eabi/10.3.1/include/stddef.h **** #ifndef ___int_ptrdiff_t_h
 129:/home/irfan/Desktop/arm/gcc-arm-none-eabi-10.3-2021.10-x86_64-linux/gcc-arm-none-eabi-10.3-2021.10/lib/gcc/arm-none-eabi/10.3.1/include/stddef.h **** #ifndef _GCC_PTRDIFF_T
 130:/home/irfan/Desktop/arm/gcc-arm-none-eabi-10.3-2021.10-x86_64-linux/gcc-arm-none-eabi-10.3-2021.10/lib/gcc/arm-none-eabi/10.3.1/include/stddef.h **** #ifndef _PTRDIFF_T_DECLARED /* DragonFly */
 131:/home/irfan/Desktop/arm/gcc-arm-none-eabi-10.3-2021.10-x86_64-linux/gcc-arm-none-eabi-10.3-2021.10/lib/gcc/arm-none-eabi/10.3.1/include/stddef.h **** #define _PTRDIFF_T
 132:/home/irfan/Desktop/arm/gcc-arm-none-eabi-10.3-2021.10-x86_64-linux/gcc-arm-none-eabi-10.3-2021.10/lib/gcc/arm-none-eabi/10.3.1/include/stddef.h **** #define _T_PTRDIFF_
 133:/home/irfan/Desktop/arm/gcc-arm-none-eabi-10.3-2021.10-x86_64-linux/gcc-arm-none-eabi-10.3-2021.10/lib/gcc/arm-none-eabi/10.3.1/include/stddef.h **** #define _T_PTRDIFF
 134:/home/irfan/Desktop/arm/gcc-arm-none-eabi-10.3-2021.10-x86_64-linux/gcc-arm-none-eabi-10.3-2021.10/lib/gcc/arm-none-eabi/10.3.1/include/stddef.h **** #define __PTRDIFF_T
 135:/home/irfan/Desktop/arm/gcc-arm-none-eabi-10.3-2021.10-x86_64-linux/gcc-arm-none-eabi-10.3-2021.10/lib/gcc/arm-none-eabi/10.3.1/include/stddef.h **** #define _PTRDIFF_T_
 136:/home/irfan/Desktop/arm/gcc-arm-none-eabi-10.3-2021.10-x86_64-linux/gcc-arm-none-eabi-10.3-2021.10/lib/gcc/arm-none-eabi/10.3.1/include/stddef.h **** #define _BSD_PTRDIFF_T_
 137:/home/irfan/Desktop/arm/gcc-arm-none-eabi-10.3-2021.10-x86_64-linux/gcc-arm-none-eabi-10.3-2021.10/lib/gcc/arm-none-eabi/10.3.1/include/stddef.h **** #define ___int_ptrdiff_t_h
 138:/home/irfan/Desktop/arm/gcc-arm-none-eabi-10.3-2021.10-x86_64-linux/gcc-arm-none-eabi-10.3-2021.10/lib/gcc/arm-none-eabi/10.3.1/include/stddef.h **** #define _GCC_PTRDIFF_T
 139:/home/irfan/Desktop/arm/gcc-arm-none-eabi-10.3-2021.10-x86_64-linux/gcc-arm-none-eabi-10.3-2021.10/lib/gcc/arm-none-eabi/10.3.1/include/stddef.h **** #define _PTRDIFF_T_DECLARED
 140:/home/irfan/Desktop/arm/gcc-arm-none-eabi-10.3-2021.10-x86_64-linux/gcc-arm-none-eabi-10.3-2021.10/lib/gcc/arm-none-eabi/10.3.1/include/stddef.h **** #ifndef __PTRDIFF_TYPE__
 141:/home/irfan/Desktop/arm/gcc-arm-none-eabi-10.3-2021.10-x86_64-linux/gcc-arm-none-eabi-10.3-2021.10/lib/gcc/arm-none-eabi/10.3.1/include/stddef.h **** #define __PTRDIFF_TYPE__ long int
 142:/home/irfan/Desktop/arm/gcc-arm-none-eabi-10.3-2021.10-x86_64-linux/gcc-arm-none-eabi-10.3-2021.10/lib/gcc/arm-none-eabi/10.3.1/include/stddef.h **** #endif
 143:/home/irfan/Desktop/arm/gcc-arm-none-eabi-10.3-2021.10-x86_64-linux/gcc-arm-none-eabi-10.3-2021.10/lib/gcc/arm-none-eabi/10.3.1/include/stddef.h **** typedef __PTRDIFF_TYPE__ ptrdiff_t;
 144:/home/irfan/Desktop/arm/gcc-arm-none-eabi-10.3-2021.10-x86_64-linux/gcc-arm-none-eabi-10.3-2021.10/lib/gcc/arm-none-eabi/10.3.1/include/stddef.h **** #endif /* _PTRDIFF_T_DECLARED */
 145:/home/irfan/Desktop/arm/gcc-arm-none-eabi-10.3-2021.10-x86_64-linux/gcc-arm-none-eabi-10.3-2021.10/lib/gcc/arm-none-eabi/10.3.1/include/stddef.h **** #endif /* _GCC_PTRDIFF_T */
 146:/home/irfan/Desktop/arm/gcc-arm-none-eabi-10.3-2021.10-x86_64-linux/gcc-arm-none-eabi-10.3-2021.10/lib/gcc/arm-none-eabi/10.3.1/include/stddef.h **** #endif /* ___int_ptrdiff_t_h */
 147:/home/irfan/Desktop/arm/gcc-arm-none-eabi-10.3-2021.10-x86_64-linux/gcc-arm-none-eabi-10.3-2021.10/lib/gcc/arm-none-eabi/10.3.1/include/stddef.h **** #endif /* _BSD_PTRDIFF_T_ */
 148:/home/irfan/Desktop/arm/gcc-arm-none-eabi-10.3-2021.10-x86_64-linux/gcc-arm-none-eabi-10.3-2021.10/lib/gcc/arm-none-eabi/10.3.1/include/stddef.h **** #endif /* _PTRDIFF_T_ */
 149:/home/irfan/Desktop/arm/gcc-arm-none-eabi-10.3-2021.10-x86_64-linux/gcc-arm-none-eabi-10.3-2021.10/lib/gcc/arm-none-eabi/10.3.1/include/stddef.h **** #endif /* __PTRDIFF_T */
 150:/home/irfan/Desktop/arm/gcc-arm-none-eabi-10.3-2021.10-x86_64-linux/gcc-arm-none-eabi-10.3-2021.10/lib/gcc/arm-none-eabi/10.3.1/include/stddef.h **** #endif /* _T_PTRDIFF */
 151:/home/irfan/Desktop/arm/gcc-arm-none-eabi-10.3-2021.10-x86_64-linux/gcc-arm-none-eabi-10.3-2021.10/lib/gcc/arm-none-eabi/10.3.1/include/stddef.h **** #endif /* _T_PTRDIFF_ */
 152:/home/irfan/Desktop/arm/gcc-arm-none-eabi-10.3-2021.10-x86_64-linux/gcc-arm-none-eabi-10.3-2021.10/lib/gcc/arm-none-eabi/10.3.1/include/stddef.h **** #endif /* _PTRDIFF_T */
 153:/home/irfan/Desktop/arm/gcc-arm-none-eabi-10.3-2021.10-x86_64-linux/gcc-arm-none-eabi-10.3-2021.10/lib/gcc/arm-none-eabi/10.3.1/include/stddef.h **** 
 154:/home/irfan/Desktop/arm/gcc-arm-none-eabi-10.3-2021.10-x86_64-linux/gcc-arm-none-eabi-10.3-2021.10/lib/gcc/arm-none-eabi/10.3.1/include/stddef.h **** /* If this symbol has done its job, get rid of it.  */
 155:/home/irfan/Desktop/arm/gcc-arm-none-eabi-10.3-2021.10-x86_64-linux/gcc-arm-none-eabi-10.3-2021.10/lib/gcc/arm-none-eabi/10.3.1/include/stddef.h **** #undef	__need_ptrdiff_t
 156:/home/irfan/Desktop/arm/gcc-arm-none-eabi-10.3-2021.10-x86_64-linux/gcc-arm-none-eabi-10.3-2021.10/lib/gcc/arm-none-eabi/10.3.1/include/stddef.h **** 
 157:/home/irfan/Desktop/arm/gcc-arm-none-eabi-10.3-2021.10-x86_64-linux/gcc-arm-none-eabi-10.3-2021.10/lib/gcc/arm-none-eabi/10.3.1/include/stddef.h **** #endif /* _STDDEF_H or __need_ptrdiff_t.  */
 158:/home/irfan/Desktop/arm/gcc-arm-none-eabi-10.3-2021.10-x86_64-linux/gcc-arm-none-eabi-10.3-2021.10/lib/gcc/arm-none-eabi/10.3.1/include/stddef.h **** 
 159:/home/irfan/Desktop/arm/gcc-arm-none-eabi-10.3-2021.10-x86_64-linux/gcc-arm-none-eabi-10.3-2021.10/lib/gcc/arm-none-eabi/10.3.1/include/stddef.h **** /* Unsigned type of `sizeof' something.  */
 160:/home/irfan/Desktop/arm/gcc-arm-none-eabi-10.3-2021.10-x86_64-linux/gcc-arm-none-eabi-10.3-2021.10/lib/gcc/arm-none-eabi/10.3.1/include/stddef.h **** 
 161:/home/irfan/Desktop/arm/gcc-arm-none-eabi-10.3-2021.10-x86_64-linux/gcc-arm-none-eabi-10.3-2021.10/lib/gcc/arm-none-eabi/10.3.1/include/stddef.h **** /* Define this type if we are doing the whole job,
 162:/home/irfan/Desktop/arm/gcc-arm-none-eabi-10.3-2021.10-x86_64-linux/gcc-arm-none-eabi-10.3-2021.10/lib/gcc/arm-none-eabi/10.3.1/include/stddef.h ****    or if we want this type in particular.  */
 163:/home/irfan/Desktop/arm/gcc-arm-none-eabi-10.3-2021.10-x86_64-linux/gcc-arm-none-eabi-10.3-2021.10/lib/gcc/arm-none-eabi/10.3.1/include/stddef.h **** #if defined (_STDDEF_H) || defined (__need_size_t)
 164:/home/irfan/Desktop/arm/gcc-arm-none-eabi-10.3-2021.10-x86_64-linux/gcc-arm-none-eabi-10.3-2021.10/lib/gcc/arm-none-eabi/10.3.1/include/stddef.h **** #ifndef __size_t__	/* BeOS */
 165:/home/irfan/Desktop/arm/gcc-arm-none-eabi-10.3-2021.10-x86_64-linux/gcc-arm-none-eabi-10.3-2021.10/lib/gcc/arm-none-eabi/10.3.1/include/stddef.h **** #ifndef __SIZE_T__	/* Cray Unicos/Mk */
 166:/home/irfan/Desktop/arm/gcc-arm-none-eabi-10.3-2021.10-x86_64-linux/gcc-arm-none-eabi-10.3-2021.10/lib/gcc/arm-none-eabi/10.3.1/include/stddef.h **** #ifndef _SIZE_T	/* in case <sys/types.h> has defined it. */
 167:/home/irfan/Desktop/arm/gcc-arm-none-eabi-10.3-2021.10-x86_64-linux/gcc-arm-none-eabi-10.3-2021.10/lib/gcc/arm-none-eabi/10.3.1/include/stddef.h **** #ifndef _SYS_SIZE_T_H
 168:/home/irfan/Desktop/arm/gcc-arm-none-eabi-10.3-2021.10-x86_64-linux/gcc-arm-none-eabi-10.3-2021.10/lib/gcc/arm-none-eabi/10.3.1/include/stddef.h **** #ifndef _T_SIZE_
 169:/home/irfan/Desktop/arm/gcc-arm-none-eabi-10.3-2021.10-x86_64-linux/gcc-arm-none-eabi-10.3-2021.10/lib/gcc/arm-none-eabi/10.3.1/include/stddef.h **** #ifndef _T_SIZE
 170:/home/irfan/Desktop/arm/gcc-arm-none-eabi-10.3-2021.10-x86_64-linux/gcc-arm-none-eabi-10.3-2021.10/lib/gcc/arm-none-eabi/10.3.1/include/stddef.h **** #ifndef __SIZE_T
 171:/home/irfan/Desktop/arm/gcc-arm-none-eabi-10.3-2021.10-x86_64-linux/gcc-arm-none-eabi-10.3-2021.10/lib/gcc/arm-none-eabi/10.3.1/include/stddef.h **** #ifndef _SIZE_T_
ARM GAS  /tmp/ccYgTI9f.s 			page 78


 172:/home/irfan/Desktop/arm/gcc-arm-none-eabi-10.3-2021.10-x86_64-linux/gcc-arm-none-eabi-10.3-2021.10/lib/gcc/arm-none-eabi/10.3.1/include/stddef.h **** #ifndef _BSD_SIZE_T_
 173:/home/irfan/Desktop/arm/gcc-arm-none-eabi-10.3-2021.10-x86_64-linux/gcc-arm-none-eabi-10.3-2021.10/lib/gcc/arm-none-eabi/10.3.1/include/stddef.h **** #ifndef _SIZE_T_DEFINED_
 174:/home/irfan/Desktop/arm/gcc-arm-none-eabi-10.3-2021.10-x86_64-linux/gcc-arm-none-eabi-10.3-2021.10/lib/gcc/arm-none-eabi/10.3.1/include/stddef.h **** #ifndef _SIZE_T_DEFINED
 175:/home/irfan/Desktop/arm/gcc-arm-none-eabi-10.3-2021.10-x86_64-linux/gcc-arm-none-eabi-10.3-2021.10/lib/gcc/arm-none-eabi/10.3.1/include/stddef.h **** #ifndef _BSD_SIZE_T_DEFINED_	/* Darwin */
 176:/home/irfan/Desktop/arm/gcc-arm-none-eabi-10.3-2021.10-x86_64-linux/gcc-arm-none-eabi-10.3-2021.10/lib/gcc/arm-none-eabi/10.3.1/include/stddef.h **** #ifndef _SIZE_T_DECLARED	/* FreeBSD 5 */
 177:/home/irfan/Desktop/arm/gcc-arm-none-eabi-10.3-2021.10-x86_64-linux/gcc-arm-none-eabi-10.3-2021.10/lib/gcc/arm-none-eabi/10.3.1/include/stddef.h **** #ifndef ___int_size_t_h
 178:/home/irfan/Desktop/arm/gcc-arm-none-eabi-10.3-2021.10-x86_64-linux/gcc-arm-none-eabi-10.3-2021.10/lib/gcc/arm-none-eabi/10.3.1/include/stddef.h **** #ifndef _GCC_SIZE_T
 179:/home/irfan/Desktop/arm/gcc-arm-none-eabi-10.3-2021.10-x86_64-linux/gcc-arm-none-eabi-10.3-2021.10/lib/gcc/arm-none-eabi/10.3.1/include/stddef.h **** #ifndef _SIZET_
 180:/home/irfan/Desktop/arm/gcc-arm-none-eabi-10.3-2021.10-x86_64-linux/gcc-arm-none-eabi-10.3-2021.10/lib/gcc/arm-none-eabi/10.3.1/include/stddef.h **** #ifndef __size_t
 181:/home/irfan/Desktop/arm/gcc-arm-none-eabi-10.3-2021.10-x86_64-linux/gcc-arm-none-eabi-10.3-2021.10/lib/gcc/arm-none-eabi/10.3.1/include/stddef.h **** #define __size_t__	/* BeOS */
 182:/home/irfan/Desktop/arm/gcc-arm-none-eabi-10.3-2021.10-x86_64-linux/gcc-arm-none-eabi-10.3-2021.10/lib/gcc/arm-none-eabi/10.3.1/include/stddef.h **** #define __SIZE_T__	/* Cray Unicos/Mk */
 183:/home/irfan/Desktop/arm/gcc-arm-none-eabi-10.3-2021.10-x86_64-linux/gcc-arm-none-eabi-10.3-2021.10/lib/gcc/arm-none-eabi/10.3.1/include/stddef.h **** #define _SIZE_T
 184:/home/irfan/Desktop/arm/gcc-arm-none-eabi-10.3-2021.10-x86_64-linux/gcc-arm-none-eabi-10.3-2021.10/lib/gcc/arm-none-eabi/10.3.1/include/stddef.h **** #define _SYS_SIZE_T_H
 185:/home/irfan/Desktop/arm/gcc-arm-none-eabi-10.3-2021.10-x86_64-linux/gcc-arm-none-eabi-10.3-2021.10/lib/gcc/arm-none-eabi/10.3.1/include/stddef.h **** #define _T_SIZE_
 186:/home/irfan/Desktop/arm/gcc-arm-none-eabi-10.3-2021.10-x86_64-linux/gcc-arm-none-eabi-10.3-2021.10/lib/gcc/arm-none-eabi/10.3.1/include/stddef.h **** #define _T_SIZE
 187:/home/irfan/Desktop/arm/gcc-arm-none-eabi-10.3-2021.10-x86_64-linux/gcc-arm-none-eabi-10.3-2021.10/lib/gcc/arm-none-eabi/10.3.1/include/stddef.h **** #define __SIZE_T
 188:/home/irfan/Desktop/arm/gcc-arm-none-eabi-10.3-2021.10-x86_64-linux/gcc-arm-none-eabi-10.3-2021.10/lib/gcc/arm-none-eabi/10.3.1/include/stddef.h **** #define _SIZE_T_
 189:/home/irfan/Desktop/arm/gcc-arm-none-eabi-10.3-2021.10-x86_64-linux/gcc-arm-none-eabi-10.3-2021.10/lib/gcc/arm-none-eabi/10.3.1/include/stddef.h **** #define _BSD_SIZE_T_
 190:/home/irfan/Desktop/arm/gcc-arm-none-eabi-10.3-2021.10-x86_64-linux/gcc-arm-none-eabi-10.3-2021.10/lib/gcc/arm-none-eabi/10.3.1/include/stddef.h **** #define _SIZE_T_DEFINED_
 191:/home/irfan/Desktop/arm/gcc-arm-none-eabi-10.3-2021.10-x86_64-linux/gcc-arm-none-eabi-10.3-2021.10/lib/gcc/arm-none-eabi/10.3.1/include/stddef.h **** #define _SIZE_T_DEFINED
 192:/home/irfan/Desktop/arm/gcc-arm-none-eabi-10.3-2021.10-x86_64-linux/gcc-arm-none-eabi-10.3-2021.10/lib/gcc/arm-none-eabi/10.3.1/include/stddef.h **** #define _BSD_SIZE_T_DEFINED_	/* Darwin */
 193:/home/irfan/Desktop/arm/gcc-arm-none-eabi-10.3-2021.10-x86_64-linux/gcc-arm-none-eabi-10.3-2021.10/lib/gcc/arm-none-eabi/10.3.1/include/stddef.h **** #define _SIZE_T_DECLARED	/* FreeBSD 5 */
 194:/home/irfan/Desktop/arm/gcc-arm-none-eabi-10.3-2021.10-x86_64-linux/gcc-arm-none-eabi-10.3-2021.10/lib/gcc/arm-none-eabi/10.3.1/include/stddef.h **** #define ___int_size_t_h
 195:/home/irfan/Desktop/arm/gcc-arm-none-eabi-10.3-2021.10-x86_64-linux/gcc-arm-none-eabi-10.3-2021.10/lib/gcc/arm-none-eabi/10.3.1/include/stddef.h **** #define _GCC_SIZE_T
 196:/home/irfan/Desktop/arm/gcc-arm-none-eabi-10.3-2021.10-x86_64-linux/gcc-arm-none-eabi-10.3-2021.10/lib/gcc/arm-none-eabi/10.3.1/include/stddef.h **** #define _SIZET_
 197:/home/irfan/Desktop/arm/gcc-arm-none-eabi-10.3-2021.10-x86_64-linux/gcc-arm-none-eabi-10.3-2021.10/lib/gcc/arm-none-eabi/10.3.1/include/stddef.h **** #if defined (__FreeBSD__) \
 198:/home/irfan/Desktop/arm/gcc-arm-none-eabi-10.3-2021.10-x86_64-linux/gcc-arm-none-eabi-10.3-2021.10/lib/gcc/arm-none-eabi/10.3.1/include/stddef.h ****   || defined(__DragonFly__) \
 199:/home/irfan/Desktop/arm/gcc-arm-none-eabi-10.3-2021.10-x86_64-linux/gcc-arm-none-eabi-10.3-2021.10/lib/gcc/arm-none-eabi/10.3.1/include/stddef.h ****   || defined(__FreeBSD_kernel__) \
 200:/home/irfan/Desktop/arm/gcc-arm-none-eabi-10.3-2021.10-x86_64-linux/gcc-arm-none-eabi-10.3-2021.10/lib/gcc/arm-none-eabi/10.3.1/include/stddef.h ****   || defined(__VMS__)
 201:/home/irfan/Desktop/arm/gcc-arm-none-eabi-10.3-2021.10-x86_64-linux/gcc-arm-none-eabi-10.3-2021.10/lib/gcc/arm-none-eabi/10.3.1/include/stddef.h **** /* __size_t is a typedef, must not trash it.  */
 202:/home/irfan/Desktop/arm/gcc-arm-none-eabi-10.3-2021.10-x86_64-linux/gcc-arm-none-eabi-10.3-2021.10/lib/gcc/arm-none-eabi/10.3.1/include/stddef.h **** #else
 203:/home/irfan/Desktop/arm/gcc-arm-none-eabi-10.3-2021.10-x86_64-linux/gcc-arm-none-eabi-10.3-2021.10/lib/gcc/arm-none-eabi/10.3.1/include/stddef.h **** #define __size_t
 204:/home/irfan/Desktop/arm/gcc-arm-none-eabi-10.3-2021.10-x86_64-linux/gcc-arm-none-eabi-10.3-2021.10/lib/gcc/arm-none-eabi/10.3.1/include/stddef.h **** #endif
 205:/home/irfan/Desktop/arm/gcc-arm-none-eabi-10.3-2021.10-x86_64-linux/gcc-arm-none-eabi-10.3-2021.10/lib/gcc/arm-none-eabi/10.3.1/include/stddef.h **** #ifndef __SIZE_TYPE__
 206:/home/irfan/Desktop/arm/gcc-arm-none-eabi-10.3-2021.10-x86_64-linux/gcc-arm-none-eabi-10.3-2021.10/lib/gcc/arm-none-eabi/10.3.1/include/stddef.h **** #define __SIZE_TYPE__ long unsigned int
 207:/home/irfan/Desktop/arm/gcc-arm-none-eabi-10.3-2021.10-x86_64-linux/gcc-arm-none-eabi-10.3-2021.10/lib/gcc/arm-none-eabi/10.3.1/include/stddef.h **** #endif
 208:/home/irfan/Desktop/arm/gcc-arm-none-eabi-10.3-2021.10-x86_64-linux/gcc-arm-none-eabi-10.3-2021.10/lib/gcc/arm-none-eabi/10.3.1/include/stddef.h **** #if !(defined (__GNUG__) && defined (size_t))
 209:/home/irfan/Desktop/arm/gcc-arm-none-eabi-10.3-2021.10-x86_64-linux/gcc-arm-none-eabi-10.3-2021.10/lib/gcc/arm-none-eabi/10.3.1/include/stddef.h **** typedef __SIZE_TYPE__ size_t;
 210:/home/irfan/Desktop/arm/gcc-arm-none-eabi-10.3-2021.10-x86_64-linux/gcc-arm-none-eabi-10.3-2021.10/lib/gcc/arm-none-eabi/10.3.1/include/stddef.h **** #ifdef __BEOS__
 211:/home/irfan/Desktop/arm/gcc-arm-none-eabi-10.3-2021.10-x86_64-linux/gcc-arm-none-eabi-10.3-2021.10/lib/gcc/arm-none-eabi/10.3.1/include/stddef.h **** typedef long ssize_t;
 212:/home/irfan/Desktop/arm/gcc-arm-none-eabi-10.3-2021.10-x86_64-linux/gcc-arm-none-eabi-10.3-2021.10/lib/gcc/arm-none-eabi/10.3.1/include/stddef.h **** #endif /* __BEOS__ */
 213:/home/irfan/Desktop/arm/gcc-arm-none-eabi-10.3-2021.10-x86_64-linux/gcc-arm-none-eabi-10.3-2021.10/lib/gcc/arm-none-eabi/10.3.1/include/stddef.h **** #endif /* !(defined (__GNUG__) && defined (size_t)) */
 214:/home/irfan/Desktop/arm/gcc-arm-none-eabi-10.3-2021.10-x86_64-linux/gcc-arm-none-eabi-10.3-2021.10/lib/gcc/arm-none-eabi/10.3.1/include/stddef.h **** #endif /* __size_t */
 215:/home/irfan/Desktop/arm/gcc-arm-none-eabi-10.3-2021.10-x86_64-linux/gcc-arm-none-eabi-10.3-2021.10/lib/gcc/arm-none-eabi/10.3.1/include/stddef.h **** #endif /* _SIZET_ */
 216:/home/irfan/Desktop/arm/gcc-arm-none-eabi-10.3-2021.10-x86_64-linux/gcc-arm-none-eabi-10.3-2021.10/lib/gcc/arm-none-eabi/10.3.1/include/stddef.h **** #endif /* _GCC_SIZE_T */
 217:/home/irfan/Desktop/arm/gcc-arm-none-eabi-10.3-2021.10-x86_64-linux/gcc-arm-none-eabi-10.3-2021.10/lib/gcc/arm-none-eabi/10.3.1/include/stddef.h **** #endif /* ___int_size_t_h */
 218:/home/irfan/Desktop/arm/gcc-arm-none-eabi-10.3-2021.10-x86_64-linux/gcc-arm-none-eabi-10.3-2021.10/lib/gcc/arm-none-eabi/10.3.1/include/stddef.h **** #endif /* _SIZE_T_DECLARED */
 219:/home/irfan/Desktop/arm/gcc-arm-none-eabi-10.3-2021.10-x86_64-linux/gcc-arm-none-eabi-10.3-2021.10/lib/gcc/arm-none-eabi/10.3.1/include/stddef.h **** #endif /* _BSD_SIZE_T_DEFINED_ */
 220:/home/irfan/Desktop/arm/gcc-arm-none-eabi-10.3-2021.10-x86_64-linux/gcc-arm-none-eabi-10.3-2021.10/lib/gcc/arm-none-eabi/10.3.1/include/stddef.h **** #endif /* _SIZE_T_DEFINED */
 221:/home/irfan/Desktop/arm/gcc-arm-none-eabi-10.3-2021.10-x86_64-linux/gcc-arm-none-eabi-10.3-2021.10/lib/gcc/arm-none-eabi/10.3.1/include/stddef.h **** #endif /* _SIZE_T_DEFINED_ */
 222:/home/irfan/Desktop/arm/gcc-arm-none-eabi-10.3-2021.10-x86_64-linux/gcc-arm-none-eabi-10.3-2021.10/lib/gcc/arm-none-eabi/10.3.1/include/stddef.h **** #endif /* _BSD_SIZE_T_ */
 223:/home/irfan/Desktop/arm/gcc-arm-none-eabi-10.3-2021.10-x86_64-linux/gcc-arm-none-eabi-10.3-2021.10/lib/gcc/arm-none-eabi/10.3.1/include/stddef.h **** #endif /* _SIZE_T_ */
 224:/home/irfan/Desktop/arm/gcc-arm-none-eabi-10.3-2021.10-x86_64-linux/gcc-arm-none-eabi-10.3-2021.10/lib/gcc/arm-none-eabi/10.3.1/include/stddef.h **** #endif /* __SIZE_T */
 225:/home/irfan/Desktop/arm/gcc-arm-none-eabi-10.3-2021.10-x86_64-linux/gcc-arm-none-eabi-10.3-2021.10/lib/gcc/arm-none-eabi/10.3.1/include/stddef.h **** #endif /* _T_SIZE */
 226:/home/irfan/Desktop/arm/gcc-arm-none-eabi-10.3-2021.10-x86_64-linux/gcc-arm-none-eabi-10.3-2021.10/lib/gcc/arm-none-eabi/10.3.1/include/stddef.h **** #endif /* _T_SIZE_ */
 227:/home/irfan/Desktop/arm/gcc-arm-none-eabi-10.3-2021.10-x86_64-linux/gcc-arm-none-eabi-10.3-2021.10/lib/gcc/arm-none-eabi/10.3.1/include/stddef.h **** #endif /* _SYS_SIZE_T_H */
 228:/home/irfan/Desktop/arm/gcc-arm-none-eabi-10.3-2021.10-x86_64-linux/gcc-arm-none-eabi-10.3-2021.10/lib/gcc/arm-none-eabi/10.3.1/include/stddef.h **** #endif /* _SIZE_T */
ARM GAS  /tmp/ccYgTI9f.s 			page 79


 229:/home/irfan/Desktop/arm/gcc-arm-none-eabi-10.3-2021.10-x86_64-linux/gcc-arm-none-eabi-10.3-2021.10/lib/gcc/arm-none-eabi/10.3.1/include/stddef.h **** #endif /* __SIZE_T__ */
 230:/home/irfan/Desktop/arm/gcc-arm-none-eabi-10.3-2021.10-x86_64-linux/gcc-arm-none-eabi-10.3-2021.10/lib/gcc/arm-none-eabi/10.3.1/include/stddef.h **** #endif /* __size_t__ */
 231:/home/irfan/Desktop/arm/gcc-arm-none-eabi-10.3-2021.10-x86_64-linux/gcc-arm-none-eabi-10.3-2021.10/lib/gcc/arm-none-eabi/10.3.1/include/stddef.h **** #undef	__need_size_t
 232:/home/irfan/Desktop/arm/gcc-arm-none-eabi-10.3-2021.10-x86_64-linux/gcc-arm-none-eabi-10.3-2021.10/lib/gcc/arm-none-eabi/10.3.1/include/stddef.h **** #endif /* _STDDEF_H or __need_size_t.  */
 233:/home/irfan/Desktop/arm/gcc-arm-none-eabi-10.3-2021.10-x86_64-linux/gcc-arm-none-eabi-10.3-2021.10/lib/gcc/arm-none-eabi/10.3.1/include/stddef.h **** 
 234:/home/irfan/Desktop/arm/gcc-arm-none-eabi-10.3-2021.10-x86_64-linux/gcc-arm-none-eabi-10.3-2021.10/lib/gcc/arm-none-eabi/10.3.1/include/stddef.h **** 
 235:/home/irfan/Desktop/arm/gcc-arm-none-eabi-10.3-2021.10-x86_64-linux/gcc-arm-none-eabi-10.3-2021.10/lib/gcc/arm-none-eabi/10.3.1/include/stddef.h **** /* Wide character type.
 236:/home/irfan/Desktop/arm/gcc-arm-none-eabi-10.3-2021.10-x86_64-linux/gcc-arm-none-eabi-10.3-2021.10/lib/gcc/arm-none-eabi/10.3.1/include/stddef.h ****    Locale-writers should change this as necessary to
 237:/home/irfan/Desktop/arm/gcc-arm-none-eabi-10.3-2021.10-x86_64-linux/gcc-arm-none-eabi-10.3-2021.10/lib/gcc/arm-none-eabi/10.3.1/include/stddef.h ****    be big enough to hold unique values not between 0 and 127,
 238:/home/irfan/Desktop/arm/gcc-arm-none-eabi-10.3-2021.10-x86_64-linux/gcc-arm-none-eabi-10.3-2021.10/lib/gcc/arm-none-eabi/10.3.1/include/stddef.h ****    and not (wchar_t) -1, for each defined multibyte character.  */
 239:/home/irfan/Desktop/arm/gcc-arm-none-eabi-10.3-2021.10-x86_64-linux/gcc-arm-none-eabi-10.3-2021.10/lib/gcc/arm-none-eabi/10.3.1/include/stddef.h **** 
 240:/home/irfan/Desktop/arm/gcc-arm-none-eabi-10.3-2021.10-x86_64-linux/gcc-arm-none-eabi-10.3-2021.10/lib/gcc/arm-none-eabi/10.3.1/include/stddef.h **** /* Define this type if we are doing the whole job,
 241:/home/irfan/Desktop/arm/gcc-arm-none-eabi-10.3-2021.10-x86_64-linux/gcc-arm-none-eabi-10.3-2021.10/lib/gcc/arm-none-eabi/10.3.1/include/stddef.h ****    or if we want this type in particular.  */
 242:/home/irfan/Desktop/arm/gcc-arm-none-eabi-10.3-2021.10-x86_64-linux/gcc-arm-none-eabi-10.3-2021.10/lib/gcc/arm-none-eabi/10.3.1/include/stddef.h **** #if defined (_STDDEF_H) || defined (__need_wchar_t)
 243:/home/irfan/Desktop/arm/gcc-arm-none-eabi-10.3-2021.10-x86_64-linux/gcc-arm-none-eabi-10.3-2021.10/lib/gcc/arm-none-eabi/10.3.1/include/stddef.h **** #ifndef __wchar_t__	/* BeOS */
 244:/home/irfan/Desktop/arm/gcc-arm-none-eabi-10.3-2021.10-x86_64-linux/gcc-arm-none-eabi-10.3-2021.10/lib/gcc/arm-none-eabi/10.3.1/include/stddef.h **** #ifndef __WCHAR_T__	/* Cray Unicos/Mk */
 245:/home/irfan/Desktop/arm/gcc-arm-none-eabi-10.3-2021.10-x86_64-linux/gcc-arm-none-eabi-10.3-2021.10/lib/gcc/arm-none-eabi/10.3.1/include/stddef.h **** #ifndef _WCHAR_T
 246:/home/irfan/Desktop/arm/gcc-arm-none-eabi-10.3-2021.10-x86_64-linux/gcc-arm-none-eabi-10.3-2021.10/lib/gcc/arm-none-eabi/10.3.1/include/stddef.h **** #ifndef _T_WCHAR_
 247:/home/irfan/Desktop/arm/gcc-arm-none-eabi-10.3-2021.10-x86_64-linux/gcc-arm-none-eabi-10.3-2021.10/lib/gcc/arm-none-eabi/10.3.1/include/stddef.h **** #ifndef _T_WCHAR
 248:/home/irfan/Desktop/arm/gcc-arm-none-eabi-10.3-2021.10-x86_64-linux/gcc-arm-none-eabi-10.3-2021.10/lib/gcc/arm-none-eabi/10.3.1/include/stddef.h **** #ifndef __WCHAR_T
 249:/home/irfan/Desktop/arm/gcc-arm-none-eabi-10.3-2021.10-x86_64-linux/gcc-arm-none-eabi-10.3-2021.10/lib/gcc/arm-none-eabi/10.3.1/include/stddef.h **** #ifndef _WCHAR_T_
 250:/home/irfan/Desktop/arm/gcc-arm-none-eabi-10.3-2021.10-x86_64-linux/gcc-arm-none-eabi-10.3-2021.10/lib/gcc/arm-none-eabi/10.3.1/include/stddef.h **** #ifndef _BSD_WCHAR_T_
 251:/home/irfan/Desktop/arm/gcc-arm-none-eabi-10.3-2021.10-x86_64-linux/gcc-arm-none-eabi-10.3-2021.10/lib/gcc/arm-none-eabi/10.3.1/include/stddef.h **** #ifndef _BSD_WCHAR_T_DEFINED_    /* Darwin */
 252:/home/irfan/Desktop/arm/gcc-arm-none-eabi-10.3-2021.10-x86_64-linux/gcc-arm-none-eabi-10.3-2021.10/lib/gcc/arm-none-eabi/10.3.1/include/stddef.h **** #ifndef _BSD_RUNE_T_DEFINED_	/* Darwin */
 253:/home/irfan/Desktop/arm/gcc-arm-none-eabi-10.3-2021.10-x86_64-linux/gcc-arm-none-eabi-10.3-2021.10/lib/gcc/arm-none-eabi/10.3.1/include/stddef.h **** #ifndef _WCHAR_T_DECLARED /* FreeBSD 5 */
 254:/home/irfan/Desktop/arm/gcc-arm-none-eabi-10.3-2021.10-x86_64-linux/gcc-arm-none-eabi-10.3-2021.10/lib/gcc/arm-none-eabi/10.3.1/include/stddef.h **** #ifndef _WCHAR_T_DEFINED_
 255:/home/irfan/Desktop/arm/gcc-arm-none-eabi-10.3-2021.10-x86_64-linux/gcc-arm-none-eabi-10.3-2021.10/lib/gcc/arm-none-eabi/10.3.1/include/stddef.h **** #ifndef _WCHAR_T_DEFINED
 256:/home/irfan/Desktop/arm/gcc-arm-none-eabi-10.3-2021.10-x86_64-linux/gcc-arm-none-eabi-10.3-2021.10/lib/gcc/arm-none-eabi/10.3.1/include/stddef.h **** #ifndef _WCHAR_T_H
 257:/home/irfan/Desktop/arm/gcc-arm-none-eabi-10.3-2021.10-x86_64-linux/gcc-arm-none-eabi-10.3-2021.10/lib/gcc/arm-none-eabi/10.3.1/include/stddef.h **** #ifndef ___int_wchar_t_h
 258:/home/irfan/Desktop/arm/gcc-arm-none-eabi-10.3-2021.10-x86_64-linux/gcc-arm-none-eabi-10.3-2021.10/lib/gcc/arm-none-eabi/10.3.1/include/stddef.h **** #ifndef __INT_WCHAR_T_H
 259:/home/irfan/Desktop/arm/gcc-arm-none-eabi-10.3-2021.10-x86_64-linux/gcc-arm-none-eabi-10.3-2021.10/lib/gcc/arm-none-eabi/10.3.1/include/stddef.h **** #ifndef _GCC_WCHAR_T
 260:/home/irfan/Desktop/arm/gcc-arm-none-eabi-10.3-2021.10-x86_64-linux/gcc-arm-none-eabi-10.3-2021.10/lib/gcc/arm-none-eabi/10.3.1/include/stddef.h **** #define __wchar_t__	/* BeOS */
 261:/home/irfan/Desktop/arm/gcc-arm-none-eabi-10.3-2021.10-x86_64-linux/gcc-arm-none-eabi-10.3-2021.10/lib/gcc/arm-none-eabi/10.3.1/include/stddef.h **** #define __WCHAR_T__	/* Cray Unicos/Mk */
 262:/home/irfan/Desktop/arm/gcc-arm-none-eabi-10.3-2021.10-x86_64-linux/gcc-arm-none-eabi-10.3-2021.10/lib/gcc/arm-none-eabi/10.3.1/include/stddef.h **** #define _WCHAR_T
 263:/home/irfan/Desktop/arm/gcc-arm-none-eabi-10.3-2021.10-x86_64-linux/gcc-arm-none-eabi-10.3-2021.10/lib/gcc/arm-none-eabi/10.3.1/include/stddef.h **** #define _T_WCHAR_
 264:/home/irfan/Desktop/arm/gcc-arm-none-eabi-10.3-2021.10-x86_64-linux/gcc-arm-none-eabi-10.3-2021.10/lib/gcc/arm-none-eabi/10.3.1/include/stddef.h **** #define _T_WCHAR
 265:/home/irfan/Desktop/arm/gcc-arm-none-eabi-10.3-2021.10-x86_64-linux/gcc-arm-none-eabi-10.3-2021.10/lib/gcc/arm-none-eabi/10.3.1/include/stddef.h **** #define __WCHAR_T
 266:/home/irfan/Desktop/arm/gcc-arm-none-eabi-10.3-2021.10-x86_64-linux/gcc-arm-none-eabi-10.3-2021.10/lib/gcc/arm-none-eabi/10.3.1/include/stddef.h **** #define _WCHAR_T_
 267:/home/irfan/Desktop/arm/gcc-arm-none-eabi-10.3-2021.10-x86_64-linux/gcc-arm-none-eabi-10.3-2021.10/lib/gcc/arm-none-eabi/10.3.1/include/stddef.h **** #define _BSD_WCHAR_T_
 268:/home/irfan/Desktop/arm/gcc-arm-none-eabi-10.3-2021.10-x86_64-linux/gcc-arm-none-eabi-10.3-2021.10/lib/gcc/arm-none-eabi/10.3.1/include/stddef.h **** #define _WCHAR_T_DEFINED_
 269:/home/irfan/Desktop/arm/gcc-arm-none-eabi-10.3-2021.10-x86_64-linux/gcc-arm-none-eabi-10.3-2021.10/lib/gcc/arm-none-eabi/10.3.1/include/stddef.h **** #define _WCHAR_T_DEFINED
 270:/home/irfan/Desktop/arm/gcc-arm-none-eabi-10.3-2021.10-x86_64-linux/gcc-arm-none-eabi-10.3-2021.10/lib/gcc/arm-none-eabi/10.3.1/include/stddef.h **** #define _WCHAR_T_H
 271:/home/irfan/Desktop/arm/gcc-arm-none-eabi-10.3-2021.10-x86_64-linux/gcc-arm-none-eabi-10.3-2021.10/lib/gcc/arm-none-eabi/10.3.1/include/stddef.h **** #define ___int_wchar_t_h
 272:/home/irfan/Desktop/arm/gcc-arm-none-eabi-10.3-2021.10-x86_64-linux/gcc-arm-none-eabi-10.3-2021.10/lib/gcc/arm-none-eabi/10.3.1/include/stddef.h **** #define __INT_WCHAR_T_H
 273:/home/irfan/Desktop/arm/gcc-arm-none-eabi-10.3-2021.10-x86_64-linux/gcc-arm-none-eabi-10.3-2021.10/lib/gcc/arm-none-eabi/10.3.1/include/stddef.h **** #define _GCC_WCHAR_T
 274:/home/irfan/Desktop/arm/gcc-arm-none-eabi-10.3-2021.10-x86_64-linux/gcc-arm-none-eabi-10.3-2021.10/lib/gcc/arm-none-eabi/10.3.1/include/stddef.h **** #define _WCHAR_T_DECLARED
 275:/home/irfan/Desktop/arm/gcc-arm-none-eabi-10.3-2021.10-x86_64-linux/gcc-arm-none-eabi-10.3-2021.10/lib/gcc/arm-none-eabi/10.3.1/include/stddef.h **** 
 276:/home/irfan/Desktop/arm/gcc-arm-none-eabi-10.3-2021.10-x86_64-linux/gcc-arm-none-eabi-10.3-2021.10/lib/gcc/arm-none-eabi/10.3.1/include/stddef.h **** /* On BSD/386 1.1, at least, machine/ansi.h defines _BSD_WCHAR_T_
 277:/home/irfan/Desktop/arm/gcc-arm-none-eabi-10.3-2021.10-x86_64-linux/gcc-arm-none-eabi-10.3-2021.10/lib/gcc/arm-none-eabi/10.3.1/include/stddef.h ****    instead of _WCHAR_T_, and _BSD_RUNE_T_ (which, unlike the other
 278:/home/irfan/Desktop/arm/gcc-arm-none-eabi-10.3-2021.10-x86_64-linux/gcc-arm-none-eabi-10.3-2021.10/lib/gcc/arm-none-eabi/10.3.1/include/stddef.h ****    symbols in the _FOO_T_ family, stays defined even after its
 279:/home/irfan/Desktop/arm/gcc-arm-none-eabi-10.3-2021.10-x86_64-linux/gcc-arm-none-eabi-10.3-2021.10/lib/gcc/arm-none-eabi/10.3.1/include/stddef.h ****    corresponding type is defined).  If we define wchar_t, then we
 280:/home/irfan/Desktop/arm/gcc-arm-none-eabi-10.3-2021.10-x86_64-linux/gcc-arm-none-eabi-10.3-2021.10/lib/gcc/arm-none-eabi/10.3.1/include/stddef.h ****    must undef _WCHAR_T_; for BSD/386 1.1 (and perhaps others), if
 281:/home/irfan/Desktop/arm/gcc-arm-none-eabi-10.3-2021.10-x86_64-linux/gcc-arm-none-eabi-10.3-2021.10/lib/gcc/arm-none-eabi/10.3.1/include/stddef.h ****    we undef _WCHAR_T_, then we must also define rune_t, since 
 282:/home/irfan/Desktop/arm/gcc-arm-none-eabi-10.3-2021.10-x86_64-linux/gcc-arm-none-eabi-10.3-2021.10/lib/gcc/arm-none-eabi/10.3.1/include/stddef.h ****    headers like runetype.h assume that if machine/ansi.h is included,
 283:/home/irfan/Desktop/arm/gcc-arm-none-eabi-10.3-2021.10-x86_64-linux/gcc-arm-none-eabi-10.3-2021.10/lib/gcc/arm-none-eabi/10.3.1/include/stddef.h ****    and _BSD_WCHAR_T_ is not defined, then rune_t is available.
 284:/home/irfan/Desktop/arm/gcc-arm-none-eabi-10.3-2021.10-x86_64-linux/gcc-arm-none-eabi-10.3-2021.10/lib/gcc/arm-none-eabi/10.3.1/include/stddef.h ****    machine/ansi.h says, "Note that _WCHAR_T_ and _RUNE_T_ must be of
 285:/home/irfan/Desktop/arm/gcc-arm-none-eabi-10.3-2021.10-x86_64-linux/gcc-arm-none-eabi-10.3-2021.10/lib/gcc/arm-none-eabi/10.3.1/include/stddef.h ****    the same type." */
ARM GAS  /tmp/ccYgTI9f.s 			page 80


 286:/home/irfan/Desktop/arm/gcc-arm-none-eabi-10.3-2021.10-x86_64-linux/gcc-arm-none-eabi-10.3-2021.10/lib/gcc/arm-none-eabi/10.3.1/include/stddef.h **** #ifdef _BSD_WCHAR_T_
 287:/home/irfan/Desktop/arm/gcc-arm-none-eabi-10.3-2021.10-x86_64-linux/gcc-arm-none-eabi-10.3-2021.10/lib/gcc/arm-none-eabi/10.3.1/include/stddef.h **** #undef _BSD_WCHAR_T_
 288:/home/irfan/Desktop/arm/gcc-arm-none-eabi-10.3-2021.10-x86_64-linux/gcc-arm-none-eabi-10.3-2021.10/lib/gcc/arm-none-eabi/10.3.1/include/stddef.h **** #ifdef _BSD_RUNE_T_
 289:/home/irfan/Desktop/arm/gcc-arm-none-eabi-10.3-2021.10-x86_64-linux/gcc-arm-none-eabi-10.3-2021.10/lib/gcc/arm-none-eabi/10.3.1/include/stddef.h **** #if !defined (_ANSI_SOURCE) && !defined (_POSIX_SOURCE)
 290:/home/irfan/Desktop/arm/gcc-arm-none-eabi-10.3-2021.10-x86_64-linux/gcc-arm-none-eabi-10.3-2021.10/lib/gcc/arm-none-eabi/10.3.1/include/stddef.h **** typedef _BSD_RUNE_T_ rune_t;
 291:/home/irfan/Desktop/arm/gcc-arm-none-eabi-10.3-2021.10-x86_64-linux/gcc-arm-none-eabi-10.3-2021.10/lib/gcc/arm-none-eabi/10.3.1/include/stddef.h **** #define _BSD_WCHAR_T_DEFINED_
 292:/home/irfan/Desktop/arm/gcc-arm-none-eabi-10.3-2021.10-x86_64-linux/gcc-arm-none-eabi-10.3-2021.10/lib/gcc/arm-none-eabi/10.3.1/include/stddef.h **** #define _BSD_RUNE_T_DEFINED_	/* Darwin */
 293:/home/irfan/Desktop/arm/gcc-arm-none-eabi-10.3-2021.10-x86_64-linux/gcc-arm-none-eabi-10.3-2021.10/lib/gcc/arm-none-eabi/10.3.1/include/stddef.h **** #if defined (__FreeBSD__) && (__FreeBSD__ < 5)
 294:/home/irfan/Desktop/arm/gcc-arm-none-eabi-10.3-2021.10-x86_64-linux/gcc-arm-none-eabi-10.3-2021.10/lib/gcc/arm-none-eabi/10.3.1/include/stddef.h **** /* Why is this file so hard to maintain properly?  In contrast to
 295:/home/irfan/Desktop/arm/gcc-arm-none-eabi-10.3-2021.10-x86_64-linux/gcc-arm-none-eabi-10.3-2021.10/lib/gcc/arm-none-eabi/10.3.1/include/stddef.h ****    the comment above regarding BSD/386 1.1, on FreeBSD for as long
 296:/home/irfan/Desktop/arm/gcc-arm-none-eabi-10.3-2021.10-x86_64-linux/gcc-arm-none-eabi-10.3-2021.10/lib/gcc/arm-none-eabi/10.3.1/include/stddef.h ****    as the symbol has existed, _BSD_RUNE_T_ must not stay defined or
 297:/home/irfan/Desktop/arm/gcc-arm-none-eabi-10.3-2021.10-x86_64-linux/gcc-arm-none-eabi-10.3-2021.10/lib/gcc/arm-none-eabi/10.3.1/include/stddef.h ****    redundant typedefs will occur when stdlib.h is included after this file. */
 298:/home/irfan/Desktop/arm/gcc-arm-none-eabi-10.3-2021.10-x86_64-linux/gcc-arm-none-eabi-10.3-2021.10/lib/gcc/arm-none-eabi/10.3.1/include/stddef.h **** #undef _BSD_RUNE_T_
 299:/home/irfan/Desktop/arm/gcc-arm-none-eabi-10.3-2021.10-x86_64-linux/gcc-arm-none-eabi-10.3-2021.10/lib/gcc/arm-none-eabi/10.3.1/include/stddef.h **** #endif
 300:/home/irfan/Desktop/arm/gcc-arm-none-eabi-10.3-2021.10-x86_64-linux/gcc-arm-none-eabi-10.3-2021.10/lib/gcc/arm-none-eabi/10.3.1/include/stddef.h **** #endif
 301:/home/irfan/Desktop/arm/gcc-arm-none-eabi-10.3-2021.10-x86_64-linux/gcc-arm-none-eabi-10.3-2021.10/lib/gcc/arm-none-eabi/10.3.1/include/stddef.h **** #endif
 302:/home/irfan/Desktop/arm/gcc-arm-none-eabi-10.3-2021.10-x86_64-linux/gcc-arm-none-eabi-10.3-2021.10/lib/gcc/arm-none-eabi/10.3.1/include/stddef.h **** #endif
 303:/home/irfan/Desktop/arm/gcc-arm-none-eabi-10.3-2021.10-x86_64-linux/gcc-arm-none-eabi-10.3-2021.10/lib/gcc/arm-none-eabi/10.3.1/include/stddef.h **** /* FreeBSD 5 can't be handled well using "traditional" logic above
 304:/home/irfan/Desktop/arm/gcc-arm-none-eabi-10.3-2021.10-x86_64-linux/gcc-arm-none-eabi-10.3-2021.10/lib/gcc/arm-none-eabi/10.3.1/include/stddef.h ****    since it no longer defines _BSD_RUNE_T_ yet still desires to export
 305:/home/irfan/Desktop/arm/gcc-arm-none-eabi-10.3-2021.10-x86_64-linux/gcc-arm-none-eabi-10.3-2021.10/lib/gcc/arm-none-eabi/10.3.1/include/stddef.h ****    rune_t in some cases... */
 306:/home/irfan/Desktop/arm/gcc-arm-none-eabi-10.3-2021.10-x86_64-linux/gcc-arm-none-eabi-10.3-2021.10/lib/gcc/arm-none-eabi/10.3.1/include/stddef.h **** #if defined (__FreeBSD__) && (__FreeBSD__ >= 5)
 307:/home/irfan/Desktop/arm/gcc-arm-none-eabi-10.3-2021.10-x86_64-linux/gcc-arm-none-eabi-10.3-2021.10/lib/gcc/arm-none-eabi/10.3.1/include/stddef.h **** #if !defined (_ANSI_SOURCE) && !defined (_POSIX_SOURCE)
 308:/home/irfan/Desktop/arm/gcc-arm-none-eabi-10.3-2021.10-x86_64-linux/gcc-arm-none-eabi-10.3-2021.10/lib/gcc/arm-none-eabi/10.3.1/include/stddef.h **** #if __BSD_VISIBLE
 309:/home/irfan/Desktop/arm/gcc-arm-none-eabi-10.3-2021.10-x86_64-linux/gcc-arm-none-eabi-10.3-2021.10/lib/gcc/arm-none-eabi/10.3.1/include/stddef.h **** #ifndef _RUNE_T_DECLARED
 310:/home/irfan/Desktop/arm/gcc-arm-none-eabi-10.3-2021.10-x86_64-linux/gcc-arm-none-eabi-10.3-2021.10/lib/gcc/arm-none-eabi/10.3.1/include/stddef.h **** typedef __rune_t        rune_t;
 311:/home/irfan/Desktop/arm/gcc-arm-none-eabi-10.3-2021.10-x86_64-linux/gcc-arm-none-eabi-10.3-2021.10/lib/gcc/arm-none-eabi/10.3.1/include/stddef.h **** #define _RUNE_T_DECLARED
 312:/home/irfan/Desktop/arm/gcc-arm-none-eabi-10.3-2021.10-x86_64-linux/gcc-arm-none-eabi-10.3-2021.10/lib/gcc/arm-none-eabi/10.3.1/include/stddef.h **** #endif
 313:/home/irfan/Desktop/arm/gcc-arm-none-eabi-10.3-2021.10-x86_64-linux/gcc-arm-none-eabi-10.3-2021.10/lib/gcc/arm-none-eabi/10.3.1/include/stddef.h **** #endif
 314:/home/irfan/Desktop/arm/gcc-arm-none-eabi-10.3-2021.10-x86_64-linux/gcc-arm-none-eabi-10.3-2021.10/lib/gcc/arm-none-eabi/10.3.1/include/stddef.h **** #endif
 315:/home/irfan/Desktop/arm/gcc-arm-none-eabi-10.3-2021.10-x86_64-linux/gcc-arm-none-eabi-10.3-2021.10/lib/gcc/arm-none-eabi/10.3.1/include/stddef.h **** #endif
 316:/home/irfan/Desktop/arm/gcc-arm-none-eabi-10.3-2021.10-x86_64-linux/gcc-arm-none-eabi-10.3-2021.10/lib/gcc/arm-none-eabi/10.3.1/include/stddef.h **** 
 317:/home/irfan/Desktop/arm/gcc-arm-none-eabi-10.3-2021.10-x86_64-linux/gcc-arm-none-eabi-10.3-2021.10/lib/gcc/arm-none-eabi/10.3.1/include/stddef.h **** #ifndef __WCHAR_TYPE__
 318:/home/irfan/Desktop/arm/gcc-arm-none-eabi-10.3-2021.10-x86_64-linux/gcc-arm-none-eabi-10.3-2021.10/lib/gcc/arm-none-eabi/10.3.1/include/stddef.h **** #define __WCHAR_TYPE__ int
 319:/home/irfan/Desktop/arm/gcc-arm-none-eabi-10.3-2021.10-x86_64-linux/gcc-arm-none-eabi-10.3-2021.10/lib/gcc/arm-none-eabi/10.3.1/include/stddef.h **** #endif
 320:/home/irfan/Desktop/arm/gcc-arm-none-eabi-10.3-2021.10-x86_64-linux/gcc-arm-none-eabi-10.3-2021.10/lib/gcc/arm-none-eabi/10.3.1/include/stddef.h **** #ifndef __cplusplus
 321:/home/irfan/Desktop/arm/gcc-arm-none-eabi-10.3-2021.10-x86_64-linux/gcc-arm-none-eabi-10.3-2021.10/lib/gcc/arm-none-eabi/10.3.1/include/stddef.h **** typedef __WCHAR_TYPE__ wchar_t;
 322:/home/irfan/Desktop/arm/gcc-arm-none-eabi-10.3-2021.10-x86_64-linux/gcc-arm-none-eabi-10.3-2021.10/lib/gcc/arm-none-eabi/10.3.1/include/stddef.h **** #endif
 323:/home/irfan/Desktop/arm/gcc-arm-none-eabi-10.3-2021.10-x86_64-linux/gcc-arm-none-eabi-10.3-2021.10/lib/gcc/arm-none-eabi/10.3.1/include/stddef.h **** #endif
 324:/home/irfan/Desktop/arm/gcc-arm-none-eabi-10.3-2021.10-x86_64-linux/gcc-arm-none-eabi-10.3-2021.10/lib/gcc/arm-none-eabi/10.3.1/include/stddef.h **** #endif
 325:/home/irfan/Desktop/arm/gcc-arm-none-eabi-10.3-2021.10-x86_64-linux/gcc-arm-none-eabi-10.3-2021.10/lib/gcc/arm-none-eabi/10.3.1/include/stddef.h **** #endif
 326:/home/irfan/Desktop/arm/gcc-arm-none-eabi-10.3-2021.10-x86_64-linux/gcc-arm-none-eabi-10.3-2021.10/lib/gcc/arm-none-eabi/10.3.1/include/stddef.h **** #endif
 327:/home/irfan/Desktop/arm/gcc-arm-none-eabi-10.3-2021.10-x86_64-linux/gcc-arm-none-eabi-10.3-2021.10/lib/gcc/arm-none-eabi/10.3.1/include/stddef.h **** #endif
 328:/home/irfan/Desktop/arm/gcc-arm-none-eabi-10.3-2021.10-x86_64-linux/gcc-arm-none-eabi-10.3-2021.10/lib/gcc/arm-none-eabi/10.3.1/include/stddef.h **** #endif
 329:/home/irfan/Desktop/arm/gcc-arm-none-eabi-10.3-2021.10-x86_64-linux/gcc-arm-none-eabi-10.3-2021.10/lib/gcc/arm-none-eabi/10.3.1/include/stddef.h **** #endif /* _WCHAR_T_DECLARED */
 330:/home/irfan/Desktop/arm/gcc-arm-none-eabi-10.3-2021.10-x86_64-linux/gcc-arm-none-eabi-10.3-2021.10/lib/gcc/arm-none-eabi/10.3.1/include/stddef.h **** #endif /* _BSD_RUNE_T_DEFINED_ */
 331:/home/irfan/Desktop/arm/gcc-arm-none-eabi-10.3-2021.10-x86_64-linux/gcc-arm-none-eabi-10.3-2021.10/lib/gcc/arm-none-eabi/10.3.1/include/stddef.h **** #endif
 332:/home/irfan/Desktop/arm/gcc-arm-none-eabi-10.3-2021.10-x86_64-linux/gcc-arm-none-eabi-10.3-2021.10/lib/gcc/arm-none-eabi/10.3.1/include/stddef.h **** #endif
 333:/home/irfan/Desktop/arm/gcc-arm-none-eabi-10.3-2021.10-x86_64-linux/gcc-arm-none-eabi-10.3-2021.10/lib/gcc/arm-none-eabi/10.3.1/include/stddef.h **** #endif
 334:/home/irfan/Desktop/arm/gcc-arm-none-eabi-10.3-2021.10-x86_64-linux/gcc-arm-none-eabi-10.3-2021.10/lib/gcc/arm-none-eabi/10.3.1/include/stddef.h **** #endif
 335:/home/irfan/Desktop/arm/gcc-arm-none-eabi-10.3-2021.10-x86_64-linux/gcc-arm-none-eabi-10.3-2021.10/lib/gcc/arm-none-eabi/10.3.1/include/stddef.h **** #endif
 336:/home/irfan/Desktop/arm/gcc-arm-none-eabi-10.3-2021.10-x86_64-linux/gcc-arm-none-eabi-10.3-2021.10/lib/gcc/arm-none-eabi/10.3.1/include/stddef.h **** #endif
 337:/home/irfan/Desktop/arm/gcc-arm-none-eabi-10.3-2021.10-x86_64-linux/gcc-arm-none-eabi-10.3-2021.10/lib/gcc/arm-none-eabi/10.3.1/include/stddef.h **** #endif
 338:/home/irfan/Desktop/arm/gcc-arm-none-eabi-10.3-2021.10-x86_64-linux/gcc-arm-none-eabi-10.3-2021.10/lib/gcc/arm-none-eabi/10.3.1/include/stddef.h **** #endif /* __WCHAR_T__ */
 339:/home/irfan/Desktop/arm/gcc-arm-none-eabi-10.3-2021.10-x86_64-linux/gcc-arm-none-eabi-10.3-2021.10/lib/gcc/arm-none-eabi/10.3.1/include/stddef.h **** #endif /* __wchar_t__ */
 340:/home/irfan/Desktop/arm/gcc-arm-none-eabi-10.3-2021.10-x86_64-linux/gcc-arm-none-eabi-10.3-2021.10/lib/gcc/arm-none-eabi/10.3.1/include/stddef.h **** #undef	__need_wchar_t
 341:/home/irfan/Desktop/arm/gcc-arm-none-eabi-10.3-2021.10-x86_64-linux/gcc-arm-none-eabi-10.3-2021.10/lib/gcc/arm-none-eabi/10.3.1/include/stddef.h **** #endif /* _STDDEF_H or __need_wchar_t.  */
 342:/home/irfan/Desktop/arm/gcc-arm-none-eabi-10.3-2021.10-x86_64-linux/gcc-arm-none-eabi-10.3-2021.10/lib/gcc/arm-none-eabi/10.3.1/include/stddef.h **** 
ARM GAS  /tmp/ccYgTI9f.s 			page 81


 343:/home/irfan/Desktop/arm/gcc-arm-none-eabi-10.3-2021.10-x86_64-linux/gcc-arm-none-eabi-10.3-2021.10/lib/gcc/arm-none-eabi/10.3.1/include/stddef.h **** #if defined (__need_wint_t)
 344:/home/irfan/Desktop/arm/gcc-arm-none-eabi-10.3-2021.10-x86_64-linux/gcc-arm-none-eabi-10.3-2021.10/lib/gcc/arm-none-eabi/10.3.1/include/stddef.h **** #ifndef _WINT_T
 345:/home/irfan/Desktop/arm/gcc-arm-none-eabi-10.3-2021.10-x86_64-linux/gcc-arm-none-eabi-10.3-2021.10/lib/gcc/arm-none-eabi/10.3.1/include/stddef.h **** #define _WINT_T
 346:/home/irfan/Desktop/arm/gcc-arm-none-eabi-10.3-2021.10-x86_64-linux/gcc-arm-none-eabi-10.3-2021.10/lib/gcc/arm-none-eabi/10.3.1/include/stddef.h **** 
 347:/home/irfan/Desktop/arm/gcc-arm-none-eabi-10.3-2021.10-x86_64-linux/gcc-arm-none-eabi-10.3-2021.10/lib/gcc/arm-none-eabi/10.3.1/include/stddef.h **** #ifndef __WINT_TYPE__
 348:/home/irfan/Desktop/arm/gcc-arm-none-eabi-10.3-2021.10-x86_64-linux/gcc-arm-none-eabi-10.3-2021.10/lib/gcc/arm-none-eabi/10.3.1/include/stddef.h **** #define __WINT_TYPE__ unsigned int
 349:/home/irfan/Desktop/arm/gcc-arm-none-eabi-10.3-2021.10-x86_64-linux/gcc-arm-none-eabi-10.3-2021.10/lib/gcc/arm-none-eabi/10.3.1/include/stddef.h **** #endif
 350:/home/irfan/Desktop/arm/gcc-arm-none-eabi-10.3-2021.10-x86_64-linux/gcc-arm-none-eabi-10.3-2021.10/lib/gcc/arm-none-eabi/10.3.1/include/stddef.h **** typedef __WINT_TYPE__ wint_t;
 1693              		.loc 9 350 1 view .LVU713
 1694              		.file 10 "/home/irfan/Desktop/arm/gcc-arm-none-eabi-10.3-2021.10-x86_64-linux/gcc-arm-none-eabi-10
   1:/home/irfan/Desktop/arm/gcc-arm-none-eabi-10.3-2021.10-x86_64-linux/gcc-arm-none-eabi-10.3-2021.10/arm-none-eabi/include/sys/_types.h **** /* ANSI C namespace clean utility typedefs */
   2:/home/irfan/Desktop/arm/gcc-arm-none-eabi-10.3-2021.10-x86_64-linux/gcc-arm-none-eabi-10.3-2021.10/arm-none-eabi/include/sys/_types.h **** 
   3:/home/irfan/Desktop/arm/gcc-arm-none-eabi-10.3-2021.10-x86_64-linux/gcc-arm-none-eabi-10.3-2021.10/arm-none-eabi/include/sys/_types.h **** /* This file defines various typedefs needed by the system calls that support
   4:/home/irfan/Desktop/arm/gcc-arm-none-eabi-10.3-2021.10-x86_64-linux/gcc-arm-none-eabi-10.3-2021.10/arm-none-eabi/include/sys/_types.h ****    the C library.  Basically, they're just the POSIX versions with an '_'
   5:/home/irfan/Desktop/arm/gcc-arm-none-eabi-10.3-2021.10-x86_64-linux/gcc-arm-none-eabi-10.3-2021.10/arm-none-eabi/include/sys/_types.h ****    prepended.  Targets shall use <machine/_types.h> to define their own
   6:/home/irfan/Desktop/arm/gcc-arm-none-eabi-10.3-2021.10-x86_64-linux/gcc-arm-none-eabi-10.3-2021.10/arm-none-eabi/include/sys/_types.h ****    internal types if desired.
   7:/home/irfan/Desktop/arm/gcc-arm-none-eabi-10.3-2021.10-x86_64-linux/gcc-arm-none-eabi-10.3-2021.10/arm-none-eabi/include/sys/_types.h **** 
   8:/home/irfan/Desktop/arm/gcc-arm-none-eabi-10.3-2021.10-x86_64-linux/gcc-arm-none-eabi-10.3-2021.10/arm-none-eabi/include/sys/_types.h ****    There are three define patterns used for type definitions.  Lets assume
   9:/home/irfan/Desktop/arm/gcc-arm-none-eabi-10.3-2021.10-x86_64-linux/gcc-arm-none-eabi-10.3-2021.10/arm-none-eabi/include/sys/_types.h ****    xyz_t is a user type.
  10:/home/irfan/Desktop/arm/gcc-arm-none-eabi-10.3-2021.10-x86_64-linux/gcc-arm-none-eabi-10.3-2021.10/arm-none-eabi/include/sys/_types.h **** 
  11:/home/irfan/Desktop/arm/gcc-arm-none-eabi-10.3-2021.10-x86_64-linux/gcc-arm-none-eabi-10.3-2021.10/arm-none-eabi/include/sys/_types.h ****    The internal type definition uses __machine_xyz_t_defined.  It is defined by
  12:/home/irfan/Desktop/arm/gcc-arm-none-eabi-10.3-2021.10-x86_64-linux/gcc-arm-none-eabi-10.3-2021.10/arm-none-eabi/include/sys/_types.h ****    <machine/_types.h> to disable a default definition in <sys/_types.h>. It
  13:/home/irfan/Desktop/arm/gcc-arm-none-eabi-10.3-2021.10-x86_64-linux/gcc-arm-none-eabi-10.3-2021.10/arm-none-eabi/include/sys/_types.h ****    must not be used in other files.
  14:/home/irfan/Desktop/arm/gcc-arm-none-eabi-10.3-2021.10-x86_64-linux/gcc-arm-none-eabi-10.3-2021.10/arm-none-eabi/include/sys/_types.h **** 
  15:/home/irfan/Desktop/arm/gcc-arm-none-eabi-10.3-2021.10-x86_64-linux/gcc-arm-none-eabi-10.3-2021.10/arm-none-eabi/include/sys/_types.h ****    User type definitions are guarded by __xyz_t_defined in glibc and
  16:/home/irfan/Desktop/arm/gcc-arm-none-eabi-10.3-2021.10-x86_64-linux/gcc-arm-none-eabi-10.3-2021.10/arm-none-eabi/include/sys/_types.h ****    _XYZ_T_DECLARED in BSD compatible systems.
  17:/home/irfan/Desktop/arm/gcc-arm-none-eabi-10.3-2021.10-x86_64-linux/gcc-arm-none-eabi-10.3-2021.10/arm-none-eabi/include/sys/_types.h **** */
  18:/home/irfan/Desktop/arm/gcc-arm-none-eabi-10.3-2021.10-x86_64-linux/gcc-arm-none-eabi-10.3-2021.10/arm-none-eabi/include/sys/_types.h **** 
  19:/home/irfan/Desktop/arm/gcc-arm-none-eabi-10.3-2021.10-x86_64-linux/gcc-arm-none-eabi-10.3-2021.10/arm-none-eabi/include/sys/_types.h **** #ifndef	_SYS__TYPES_H
  20:/home/irfan/Desktop/arm/gcc-arm-none-eabi-10.3-2021.10-x86_64-linux/gcc-arm-none-eabi-10.3-2021.10/arm-none-eabi/include/sys/_types.h **** #define _SYS__TYPES_H
  21:/home/irfan/Desktop/arm/gcc-arm-none-eabi-10.3-2021.10-x86_64-linux/gcc-arm-none-eabi-10.3-2021.10/arm-none-eabi/include/sys/_types.h **** 
  22:/home/irfan/Desktop/arm/gcc-arm-none-eabi-10.3-2021.10-x86_64-linux/gcc-arm-none-eabi-10.3-2021.10/arm-none-eabi/include/sys/_types.h **** #define __need_size_t
  23:/home/irfan/Desktop/arm/gcc-arm-none-eabi-10.3-2021.10-x86_64-linux/gcc-arm-none-eabi-10.3-2021.10/arm-none-eabi/include/sys/_types.h **** #define __need_wint_t
  24:/home/irfan/Desktop/arm/gcc-arm-none-eabi-10.3-2021.10-x86_64-linux/gcc-arm-none-eabi-10.3-2021.10/arm-none-eabi/include/sys/_types.h **** #include <stddef.h>
  25:/home/irfan/Desktop/arm/gcc-arm-none-eabi-10.3-2021.10-x86_64-linux/gcc-arm-none-eabi-10.3-2021.10/arm-none-eabi/include/sys/_types.h **** #include <newlib.h>
  26:/home/irfan/Desktop/arm/gcc-arm-none-eabi-10.3-2021.10-x86_64-linux/gcc-arm-none-eabi-10.3-2021.10/arm-none-eabi/include/sys/_types.h **** #include <sys/config.h>
  27:/home/irfan/Desktop/arm/gcc-arm-none-eabi-10.3-2021.10-x86_64-linux/gcc-arm-none-eabi-10.3-2021.10/arm-none-eabi/include/sys/_types.h **** #include <machine/_types.h>
  28:/home/irfan/Desktop/arm/gcc-arm-none-eabi-10.3-2021.10-x86_64-linux/gcc-arm-none-eabi-10.3-2021.10/arm-none-eabi/include/sys/_types.h **** 
  29:/home/irfan/Desktop/arm/gcc-arm-none-eabi-10.3-2021.10-x86_64-linux/gcc-arm-none-eabi-10.3-2021.10/arm-none-eabi/include/sys/_types.h **** #ifndef __machine_blkcnt_t_defined
  30:/home/irfan/Desktop/arm/gcc-arm-none-eabi-10.3-2021.10-x86_64-linux/gcc-arm-none-eabi-10.3-2021.10/arm-none-eabi/include/sys/_types.h **** typedef long __blkcnt_t;
 1695              		.loc 10 30 1 view .LVU714
  31:/home/irfan/Desktop/arm/gcc-arm-none-eabi-10.3-2021.10-x86_64-linux/gcc-arm-none-eabi-10.3-2021.10/arm-none-eabi/include/sys/_types.h **** #endif
  32:/home/irfan/Desktop/arm/gcc-arm-none-eabi-10.3-2021.10-x86_64-linux/gcc-arm-none-eabi-10.3-2021.10/arm-none-eabi/include/sys/_types.h **** 
  33:/home/irfan/Desktop/arm/gcc-arm-none-eabi-10.3-2021.10-x86_64-linux/gcc-arm-none-eabi-10.3-2021.10/arm-none-eabi/include/sys/_types.h **** #ifndef __machine_blksize_t_defined
  34:/home/irfan/Desktop/arm/gcc-arm-none-eabi-10.3-2021.10-x86_64-linux/gcc-arm-none-eabi-10.3-2021.10/arm-none-eabi/include/sys/_types.h **** typedef long __blksize_t;
 1696              		.loc 10 34 1 view .LVU715
  35:/home/irfan/Desktop/arm/gcc-arm-none-eabi-10.3-2021.10-x86_64-linux/gcc-arm-none-eabi-10.3-2021.10/arm-none-eabi/include/sys/_types.h **** #endif
  36:/home/irfan/Desktop/arm/gcc-arm-none-eabi-10.3-2021.10-x86_64-linux/gcc-arm-none-eabi-10.3-2021.10/arm-none-eabi/include/sys/_types.h **** 
  37:/home/irfan/Desktop/arm/gcc-arm-none-eabi-10.3-2021.10-x86_64-linux/gcc-arm-none-eabi-10.3-2021.10/arm-none-eabi/include/sys/_types.h **** #ifndef __machine_fsblkcnt_t_defined
  38:/home/irfan/Desktop/arm/gcc-arm-none-eabi-10.3-2021.10-x86_64-linux/gcc-arm-none-eabi-10.3-2021.10/arm-none-eabi/include/sys/_types.h **** typedef __uint64_t __fsblkcnt_t;
 1697              		.loc 10 38 1 view .LVU716
  39:/home/irfan/Desktop/arm/gcc-arm-none-eabi-10.3-2021.10-x86_64-linux/gcc-arm-none-eabi-10.3-2021.10/arm-none-eabi/include/sys/_types.h **** #endif
  40:/home/irfan/Desktop/arm/gcc-arm-none-eabi-10.3-2021.10-x86_64-linux/gcc-arm-none-eabi-10.3-2021.10/arm-none-eabi/include/sys/_types.h **** 
  41:/home/irfan/Desktop/arm/gcc-arm-none-eabi-10.3-2021.10-x86_64-linux/gcc-arm-none-eabi-10.3-2021.10/arm-none-eabi/include/sys/_types.h **** #ifndef __machine_fsfilcnt_t_defined
  42:/home/irfan/Desktop/arm/gcc-arm-none-eabi-10.3-2021.10-x86_64-linux/gcc-arm-none-eabi-10.3-2021.10/arm-none-eabi/include/sys/_types.h **** typedef __uint32_t __fsfilcnt_t;
 1698              		.loc 10 42 1 view .LVU717
  43:/home/irfan/Desktop/arm/gcc-arm-none-eabi-10.3-2021.10-x86_64-linux/gcc-arm-none-eabi-10.3-2021.10/arm-none-eabi/include/sys/_types.h **** #endif
ARM GAS  /tmp/ccYgTI9f.s 			page 82


  44:/home/irfan/Desktop/arm/gcc-arm-none-eabi-10.3-2021.10-x86_64-linux/gcc-arm-none-eabi-10.3-2021.10/arm-none-eabi/include/sys/_types.h **** 
  45:/home/irfan/Desktop/arm/gcc-arm-none-eabi-10.3-2021.10-x86_64-linux/gcc-arm-none-eabi-10.3-2021.10/arm-none-eabi/include/sys/_types.h **** #ifndef __machine_off_t_defined
  46:/home/irfan/Desktop/arm/gcc-arm-none-eabi-10.3-2021.10-x86_64-linux/gcc-arm-none-eabi-10.3-2021.10/arm-none-eabi/include/sys/_types.h **** typedef long _off_t;
 1699              		.loc 10 46 1 view .LVU718
  47:/home/irfan/Desktop/arm/gcc-arm-none-eabi-10.3-2021.10-x86_64-linux/gcc-arm-none-eabi-10.3-2021.10/arm-none-eabi/include/sys/_types.h **** #endif
  48:/home/irfan/Desktop/arm/gcc-arm-none-eabi-10.3-2021.10-x86_64-linux/gcc-arm-none-eabi-10.3-2021.10/arm-none-eabi/include/sys/_types.h **** 
  49:/home/irfan/Desktop/arm/gcc-arm-none-eabi-10.3-2021.10-x86_64-linux/gcc-arm-none-eabi-10.3-2021.10/arm-none-eabi/include/sys/_types.h **** #if defined(__XMK__)
  50:/home/irfan/Desktop/arm/gcc-arm-none-eabi-10.3-2021.10-x86_64-linux/gcc-arm-none-eabi-10.3-2021.10/arm-none-eabi/include/sys/_types.h **** typedef signed char __pid_t;
  51:/home/irfan/Desktop/arm/gcc-arm-none-eabi-10.3-2021.10-x86_64-linux/gcc-arm-none-eabi-10.3-2021.10/arm-none-eabi/include/sys/_types.h **** #else
  52:/home/irfan/Desktop/arm/gcc-arm-none-eabi-10.3-2021.10-x86_64-linux/gcc-arm-none-eabi-10.3-2021.10/arm-none-eabi/include/sys/_types.h **** typedef int __pid_t;
 1700              		.loc 10 52 1 view .LVU719
  53:/home/irfan/Desktop/arm/gcc-arm-none-eabi-10.3-2021.10-x86_64-linux/gcc-arm-none-eabi-10.3-2021.10/arm-none-eabi/include/sys/_types.h **** #endif
  54:/home/irfan/Desktop/arm/gcc-arm-none-eabi-10.3-2021.10-x86_64-linux/gcc-arm-none-eabi-10.3-2021.10/arm-none-eabi/include/sys/_types.h **** 
  55:/home/irfan/Desktop/arm/gcc-arm-none-eabi-10.3-2021.10-x86_64-linux/gcc-arm-none-eabi-10.3-2021.10/arm-none-eabi/include/sys/_types.h **** #ifndef __machine_dev_t_defined
  56:/home/irfan/Desktop/arm/gcc-arm-none-eabi-10.3-2021.10-x86_64-linux/gcc-arm-none-eabi-10.3-2021.10/arm-none-eabi/include/sys/_types.h **** typedef short __dev_t;
 1701              		.loc 10 56 1 view .LVU720
  57:/home/irfan/Desktop/arm/gcc-arm-none-eabi-10.3-2021.10-x86_64-linux/gcc-arm-none-eabi-10.3-2021.10/arm-none-eabi/include/sys/_types.h **** #endif
  58:/home/irfan/Desktop/arm/gcc-arm-none-eabi-10.3-2021.10-x86_64-linux/gcc-arm-none-eabi-10.3-2021.10/arm-none-eabi/include/sys/_types.h **** 
  59:/home/irfan/Desktop/arm/gcc-arm-none-eabi-10.3-2021.10-x86_64-linux/gcc-arm-none-eabi-10.3-2021.10/arm-none-eabi/include/sys/_types.h **** #ifndef __machine_uid_t_defined
  60:/home/irfan/Desktop/arm/gcc-arm-none-eabi-10.3-2021.10-x86_64-linux/gcc-arm-none-eabi-10.3-2021.10/arm-none-eabi/include/sys/_types.h **** typedef unsigned short __uid_t;
 1702              		.loc 10 60 1 view .LVU721
  61:/home/irfan/Desktop/arm/gcc-arm-none-eabi-10.3-2021.10-x86_64-linux/gcc-arm-none-eabi-10.3-2021.10/arm-none-eabi/include/sys/_types.h **** #endif
  62:/home/irfan/Desktop/arm/gcc-arm-none-eabi-10.3-2021.10-x86_64-linux/gcc-arm-none-eabi-10.3-2021.10/arm-none-eabi/include/sys/_types.h **** #ifndef __machine_gid_t_defined
  63:/home/irfan/Desktop/arm/gcc-arm-none-eabi-10.3-2021.10-x86_64-linux/gcc-arm-none-eabi-10.3-2021.10/arm-none-eabi/include/sys/_types.h **** typedef unsigned short __gid_t;
 1703              		.loc 10 63 1 view .LVU722
  64:/home/irfan/Desktop/arm/gcc-arm-none-eabi-10.3-2021.10-x86_64-linux/gcc-arm-none-eabi-10.3-2021.10/arm-none-eabi/include/sys/_types.h **** #endif
  65:/home/irfan/Desktop/arm/gcc-arm-none-eabi-10.3-2021.10-x86_64-linux/gcc-arm-none-eabi-10.3-2021.10/arm-none-eabi/include/sys/_types.h **** 
  66:/home/irfan/Desktop/arm/gcc-arm-none-eabi-10.3-2021.10-x86_64-linux/gcc-arm-none-eabi-10.3-2021.10/arm-none-eabi/include/sys/_types.h **** #ifndef __machine_id_t_defined
  67:/home/irfan/Desktop/arm/gcc-arm-none-eabi-10.3-2021.10-x86_64-linux/gcc-arm-none-eabi-10.3-2021.10/arm-none-eabi/include/sys/_types.h **** typedef __uint32_t __id_t;
 1704              		.loc 10 67 1 view .LVU723
  68:/home/irfan/Desktop/arm/gcc-arm-none-eabi-10.3-2021.10-x86_64-linux/gcc-arm-none-eabi-10.3-2021.10/arm-none-eabi/include/sys/_types.h **** #endif
  69:/home/irfan/Desktop/arm/gcc-arm-none-eabi-10.3-2021.10-x86_64-linux/gcc-arm-none-eabi-10.3-2021.10/arm-none-eabi/include/sys/_types.h **** 
  70:/home/irfan/Desktop/arm/gcc-arm-none-eabi-10.3-2021.10-x86_64-linux/gcc-arm-none-eabi-10.3-2021.10/arm-none-eabi/include/sys/_types.h **** #ifndef __machine_ino_t_defined
  71:/home/irfan/Desktop/arm/gcc-arm-none-eabi-10.3-2021.10-x86_64-linux/gcc-arm-none-eabi-10.3-2021.10/arm-none-eabi/include/sys/_types.h **** #if (defined(__i386__) && (defined(GO32) || defined(__MSDOS__))) || \
  72:/home/irfan/Desktop/arm/gcc-arm-none-eabi-10.3-2021.10-x86_64-linux/gcc-arm-none-eabi-10.3-2021.10/arm-none-eabi/include/sys/_types.h ****     defined(__sparc__) || defined(__SPU__)
  73:/home/irfan/Desktop/arm/gcc-arm-none-eabi-10.3-2021.10-x86_64-linux/gcc-arm-none-eabi-10.3-2021.10/arm-none-eabi/include/sys/_types.h **** typedef unsigned long __ino_t;
  74:/home/irfan/Desktop/arm/gcc-arm-none-eabi-10.3-2021.10-x86_64-linux/gcc-arm-none-eabi-10.3-2021.10/arm-none-eabi/include/sys/_types.h **** #else
  75:/home/irfan/Desktop/arm/gcc-arm-none-eabi-10.3-2021.10-x86_64-linux/gcc-arm-none-eabi-10.3-2021.10/arm-none-eabi/include/sys/_types.h **** typedef unsigned short __ino_t;
 1705              		.loc 10 75 1 view .LVU724
  76:/home/irfan/Desktop/arm/gcc-arm-none-eabi-10.3-2021.10-x86_64-linux/gcc-arm-none-eabi-10.3-2021.10/arm-none-eabi/include/sys/_types.h **** #endif
  77:/home/irfan/Desktop/arm/gcc-arm-none-eabi-10.3-2021.10-x86_64-linux/gcc-arm-none-eabi-10.3-2021.10/arm-none-eabi/include/sys/_types.h **** #endif
  78:/home/irfan/Desktop/arm/gcc-arm-none-eabi-10.3-2021.10-x86_64-linux/gcc-arm-none-eabi-10.3-2021.10/arm-none-eabi/include/sys/_types.h **** 
  79:/home/irfan/Desktop/arm/gcc-arm-none-eabi-10.3-2021.10-x86_64-linux/gcc-arm-none-eabi-10.3-2021.10/arm-none-eabi/include/sys/_types.h **** #ifndef __machine_mode_t_defined
  80:/home/irfan/Desktop/arm/gcc-arm-none-eabi-10.3-2021.10-x86_64-linux/gcc-arm-none-eabi-10.3-2021.10/arm-none-eabi/include/sys/_types.h **** #if defined(__i386__) && (defined(GO32) || defined(__MSDOS__))
  81:/home/irfan/Desktop/arm/gcc-arm-none-eabi-10.3-2021.10-x86_64-linux/gcc-arm-none-eabi-10.3-2021.10/arm-none-eabi/include/sys/_types.h **** typedef int __mode_t;
  82:/home/irfan/Desktop/arm/gcc-arm-none-eabi-10.3-2021.10-x86_64-linux/gcc-arm-none-eabi-10.3-2021.10/arm-none-eabi/include/sys/_types.h **** #else
  83:/home/irfan/Desktop/arm/gcc-arm-none-eabi-10.3-2021.10-x86_64-linux/gcc-arm-none-eabi-10.3-2021.10/arm-none-eabi/include/sys/_types.h **** #if defined(__sparc__) && !defined(__sparc_v9__)
  84:/home/irfan/Desktop/arm/gcc-arm-none-eabi-10.3-2021.10-x86_64-linux/gcc-arm-none-eabi-10.3-2021.10/arm-none-eabi/include/sys/_types.h **** #ifdef __svr4__
  85:/home/irfan/Desktop/arm/gcc-arm-none-eabi-10.3-2021.10-x86_64-linux/gcc-arm-none-eabi-10.3-2021.10/arm-none-eabi/include/sys/_types.h **** typedef unsigned long __mode_t;
  86:/home/irfan/Desktop/arm/gcc-arm-none-eabi-10.3-2021.10-x86_64-linux/gcc-arm-none-eabi-10.3-2021.10/arm-none-eabi/include/sys/_types.h **** #else
  87:/home/irfan/Desktop/arm/gcc-arm-none-eabi-10.3-2021.10-x86_64-linux/gcc-arm-none-eabi-10.3-2021.10/arm-none-eabi/include/sys/_types.h **** typedef unsigned short __mode_t;
  88:/home/irfan/Desktop/arm/gcc-arm-none-eabi-10.3-2021.10-x86_64-linux/gcc-arm-none-eabi-10.3-2021.10/arm-none-eabi/include/sys/_types.h **** #endif
  89:/home/irfan/Desktop/arm/gcc-arm-none-eabi-10.3-2021.10-x86_64-linux/gcc-arm-none-eabi-10.3-2021.10/arm-none-eabi/include/sys/_types.h **** #else
  90:/home/irfan/Desktop/arm/gcc-arm-none-eabi-10.3-2021.10-x86_64-linux/gcc-arm-none-eabi-10.3-2021.10/arm-none-eabi/include/sys/_types.h **** typedef __uint32_t __mode_t;
 1706              		.loc 10 90 1 view .LVU725
  91:/home/irfan/Desktop/arm/gcc-arm-none-eabi-10.3-2021.10-x86_64-linux/gcc-arm-none-eabi-10.3-2021.10/arm-none-eabi/include/sys/_types.h **** #endif
  92:/home/irfan/Desktop/arm/gcc-arm-none-eabi-10.3-2021.10-x86_64-linux/gcc-arm-none-eabi-10.3-2021.10/arm-none-eabi/include/sys/_types.h **** #endif
ARM GAS  /tmp/ccYgTI9f.s 			page 83


  93:/home/irfan/Desktop/arm/gcc-arm-none-eabi-10.3-2021.10-x86_64-linux/gcc-arm-none-eabi-10.3-2021.10/arm-none-eabi/include/sys/_types.h **** #endif
  94:/home/irfan/Desktop/arm/gcc-arm-none-eabi-10.3-2021.10-x86_64-linux/gcc-arm-none-eabi-10.3-2021.10/arm-none-eabi/include/sys/_types.h **** 
  95:/home/irfan/Desktop/arm/gcc-arm-none-eabi-10.3-2021.10-x86_64-linux/gcc-arm-none-eabi-10.3-2021.10/arm-none-eabi/include/sys/_types.h **** #ifndef __machine_off64_t_defined
  96:/home/irfan/Desktop/arm/gcc-arm-none-eabi-10.3-2021.10-x86_64-linux/gcc-arm-none-eabi-10.3-2021.10/arm-none-eabi/include/sys/_types.h **** __extension__ typedef long long _off64_t;
 1707              		.loc 10 96 15 view .LVU726
  97:/home/irfan/Desktop/arm/gcc-arm-none-eabi-10.3-2021.10-x86_64-linux/gcc-arm-none-eabi-10.3-2021.10/arm-none-eabi/include/sys/_types.h **** #endif
  98:/home/irfan/Desktop/arm/gcc-arm-none-eabi-10.3-2021.10-x86_64-linux/gcc-arm-none-eabi-10.3-2021.10/arm-none-eabi/include/sys/_types.h **** 
  99:/home/irfan/Desktop/arm/gcc-arm-none-eabi-10.3-2021.10-x86_64-linux/gcc-arm-none-eabi-10.3-2021.10/arm-none-eabi/include/sys/_types.h **** #if defined(__CYGWIN__) && !defined(__LP64__)
 100:/home/irfan/Desktop/arm/gcc-arm-none-eabi-10.3-2021.10-x86_64-linux/gcc-arm-none-eabi-10.3-2021.10/arm-none-eabi/include/sys/_types.h **** typedef _off64_t __off_t;
 101:/home/irfan/Desktop/arm/gcc-arm-none-eabi-10.3-2021.10-x86_64-linux/gcc-arm-none-eabi-10.3-2021.10/arm-none-eabi/include/sys/_types.h **** #else
 102:/home/irfan/Desktop/arm/gcc-arm-none-eabi-10.3-2021.10-x86_64-linux/gcc-arm-none-eabi-10.3-2021.10/arm-none-eabi/include/sys/_types.h **** typedef _off_t __off_t;
 1708              		.loc 10 102 1 view .LVU727
 103:/home/irfan/Desktop/arm/gcc-arm-none-eabi-10.3-2021.10-x86_64-linux/gcc-arm-none-eabi-10.3-2021.10/arm-none-eabi/include/sys/_types.h **** #endif
 104:/home/irfan/Desktop/arm/gcc-arm-none-eabi-10.3-2021.10-x86_64-linux/gcc-arm-none-eabi-10.3-2021.10/arm-none-eabi/include/sys/_types.h **** 
 105:/home/irfan/Desktop/arm/gcc-arm-none-eabi-10.3-2021.10-x86_64-linux/gcc-arm-none-eabi-10.3-2021.10/arm-none-eabi/include/sys/_types.h **** typedef _off64_t __loff_t;
 1709              		.loc 10 105 1 view .LVU728
 106:/home/irfan/Desktop/arm/gcc-arm-none-eabi-10.3-2021.10-x86_64-linux/gcc-arm-none-eabi-10.3-2021.10/arm-none-eabi/include/sys/_types.h **** 
 107:/home/irfan/Desktop/arm/gcc-arm-none-eabi-10.3-2021.10-x86_64-linux/gcc-arm-none-eabi-10.3-2021.10/arm-none-eabi/include/sys/_types.h **** #ifndef __machine_key_t_defined
 108:/home/irfan/Desktop/arm/gcc-arm-none-eabi-10.3-2021.10-x86_64-linux/gcc-arm-none-eabi-10.3-2021.10/arm-none-eabi/include/sys/_types.h **** typedef long __key_t;
 1710              		.loc 10 108 1 view .LVU729
 109:/home/irfan/Desktop/arm/gcc-arm-none-eabi-10.3-2021.10-x86_64-linux/gcc-arm-none-eabi-10.3-2021.10/arm-none-eabi/include/sys/_types.h **** #endif
 110:/home/irfan/Desktop/arm/gcc-arm-none-eabi-10.3-2021.10-x86_64-linux/gcc-arm-none-eabi-10.3-2021.10/arm-none-eabi/include/sys/_types.h **** 
 111:/home/irfan/Desktop/arm/gcc-arm-none-eabi-10.3-2021.10-x86_64-linux/gcc-arm-none-eabi-10.3-2021.10/arm-none-eabi/include/sys/_types.h **** /*
 112:/home/irfan/Desktop/arm/gcc-arm-none-eabi-10.3-2021.10-x86_64-linux/gcc-arm-none-eabi-10.3-2021.10/arm-none-eabi/include/sys/_types.h ****  * We need fpos_t for the following, but it doesn't have a leading "_",
 113:/home/irfan/Desktop/arm/gcc-arm-none-eabi-10.3-2021.10-x86_64-linux/gcc-arm-none-eabi-10.3-2021.10/arm-none-eabi/include/sys/_types.h ****  * so we use _fpos_t instead.
 114:/home/irfan/Desktop/arm/gcc-arm-none-eabi-10.3-2021.10-x86_64-linux/gcc-arm-none-eabi-10.3-2021.10/arm-none-eabi/include/sys/_types.h ****  */
 115:/home/irfan/Desktop/arm/gcc-arm-none-eabi-10.3-2021.10-x86_64-linux/gcc-arm-none-eabi-10.3-2021.10/arm-none-eabi/include/sys/_types.h **** #ifndef __machine_fpos_t_defined
 116:/home/irfan/Desktop/arm/gcc-arm-none-eabi-10.3-2021.10-x86_64-linux/gcc-arm-none-eabi-10.3-2021.10/arm-none-eabi/include/sys/_types.h **** typedef long _fpos_t;		/* XXX must match off_t in <sys/types.h> */
 1711              		.loc 10 116 1 view .LVU730
 117:/home/irfan/Desktop/arm/gcc-arm-none-eabi-10.3-2021.10-x86_64-linux/gcc-arm-none-eabi-10.3-2021.10/arm-none-eabi/include/sys/_types.h **** 				/* (and must be `long' for now) */
 118:/home/irfan/Desktop/arm/gcc-arm-none-eabi-10.3-2021.10-x86_64-linux/gcc-arm-none-eabi-10.3-2021.10/arm-none-eabi/include/sys/_types.h **** #endif
 119:/home/irfan/Desktop/arm/gcc-arm-none-eabi-10.3-2021.10-x86_64-linux/gcc-arm-none-eabi-10.3-2021.10/arm-none-eabi/include/sys/_types.h **** 
 120:/home/irfan/Desktop/arm/gcc-arm-none-eabi-10.3-2021.10-x86_64-linux/gcc-arm-none-eabi-10.3-2021.10/arm-none-eabi/include/sys/_types.h **** #ifdef __LARGE64_FILES
 121:/home/irfan/Desktop/arm/gcc-arm-none-eabi-10.3-2021.10-x86_64-linux/gcc-arm-none-eabi-10.3-2021.10/arm-none-eabi/include/sys/_types.h **** #ifndef __machine_fpos64_t_defined
 122:/home/irfan/Desktop/arm/gcc-arm-none-eabi-10.3-2021.10-x86_64-linux/gcc-arm-none-eabi-10.3-2021.10/arm-none-eabi/include/sys/_types.h **** typedef _off64_t _fpos64_t;
 123:/home/irfan/Desktop/arm/gcc-arm-none-eabi-10.3-2021.10-x86_64-linux/gcc-arm-none-eabi-10.3-2021.10/arm-none-eabi/include/sys/_types.h **** #endif
 124:/home/irfan/Desktop/arm/gcc-arm-none-eabi-10.3-2021.10-x86_64-linux/gcc-arm-none-eabi-10.3-2021.10/arm-none-eabi/include/sys/_types.h **** #endif
 125:/home/irfan/Desktop/arm/gcc-arm-none-eabi-10.3-2021.10-x86_64-linux/gcc-arm-none-eabi-10.3-2021.10/arm-none-eabi/include/sys/_types.h **** 
 126:/home/irfan/Desktop/arm/gcc-arm-none-eabi-10.3-2021.10-x86_64-linux/gcc-arm-none-eabi-10.3-2021.10/arm-none-eabi/include/sys/_types.h **** /* Defined by GCC provided <stddef.h> */
 127:/home/irfan/Desktop/arm/gcc-arm-none-eabi-10.3-2021.10-x86_64-linux/gcc-arm-none-eabi-10.3-2021.10/arm-none-eabi/include/sys/_types.h **** #undef __size_t
 128:/home/irfan/Desktop/arm/gcc-arm-none-eabi-10.3-2021.10-x86_64-linux/gcc-arm-none-eabi-10.3-2021.10/arm-none-eabi/include/sys/_types.h **** 
 129:/home/irfan/Desktop/arm/gcc-arm-none-eabi-10.3-2021.10-x86_64-linux/gcc-arm-none-eabi-10.3-2021.10/arm-none-eabi/include/sys/_types.h **** #ifndef __machine_size_t_defined
 130:/home/irfan/Desktop/arm/gcc-arm-none-eabi-10.3-2021.10-x86_64-linux/gcc-arm-none-eabi-10.3-2021.10/arm-none-eabi/include/sys/_types.h **** #ifdef __SIZE_TYPE__
 131:/home/irfan/Desktop/arm/gcc-arm-none-eabi-10.3-2021.10-x86_64-linux/gcc-arm-none-eabi-10.3-2021.10/arm-none-eabi/include/sys/_types.h **** typedef __SIZE_TYPE__ __size_t;
 1712              		.loc 10 131 1 view .LVU731
 132:/home/irfan/Desktop/arm/gcc-arm-none-eabi-10.3-2021.10-x86_64-linux/gcc-arm-none-eabi-10.3-2021.10/arm-none-eabi/include/sys/_types.h **** #else
 133:/home/irfan/Desktop/arm/gcc-arm-none-eabi-10.3-2021.10-x86_64-linux/gcc-arm-none-eabi-10.3-2021.10/arm-none-eabi/include/sys/_types.h **** #if defined(__INT_MAX__) && __INT_MAX__ == 2147483647
 134:/home/irfan/Desktop/arm/gcc-arm-none-eabi-10.3-2021.10-x86_64-linux/gcc-arm-none-eabi-10.3-2021.10/arm-none-eabi/include/sys/_types.h **** typedef unsigned int __size_t;
 135:/home/irfan/Desktop/arm/gcc-arm-none-eabi-10.3-2021.10-x86_64-linux/gcc-arm-none-eabi-10.3-2021.10/arm-none-eabi/include/sys/_types.h **** #else
 136:/home/irfan/Desktop/arm/gcc-arm-none-eabi-10.3-2021.10-x86_64-linux/gcc-arm-none-eabi-10.3-2021.10/arm-none-eabi/include/sys/_types.h **** typedef unsigned long __size_t;
 137:/home/irfan/Desktop/arm/gcc-arm-none-eabi-10.3-2021.10-x86_64-linux/gcc-arm-none-eabi-10.3-2021.10/arm-none-eabi/include/sys/_types.h **** #endif
 138:/home/irfan/Desktop/arm/gcc-arm-none-eabi-10.3-2021.10-x86_64-linux/gcc-arm-none-eabi-10.3-2021.10/arm-none-eabi/include/sys/_types.h **** #endif
 139:/home/irfan/Desktop/arm/gcc-arm-none-eabi-10.3-2021.10-x86_64-linux/gcc-arm-none-eabi-10.3-2021.10/arm-none-eabi/include/sys/_types.h **** #endif
 140:/home/irfan/Desktop/arm/gcc-arm-none-eabi-10.3-2021.10-x86_64-linux/gcc-arm-none-eabi-10.3-2021.10/arm-none-eabi/include/sys/_types.h **** 
 141:/home/irfan/Desktop/arm/gcc-arm-none-eabi-10.3-2021.10-x86_64-linux/gcc-arm-none-eabi-10.3-2021.10/arm-none-eabi/include/sys/_types.h **** #ifndef __machine_ssize_t_defined
 142:/home/irfan/Desktop/arm/gcc-arm-none-eabi-10.3-2021.10-x86_64-linux/gcc-arm-none-eabi-10.3-2021.10/arm-none-eabi/include/sys/_types.h **** #ifdef __SIZE_TYPE__
 143:/home/irfan/Desktop/arm/gcc-arm-none-eabi-10.3-2021.10-x86_64-linux/gcc-arm-none-eabi-10.3-2021.10/arm-none-eabi/include/sys/_types.h **** /* If __SIZE_TYPE__ is defined (gcc) we define ssize_t based on size_t.
ARM GAS  /tmp/ccYgTI9f.s 			page 84


 144:/home/irfan/Desktop/arm/gcc-arm-none-eabi-10.3-2021.10-x86_64-linux/gcc-arm-none-eabi-10.3-2021.10/arm-none-eabi/include/sys/_types.h ****    We simply change "unsigned" to "signed" for this single definition
 145:/home/irfan/Desktop/arm/gcc-arm-none-eabi-10.3-2021.10-x86_64-linux/gcc-arm-none-eabi-10.3-2021.10/arm-none-eabi/include/sys/_types.h ****    to make sure ssize_t and size_t only differ by their signedness. */
 146:/home/irfan/Desktop/arm/gcc-arm-none-eabi-10.3-2021.10-x86_64-linux/gcc-arm-none-eabi-10.3-2021.10/arm-none-eabi/include/sys/_types.h **** #define unsigned signed
 147:/home/irfan/Desktop/arm/gcc-arm-none-eabi-10.3-2021.10-x86_64-linux/gcc-arm-none-eabi-10.3-2021.10/arm-none-eabi/include/sys/_types.h **** typedef __SIZE_TYPE__ _ssize_t;
 1713              		.loc 10 147 1 view .LVU732
 148:/home/irfan/Desktop/arm/gcc-arm-none-eabi-10.3-2021.10-x86_64-linux/gcc-arm-none-eabi-10.3-2021.10/arm-none-eabi/include/sys/_types.h **** #undef unsigned
 149:/home/irfan/Desktop/arm/gcc-arm-none-eabi-10.3-2021.10-x86_64-linux/gcc-arm-none-eabi-10.3-2021.10/arm-none-eabi/include/sys/_types.h **** #else
 150:/home/irfan/Desktop/arm/gcc-arm-none-eabi-10.3-2021.10-x86_64-linux/gcc-arm-none-eabi-10.3-2021.10/arm-none-eabi/include/sys/_types.h **** #if defined(__INT_MAX__) && __INT_MAX__ == 2147483647
 151:/home/irfan/Desktop/arm/gcc-arm-none-eabi-10.3-2021.10-x86_64-linux/gcc-arm-none-eabi-10.3-2021.10/arm-none-eabi/include/sys/_types.h **** typedef int _ssize_t;
 152:/home/irfan/Desktop/arm/gcc-arm-none-eabi-10.3-2021.10-x86_64-linux/gcc-arm-none-eabi-10.3-2021.10/arm-none-eabi/include/sys/_types.h **** #else
 153:/home/irfan/Desktop/arm/gcc-arm-none-eabi-10.3-2021.10-x86_64-linux/gcc-arm-none-eabi-10.3-2021.10/arm-none-eabi/include/sys/_types.h **** typedef long _ssize_t;
 154:/home/irfan/Desktop/arm/gcc-arm-none-eabi-10.3-2021.10-x86_64-linux/gcc-arm-none-eabi-10.3-2021.10/arm-none-eabi/include/sys/_types.h **** #endif
 155:/home/irfan/Desktop/arm/gcc-arm-none-eabi-10.3-2021.10-x86_64-linux/gcc-arm-none-eabi-10.3-2021.10/arm-none-eabi/include/sys/_types.h **** #endif
 156:/home/irfan/Desktop/arm/gcc-arm-none-eabi-10.3-2021.10-x86_64-linux/gcc-arm-none-eabi-10.3-2021.10/arm-none-eabi/include/sys/_types.h **** #endif
 157:/home/irfan/Desktop/arm/gcc-arm-none-eabi-10.3-2021.10-x86_64-linux/gcc-arm-none-eabi-10.3-2021.10/arm-none-eabi/include/sys/_types.h **** 
 158:/home/irfan/Desktop/arm/gcc-arm-none-eabi-10.3-2021.10-x86_64-linux/gcc-arm-none-eabi-10.3-2021.10/arm-none-eabi/include/sys/_types.h **** typedef _ssize_t __ssize_t;
 1714              		.loc 10 158 1 view .LVU733
 159:/home/irfan/Desktop/arm/gcc-arm-none-eabi-10.3-2021.10-x86_64-linux/gcc-arm-none-eabi-10.3-2021.10/arm-none-eabi/include/sys/_types.h **** 
 160:/home/irfan/Desktop/arm/gcc-arm-none-eabi-10.3-2021.10-x86_64-linux/gcc-arm-none-eabi-10.3-2021.10/arm-none-eabi/include/sys/_types.h **** #ifndef __machine_mbstate_t_defined
 161:/home/irfan/Desktop/arm/gcc-arm-none-eabi-10.3-2021.10-x86_64-linux/gcc-arm-none-eabi-10.3-2021.10/arm-none-eabi/include/sys/_types.h **** /* Conversion state information.  */
 162:/home/irfan/Desktop/arm/gcc-arm-none-eabi-10.3-2021.10-x86_64-linux/gcc-arm-none-eabi-10.3-2021.10/arm-none-eabi/include/sys/_types.h **** typedef struct
 1715              		.loc 10 162 1 view .LVU734
 163:/home/irfan/Desktop/arm/gcc-arm-none-eabi-10.3-2021.10-x86_64-linux/gcc-arm-none-eabi-10.3-2021.10/arm-none-eabi/include/sys/_types.h **** {
 164:/home/irfan/Desktop/arm/gcc-arm-none-eabi-10.3-2021.10-x86_64-linux/gcc-arm-none-eabi-10.3-2021.10/arm-none-eabi/include/sys/_types.h ****   int __count;
 165:/home/irfan/Desktop/arm/gcc-arm-none-eabi-10.3-2021.10-x86_64-linux/gcc-arm-none-eabi-10.3-2021.10/arm-none-eabi/include/sys/_types.h ****   union
 166:/home/irfan/Desktop/arm/gcc-arm-none-eabi-10.3-2021.10-x86_64-linux/gcc-arm-none-eabi-10.3-2021.10/arm-none-eabi/include/sys/_types.h ****   {
 167:/home/irfan/Desktop/arm/gcc-arm-none-eabi-10.3-2021.10-x86_64-linux/gcc-arm-none-eabi-10.3-2021.10/arm-none-eabi/include/sys/_types.h ****     wint_t __wch;
 168:/home/irfan/Desktop/arm/gcc-arm-none-eabi-10.3-2021.10-x86_64-linux/gcc-arm-none-eabi-10.3-2021.10/arm-none-eabi/include/sys/_types.h ****     unsigned char __wchb[4];
 169:/home/irfan/Desktop/arm/gcc-arm-none-eabi-10.3-2021.10-x86_64-linux/gcc-arm-none-eabi-10.3-2021.10/arm-none-eabi/include/sys/_types.h ****   } __value;		/* Value so far.  */
 170:/home/irfan/Desktop/arm/gcc-arm-none-eabi-10.3-2021.10-x86_64-linux/gcc-arm-none-eabi-10.3-2021.10/arm-none-eabi/include/sys/_types.h **** } _mbstate_t;
 171:/home/irfan/Desktop/arm/gcc-arm-none-eabi-10.3-2021.10-x86_64-linux/gcc-arm-none-eabi-10.3-2021.10/arm-none-eabi/include/sys/_types.h **** #endif
 172:/home/irfan/Desktop/arm/gcc-arm-none-eabi-10.3-2021.10-x86_64-linux/gcc-arm-none-eabi-10.3-2021.10/arm-none-eabi/include/sys/_types.h **** 
 173:/home/irfan/Desktop/arm/gcc-arm-none-eabi-10.3-2021.10-x86_64-linux/gcc-arm-none-eabi-10.3-2021.10/arm-none-eabi/include/sys/_types.h **** #ifndef __machine_iconv_t_defined
 174:/home/irfan/Desktop/arm/gcc-arm-none-eabi-10.3-2021.10-x86_64-linux/gcc-arm-none-eabi-10.3-2021.10/arm-none-eabi/include/sys/_types.h **** /* Iconv descriptor type */
 175:/home/irfan/Desktop/arm/gcc-arm-none-eabi-10.3-2021.10-x86_64-linux/gcc-arm-none-eabi-10.3-2021.10/arm-none-eabi/include/sys/_types.h **** typedef void *_iconv_t;
 1716              		.loc 10 175 1 view .LVU735
 176:/home/irfan/Desktop/arm/gcc-arm-none-eabi-10.3-2021.10-x86_64-linux/gcc-arm-none-eabi-10.3-2021.10/arm-none-eabi/include/sys/_types.h **** #endif
 177:/home/irfan/Desktop/arm/gcc-arm-none-eabi-10.3-2021.10-x86_64-linux/gcc-arm-none-eabi-10.3-2021.10/arm-none-eabi/include/sys/_types.h **** 
 178:/home/irfan/Desktop/arm/gcc-arm-none-eabi-10.3-2021.10-x86_64-linux/gcc-arm-none-eabi-10.3-2021.10/arm-none-eabi/include/sys/_types.h **** #ifndef __machine_clock_t_defined
 179:/home/irfan/Desktop/arm/gcc-arm-none-eabi-10.3-2021.10-x86_64-linux/gcc-arm-none-eabi-10.3-2021.10/arm-none-eabi/include/sys/_types.h **** #define	_CLOCK_T_	unsigned long	/* clock() */
 180:/home/irfan/Desktop/arm/gcc-arm-none-eabi-10.3-2021.10-x86_64-linux/gcc-arm-none-eabi-10.3-2021.10/arm-none-eabi/include/sys/_types.h **** #endif
 181:/home/irfan/Desktop/arm/gcc-arm-none-eabi-10.3-2021.10-x86_64-linux/gcc-arm-none-eabi-10.3-2021.10/arm-none-eabi/include/sys/_types.h **** 
 182:/home/irfan/Desktop/arm/gcc-arm-none-eabi-10.3-2021.10-x86_64-linux/gcc-arm-none-eabi-10.3-2021.10/arm-none-eabi/include/sys/_types.h **** typedef	_CLOCK_T_	__clock_t;
 1717              		.loc 10 182 1 view .LVU736
 183:/home/irfan/Desktop/arm/gcc-arm-none-eabi-10.3-2021.10-x86_64-linux/gcc-arm-none-eabi-10.3-2021.10/arm-none-eabi/include/sys/_types.h **** 
 184:/home/irfan/Desktop/arm/gcc-arm-none-eabi-10.3-2021.10-x86_64-linux/gcc-arm-none-eabi-10.3-2021.10/arm-none-eabi/include/sys/_types.h **** #if defined(_USE_LONG_TIME_T) || __LONG_MAX__ > 0x7fffffffL
 185:/home/irfan/Desktop/arm/gcc-arm-none-eabi-10.3-2021.10-x86_64-linux/gcc-arm-none-eabi-10.3-2021.10/arm-none-eabi/include/sys/_types.h **** #define	_TIME_T_ long
 186:/home/irfan/Desktop/arm/gcc-arm-none-eabi-10.3-2021.10-x86_64-linux/gcc-arm-none-eabi-10.3-2021.10/arm-none-eabi/include/sys/_types.h **** #else
 187:/home/irfan/Desktop/arm/gcc-arm-none-eabi-10.3-2021.10-x86_64-linux/gcc-arm-none-eabi-10.3-2021.10/arm-none-eabi/include/sys/_types.h **** #define	_TIME_T_ __int_least64_t
 188:/home/irfan/Desktop/arm/gcc-arm-none-eabi-10.3-2021.10-x86_64-linux/gcc-arm-none-eabi-10.3-2021.10/arm-none-eabi/include/sys/_types.h **** #endif
 189:/home/irfan/Desktop/arm/gcc-arm-none-eabi-10.3-2021.10-x86_64-linux/gcc-arm-none-eabi-10.3-2021.10/arm-none-eabi/include/sys/_types.h **** typedef	_TIME_T_	__time_t;
 1718              		.loc 10 189 1 view .LVU737
 190:/home/irfan/Desktop/arm/gcc-arm-none-eabi-10.3-2021.10-x86_64-linux/gcc-arm-none-eabi-10.3-2021.10/arm-none-eabi/include/sys/_types.h **** 
 191:/home/irfan/Desktop/arm/gcc-arm-none-eabi-10.3-2021.10-x86_64-linux/gcc-arm-none-eabi-10.3-2021.10/arm-none-eabi/include/sys/_types.h **** #ifndef __machine_clockid_t_defined
 192:/home/irfan/Desktop/arm/gcc-arm-none-eabi-10.3-2021.10-x86_64-linux/gcc-arm-none-eabi-10.3-2021.10/arm-none-eabi/include/sys/_types.h **** #define	_CLOCKID_T_ 	unsigned long
 193:/home/irfan/Desktop/arm/gcc-arm-none-eabi-10.3-2021.10-x86_64-linux/gcc-arm-none-eabi-10.3-2021.10/arm-none-eabi/include/sys/_types.h **** #endif
 194:/home/irfan/Desktop/arm/gcc-arm-none-eabi-10.3-2021.10-x86_64-linux/gcc-arm-none-eabi-10.3-2021.10/arm-none-eabi/include/sys/_types.h **** 
ARM GAS  /tmp/ccYgTI9f.s 			page 85


 195:/home/irfan/Desktop/arm/gcc-arm-none-eabi-10.3-2021.10-x86_64-linux/gcc-arm-none-eabi-10.3-2021.10/arm-none-eabi/include/sys/_types.h **** typedef	_CLOCKID_T_	__clockid_t;
 1719              		.loc 10 195 1 view .LVU738
 196:/home/irfan/Desktop/arm/gcc-arm-none-eabi-10.3-2021.10-x86_64-linux/gcc-arm-none-eabi-10.3-2021.10/arm-none-eabi/include/sys/_types.h **** 
 197:/home/irfan/Desktop/arm/gcc-arm-none-eabi-10.3-2021.10-x86_64-linux/gcc-arm-none-eabi-10.3-2021.10/arm-none-eabi/include/sys/_types.h **** #define	_TIMER_T_	unsigned long
 198:/home/irfan/Desktop/arm/gcc-arm-none-eabi-10.3-2021.10-x86_64-linux/gcc-arm-none-eabi-10.3-2021.10/arm-none-eabi/include/sys/_types.h **** typedef	_TIMER_T_	__timer_t;
 1720              		.loc 10 198 1 view .LVU739
 199:/home/irfan/Desktop/arm/gcc-arm-none-eabi-10.3-2021.10-x86_64-linux/gcc-arm-none-eabi-10.3-2021.10/arm-none-eabi/include/sys/_types.h **** 
 200:/home/irfan/Desktop/arm/gcc-arm-none-eabi-10.3-2021.10-x86_64-linux/gcc-arm-none-eabi-10.3-2021.10/arm-none-eabi/include/sys/_types.h **** #ifndef __machine_sa_family_t_defined
 201:/home/irfan/Desktop/arm/gcc-arm-none-eabi-10.3-2021.10-x86_64-linux/gcc-arm-none-eabi-10.3-2021.10/arm-none-eabi/include/sys/_types.h **** typedef	__uint8_t	__sa_family_t;
 1721              		.loc 10 201 1 view .LVU740
 202:/home/irfan/Desktop/arm/gcc-arm-none-eabi-10.3-2021.10-x86_64-linux/gcc-arm-none-eabi-10.3-2021.10/arm-none-eabi/include/sys/_types.h **** #endif
 203:/home/irfan/Desktop/arm/gcc-arm-none-eabi-10.3-2021.10-x86_64-linux/gcc-arm-none-eabi-10.3-2021.10/arm-none-eabi/include/sys/_types.h **** 
 204:/home/irfan/Desktop/arm/gcc-arm-none-eabi-10.3-2021.10-x86_64-linux/gcc-arm-none-eabi-10.3-2021.10/arm-none-eabi/include/sys/_types.h **** #ifndef __machine_socklen_t_defined
 205:/home/irfan/Desktop/arm/gcc-arm-none-eabi-10.3-2021.10-x86_64-linux/gcc-arm-none-eabi-10.3-2021.10/arm-none-eabi/include/sys/_types.h **** typedef	__uint32_t	__socklen_t;
 1722              		.loc 10 205 1 view .LVU741
 206:/home/irfan/Desktop/arm/gcc-arm-none-eabi-10.3-2021.10-x86_64-linux/gcc-arm-none-eabi-10.3-2021.10/arm-none-eabi/include/sys/_types.h **** #endif
 207:/home/irfan/Desktop/arm/gcc-arm-none-eabi-10.3-2021.10-x86_64-linux/gcc-arm-none-eabi-10.3-2021.10/arm-none-eabi/include/sys/_types.h **** 
 208:/home/irfan/Desktop/arm/gcc-arm-none-eabi-10.3-2021.10-x86_64-linux/gcc-arm-none-eabi-10.3-2021.10/arm-none-eabi/include/sys/_types.h **** typedef	int		__nl_item;
 1723              		.loc 10 208 1 view .LVU742
 209:/home/irfan/Desktop/arm/gcc-arm-none-eabi-10.3-2021.10-x86_64-linux/gcc-arm-none-eabi-10.3-2021.10/arm-none-eabi/include/sys/_types.h **** typedef	unsigned short	__nlink_t;
 1724              		.loc 10 209 1 view .LVU743
 210:/home/irfan/Desktop/arm/gcc-arm-none-eabi-10.3-2021.10-x86_64-linux/gcc-arm-none-eabi-10.3-2021.10/arm-none-eabi/include/sys/_types.h **** typedef	long		__suseconds_t;	/* microseconds (signed) */
 1725              		.loc 10 210 1 view .LVU744
 211:/home/irfan/Desktop/arm/gcc-arm-none-eabi-10.3-2021.10-x86_64-linux/gcc-arm-none-eabi-10.3-2021.10/arm-none-eabi/include/sys/_types.h **** typedef	unsigned long	__useconds_t;	/* microseconds (unsigned) */
 1726              		.loc 10 211 1 view .LVU745
 212:/home/irfan/Desktop/arm/gcc-arm-none-eabi-10.3-2021.10-x86_64-linux/gcc-arm-none-eabi-10.3-2021.10/arm-none-eabi/include/sys/_types.h **** 
 213:/home/irfan/Desktop/arm/gcc-arm-none-eabi-10.3-2021.10-x86_64-linux/gcc-arm-none-eabi-10.3-2021.10/arm-none-eabi/include/sys/_types.h **** /*
 214:/home/irfan/Desktop/arm/gcc-arm-none-eabi-10.3-2021.10-x86_64-linux/gcc-arm-none-eabi-10.3-2021.10/arm-none-eabi/include/sys/_types.h ****  * Must be identical to the __GNUCLIKE_BUILTIN_VAALIST definition in
 215:/home/irfan/Desktop/arm/gcc-arm-none-eabi-10.3-2021.10-x86_64-linux/gcc-arm-none-eabi-10.3-2021.10/arm-none-eabi/include/sys/_types.h ****  * <sys/cdefs.h>.  The <sys/cdefs.h> must not be included here to avoid cyclic
 216:/home/irfan/Desktop/arm/gcc-arm-none-eabi-10.3-2021.10-x86_64-linux/gcc-arm-none-eabi-10.3-2021.10/arm-none-eabi/include/sys/_types.h ****  * header dependencies.
 217:/home/irfan/Desktop/arm/gcc-arm-none-eabi-10.3-2021.10-x86_64-linux/gcc-arm-none-eabi-10.3-2021.10/arm-none-eabi/include/sys/_types.h ****  */
 218:/home/irfan/Desktop/arm/gcc-arm-none-eabi-10.3-2021.10-x86_64-linux/gcc-arm-none-eabi-10.3-2021.10/arm-none-eabi/include/sys/_types.h **** #if __GNUC_MINOR__ > 95 || __GNUC__ >= 3
 219:/home/irfan/Desktop/arm/gcc-arm-none-eabi-10.3-2021.10-x86_64-linux/gcc-arm-none-eabi-10.3-2021.10/arm-none-eabi/include/sys/_types.h **** typedef	__builtin_va_list	__va_list;
 1727              		.loc 10 219 1 view .LVU746
 1728              		.file 11 "/home/irfan/Desktop/arm/gcc-arm-none-eabi-10.3-2021.10-x86_64-linux/gcc-arm-none-eabi-10
   1:/home/irfan/Desktop/arm/gcc-arm-none-eabi-10.3-2021.10-x86_64-linux/gcc-arm-none-eabi-10.3-2021.10/arm-none-eabi/include/sys/reent.h **** /* This header file provides the reentrancy.  */
   2:/home/irfan/Desktop/arm/gcc-arm-none-eabi-10.3-2021.10-x86_64-linux/gcc-arm-none-eabi-10.3-2021.10/arm-none-eabi/include/sys/reent.h **** 
   3:/home/irfan/Desktop/arm/gcc-arm-none-eabi-10.3-2021.10-x86_64-linux/gcc-arm-none-eabi-10.3-2021.10/arm-none-eabi/include/sys/reent.h **** /* WARNING: All identifiers here must begin with an underscore.  This file is
   4:/home/irfan/Desktop/arm/gcc-arm-none-eabi-10.3-2021.10-x86_64-linux/gcc-arm-none-eabi-10.3-2021.10/arm-none-eabi/include/sys/reent.h ****    included by stdio.h and others and we therefore must only use identifiers
   5:/home/irfan/Desktop/arm/gcc-arm-none-eabi-10.3-2021.10-x86_64-linux/gcc-arm-none-eabi-10.3-2021.10/arm-none-eabi/include/sys/reent.h ****    in the namespace allotted to us.  */
   6:/home/irfan/Desktop/arm/gcc-arm-none-eabi-10.3-2021.10-x86_64-linux/gcc-arm-none-eabi-10.3-2021.10/arm-none-eabi/include/sys/reent.h **** 
   7:/home/irfan/Desktop/arm/gcc-arm-none-eabi-10.3-2021.10-x86_64-linux/gcc-arm-none-eabi-10.3-2021.10/arm-none-eabi/include/sys/reent.h **** #ifndef _SYS_REENT_H_
   8:/home/irfan/Desktop/arm/gcc-arm-none-eabi-10.3-2021.10-x86_64-linux/gcc-arm-none-eabi-10.3-2021.10/arm-none-eabi/include/sys/reent.h **** #ifdef __cplusplus
   9:/home/irfan/Desktop/arm/gcc-arm-none-eabi-10.3-2021.10-x86_64-linux/gcc-arm-none-eabi-10.3-2021.10/arm-none-eabi/include/sys/reent.h **** extern "C" {
  10:/home/irfan/Desktop/arm/gcc-arm-none-eabi-10.3-2021.10-x86_64-linux/gcc-arm-none-eabi-10.3-2021.10/arm-none-eabi/include/sys/reent.h **** #endif
  11:/home/irfan/Desktop/arm/gcc-arm-none-eabi-10.3-2021.10-x86_64-linux/gcc-arm-none-eabi-10.3-2021.10/arm-none-eabi/include/sys/reent.h **** #define _SYS_REENT_H_
  12:/home/irfan/Desktop/arm/gcc-arm-none-eabi-10.3-2021.10-x86_64-linux/gcc-arm-none-eabi-10.3-2021.10/arm-none-eabi/include/sys/reent.h **** 
  13:/home/irfan/Desktop/arm/gcc-arm-none-eabi-10.3-2021.10-x86_64-linux/gcc-arm-none-eabi-10.3-2021.10/arm-none-eabi/include/sys/reent.h **** #include <_ansi.h>
  14:/home/irfan/Desktop/arm/gcc-arm-none-eabi-10.3-2021.10-x86_64-linux/gcc-arm-none-eabi-10.3-2021.10/arm-none-eabi/include/sys/reent.h **** #include <stddef.h>
  15:/home/irfan/Desktop/arm/gcc-arm-none-eabi-10.3-2021.10-x86_64-linux/gcc-arm-none-eabi-10.3-2021.10/arm-none-eabi/include/sys/reent.h **** #include <sys/_types.h>
  16:/home/irfan/Desktop/arm/gcc-arm-none-eabi-10.3-2021.10-x86_64-linux/gcc-arm-none-eabi-10.3-2021.10/arm-none-eabi/include/sys/reent.h **** 
  17:/home/irfan/Desktop/arm/gcc-arm-none-eabi-10.3-2021.10-x86_64-linux/gcc-arm-none-eabi-10.3-2021.10/arm-none-eabi/include/sys/reent.h **** #define _NULL 0
  18:/home/irfan/Desktop/arm/gcc-arm-none-eabi-10.3-2021.10-x86_64-linux/gcc-arm-none-eabi-10.3-2021.10/arm-none-eabi/include/sys/reent.h **** 
  19:/home/irfan/Desktop/arm/gcc-arm-none-eabi-10.3-2021.10-x86_64-linux/gcc-arm-none-eabi-10.3-2021.10/arm-none-eabi/include/sys/reent.h **** #ifndef __Long
  20:/home/irfan/Desktop/arm/gcc-arm-none-eabi-10.3-2021.10-x86_64-linux/gcc-arm-none-eabi-10.3-2021.10/arm-none-eabi/include/sys/reent.h **** #if __LONG_MAX__ == 2147483647L
  21:/home/irfan/Desktop/arm/gcc-arm-none-eabi-10.3-2021.10-x86_64-linux/gcc-arm-none-eabi-10.3-2021.10/arm-none-eabi/include/sys/reent.h **** #define __Long long
  22:/home/irfan/Desktop/arm/gcc-arm-none-eabi-10.3-2021.10-x86_64-linux/gcc-arm-none-eabi-10.3-2021.10/arm-none-eabi/include/sys/reent.h **** typedef unsigned __Long __ULong;
ARM GAS  /tmp/ccYgTI9f.s 			page 86


 1729              		.loc 11 22 1 view .LVU747
 1730              		.file 12 "/home/irfan/Desktop/arm/gcc-arm-none-eabi-10.3-2021.10-x86_64-linux/gcc-arm-none-eabi-10
   1:/home/irfan/Desktop/arm/gcc-arm-none-eabi-10.3-2021.10-x86_64-linux/gcc-arm-none-eabi-10.3-2021.10/arm-none-eabi/include/sys/lock.h **** #ifndef __SYS_LOCK_H__
   2:/home/irfan/Desktop/arm/gcc-arm-none-eabi-10.3-2021.10-x86_64-linux/gcc-arm-none-eabi-10.3-2021.10/arm-none-eabi/include/sys/lock.h **** #define __SYS_LOCK_H__
   3:/home/irfan/Desktop/arm/gcc-arm-none-eabi-10.3-2021.10-x86_64-linux/gcc-arm-none-eabi-10.3-2021.10/arm-none-eabi/include/sys/lock.h **** 
   4:/home/irfan/Desktop/arm/gcc-arm-none-eabi-10.3-2021.10-x86_64-linux/gcc-arm-none-eabi-10.3-2021.10/arm-none-eabi/include/sys/lock.h **** /* dummy lock routines for single-threaded aps */
   5:/home/irfan/Desktop/arm/gcc-arm-none-eabi-10.3-2021.10-x86_64-linux/gcc-arm-none-eabi-10.3-2021.10/arm-none-eabi/include/sys/lock.h **** 
   6:/home/irfan/Desktop/arm/gcc-arm-none-eabi-10.3-2021.10-x86_64-linux/gcc-arm-none-eabi-10.3-2021.10/arm-none-eabi/include/sys/lock.h **** #include <newlib.h>
   7:/home/irfan/Desktop/arm/gcc-arm-none-eabi-10.3-2021.10-x86_64-linux/gcc-arm-none-eabi-10.3-2021.10/arm-none-eabi/include/sys/lock.h **** #include <_ansi.h>
   8:/home/irfan/Desktop/arm/gcc-arm-none-eabi-10.3-2021.10-x86_64-linux/gcc-arm-none-eabi-10.3-2021.10/arm-none-eabi/include/sys/lock.h **** 
   9:/home/irfan/Desktop/arm/gcc-arm-none-eabi-10.3-2021.10-x86_64-linux/gcc-arm-none-eabi-10.3-2021.10/arm-none-eabi/include/sys/lock.h **** #if !defined(_RETARGETABLE_LOCKING)
  10:/home/irfan/Desktop/arm/gcc-arm-none-eabi-10.3-2021.10-x86_64-linux/gcc-arm-none-eabi-10.3-2021.10/arm-none-eabi/include/sys/lock.h **** 
  11:/home/irfan/Desktop/arm/gcc-arm-none-eabi-10.3-2021.10-x86_64-linux/gcc-arm-none-eabi-10.3-2021.10/arm-none-eabi/include/sys/lock.h **** typedef int _LOCK_T;
  12:/home/irfan/Desktop/arm/gcc-arm-none-eabi-10.3-2021.10-x86_64-linux/gcc-arm-none-eabi-10.3-2021.10/arm-none-eabi/include/sys/lock.h **** typedef int _LOCK_RECURSIVE_T;
  13:/home/irfan/Desktop/arm/gcc-arm-none-eabi-10.3-2021.10-x86_64-linux/gcc-arm-none-eabi-10.3-2021.10/arm-none-eabi/include/sys/lock.h **** 
  14:/home/irfan/Desktop/arm/gcc-arm-none-eabi-10.3-2021.10-x86_64-linux/gcc-arm-none-eabi-10.3-2021.10/arm-none-eabi/include/sys/lock.h **** #define __LOCK_INIT(class,lock) static int lock = 0;
  15:/home/irfan/Desktop/arm/gcc-arm-none-eabi-10.3-2021.10-x86_64-linux/gcc-arm-none-eabi-10.3-2021.10/arm-none-eabi/include/sys/lock.h **** #define __LOCK_INIT_RECURSIVE(class,lock) static int lock = 0;
  16:/home/irfan/Desktop/arm/gcc-arm-none-eabi-10.3-2021.10-x86_64-linux/gcc-arm-none-eabi-10.3-2021.10/arm-none-eabi/include/sys/lock.h **** #define __lock_init(lock) ((void) 0)
  17:/home/irfan/Desktop/arm/gcc-arm-none-eabi-10.3-2021.10-x86_64-linux/gcc-arm-none-eabi-10.3-2021.10/arm-none-eabi/include/sys/lock.h **** #define __lock_init_recursive(lock) ((void) 0)
  18:/home/irfan/Desktop/arm/gcc-arm-none-eabi-10.3-2021.10-x86_64-linux/gcc-arm-none-eabi-10.3-2021.10/arm-none-eabi/include/sys/lock.h **** #define __lock_close(lock) ((void) 0)
  19:/home/irfan/Desktop/arm/gcc-arm-none-eabi-10.3-2021.10-x86_64-linux/gcc-arm-none-eabi-10.3-2021.10/arm-none-eabi/include/sys/lock.h **** #define __lock_close_recursive(lock) ((void) 0)
  20:/home/irfan/Desktop/arm/gcc-arm-none-eabi-10.3-2021.10-x86_64-linux/gcc-arm-none-eabi-10.3-2021.10/arm-none-eabi/include/sys/lock.h **** #define __lock_acquire(lock) ((void) 0)
  21:/home/irfan/Desktop/arm/gcc-arm-none-eabi-10.3-2021.10-x86_64-linux/gcc-arm-none-eabi-10.3-2021.10/arm-none-eabi/include/sys/lock.h **** #define __lock_acquire_recursive(lock) ((void) 0)
  22:/home/irfan/Desktop/arm/gcc-arm-none-eabi-10.3-2021.10-x86_64-linux/gcc-arm-none-eabi-10.3-2021.10/arm-none-eabi/include/sys/lock.h **** #define __lock_try_acquire(lock) ((void) 0)
  23:/home/irfan/Desktop/arm/gcc-arm-none-eabi-10.3-2021.10-x86_64-linux/gcc-arm-none-eabi-10.3-2021.10/arm-none-eabi/include/sys/lock.h **** #define __lock_try_acquire_recursive(lock) ((void) 0)
  24:/home/irfan/Desktop/arm/gcc-arm-none-eabi-10.3-2021.10-x86_64-linux/gcc-arm-none-eabi-10.3-2021.10/arm-none-eabi/include/sys/lock.h **** #define __lock_release(lock) ((void) 0)
  25:/home/irfan/Desktop/arm/gcc-arm-none-eabi-10.3-2021.10-x86_64-linux/gcc-arm-none-eabi-10.3-2021.10/arm-none-eabi/include/sys/lock.h **** #define __lock_release_recursive(lock) ((void) 0)
  26:/home/irfan/Desktop/arm/gcc-arm-none-eabi-10.3-2021.10-x86_64-linux/gcc-arm-none-eabi-10.3-2021.10/arm-none-eabi/include/sys/lock.h **** 
  27:/home/irfan/Desktop/arm/gcc-arm-none-eabi-10.3-2021.10-x86_64-linux/gcc-arm-none-eabi-10.3-2021.10/arm-none-eabi/include/sys/lock.h **** #else
  28:/home/irfan/Desktop/arm/gcc-arm-none-eabi-10.3-2021.10-x86_64-linux/gcc-arm-none-eabi-10.3-2021.10/arm-none-eabi/include/sys/lock.h **** 
  29:/home/irfan/Desktop/arm/gcc-arm-none-eabi-10.3-2021.10-x86_64-linux/gcc-arm-none-eabi-10.3-2021.10/arm-none-eabi/include/sys/lock.h **** #ifdef __cplusplus
  30:/home/irfan/Desktop/arm/gcc-arm-none-eabi-10.3-2021.10-x86_64-linux/gcc-arm-none-eabi-10.3-2021.10/arm-none-eabi/include/sys/lock.h **** extern "C" {
  31:/home/irfan/Desktop/arm/gcc-arm-none-eabi-10.3-2021.10-x86_64-linux/gcc-arm-none-eabi-10.3-2021.10/arm-none-eabi/include/sys/lock.h **** #endif
  32:/home/irfan/Desktop/arm/gcc-arm-none-eabi-10.3-2021.10-x86_64-linux/gcc-arm-none-eabi-10.3-2021.10/arm-none-eabi/include/sys/lock.h **** 
  33:/home/irfan/Desktop/arm/gcc-arm-none-eabi-10.3-2021.10-x86_64-linux/gcc-arm-none-eabi-10.3-2021.10/arm-none-eabi/include/sys/lock.h **** struct __lock;
 1731              		.loc 12 33 1 view .LVU748
  34:/home/irfan/Desktop/arm/gcc-arm-none-eabi-10.3-2021.10-x86_64-linux/gcc-arm-none-eabi-10.3-2021.10/arm-none-eabi/include/sys/lock.h **** typedef struct __lock * _LOCK_T;
 1732              		.loc 12 34 1 view .LVU749
  35:/home/irfan/Desktop/arm/gcc-arm-none-eabi-10.3-2021.10-x86_64-linux/gcc-arm-none-eabi-10.3-2021.10/arm-none-eabi/include/sys/lock.h **** #define _LOCK_RECURSIVE_T _LOCK_T
  36:/home/irfan/Desktop/arm/gcc-arm-none-eabi-10.3-2021.10-x86_64-linux/gcc-arm-none-eabi-10.3-2021.10/arm-none-eabi/include/sys/lock.h **** 
  37:/home/irfan/Desktop/arm/gcc-arm-none-eabi-10.3-2021.10-x86_64-linux/gcc-arm-none-eabi-10.3-2021.10/arm-none-eabi/include/sys/lock.h **** #define __LOCK_INIT(class,lock) extern struct __lock __lock_ ## lock; \
  38:/home/irfan/Desktop/arm/gcc-arm-none-eabi-10.3-2021.10-x86_64-linux/gcc-arm-none-eabi-10.3-2021.10/arm-none-eabi/include/sys/lock.h **** 	class _LOCK_T lock = &__lock_ ## lock
  39:/home/irfan/Desktop/arm/gcc-arm-none-eabi-10.3-2021.10-x86_64-linux/gcc-arm-none-eabi-10.3-2021.10/arm-none-eabi/include/sys/lock.h **** #define __LOCK_INIT_RECURSIVE(class,lock) __LOCK_INIT(class,lock)
  40:/home/irfan/Desktop/arm/gcc-arm-none-eabi-10.3-2021.10-x86_64-linux/gcc-arm-none-eabi-10.3-2021.10/arm-none-eabi/include/sys/lock.h **** 
  41:/home/irfan/Desktop/arm/gcc-arm-none-eabi-10.3-2021.10-x86_64-linux/gcc-arm-none-eabi-10.3-2021.10/arm-none-eabi/include/sys/lock.h **** extern void __retarget_lock_init(_LOCK_T *lock);
 1733              		.loc 12 41 1 view .LVU750
  42:/home/irfan/Desktop/arm/gcc-arm-none-eabi-10.3-2021.10-x86_64-linux/gcc-arm-none-eabi-10.3-2021.10/arm-none-eabi/include/sys/lock.h **** #define __lock_init(lock) __retarget_lock_init(&lock)
  43:/home/irfan/Desktop/arm/gcc-arm-none-eabi-10.3-2021.10-x86_64-linux/gcc-arm-none-eabi-10.3-2021.10/arm-none-eabi/include/sys/lock.h **** extern void __retarget_lock_init_recursive(_LOCK_T *lock);
 1734              		.loc 12 43 1 view .LVU751
  44:/home/irfan/Desktop/arm/gcc-arm-none-eabi-10.3-2021.10-x86_64-linux/gcc-arm-none-eabi-10.3-2021.10/arm-none-eabi/include/sys/lock.h **** #define __lock_init_recursive(lock) __retarget_lock_init_recursive(&lock)
  45:/home/irfan/Desktop/arm/gcc-arm-none-eabi-10.3-2021.10-x86_64-linux/gcc-arm-none-eabi-10.3-2021.10/arm-none-eabi/include/sys/lock.h **** extern void __retarget_lock_close(_LOCK_T lock);
 1735              		.loc 12 45 1 view .LVU752
  46:/home/irfan/Desktop/arm/gcc-arm-none-eabi-10.3-2021.10-x86_64-linux/gcc-arm-none-eabi-10.3-2021.10/arm-none-eabi/include/sys/lock.h **** #define __lock_close(lock) __retarget_lock_close(lock)
  47:/home/irfan/Desktop/arm/gcc-arm-none-eabi-10.3-2021.10-x86_64-linux/gcc-arm-none-eabi-10.3-2021.10/arm-none-eabi/include/sys/lock.h **** extern void __retarget_lock_close_recursive(_LOCK_T lock);
 1736              		.loc 12 47 1 view .LVU753
  48:/home/irfan/Desktop/arm/gcc-arm-none-eabi-10.3-2021.10-x86_64-linux/gcc-arm-none-eabi-10.3-2021.10/arm-none-eabi/include/sys/lock.h **** #define __lock_close_recursive(lock) __retarget_lock_close_recursive(lock)
  49:/home/irfan/Desktop/arm/gcc-arm-none-eabi-10.3-2021.10-x86_64-linux/gcc-arm-none-eabi-10.3-2021.10/arm-none-eabi/include/sys/lock.h **** extern void __retarget_lock_acquire(_LOCK_T lock);
ARM GAS  /tmp/ccYgTI9f.s 			page 87


 1737              		.loc 12 49 1 view .LVU754
  50:/home/irfan/Desktop/arm/gcc-arm-none-eabi-10.3-2021.10-x86_64-linux/gcc-arm-none-eabi-10.3-2021.10/arm-none-eabi/include/sys/lock.h **** #define __lock_acquire(lock) __retarget_lock_acquire(lock)
  51:/home/irfan/Desktop/arm/gcc-arm-none-eabi-10.3-2021.10-x86_64-linux/gcc-arm-none-eabi-10.3-2021.10/arm-none-eabi/include/sys/lock.h **** extern void __retarget_lock_acquire_recursive(_LOCK_T lock);
 1738              		.loc 12 51 1 view .LVU755
  52:/home/irfan/Desktop/arm/gcc-arm-none-eabi-10.3-2021.10-x86_64-linux/gcc-arm-none-eabi-10.3-2021.10/arm-none-eabi/include/sys/lock.h **** #define __lock_acquire_recursive(lock) __retarget_lock_acquire_recursive(lock)
  53:/home/irfan/Desktop/arm/gcc-arm-none-eabi-10.3-2021.10-x86_64-linux/gcc-arm-none-eabi-10.3-2021.10/arm-none-eabi/include/sys/lock.h **** extern int __retarget_lock_try_acquire(_LOCK_T lock);
 1739              		.loc 12 53 1 view .LVU756
  54:/home/irfan/Desktop/arm/gcc-arm-none-eabi-10.3-2021.10-x86_64-linux/gcc-arm-none-eabi-10.3-2021.10/arm-none-eabi/include/sys/lock.h **** #define __lock_try_acquire(lock) __retarget_lock_try_acquire(lock)
  55:/home/irfan/Desktop/arm/gcc-arm-none-eabi-10.3-2021.10-x86_64-linux/gcc-arm-none-eabi-10.3-2021.10/arm-none-eabi/include/sys/lock.h **** extern int __retarget_lock_try_acquire_recursive(_LOCK_T lock);
 1740              		.loc 12 55 1 view .LVU757
  56:/home/irfan/Desktop/arm/gcc-arm-none-eabi-10.3-2021.10-x86_64-linux/gcc-arm-none-eabi-10.3-2021.10/arm-none-eabi/include/sys/lock.h **** #define __lock_try_acquire_recursive(lock) \
  57:/home/irfan/Desktop/arm/gcc-arm-none-eabi-10.3-2021.10-x86_64-linux/gcc-arm-none-eabi-10.3-2021.10/arm-none-eabi/include/sys/lock.h ****   __retarget_lock_try_acquire_recursive(lock)
  58:/home/irfan/Desktop/arm/gcc-arm-none-eabi-10.3-2021.10-x86_64-linux/gcc-arm-none-eabi-10.3-2021.10/arm-none-eabi/include/sys/lock.h **** extern void __retarget_lock_release(_LOCK_T lock);
 1741              		.loc 12 58 1 view .LVU758
  59:/home/irfan/Desktop/arm/gcc-arm-none-eabi-10.3-2021.10-x86_64-linux/gcc-arm-none-eabi-10.3-2021.10/arm-none-eabi/include/sys/lock.h **** #define __lock_release(lock) __retarget_lock_release(lock)
  60:/home/irfan/Desktop/arm/gcc-arm-none-eabi-10.3-2021.10-x86_64-linux/gcc-arm-none-eabi-10.3-2021.10/arm-none-eabi/include/sys/lock.h **** extern void __retarget_lock_release_recursive(_LOCK_T lock);
 1742              		.loc 12 60 1 view .LVU759
  23:/home/irfan/Desktop/arm/gcc-arm-none-eabi-10.3-2021.10-x86_64-linux/gcc-arm-none-eabi-10.3-2021.10/arm-none-eabi/include/sys/reent.h **** #elif __INT_MAX__ == 2147483647
  24:/home/irfan/Desktop/arm/gcc-arm-none-eabi-10.3-2021.10-x86_64-linux/gcc-arm-none-eabi-10.3-2021.10/arm-none-eabi/include/sys/reent.h **** #define __Long int
  25:/home/irfan/Desktop/arm/gcc-arm-none-eabi-10.3-2021.10-x86_64-linux/gcc-arm-none-eabi-10.3-2021.10/arm-none-eabi/include/sys/reent.h **** typedef unsigned __Long __ULong;
  26:/home/irfan/Desktop/arm/gcc-arm-none-eabi-10.3-2021.10-x86_64-linux/gcc-arm-none-eabi-10.3-2021.10/arm-none-eabi/include/sys/reent.h **** #endif
  27:/home/irfan/Desktop/arm/gcc-arm-none-eabi-10.3-2021.10-x86_64-linux/gcc-arm-none-eabi-10.3-2021.10/arm-none-eabi/include/sys/reent.h **** #endif
  28:/home/irfan/Desktop/arm/gcc-arm-none-eabi-10.3-2021.10-x86_64-linux/gcc-arm-none-eabi-10.3-2021.10/arm-none-eabi/include/sys/reent.h **** 
  29:/home/irfan/Desktop/arm/gcc-arm-none-eabi-10.3-2021.10-x86_64-linux/gcc-arm-none-eabi-10.3-2021.10/arm-none-eabi/include/sys/reent.h **** #if !defined( __Long)
  30:/home/irfan/Desktop/arm/gcc-arm-none-eabi-10.3-2021.10-x86_64-linux/gcc-arm-none-eabi-10.3-2021.10/arm-none-eabi/include/sys/reent.h **** #include <sys/types.h>
  31:/home/irfan/Desktop/arm/gcc-arm-none-eabi-10.3-2021.10-x86_64-linux/gcc-arm-none-eabi-10.3-2021.10/arm-none-eabi/include/sys/reent.h **** #endif
  32:/home/irfan/Desktop/arm/gcc-arm-none-eabi-10.3-2021.10-x86_64-linux/gcc-arm-none-eabi-10.3-2021.10/arm-none-eabi/include/sys/reent.h **** 
  33:/home/irfan/Desktop/arm/gcc-arm-none-eabi-10.3-2021.10-x86_64-linux/gcc-arm-none-eabi-10.3-2021.10/arm-none-eabi/include/sys/reent.h **** #ifndef __machine_flock_t_defined
  34:/home/irfan/Desktop/arm/gcc-arm-none-eabi-10.3-2021.10-x86_64-linux/gcc-arm-none-eabi-10.3-2021.10/arm-none-eabi/include/sys/reent.h **** #include <sys/lock.h>
  35:/home/irfan/Desktop/arm/gcc-arm-none-eabi-10.3-2021.10-x86_64-linux/gcc-arm-none-eabi-10.3-2021.10/arm-none-eabi/include/sys/reent.h **** typedef _LOCK_RECURSIVE_T _flock_t;
 1743              		.loc 11 35 1 view .LVU760
  36:/home/irfan/Desktop/arm/gcc-arm-none-eabi-10.3-2021.10-x86_64-linux/gcc-arm-none-eabi-10.3-2021.10/arm-none-eabi/include/sys/reent.h **** #endif
  37:/home/irfan/Desktop/arm/gcc-arm-none-eabi-10.3-2021.10-x86_64-linux/gcc-arm-none-eabi-10.3-2021.10/arm-none-eabi/include/sys/reent.h **** 
  38:/home/irfan/Desktop/arm/gcc-arm-none-eabi-10.3-2021.10-x86_64-linux/gcc-arm-none-eabi-10.3-2021.10/arm-none-eabi/include/sys/reent.h **** #ifndef __Long
  39:/home/irfan/Desktop/arm/gcc-arm-none-eabi-10.3-2021.10-x86_64-linux/gcc-arm-none-eabi-10.3-2021.10/arm-none-eabi/include/sys/reent.h **** #define __Long __int32_t
  40:/home/irfan/Desktop/arm/gcc-arm-none-eabi-10.3-2021.10-x86_64-linux/gcc-arm-none-eabi-10.3-2021.10/arm-none-eabi/include/sys/reent.h **** typedef __uint32_t __ULong;
  41:/home/irfan/Desktop/arm/gcc-arm-none-eabi-10.3-2021.10-x86_64-linux/gcc-arm-none-eabi-10.3-2021.10/arm-none-eabi/include/sys/reent.h **** #endif
  42:/home/irfan/Desktop/arm/gcc-arm-none-eabi-10.3-2021.10-x86_64-linux/gcc-arm-none-eabi-10.3-2021.10/arm-none-eabi/include/sys/reent.h **** 
  43:/home/irfan/Desktop/arm/gcc-arm-none-eabi-10.3-2021.10-x86_64-linux/gcc-arm-none-eabi-10.3-2021.10/arm-none-eabi/include/sys/reent.h **** struct _reent;
 1744              		.loc 11 43 1 view .LVU761
  44:/home/irfan/Desktop/arm/gcc-arm-none-eabi-10.3-2021.10-x86_64-linux/gcc-arm-none-eabi-10.3-2021.10/arm-none-eabi/include/sys/reent.h **** 
  45:/home/irfan/Desktop/arm/gcc-arm-none-eabi-10.3-2021.10-x86_64-linux/gcc-arm-none-eabi-10.3-2021.10/arm-none-eabi/include/sys/reent.h **** struct __locale_t;
 1745              		.loc 11 45 1 view .LVU762
  46:/home/irfan/Desktop/arm/gcc-arm-none-eabi-10.3-2021.10-x86_64-linux/gcc-arm-none-eabi-10.3-2021.10/arm-none-eabi/include/sys/reent.h **** 
  47:/home/irfan/Desktop/arm/gcc-arm-none-eabi-10.3-2021.10-x86_64-linux/gcc-arm-none-eabi-10.3-2021.10/arm-none-eabi/include/sys/reent.h **** /*
  48:/home/irfan/Desktop/arm/gcc-arm-none-eabi-10.3-2021.10-x86_64-linux/gcc-arm-none-eabi-10.3-2021.10/arm-none-eabi/include/sys/reent.h ****  * If _REENT_SMALL is defined, we make struct _reent as small as possible,
  49:/home/irfan/Desktop/arm/gcc-arm-none-eabi-10.3-2021.10-x86_64-linux/gcc-arm-none-eabi-10.3-2021.10/arm-none-eabi/include/sys/reent.h ****  * by having nearly everything possible allocated at first use.
  50:/home/irfan/Desktop/arm/gcc-arm-none-eabi-10.3-2021.10-x86_64-linux/gcc-arm-none-eabi-10.3-2021.10/arm-none-eabi/include/sys/reent.h ****  */
  51:/home/irfan/Desktop/arm/gcc-arm-none-eabi-10.3-2021.10-x86_64-linux/gcc-arm-none-eabi-10.3-2021.10/arm-none-eabi/include/sys/reent.h **** 
  52:/home/irfan/Desktop/arm/gcc-arm-none-eabi-10.3-2021.10-x86_64-linux/gcc-arm-none-eabi-10.3-2021.10/arm-none-eabi/include/sys/reent.h **** struct _Bigint
 1746              		.loc 11 52 1 view .LVU763
  53:/home/irfan/Desktop/arm/gcc-arm-none-eabi-10.3-2021.10-x86_64-linux/gcc-arm-none-eabi-10.3-2021.10/arm-none-eabi/include/sys/reent.h **** {
  54:/home/irfan/Desktop/arm/gcc-arm-none-eabi-10.3-2021.10-x86_64-linux/gcc-arm-none-eabi-10.3-2021.10/arm-none-eabi/include/sys/reent.h ****   struct _Bigint *_next;
  55:/home/irfan/Desktop/arm/gcc-arm-none-eabi-10.3-2021.10-x86_64-linux/gcc-arm-none-eabi-10.3-2021.10/arm-none-eabi/include/sys/reent.h ****   int _k, _maxwds, _sign, _wds;
  56:/home/irfan/Desktop/arm/gcc-arm-none-eabi-10.3-2021.10-x86_64-linux/gcc-arm-none-eabi-10.3-2021.10/arm-none-eabi/include/sys/reent.h ****   __ULong _x[1];
  57:/home/irfan/Desktop/arm/gcc-arm-none-eabi-10.3-2021.10-x86_64-linux/gcc-arm-none-eabi-10.3-2021.10/arm-none-eabi/include/sys/reent.h **** };
  58:/home/irfan/Desktop/arm/gcc-arm-none-eabi-10.3-2021.10-x86_64-linux/gcc-arm-none-eabi-10.3-2021.10/arm-none-eabi/include/sys/reent.h **** 
ARM GAS  /tmp/ccYgTI9f.s 			page 88


  59:/home/irfan/Desktop/arm/gcc-arm-none-eabi-10.3-2021.10-x86_64-linux/gcc-arm-none-eabi-10.3-2021.10/arm-none-eabi/include/sys/reent.h **** /* needed by reentrant structure */
  60:/home/irfan/Desktop/arm/gcc-arm-none-eabi-10.3-2021.10-x86_64-linux/gcc-arm-none-eabi-10.3-2021.10/arm-none-eabi/include/sys/reent.h **** struct __tm
 1747              		.loc 11 60 1 view .LVU764
  61:/home/irfan/Desktop/arm/gcc-arm-none-eabi-10.3-2021.10-x86_64-linux/gcc-arm-none-eabi-10.3-2021.10/arm-none-eabi/include/sys/reent.h **** {
  62:/home/irfan/Desktop/arm/gcc-arm-none-eabi-10.3-2021.10-x86_64-linux/gcc-arm-none-eabi-10.3-2021.10/arm-none-eabi/include/sys/reent.h ****   int   __tm_sec;
  63:/home/irfan/Desktop/arm/gcc-arm-none-eabi-10.3-2021.10-x86_64-linux/gcc-arm-none-eabi-10.3-2021.10/arm-none-eabi/include/sys/reent.h ****   int   __tm_min;
  64:/home/irfan/Desktop/arm/gcc-arm-none-eabi-10.3-2021.10-x86_64-linux/gcc-arm-none-eabi-10.3-2021.10/arm-none-eabi/include/sys/reent.h ****   int   __tm_hour;
  65:/home/irfan/Desktop/arm/gcc-arm-none-eabi-10.3-2021.10-x86_64-linux/gcc-arm-none-eabi-10.3-2021.10/arm-none-eabi/include/sys/reent.h ****   int   __tm_mday;
  66:/home/irfan/Desktop/arm/gcc-arm-none-eabi-10.3-2021.10-x86_64-linux/gcc-arm-none-eabi-10.3-2021.10/arm-none-eabi/include/sys/reent.h ****   int   __tm_mon;
  67:/home/irfan/Desktop/arm/gcc-arm-none-eabi-10.3-2021.10-x86_64-linux/gcc-arm-none-eabi-10.3-2021.10/arm-none-eabi/include/sys/reent.h ****   int   __tm_year;
  68:/home/irfan/Desktop/arm/gcc-arm-none-eabi-10.3-2021.10-x86_64-linux/gcc-arm-none-eabi-10.3-2021.10/arm-none-eabi/include/sys/reent.h ****   int   __tm_wday;
  69:/home/irfan/Desktop/arm/gcc-arm-none-eabi-10.3-2021.10-x86_64-linux/gcc-arm-none-eabi-10.3-2021.10/arm-none-eabi/include/sys/reent.h ****   int   __tm_yday;
  70:/home/irfan/Desktop/arm/gcc-arm-none-eabi-10.3-2021.10-x86_64-linux/gcc-arm-none-eabi-10.3-2021.10/arm-none-eabi/include/sys/reent.h ****   int   __tm_isdst;
  71:/home/irfan/Desktop/arm/gcc-arm-none-eabi-10.3-2021.10-x86_64-linux/gcc-arm-none-eabi-10.3-2021.10/arm-none-eabi/include/sys/reent.h **** };
  72:/home/irfan/Desktop/arm/gcc-arm-none-eabi-10.3-2021.10-x86_64-linux/gcc-arm-none-eabi-10.3-2021.10/arm-none-eabi/include/sys/reent.h **** 
  73:/home/irfan/Desktop/arm/gcc-arm-none-eabi-10.3-2021.10-x86_64-linux/gcc-arm-none-eabi-10.3-2021.10/arm-none-eabi/include/sys/reent.h **** /*
  74:/home/irfan/Desktop/arm/gcc-arm-none-eabi-10.3-2021.10-x86_64-linux/gcc-arm-none-eabi-10.3-2021.10/arm-none-eabi/include/sys/reent.h ****  * atexit() support.
  75:/home/irfan/Desktop/arm/gcc-arm-none-eabi-10.3-2021.10-x86_64-linux/gcc-arm-none-eabi-10.3-2021.10/arm-none-eabi/include/sys/reent.h ****  */
  76:/home/irfan/Desktop/arm/gcc-arm-none-eabi-10.3-2021.10-x86_64-linux/gcc-arm-none-eabi-10.3-2021.10/arm-none-eabi/include/sys/reent.h **** 
  77:/home/irfan/Desktop/arm/gcc-arm-none-eabi-10.3-2021.10-x86_64-linux/gcc-arm-none-eabi-10.3-2021.10/arm-none-eabi/include/sys/reent.h **** #define	_ATEXIT_SIZE 32	/* must be at least 32 to guarantee ANSI conformance */
  78:/home/irfan/Desktop/arm/gcc-arm-none-eabi-10.3-2021.10-x86_64-linux/gcc-arm-none-eabi-10.3-2021.10/arm-none-eabi/include/sys/reent.h **** 
  79:/home/irfan/Desktop/arm/gcc-arm-none-eabi-10.3-2021.10-x86_64-linux/gcc-arm-none-eabi-10.3-2021.10/arm-none-eabi/include/sys/reent.h **** struct _on_exit_args {
 1748              		.loc 11 79 1 view .LVU765
  80:/home/irfan/Desktop/arm/gcc-arm-none-eabi-10.3-2021.10-x86_64-linux/gcc-arm-none-eabi-10.3-2021.10/arm-none-eabi/include/sys/reent.h **** 	void *  _fnargs[_ATEXIT_SIZE];	        /* user fn args */
  81:/home/irfan/Desktop/arm/gcc-arm-none-eabi-10.3-2021.10-x86_64-linux/gcc-arm-none-eabi-10.3-2021.10/arm-none-eabi/include/sys/reent.h **** 	void *	_dso_handle[_ATEXIT_SIZE];
  82:/home/irfan/Desktop/arm/gcc-arm-none-eabi-10.3-2021.10-x86_64-linux/gcc-arm-none-eabi-10.3-2021.10/arm-none-eabi/include/sys/reent.h **** 	/* Bitmask is set if user function takes arguments.  */
  83:/home/irfan/Desktop/arm/gcc-arm-none-eabi-10.3-2021.10-x86_64-linux/gcc-arm-none-eabi-10.3-2021.10/arm-none-eabi/include/sys/reent.h **** 	__ULong _fntypes;           	        /* type of exit routine -
  84:/home/irfan/Desktop/arm/gcc-arm-none-eabi-10.3-2021.10-x86_64-linux/gcc-arm-none-eabi-10.3-2021.10/arm-none-eabi/include/sys/reent.h **** 				   Must have at least _ATEXIT_SIZE bits */
  85:/home/irfan/Desktop/arm/gcc-arm-none-eabi-10.3-2021.10-x86_64-linux/gcc-arm-none-eabi-10.3-2021.10/arm-none-eabi/include/sys/reent.h **** 	/* Bitmask is set if function was registered via __cxa_atexit.  */
  86:/home/irfan/Desktop/arm/gcc-arm-none-eabi-10.3-2021.10-x86_64-linux/gcc-arm-none-eabi-10.3-2021.10/arm-none-eabi/include/sys/reent.h **** 	__ULong _is_cxa;
  87:/home/irfan/Desktop/arm/gcc-arm-none-eabi-10.3-2021.10-x86_64-linux/gcc-arm-none-eabi-10.3-2021.10/arm-none-eabi/include/sys/reent.h **** };
  88:/home/irfan/Desktop/arm/gcc-arm-none-eabi-10.3-2021.10-x86_64-linux/gcc-arm-none-eabi-10.3-2021.10/arm-none-eabi/include/sys/reent.h **** 
  89:/home/irfan/Desktop/arm/gcc-arm-none-eabi-10.3-2021.10-x86_64-linux/gcc-arm-none-eabi-10.3-2021.10/arm-none-eabi/include/sys/reent.h **** #ifdef _REENT_SMALL
  90:/home/irfan/Desktop/arm/gcc-arm-none-eabi-10.3-2021.10-x86_64-linux/gcc-arm-none-eabi-10.3-2021.10/arm-none-eabi/include/sys/reent.h **** struct _atexit {
  91:/home/irfan/Desktop/arm/gcc-arm-none-eabi-10.3-2021.10-x86_64-linux/gcc-arm-none-eabi-10.3-2021.10/arm-none-eabi/include/sys/reent.h **** 	struct	_atexit *_next;			/* next in list */
  92:/home/irfan/Desktop/arm/gcc-arm-none-eabi-10.3-2021.10-x86_64-linux/gcc-arm-none-eabi-10.3-2021.10/arm-none-eabi/include/sys/reent.h **** 	int	_ind;				/* next index in this table */
  93:/home/irfan/Desktop/arm/gcc-arm-none-eabi-10.3-2021.10-x86_64-linux/gcc-arm-none-eabi-10.3-2021.10/arm-none-eabi/include/sys/reent.h **** 	void	(*_fns[_ATEXIT_SIZE])(void);	/* the table itself */
  94:/home/irfan/Desktop/arm/gcc-arm-none-eabi-10.3-2021.10-x86_64-linux/gcc-arm-none-eabi-10.3-2021.10/arm-none-eabi/include/sys/reent.h ****         struct _on_exit_args * _on_exit_args_ptr;
  95:/home/irfan/Desktop/arm/gcc-arm-none-eabi-10.3-2021.10-x86_64-linux/gcc-arm-none-eabi-10.3-2021.10/arm-none-eabi/include/sys/reent.h **** };
  96:/home/irfan/Desktop/arm/gcc-arm-none-eabi-10.3-2021.10-x86_64-linux/gcc-arm-none-eabi-10.3-2021.10/arm-none-eabi/include/sys/reent.h **** # define _ATEXIT_INIT {_NULL, 0, {_NULL}, _NULL}
  97:/home/irfan/Desktop/arm/gcc-arm-none-eabi-10.3-2021.10-x86_64-linux/gcc-arm-none-eabi-10.3-2021.10/arm-none-eabi/include/sys/reent.h **** #else
  98:/home/irfan/Desktop/arm/gcc-arm-none-eabi-10.3-2021.10-x86_64-linux/gcc-arm-none-eabi-10.3-2021.10/arm-none-eabi/include/sys/reent.h **** struct _atexit {
 1749              		.loc 11 98 1 view .LVU766
  99:/home/irfan/Desktop/arm/gcc-arm-none-eabi-10.3-2021.10-x86_64-linux/gcc-arm-none-eabi-10.3-2021.10/arm-none-eabi/include/sys/reent.h **** 	struct	_atexit *_next;			/* next in list */
 100:/home/irfan/Desktop/arm/gcc-arm-none-eabi-10.3-2021.10-x86_64-linux/gcc-arm-none-eabi-10.3-2021.10/arm-none-eabi/include/sys/reent.h **** 	int	_ind;				/* next index in this table */
 101:/home/irfan/Desktop/arm/gcc-arm-none-eabi-10.3-2021.10-x86_64-linux/gcc-arm-none-eabi-10.3-2021.10/arm-none-eabi/include/sys/reent.h **** 	/* Some entries may already have been called, and will be NULL.  */
 102:/home/irfan/Desktop/arm/gcc-arm-none-eabi-10.3-2021.10-x86_64-linux/gcc-arm-none-eabi-10.3-2021.10/arm-none-eabi/include/sys/reent.h **** 	void	(*_fns[_ATEXIT_SIZE])(void);	/* the table itself */
 103:/home/irfan/Desktop/arm/gcc-arm-none-eabi-10.3-2021.10-x86_64-linux/gcc-arm-none-eabi-10.3-2021.10/arm-none-eabi/include/sys/reent.h ****         struct _on_exit_args _on_exit_args;
 104:/home/irfan/Desktop/arm/gcc-arm-none-eabi-10.3-2021.10-x86_64-linux/gcc-arm-none-eabi-10.3-2021.10/arm-none-eabi/include/sys/reent.h **** };
 105:/home/irfan/Desktop/arm/gcc-arm-none-eabi-10.3-2021.10-x86_64-linux/gcc-arm-none-eabi-10.3-2021.10/arm-none-eabi/include/sys/reent.h **** # define _ATEXIT_INIT {_NULL, 0, {_NULL}, {{_NULL}, {_NULL}, 0, 0}}
 106:/home/irfan/Desktop/arm/gcc-arm-none-eabi-10.3-2021.10-x86_64-linux/gcc-arm-none-eabi-10.3-2021.10/arm-none-eabi/include/sys/reent.h **** #endif
 107:/home/irfan/Desktop/arm/gcc-arm-none-eabi-10.3-2021.10-x86_64-linux/gcc-arm-none-eabi-10.3-2021.10/arm-none-eabi/include/sys/reent.h **** 
 108:/home/irfan/Desktop/arm/gcc-arm-none-eabi-10.3-2021.10-x86_64-linux/gcc-arm-none-eabi-10.3-2021.10/arm-none-eabi/include/sys/reent.h **** #ifdef _REENT_GLOBAL_ATEXIT
 109:/home/irfan/Desktop/arm/gcc-arm-none-eabi-10.3-2021.10-x86_64-linux/gcc-arm-none-eabi-10.3-2021.10/arm-none-eabi/include/sys/reent.h **** # define _REENT_INIT_ATEXIT
 110:/home/irfan/Desktop/arm/gcc-arm-none-eabi-10.3-2021.10-x86_64-linux/gcc-arm-none-eabi-10.3-2021.10/arm-none-eabi/include/sys/reent.h **** #else
 111:/home/irfan/Desktop/arm/gcc-arm-none-eabi-10.3-2021.10-x86_64-linux/gcc-arm-none-eabi-10.3-2021.10/arm-none-eabi/include/sys/reent.h **** # define _REENT_INIT_ATEXIT \
 112:/home/irfan/Desktop/arm/gcc-arm-none-eabi-10.3-2021.10-x86_64-linux/gcc-arm-none-eabi-10.3-2021.10/arm-none-eabi/include/sys/reent.h ****   _NULL, _ATEXIT_INIT,
ARM GAS  /tmp/ccYgTI9f.s 			page 89


 113:/home/irfan/Desktop/arm/gcc-arm-none-eabi-10.3-2021.10-x86_64-linux/gcc-arm-none-eabi-10.3-2021.10/arm-none-eabi/include/sys/reent.h **** #endif
 114:/home/irfan/Desktop/arm/gcc-arm-none-eabi-10.3-2021.10-x86_64-linux/gcc-arm-none-eabi-10.3-2021.10/arm-none-eabi/include/sys/reent.h **** 
 115:/home/irfan/Desktop/arm/gcc-arm-none-eabi-10.3-2021.10-x86_64-linux/gcc-arm-none-eabi-10.3-2021.10/arm-none-eabi/include/sys/reent.h **** /*
 116:/home/irfan/Desktop/arm/gcc-arm-none-eabi-10.3-2021.10-x86_64-linux/gcc-arm-none-eabi-10.3-2021.10/arm-none-eabi/include/sys/reent.h ****  * Stdio buffers.
 117:/home/irfan/Desktop/arm/gcc-arm-none-eabi-10.3-2021.10-x86_64-linux/gcc-arm-none-eabi-10.3-2021.10/arm-none-eabi/include/sys/reent.h ****  *
 118:/home/irfan/Desktop/arm/gcc-arm-none-eabi-10.3-2021.10-x86_64-linux/gcc-arm-none-eabi-10.3-2021.10/arm-none-eabi/include/sys/reent.h ****  * This and __FILE are defined here because we need them for struct _reent,
 119:/home/irfan/Desktop/arm/gcc-arm-none-eabi-10.3-2021.10-x86_64-linux/gcc-arm-none-eabi-10.3-2021.10/arm-none-eabi/include/sys/reent.h ****  * but we don't want stdio.h included when stdlib.h is.
 120:/home/irfan/Desktop/arm/gcc-arm-none-eabi-10.3-2021.10-x86_64-linux/gcc-arm-none-eabi-10.3-2021.10/arm-none-eabi/include/sys/reent.h ****  */
 121:/home/irfan/Desktop/arm/gcc-arm-none-eabi-10.3-2021.10-x86_64-linux/gcc-arm-none-eabi-10.3-2021.10/arm-none-eabi/include/sys/reent.h **** 
 122:/home/irfan/Desktop/arm/gcc-arm-none-eabi-10.3-2021.10-x86_64-linux/gcc-arm-none-eabi-10.3-2021.10/arm-none-eabi/include/sys/reent.h **** struct __sbuf {
 1750              		.loc 11 122 1 view .LVU767
 123:/home/irfan/Desktop/arm/gcc-arm-none-eabi-10.3-2021.10-x86_64-linux/gcc-arm-none-eabi-10.3-2021.10/arm-none-eabi/include/sys/reent.h **** 	unsigned char *_base;
 124:/home/irfan/Desktop/arm/gcc-arm-none-eabi-10.3-2021.10-x86_64-linux/gcc-arm-none-eabi-10.3-2021.10/arm-none-eabi/include/sys/reent.h **** 	int	_size;
 125:/home/irfan/Desktop/arm/gcc-arm-none-eabi-10.3-2021.10-x86_64-linux/gcc-arm-none-eabi-10.3-2021.10/arm-none-eabi/include/sys/reent.h **** };
 126:/home/irfan/Desktop/arm/gcc-arm-none-eabi-10.3-2021.10-x86_64-linux/gcc-arm-none-eabi-10.3-2021.10/arm-none-eabi/include/sys/reent.h **** 
 127:/home/irfan/Desktop/arm/gcc-arm-none-eabi-10.3-2021.10-x86_64-linux/gcc-arm-none-eabi-10.3-2021.10/arm-none-eabi/include/sys/reent.h **** /*
 128:/home/irfan/Desktop/arm/gcc-arm-none-eabi-10.3-2021.10-x86_64-linux/gcc-arm-none-eabi-10.3-2021.10/arm-none-eabi/include/sys/reent.h ****  * Stdio state variables.
 129:/home/irfan/Desktop/arm/gcc-arm-none-eabi-10.3-2021.10-x86_64-linux/gcc-arm-none-eabi-10.3-2021.10/arm-none-eabi/include/sys/reent.h ****  *
 130:/home/irfan/Desktop/arm/gcc-arm-none-eabi-10.3-2021.10-x86_64-linux/gcc-arm-none-eabi-10.3-2021.10/arm-none-eabi/include/sys/reent.h ****  * The following always hold:
 131:/home/irfan/Desktop/arm/gcc-arm-none-eabi-10.3-2021.10-x86_64-linux/gcc-arm-none-eabi-10.3-2021.10/arm-none-eabi/include/sys/reent.h ****  *
 132:/home/irfan/Desktop/arm/gcc-arm-none-eabi-10.3-2021.10-x86_64-linux/gcc-arm-none-eabi-10.3-2021.10/arm-none-eabi/include/sys/reent.h ****  *	if (_flags&(__SLBF|__SWR)) == (__SLBF|__SWR),
 133:/home/irfan/Desktop/arm/gcc-arm-none-eabi-10.3-2021.10-x86_64-linux/gcc-arm-none-eabi-10.3-2021.10/arm-none-eabi/include/sys/reent.h ****  *		_lbfsize is -_bf._size, else _lbfsize is 0
 134:/home/irfan/Desktop/arm/gcc-arm-none-eabi-10.3-2021.10-x86_64-linux/gcc-arm-none-eabi-10.3-2021.10/arm-none-eabi/include/sys/reent.h ****  *	if _flags&__SRD, _w is 0
 135:/home/irfan/Desktop/arm/gcc-arm-none-eabi-10.3-2021.10-x86_64-linux/gcc-arm-none-eabi-10.3-2021.10/arm-none-eabi/include/sys/reent.h ****  *	if _flags&__SWR, _r is 0
 136:/home/irfan/Desktop/arm/gcc-arm-none-eabi-10.3-2021.10-x86_64-linux/gcc-arm-none-eabi-10.3-2021.10/arm-none-eabi/include/sys/reent.h ****  *
 137:/home/irfan/Desktop/arm/gcc-arm-none-eabi-10.3-2021.10-x86_64-linux/gcc-arm-none-eabi-10.3-2021.10/arm-none-eabi/include/sys/reent.h ****  * This ensures that the getc and putc macros (or inline functions) never
 138:/home/irfan/Desktop/arm/gcc-arm-none-eabi-10.3-2021.10-x86_64-linux/gcc-arm-none-eabi-10.3-2021.10/arm-none-eabi/include/sys/reent.h ****  * try to write or read from a file that is in `read' or `write' mode.
 139:/home/irfan/Desktop/arm/gcc-arm-none-eabi-10.3-2021.10-x86_64-linux/gcc-arm-none-eabi-10.3-2021.10/arm-none-eabi/include/sys/reent.h ****  * (Moreover, they can, and do, automatically switch from read mode to
 140:/home/irfan/Desktop/arm/gcc-arm-none-eabi-10.3-2021.10-x86_64-linux/gcc-arm-none-eabi-10.3-2021.10/arm-none-eabi/include/sys/reent.h ****  * write mode, and back, on "r+" and "w+" files.)
 141:/home/irfan/Desktop/arm/gcc-arm-none-eabi-10.3-2021.10-x86_64-linux/gcc-arm-none-eabi-10.3-2021.10/arm-none-eabi/include/sys/reent.h ****  *
 142:/home/irfan/Desktop/arm/gcc-arm-none-eabi-10.3-2021.10-x86_64-linux/gcc-arm-none-eabi-10.3-2021.10/arm-none-eabi/include/sys/reent.h ****  * _lbfsize is used only to make the inline line-buffered output stream
 143:/home/irfan/Desktop/arm/gcc-arm-none-eabi-10.3-2021.10-x86_64-linux/gcc-arm-none-eabi-10.3-2021.10/arm-none-eabi/include/sys/reent.h ****  * code as compact as possible.
 144:/home/irfan/Desktop/arm/gcc-arm-none-eabi-10.3-2021.10-x86_64-linux/gcc-arm-none-eabi-10.3-2021.10/arm-none-eabi/include/sys/reent.h ****  *
 145:/home/irfan/Desktop/arm/gcc-arm-none-eabi-10.3-2021.10-x86_64-linux/gcc-arm-none-eabi-10.3-2021.10/arm-none-eabi/include/sys/reent.h ****  * _ub, _up, and _ur are used when ungetc() pushes back more characters
 146:/home/irfan/Desktop/arm/gcc-arm-none-eabi-10.3-2021.10-x86_64-linux/gcc-arm-none-eabi-10.3-2021.10/arm-none-eabi/include/sys/reent.h ****  * than fit in the current _bf, or when ungetc() pushes back a character
 147:/home/irfan/Desktop/arm/gcc-arm-none-eabi-10.3-2021.10-x86_64-linux/gcc-arm-none-eabi-10.3-2021.10/arm-none-eabi/include/sys/reent.h ****  * that does not match the previous one in _bf.  When this happens,
 148:/home/irfan/Desktop/arm/gcc-arm-none-eabi-10.3-2021.10-x86_64-linux/gcc-arm-none-eabi-10.3-2021.10/arm-none-eabi/include/sys/reent.h ****  * _ub._base becomes non-nil (i.e., a stream has ungetc() data iff
 149:/home/irfan/Desktop/arm/gcc-arm-none-eabi-10.3-2021.10-x86_64-linux/gcc-arm-none-eabi-10.3-2021.10/arm-none-eabi/include/sys/reent.h ****  * _ub._base!=NULL) and _up and _ur save the current values of _p and _r.
 150:/home/irfan/Desktop/arm/gcc-arm-none-eabi-10.3-2021.10-x86_64-linux/gcc-arm-none-eabi-10.3-2021.10/arm-none-eabi/include/sys/reent.h ****  */
 151:/home/irfan/Desktop/arm/gcc-arm-none-eabi-10.3-2021.10-x86_64-linux/gcc-arm-none-eabi-10.3-2021.10/arm-none-eabi/include/sys/reent.h **** 
 152:/home/irfan/Desktop/arm/gcc-arm-none-eabi-10.3-2021.10-x86_64-linux/gcc-arm-none-eabi-10.3-2021.10/arm-none-eabi/include/sys/reent.h **** #if defined(_REENT_SMALL) && !defined(_REENT_GLOBAL_STDIO_STREAMS)
 153:/home/irfan/Desktop/arm/gcc-arm-none-eabi-10.3-2021.10-x86_64-linux/gcc-arm-none-eabi-10.3-2021.10/arm-none-eabi/include/sys/reent.h **** /*
 154:/home/irfan/Desktop/arm/gcc-arm-none-eabi-10.3-2021.10-x86_64-linux/gcc-arm-none-eabi-10.3-2021.10/arm-none-eabi/include/sys/reent.h ****  * struct __sFILE_fake is the start of a struct __sFILE, with only the
 155:/home/irfan/Desktop/arm/gcc-arm-none-eabi-10.3-2021.10-x86_64-linux/gcc-arm-none-eabi-10.3-2021.10/arm-none-eabi/include/sys/reent.h ****  * minimal fields allocated.  In __sinit() we really allocate the 3
 156:/home/irfan/Desktop/arm/gcc-arm-none-eabi-10.3-2021.10-x86_64-linux/gcc-arm-none-eabi-10.3-2021.10/arm-none-eabi/include/sys/reent.h ****  * standard streams, etc., and point away from this fake.
 157:/home/irfan/Desktop/arm/gcc-arm-none-eabi-10.3-2021.10-x86_64-linux/gcc-arm-none-eabi-10.3-2021.10/arm-none-eabi/include/sys/reent.h ****  */
 158:/home/irfan/Desktop/arm/gcc-arm-none-eabi-10.3-2021.10-x86_64-linux/gcc-arm-none-eabi-10.3-2021.10/arm-none-eabi/include/sys/reent.h **** struct __sFILE_fake {
 159:/home/irfan/Desktop/arm/gcc-arm-none-eabi-10.3-2021.10-x86_64-linux/gcc-arm-none-eabi-10.3-2021.10/arm-none-eabi/include/sys/reent.h ****   unsigned char *_p;	/* current position in (some) buffer */
 160:/home/irfan/Desktop/arm/gcc-arm-none-eabi-10.3-2021.10-x86_64-linux/gcc-arm-none-eabi-10.3-2021.10/arm-none-eabi/include/sys/reent.h ****   int	_r;		/* read space left for getc() */
 161:/home/irfan/Desktop/arm/gcc-arm-none-eabi-10.3-2021.10-x86_64-linux/gcc-arm-none-eabi-10.3-2021.10/arm-none-eabi/include/sys/reent.h ****   int	_w;		/* write space left for putc() */
 162:/home/irfan/Desktop/arm/gcc-arm-none-eabi-10.3-2021.10-x86_64-linux/gcc-arm-none-eabi-10.3-2021.10/arm-none-eabi/include/sys/reent.h ****   short	_flags;		/* flags, below; this FILE is free if 0 */
 163:/home/irfan/Desktop/arm/gcc-arm-none-eabi-10.3-2021.10-x86_64-linux/gcc-arm-none-eabi-10.3-2021.10/arm-none-eabi/include/sys/reent.h ****   short	_file;		/* fileno, if Unix descriptor, else -1 */
 164:/home/irfan/Desktop/arm/gcc-arm-none-eabi-10.3-2021.10-x86_64-linux/gcc-arm-none-eabi-10.3-2021.10/arm-none-eabi/include/sys/reent.h ****   struct __sbuf _bf;	/* the buffer (at least 1 byte, if !NULL) */
 165:/home/irfan/Desktop/arm/gcc-arm-none-eabi-10.3-2021.10-x86_64-linux/gcc-arm-none-eabi-10.3-2021.10/arm-none-eabi/include/sys/reent.h ****   int	_lbfsize;	/* 0 or -_bf._size, for inline putc */
 166:/home/irfan/Desktop/arm/gcc-arm-none-eabi-10.3-2021.10-x86_64-linux/gcc-arm-none-eabi-10.3-2021.10/arm-none-eabi/include/sys/reent.h **** 
 167:/home/irfan/Desktop/arm/gcc-arm-none-eabi-10.3-2021.10-x86_64-linux/gcc-arm-none-eabi-10.3-2021.10/arm-none-eabi/include/sys/reent.h ****   struct _reent *_data;
 168:/home/irfan/Desktop/arm/gcc-arm-none-eabi-10.3-2021.10-x86_64-linux/gcc-arm-none-eabi-10.3-2021.10/arm-none-eabi/include/sys/reent.h **** };
ARM GAS  /tmp/ccYgTI9f.s 			page 90


 169:/home/irfan/Desktop/arm/gcc-arm-none-eabi-10.3-2021.10-x86_64-linux/gcc-arm-none-eabi-10.3-2021.10/arm-none-eabi/include/sys/reent.h **** 
 170:/home/irfan/Desktop/arm/gcc-arm-none-eabi-10.3-2021.10-x86_64-linux/gcc-arm-none-eabi-10.3-2021.10/arm-none-eabi/include/sys/reent.h **** /* Following is needed both in libc/stdio and libc/stdlib so we put it
 171:/home/irfan/Desktop/arm/gcc-arm-none-eabi-10.3-2021.10-x86_64-linux/gcc-arm-none-eabi-10.3-2021.10/arm-none-eabi/include/sys/reent.h ****  * here instead of libc/stdio/local.h where it was previously. */
 172:/home/irfan/Desktop/arm/gcc-arm-none-eabi-10.3-2021.10-x86_64-linux/gcc-arm-none-eabi-10.3-2021.10/arm-none-eabi/include/sys/reent.h **** 
 173:/home/irfan/Desktop/arm/gcc-arm-none-eabi-10.3-2021.10-x86_64-linux/gcc-arm-none-eabi-10.3-2021.10/arm-none-eabi/include/sys/reent.h **** extern void   __sinit (struct _reent *);
 174:/home/irfan/Desktop/arm/gcc-arm-none-eabi-10.3-2021.10-x86_64-linux/gcc-arm-none-eabi-10.3-2021.10/arm-none-eabi/include/sys/reent.h **** 
 175:/home/irfan/Desktop/arm/gcc-arm-none-eabi-10.3-2021.10-x86_64-linux/gcc-arm-none-eabi-10.3-2021.10/arm-none-eabi/include/sys/reent.h **** # define _REENT_SMALL_CHECK_INIT(ptr)		\
 176:/home/irfan/Desktop/arm/gcc-arm-none-eabi-10.3-2021.10-x86_64-linux/gcc-arm-none-eabi-10.3-2021.10/arm-none-eabi/include/sys/reent.h ****   do						\
 177:/home/irfan/Desktop/arm/gcc-arm-none-eabi-10.3-2021.10-x86_64-linux/gcc-arm-none-eabi-10.3-2021.10/arm-none-eabi/include/sys/reent.h ****     {						\
 178:/home/irfan/Desktop/arm/gcc-arm-none-eabi-10.3-2021.10-x86_64-linux/gcc-arm-none-eabi-10.3-2021.10/arm-none-eabi/include/sys/reent.h ****       if ((ptr) && !(ptr)->__sdidinit)		\
 179:/home/irfan/Desktop/arm/gcc-arm-none-eabi-10.3-2021.10-x86_64-linux/gcc-arm-none-eabi-10.3-2021.10/arm-none-eabi/include/sys/reent.h **** 	__sinit (ptr);				\
 180:/home/irfan/Desktop/arm/gcc-arm-none-eabi-10.3-2021.10-x86_64-linux/gcc-arm-none-eabi-10.3-2021.10/arm-none-eabi/include/sys/reent.h ****     }						\
 181:/home/irfan/Desktop/arm/gcc-arm-none-eabi-10.3-2021.10-x86_64-linux/gcc-arm-none-eabi-10.3-2021.10/arm-none-eabi/include/sys/reent.h ****   while (0)
 182:/home/irfan/Desktop/arm/gcc-arm-none-eabi-10.3-2021.10-x86_64-linux/gcc-arm-none-eabi-10.3-2021.10/arm-none-eabi/include/sys/reent.h **** #else /* _REENT_SMALL && !_REENT_GLOBAL_STDIO_STREAMS */
 183:/home/irfan/Desktop/arm/gcc-arm-none-eabi-10.3-2021.10-x86_64-linux/gcc-arm-none-eabi-10.3-2021.10/arm-none-eabi/include/sys/reent.h **** # define _REENT_SMALL_CHECK_INIT(ptr) /* nothing */
 184:/home/irfan/Desktop/arm/gcc-arm-none-eabi-10.3-2021.10-x86_64-linux/gcc-arm-none-eabi-10.3-2021.10/arm-none-eabi/include/sys/reent.h **** #endif /* _REENT_SMALL && !_REENT_GLOBAL_STDIO_STREAMS */
 185:/home/irfan/Desktop/arm/gcc-arm-none-eabi-10.3-2021.10-x86_64-linux/gcc-arm-none-eabi-10.3-2021.10/arm-none-eabi/include/sys/reent.h **** 
 186:/home/irfan/Desktop/arm/gcc-arm-none-eabi-10.3-2021.10-x86_64-linux/gcc-arm-none-eabi-10.3-2021.10/arm-none-eabi/include/sys/reent.h **** struct __sFILE {
 1751              		.loc 11 186 1 view .LVU768
 187:/home/irfan/Desktop/arm/gcc-arm-none-eabi-10.3-2021.10-x86_64-linux/gcc-arm-none-eabi-10.3-2021.10/arm-none-eabi/include/sys/reent.h ****   unsigned char *_p;	/* current position in (some) buffer */
 188:/home/irfan/Desktop/arm/gcc-arm-none-eabi-10.3-2021.10-x86_64-linux/gcc-arm-none-eabi-10.3-2021.10/arm-none-eabi/include/sys/reent.h ****   int	_r;		/* read space left for getc() */
 189:/home/irfan/Desktop/arm/gcc-arm-none-eabi-10.3-2021.10-x86_64-linux/gcc-arm-none-eabi-10.3-2021.10/arm-none-eabi/include/sys/reent.h ****   int	_w;		/* write space left for putc() */
 190:/home/irfan/Desktop/arm/gcc-arm-none-eabi-10.3-2021.10-x86_64-linux/gcc-arm-none-eabi-10.3-2021.10/arm-none-eabi/include/sys/reent.h ****   short	_flags;		/* flags, below; this FILE is free if 0 */
 191:/home/irfan/Desktop/arm/gcc-arm-none-eabi-10.3-2021.10-x86_64-linux/gcc-arm-none-eabi-10.3-2021.10/arm-none-eabi/include/sys/reent.h ****   short	_file;		/* fileno, if Unix descriptor, else -1 */
 192:/home/irfan/Desktop/arm/gcc-arm-none-eabi-10.3-2021.10-x86_64-linux/gcc-arm-none-eabi-10.3-2021.10/arm-none-eabi/include/sys/reent.h ****   struct __sbuf _bf;	/* the buffer (at least 1 byte, if !NULL) */
 193:/home/irfan/Desktop/arm/gcc-arm-none-eabi-10.3-2021.10-x86_64-linux/gcc-arm-none-eabi-10.3-2021.10/arm-none-eabi/include/sys/reent.h ****   int	_lbfsize;	/* 0 or -_bf._size, for inline putc */
 194:/home/irfan/Desktop/arm/gcc-arm-none-eabi-10.3-2021.10-x86_64-linux/gcc-arm-none-eabi-10.3-2021.10/arm-none-eabi/include/sys/reent.h **** 
 195:/home/irfan/Desktop/arm/gcc-arm-none-eabi-10.3-2021.10-x86_64-linux/gcc-arm-none-eabi-10.3-2021.10/arm-none-eabi/include/sys/reent.h **** #ifdef _REENT_SMALL
 196:/home/irfan/Desktop/arm/gcc-arm-none-eabi-10.3-2021.10-x86_64-linux/gcc-arm-none-eabi-10.3-2021.10/arm-none-eabi/include/sys/reent.h ****   struct _reent *_data;
 197:/home/irfan/Desktop/arm/gcc-arm-none-eabi-10.3-2021.10-x86_64-linux/gcc-arm-none-eabi-10.3-2021.10/arm-none-eabi/include/sys/reent.h **** #endif
 198:/home/irfan/Desktop/arm/gcc-arm-none-eabi-10.3-2021.10-x86_64-linux/gcc-arm-none-eabi-10.3-2021.10/arm-none-eabi/include/sys/reent.h **** 
 199:/home/irfan/Desktop/arm/gcc-arm-none-eabi-10.3-2021.10-x86_64-linux/gcc-arm-none-eabi-10.3-2021.10/arm-none-eabi/include/sys/reent.h ****   /* operations */
 200:/home/irfan/Desktop/arm/gcc-arm-none-eabi-10.3-2021.10-x86_64-linux/gcc-arm-none-eabi-10.3-2021.10/arm-none-eabi/include/sys/reent.h ****   void *	_cookie;	/* cookie passed to io functions */
 201:/home/irfan/Desktop/arm/gcc-arm-none-eabi-10.3-2021.10-x86_64-linux/gcc-arm-none-eabi-10.3-2021.10/arm-none-eabi/include/sys/reent.h **** 
 202:/home/irfan/Desktop/arm/gcc-arm-none-eabi-10.3-2021.10-x86_64-linux/gcc-arm-none-eabi-10.3-2021.10/arm-none-eabi/include/sys/reent.h ****   _READ_WRITE_RETURN_TYPE (*_read) (struct _reent *, void *,
 203:/home/irfan/Desktop/arm/gcc-arm-none-eabi-10.3-2021.10-x86_64-linux/gcc-arm-none-eabi-10.3-2021.10/arm-none-eabi/include/sys/reent.h **** 					   char *, _READ_WRITE_BUFSIZE_TYPE);
 204:/home/irfan/Desktop/arm/gcc-arm-none-eabi-10.3-2021.10-x86_64-linux/gcc-arm-none-eabi-10.3-2021.10/arm-none-eabi/include/sys/reent.h ****   _READ_WRITE_RETURN_TYPE (*_write) (struct _reent *, void *,
 205:/home/irfan/Desktop/arm/gcc-arm-none-eabi-10.3-2021.10-x86_64-linux/gcc-arm-none-eabi-10.3-2021.10/arm-none-eabi/include/sys/reent.h **** 					    const char *,
 206:/home/irfan/Desktop/arm/gcc-arm-none-eabi-10.3-2021.10-x86_64-linux/gcc-arm-none-eabi-10.3-2021.10/arm-none-eabi/include/sys/reent.h **** 					    _READ_WRITE_BUFSIZE_TYPE);
 207:/home/irfan/Desktop/arm/gcc-arm-none-eabi-10.3-2021.10-x86_64-linux/gcc-arm-none-eabi-10.3-2021.10/arm-none-eabi/include/sys/reent.h ****   _fpos_t (*_seek) (struct _reent *, void *, _fpos_t, int);
 208:/home/irfan/Desktop/arm/gcc-arm-none-eabi-10.3-2021.10-x86_64-linux/gcc-arm-none-eabi-10.3-2021.10/arm-none-eabi/include/sys/reent.h ****   int (*_close) (struct _reent *, void *);
 209:/home/irfan/Desktop/arm/gcc-arm-none-eabi-10.3-2021.10-x86_64-linux/gcc-arm-none-eabi-10.3-2021.10/arm-none-eabi/include/sys/reent.h **** 
 210:/home/irfan/Desktop/arm/gcc-arm-none-eabi-10.3-2021.10-x86_64-linux/gcc-arm-none-eabi-10.3-2021.10/arm-none-eabi/include/sys/reent.h ****   /* separate buffer for long sequences of ungetc() */
 211:/home/irfan/Desktop/arm/gcc-arm-none-eabi-10.3-2021.10-x86_64-linux/gcc-arm-none-eabi-10.3-2021.10/arm-none-eabi/include/sys/reent.h ****   struct __sbuf _ub;	/* ungetc buffer */
 212:/home/irfan/Desktop/arm/gcc-arm-none-eabi-10.3-2021.10-x86_64-linux/gcc-arm-none-eabi-10.3-2021.10/arm-none-eabi/include/sys/reent.h ****   unsigned char *_up;	/* saved _p when _p is doing ungetc data */
 213:/home/irfan/Desktop/arm/gcc-arm-none-eabi-10.3-2021.10-x86_64-linux/gcc-arm-none-eabi-10.3-2021.10/arm-none-eabi/include/sys/reent.h ****   int	_ur;		/* saved _r when _r is counting ungetc data */
 214:/home/irfan/Desktop/arm/gcc-arm-none-eabi-10.3-2021.10-x86_64-linux/gcc-arm-none-eabi-10.3-2021.10/arm-none-eabi/include/sys/reent.h **** 
 215:/home/irfan/Desktop/arm/gcc-arm-none-eabi-10.3-2021.10-x86_64-linux/gcc-arm-none-eabi-10.3-2021.10/arm-none-eabi/include/sys/reent.h ****   /* tricks to meet minimum requirements even when malloc() fails */
 216:/home/irfan/Desktop/arm/gcc-arm-none-eabi-10.3-2021.10-x86_64-linux/gcc-arm-none-eabi-10.3-2021.10/arm-none-eabi/include/sys/reent.h ****   unsigned char _ubuf[3];	/* guarantee an ungetc() buffer */
 217:/home/irfan/Desktop/arm/gcc-arm-none-eabi-10.3-2021.10-x86_64-linux/gcc-arm-none-eabi-10.3-2021.10/arm-none-eabi/include/sys/reent.h ****   unsigned char _nbuf[1];	/* guarantee a getc() buffer */
 218:/home/irfan/Desktop/arm/gcc-arm-none-eabi-10.3-2021.10-x86_64-linux/gcc-arm-none-eabi-10.3-2021.10/arm-none-eabi/include/sys/reent.h **** 
 219:/home/irfan/Desktop/arm/gcc-arm-none-eabi-10.3-2021.10-x86_64-linux/gcc-arm-none-eabi-10.3-2021.10/arm-none-eabi/include/sys/reent.h ****   /* separate buffer for fgetline() when line crosses buffer boundary */
 220:/home/irfan/Desktop/arm/gcc-arm-none-eabi-10.3-2021.10-x86_64-linux/gcc-arm-none-eabi-10.3-2021.10/arm-none-eabi/include/sys/reent.h ****   struct __sbuf _lb;	/* buffer for fgetline() */
 221:/home/irfan/Desktop/arm/gcc-arm-none-eabi-10.3-2021.10-x86_64-linux/gcc-arm-none-eabi-10.3-2021.10/arm-none-eabi/include/sys/reent.h **** 
 222:/home/irfan/Desktop/arm/gcc-arm-none-eabi-10.3-2021.10-x86_64-linux/gcc-arm-none-eabi-10.3-2021.10/arm-none-eabi/include/sys/reent.h ****   /* Unix stdio files get aligned to block boundaries on fseek() */
 223:/home/irfan/Desktop/arm/gcc-arm-none-eabi-10.3-2021.10-x86_64-linux/gcc-arm-none-eabi-10.3-2021.10/arm-none-eabi/include/sys/reent.h ****   int	_blksize;	/* stat.st_blksize (may be != _bf._size) */
 224:/home/irfan/Desktop/arm/gcc-arm-none-eabi-10.3-2021.10-x86_64-linux/gcc-arm-none-eabi-10.3-2021.10/arm-none-eabi/include/sys/reent.h ****   _off_t _offset;	/* current lseek offset */
ARM GAS  /tmp/ccYgTI9f.s 			page 91


 225:/home/irfan/Desktop/arm/gcc-arm-none-eabi-10.3-2021.10-x86_64-linux/gcc-arm-none-eabi-10.3-2021.10/arm-none-eabi/include/sys/reent.h **** 
 226:/home/irfan/Desktop/arm/gcc-arm-none-eabi-10.3-2021.10-x86_64-linux/gcc-arm-none-eabi-10.3-2021.10/arm-none-eabi/include/sys/reent.h **** #ifndef _REENT_SMALL
 227:/home/irfan/Desktop/arm/gcc-arm-none-eabi-10.3-2021.10-x86_64-linux/gcc-arm-none-eabi-10.3-2021.10/arm-none-eabi/include/sys/reent.h ****   struct _reent *_data;	/* Here for binary compatibility? Remove? */
 228:/home/irfan/Desktop/arm/gcc-arm-none-eabi-10.3-2021.10-x86_64-linux/gcc-arm-none-eabi-10.3-2021.10/arm-none-eabi/include/sys/reent.h **** #endif
 229:/home/irfan/Desktop/arm/gcc-arm-none-eabi-10.3-2021.10-x86_64-linux/gcc-arm-none-eabi-10.3-2021.10/arm-none-eabi/include/sys/reent.h **** 
 230:/home/irfan/Desktop/arm/gcc-arm-none-eabi-10.3-2021.10-x86_64-linux/gcc-arm-none-eabi-10.3-2021.10/arm-none-eabi/include/sys/reent.h **** #ifndef __SINGLE_THREAD__
 231:/home/irfan/Desktop/arm/gcc-arm-none-eabi-10.3-2021.10-x86_64-linux/gcc-arm-none-eabi-10.3-2021.10/arm-none-eabi/include/sys/reent.h ****   _flock_t _lock;	/* for thread-safety locking */
 232:/home/irfan/Desktop/arm/gcc-arm-none-eabi-10.3-2021.10-x86_64-linux/gcc-arm-none-eabi-10.3-2021.10/arm-none-eabi/include/sys/reent.h **** #endif
 233:/home/irfan/Desktop/arm/gcc-arm-none-eabi-10.3-2021.10-x86_64-linux/gcc-arm-none-eabi-10.3-2021.10/arm-none-eabi/include/sys/reent.h ****   _mbstate_t _mbstate;	/* for wide char stdio functions. */
 234:/home/irfan/Desktop/arm/gcc-arm-none-eabi-10.3-2021.10-x86_64-linux/gcc-arm-none-eabi-10.3-2021.10/arm-none-eabi/include/sys/reent.h ****   int   _flags2;        /* for future use */
 235:/home/irfan/Desktop/arm/gcc-arm-none-eabi-10.3-2021.10-x86_64-linux/gcc-arm-none-eabi-10.3-2021.10/arm-none-eabi/include/sys/reent.h **** };
 236:/home/irfan/Desktop/arm/gcc-arm-none-eabi-10.3-2021.10-x86_64-linux/gcc-arm-none-eabi-10.3-2021.10/arm-none-eabi/include/sys/reent.h **** 
 237:/home/irfan/Desktop/arm/gcc-arm-none-eabi-10.3-2021.10-x86_64-linux/gcc-arm-none-eabi-10.3-2021.10/arm-none-eabi/include/sys/reent.h **** #ifdef __CUSTOM_FILE_IO__
 238:/home/irfan/Desktop/arm/gcc-arm-none-eabi-10.3-2021.10-x86_64-linux/gcc-arm-none-eabi-10.3-2021.10/arm-none-eabi/include/sys/reent.h **** 
 239:/home/irfan/Desktop/arm/gcc-arm-none-eabi-10.3-2021.10-x86_64-linux/gcc-arm-none-eabi-10.3-2021.10/arm-none-eabi/include/sys/reent.h **** /* Get custom _FILE definition.  */
 240:/home/irfan/Desktop/arm/gcc-arm-none-eabi-10.3-2021.10-x86_64-linux/gcc-arm-none-eabi-10.3-2021.10/arm-none-eabi/include/sys/reent.h **** #include <sys/custom_file.h>
 241:/home/irfan/Desktop/arm/gcc-arm-none-eabi-10.3-2021.10-x86_64-linux/gcc-arm-none-eabi-10.3-2021.10/arm-none-eabi/include/sys/reent.h **** 
 242:/home/irfan/Desktop/arm/gcc-arm-none-eabi-10.3-2021.10-x86_64-linux/gcc-arm-none-eabi-10.3-2021.10/arm-none-eabi/include/sys/reent.h **** #else /* !__CUSTOM_FILE_IO__ */
 243:/home/irfan/Desktop/arm/gcc-arm-none-eabi-10.3-2021.10-x86_64-linux/gcc-arm-none-eabi-10.3-2021.10/arm-none-eabi/include/sys/reent.h **** #ifdef __LARGE64_FILES
 244:/home/irfan/Desktop/arm/gcc-arm-none-eabi-10.3-2021.10-x86_64-linux/gcc-arm-none-eabi-10.3-2021.10/arm-none-eabi/include/sys/reent.h **** struct __sFILE64 {
 245:/home/irfan/Desktop/arm/gcc-arm-none-eabi-10.3-2021.10-x86_64-linux/gcc-arm-none-eabi-10.3-2021.10/arm-none-eabi/include/sys/reent.h ****   unsigned char *_p;	/* current position in (some) buffer */
 246:/home/irfan/Desktop/arm/gcc-arm-none-eabi-10.3-2021.10-x86_64-linux/gcc-arm-none-eabi-10.3-2021.10/arm-none-eabi/include/sys/reent.h ****   int	_r;		/* read space left for getc() */
 247:/home/irfan/Desktop/arm/gcc-arm-none-eabi-10.3-2021.10-x86_64-linux/gcc-arm-none-eabi-10.3-2021.10/arm-none-eabi/include/sys/reent.h ****   int	_w;		/* write space left for putc() */
 248:/home/irfan/Desktop/arm/gcc-arm-none-eabi-10.3-2021.10-x86_64-linux/gcc-arm-none-eabi-10.3-2021.10/arm-none-eabi/include/sys/reent.h ****   short	_flags;		/* flags, below; this FILE is free if 0 */
 249:/home/irfan/Desktop/arm/gcc-arm-none-eabi-10.3-2021.10-x86_64-linux/gcc-arm-none-eabi-10.3-2021.10/arm-none-eabi/include/sys/reent.h ****   short	_file;		/* fileno, if Unix descriptor, else -1 */
 250:/home/irfan/Desktop/arm/gcc-arm-none-eabi-10.3-2021.10-x86_64-linux/gcc-arm-none-eabi-10.3-2021.10/arm-none-eabi/include/sys/reent.h ****   struct __sbuf _bf;	/* the buffer (at least 1 byte, if !NULL) */
 251:/home/irfan/Desktop/arm/gcc-arm-none-eabi-10.3-2021.10-x86_64-linux/gcc-arm-none-eabi-10.3-2021.10/arm-none-eabi/include/sys/reent.h ****   int	_lbfsize;	/* 0 or -_bf._size, for inline putc */
 252:/home/irfan/Desktop/arm/gcc-arm-none-eabi-10.3-2021.10-x86_64-linux/gcc-arm-none-eabi-10.3-2021.10/arm-none-eabi/include/sys/reent.h **** 
 253:/home/irfan/Desktop/arm/gcc-arm-none-eabi-10.3-2021.10-x86_64-linux/gcc-arm-none-eabi-10.3-2021.10/arm-none-eabi/include/sys/reent.h ****   struct _reent *_data;
 254:/home/irfan/Desktop/arm/gcc-arm-none-eabi-10.3-2021.10-x86_64-linux/gcc-arm-none-eabi-10.3-2021.10/arm-none-eabi/include/sys/reent.h **** 
 255:/home/irfan/Desktop/arm/gcc-arm-none-eabi-10.3-2021.10-x86_64-linux/gcc-arm-none-eabi-10.3-2021.10/arm-none-eabi/include/sys/reent.h ****   /* operations */
 256:/home/irfan/Desktop/arm/gcc-arm-none-eabi-10.3-2021.10-x86_64-linux/gcc-arm-none-eabi-10.3-2021.10/arm-none-eabi/include/sys/reent.h ****   void *	_cookie;	/* cookie passed to io functions */
 257:/home/irfan/Desktop/arm/gcc-arm-none-eabi-10.3-2021.10-x86_64-linux/gcc-arm-none-eabi-10.3-2021.10/arm-none-eabi/include/sys/reent.h **** 
 258:/home/irfan/Desktop/arm/gcc-arm-none-eabi-10.3-2021.10-x86_64-linux/gcc-arm-none-eabi-10.3-2021.10/arm-none-eabi/include/sys/reent.h ****   _READ_WRITE_RETURN_TYPE (*_read) (struct _reent *, void *,
 259:/home/irfan/Desktop/arm/gcc-arm-none-eabi-10.3-2021.10-x86_64-linux/gcc-arm-none-eabi-10.3-2021.10/arm-none-eabi/include/sys/reent.h **** 					   char *, _READ_WRITE_BUFSIZE_TYPE);
 260:/home/irfan/Desktop/arm/gcc-arm-none-eabi-10.3-2021.10-x86_64-linux/gcc-arm-none-eabi-10.3-2021.10/arm-none-eabi/include/sys/reent.h ****   _READ_WRITE_RETURN_TYPE (*_write) (struct _reent *, void *,
 261:/home/irfan/Desktop/arm/gcc-arm-none-eabi-10.3-2021.10-x86_64-linux/gcc-arm-none-eabi-10.3-2021.10/arm-none-eabi/include/sys/reent.h **** 					    const char *,
 262:/home/irfan/Desktop/arm/gcc-arm-none-eabi-10.3-2021.10-x86_64-linux/gcc-arm-none-eabi-10.3-2021.10/arm-none-eabi/include/sys/reent.h **** 					    _READ_WRITE_BUFSIZE_TYPE);
 263:/home/irfan/Desktop/arm/gcc-arm-none-eabi-10.3-2021.10-x86_64-linux/gcc-arm-none-eabi-10.3-2021.10/arm-none-eabi/include/sys/reent.h ****   _fpos_t (*_seek) (struct _reent *, void *, _fpos_t, int);
 264:/home/irfan/Desktop/arm/gcc-arm-none-eabi-10.3-2021.10-x86_64-linux/gcc-arm-none-eabi-10.3-2021.10/arm-none-eabi/include/sys/reent.h ****   int (*_close) (struct _reent *, void *);
 265:/home/irfan/Desktop/arm/gcc-arm-none-eabi-10.3-2021.10-x86_64-linux/gcc-arm-none-eabi-10.3-2021.10/arm-none-eabi/include/sys/reent.h **** 
 266:/home/irfan/Desktop/arm/gcc-arm-none-eabi-10.3-2021.10-x86_64-linux/gcc-arm-none-eabi-10.3-2021.10/arm-none-eabi/include/sys/reent.h ****   /* separate buffer for long sequences of ungetc() */
 267:/home/irfan/Desktop/arm/gcc-arm-none-eabi-10.3-2021.10-x86_64-linux/gcc-arm-none-eabi-10.3-2021.10/arm-none-eabi/include/sys/reent.h ****   struct __sbuf _ub;	/* ungetc buffer */
 268:/home/irfan/Desktop/arm/gcc-arm-none-eabi-10.3-2021.10-x86_64-linux/gcc-arm-none-eabi-10.3-2021.10/arm-none-eabi/include/sys/reent.h ****   unsigned char *_up;	/* saved _p when _p is doing ungetc data */
 269:/home/irfan/Desktop/arm/gcc-arm-none-eabi-10.3-2021.10-x86_64-linux/gcc-arm-none-eabi-10.3-2021.10/arm-none-eabi/include/sys/reent.h ****   int	_ur;		/* saved _r when _r is counting ungetc data */
 270:/home/irfan/Desktop/arm/gcc-arm-none-eabi-10.3-2021.10-x86_64-linux/gcc-arm-none-eabi-10.3-2021.10/arm-none-eabi/include/sys/reent.h **** 
 271:/home/irfan/Desktop/arm/gcc-arm-none-eabi-10.3-2021.10-x86_64-linux/gcc-arm-none-eabi-10.3-2021.10/arm-none-eabi/include/sys/reent.h ****   /* tricks to meet minimum requirements even when malloc() fails */
 272:/home/irfan/Desktop/arm/gcc-arm-none-eabi-10.3-2021.10-x86_64-linux/gcc-arm-none-eabi-10.3-2021.10/arm-none-eabi/include/sys/reent.h ****   unsigned char _ubuf[3];	/* guarantee an ungetc() buffer */
 273:/home/irfan/Desktop/arm/gcc-arm-none-eabi-10.3-2021.10-x86_64-linux/gcc-arm-none-eabi-10.3-2021.10/arm-none-eabi/include/sys/reent.h ****   unsigned char _nbuf[1];	/* guarantee a getc() buffer */
 274:/home/irfan/Desktop/arm/gcc-arm-none-eabi-10.3-2021.10-x86_64-linux/gcc-arm-none-eabi-10.3-2021.10/arm-none-eabi/include/sys/reent.h **** 
 275:/home/irfan/Desktop/arm/gcc-arm-none-eabi-10.3-2021.10-x86_64-linux/gcc-arm-none-eabi-10.3-2021.10/arm-none-eabi/include/sys/reent.h ****   /* separate buffer for fgetline() when line crosses buffer boundary */
 276:/home/irfan/Desktop/arm/gcc-arm-none-eabi-10.3-2021.10-x86_64-linux/gcc-arm-none-eabi-10.3-2021.10/arm-none-eabi/include/sys/reent.h ****   struct __sbuf _lb;	/* buffer for fgetline() */
 277:/home/irfan/Desktop/arm/gcc-arm-none-eabi-10.3-2021.10-x86_64-linux/gcc-arm-none-eabi-10.3-2021.10/arm-none-eabi/include/sys/reent.h **** 
 278:/home/irfan/Desktop/arm/gcc-arm-none-eabi-10.3-2021.10-x86_64-linux/gcc-arm-none-eabi-10.3-2021.10/arm-none-eabi/include/sys/reent.h ****   /* Unix stdio files get aligned to block boundaries on fseek() */
 279:/home/irfan/Desktop/arm/gcc-arm-none-eabi-10.3-2021.10-x86_64-linux/gcc-arm-none-eabi-10.3-2021.10/arm-none-eabi/include/sys/reent.h ****   int	_blksize;	/* stat.st_blksize (may be != _bf._size) */
 280:/home/irfan/Desktop/arm/gcc-arm-none-eabi-10.3-2021.10-x86_64-linux/gcc-arm-none-eabi-10.3-2021.10/arm-none-eabi/include/sys/reent.h ****   int   _flags2;        /* for future use */
 281:/home/irfan/Desktop/arm/gcc-arm-none-eabi-10.3-2021.10-x86_64-linux/gcc-arm-none-eabi-10.3-2021.10/arm-none-eabi/include/sys/reent.h **** 
ARM GAS  /tmp/ccYgTI9f.s 			page 92


 282:/home/irfan/Desktop/arm/gcc-arm-none-eabi-10.3-2021.10-x86_64-linux/gcc-arm-none-eabi-10.3-2021.10/arm-none-eabi/include/sys/reent.h ****   _off64_t _offset;     /* current lseek offset */
 283:/home/irfan/Desktop/arm/gcc-arm-none-eabi-10.3-2021.10-x86_64-linux/gcc-arm-none-eabi-10.3-2021.10/arm-none-eabi/include/sys/reent.h ****   _fpos64_t (*_seek64) (struct _reent *, void *, _fpos64_t, int);
 284:/home/irfan/Desktop/arm/gcc-arm-none-eabi-10.3-2021.10-x86_64-linux/gcc-arm-none-eabi-10.3-2021.10/arm-none-eabi/include/sys/reent.h **** 
 285:/home/irfan/Desktop/arm/gcc-arm-none-eabi-10.3-2021.10-x86_64-linux/gcc-arm-none-eabi-10.3-2021.10/arm-none-eabi/include/sys/reent.h **** #ifndef __SINGLE_THREAD__
 286:/home/irfan/Desktop/arm/gcc-arm-none-eabi-10.3-2021.10-x86_64-linux/gcc-arm-none-eabi-10.3-2021.10/arm-none-eabi/include/sys/reent.h ****   _flock_t _lock;	/* for thread-safety locking */
 287:/home/irfan/Desktop/arm/gcc-arm-none-eabi-10.3-2021.10-x86_64-linux/gcc-arm-none-eabi-10.3-2021.10/arm-none-eabi/include/sys/reent.h **** #endif
 288:/home/irfan/Desktop/arm/gcc-arm-none-eabi-10.3-2021.10-x86_64-linux/gcc-arm-none-eabi-10.3-2021.10/arm-none-eabi/include/sys/reent.h ****   _mbstate_t _mbstate;	/* for wide char stdio functions. */
 289:/home/irfan/Desktop/arm/gcc-arm-none-eabi-10.3-2021.10-x86_64-linux/gcc-arm-none-eabi-10.3-2021.10/arm-none-eabi/include/sys/reent.h **** };
 290:/home/irfan/Desktop/arm/gcc-arm-none-eabi-10.3-2021.10-x86_64-linux/gcc-arm-none-eabi-10.3-2021.10/arm-none-eabi/include/sys/reent.h **** typedef struct __sFILE64 __FILE;
 291:/home/irfan/Desktop/arm/gcc-arm-none-eabi-10.3-2021.10-x86_64-linux/gcc-arm-none-eabi-10.3-2021.10/arm-none-eabi/include/sys/reent.h **** #else
 292:/home/irfan/Desktop/arm/gcc-arm-none-eabi-10.3-2021.10-x86_64-linux/gcc-arm-none-eabi-10.3-2021.10/arm-none-eabi/include/sys/reent.h **** typedef struct __sFILE   __FILE;
 1752              		.loc 11 292 1 view .LVU769
 293:/home/irfan/Desktop/arm/gcc-arm-none-eabi-10.3-2021.10-x86_64-linux/gcc-arm-none-eabi-10.3-2021.10/arm-none-eabi/include/sys/reent.h **** #endif /* __LARGE64_FILES */
 294:/home/irfan/Desktop/arm/gcc-arm-none-eabi-10.3-2021.10-x86_64-linux/gcc-arm-none-eabi-10.3-2021.10/arm-none-eabi/include/sys/reent.h **** #endif /* !__CUSTOM_FILE_IO__ */
 295:/home/irfan/Desktop/arm/gcc-arm-none-eabi-10.3-2021.10-x86_64-linux/gcc-arm-none-eabi-10.3-2021.10/arm-none-eabi/include/sys/reent.h **** 
 296:/home/irfan/Desktop/arm/gcc-arm-none-eabi-10.3-2021.10-x86_64-linux/gcc-arm-none-eabi-10.3-2021.10/arm-none-eabi/include/sys/reent.h **** struct _glue
 1753              		.loc 11 296 1 view .LVU770
 297:/home/irfan/Desktop/arm/gcc-arm-none-eabi-10.3-2021.10-x86_64-linux/gcc-arm-none-eabi-10.3-2021.10/arm-none-eabi/include/sys/reent.h **** {
 298:/home/irfan/Desktop/arm/gcc-arm-none-eabi-10.3-2021.10-x86_64-linux/gcc-arm-none-eabi-10.3-2021.10/arm-none-eabi/include/sys/reent.h ****   struct _glue *_next;
 299:/home/irfan/Desktop/arm/gcc-arm-none-eabi-10.3-2021.10-x86_64-linux/gcc-arm-none-eabi-10.3-2021.10/arm-none-eabi/include/sys/reent.h ****   int _niobs;
 300:/home/irfan/Desktop/arm/gcc-arm-none-eabi-10.3-2021.10-x86_64-linux/gcc-arm-none-eabi-10.3-2021.10/arm-none-eabi/include/sys/reent.h ****   __FILE *_iobs;
 301:/home/irfan/Desktop/arm/gcc-arm-none-eabi-10.3-2021.10-x86_64-linux/gcc-arm-none-eabi-10.3-2021.10/arm-none-eabi/include/sys/reent.h **** };
 302:/home/irfan/Desktop/arm/gcc-arm-none-eabi-10.3-2021.10-x86_64-linux/gcc-arm-none-eabi-10.3-2021.10/arm-none-eabi/include/sys/reent.h **** 
 303:/home/irfan/Desktop/arm/gcc-arm-none-eabi-10.3-2021.10-x86_64-linux/gcc-arm-none-eabi-10.3-2021.10/arm-none-eabi/include/sys/reent.h **** /*
 304:/home/irfan/Desktop/arm/gcc-arm-none-eabi-10.3-2021.10-x86_64-linux/gcc-arm-none-eabi-10.3-2021.10/arm-none-eabi/include/sys/reent.h ****  * rand48 family support
 305:/home/irfan/Desktop/arm/gcc-arm-none-eabi-10.3-2021.10-x86_64-linux/gcc-arm-none-eabi-10.3-2021.10/arm-none-eabi/include/sys/reent.h ****  *
 306:/home/irfan/Desktop/arm/gcc-arm-none-eabi-10.3-2021.10-x86_64-linux/gcc-arm-none-eabi-10.3-2021.10/arm-none-eabi/include/sys/reent.h ****  * Copyright (c) 1993 Martin Birgmeier
 307:/home/irfan/Desktop/arm/gcc-arm-none-eabi-10.3-2021.10-x86_64-linux/gcc-arm-none-eabi-10.3-2021.10/arm-none-eabi/include/sys/reent.h ****  * All rights reserved.
 308:/home/irfan/Desktop/arm/gcc-arm-none-eabi-10.3-2021.10-x86_64-linux/gcc-arm-none-eabi-10.3-2021.10/arm-none-eabi/include/sys/reent.h ****  *
 309:/home/irfan/Desktop/arm/gcc-arm-none-eabi-10.3-2021.10-x86_64-linux/gcc-arm-none-eabi-10.3-2021.10/arm-none-eabi/include/sys/reent.h ****  * You may redistribute unmodified or modified versions of this source
 310:/home/irfan/Desktop/arm/gcc-arm-none-eabi-10.3-2021.10-x86_64-linux/gcc-arm-none-eabi-10.3-2021.10/arm-none-eabi/include/sys/reent.h ****  * code provided that the above copyright notice and this and the
 311:/home/irfan/Desktop/arm/gcc-arm-none-eabi-10.3-2021.10-x86_64-linux/gcc-arm-none-eabi-10.3-2021.10/arm-none-eabi/include/sys/reent.h ****  * following conditions are retained.
 312:/home/irfan/Desktop/arm/gcc-arm-none-eabi-10.3-2021.10-x86_64-linux/gcc-arm-none-eabi-10.3-2021.10/arm-none-eabi/include/sys/reent.h ****  *
 313:/home/irfan/Desktop/arm/gcc-arm-none-eabi-10.3-2021.10-x86_64-linux/gcc-arm-none-eabi-10.3-2021.10/arm-none-eabi/include/sys/reent.h ****  * This software is provided ``as is'', and comes with no warranties
 314:/home/irfan/Desktop/arm/gcc-arm-none-eabi-10.3-2021.10-x86_64-linux/gcc-arm-none-eabi-10.3-2021.10/arm-none-eabi/include/sys/reent.h ****  * of any kind. I shall in no event be liable for anything that happens
 315:/home/irfan/Desktop/arm/gcc-arm-none-eabi-10.3-2021.10-x86_64-linux/gcc-arm-none-eabi-10.3-2021.10/arm-none-eabi/include/sys/reent.h ****  * to anyone/anything when using this software.
 316:/home/irfan/Desktop/arm/gcc-arm-none-eabi-10.3-2021.10-x86_64-linux/gcc-arm-none-eabi-10.3-2021.10/arm-none-eabi/include/sys/reent.h ****  */
 317:/home/irfan/Desktop/arm/gcc-arm-none-eabi-10.3-2021.10-x86_64-linux/gcc-arm-none-eabi-10.3-2021.10/arm-none-eabi/include/sys/reent.h **** #define        _RAND48_SEED_0  (0x330e)
 318:/home/irfan/Desktop/arm/gcc-arm-none-eabi-10.3-2021.10-x86_64-linux/gcc-arm-none-eabi-10.3-2021.10/arm-none-eabi/include/sys/reent.h **** #define        _RAND48_SEED_1  (0xabcd)
 319:/home/irfan/Desktop/arm/gcc-arm-none-eabi-10.3-2021.10-x86_64-linux/gcc-arm-none-eabi-10.3-2021.10/arm-none-eabi/include/sys/reent.h **** #define        _RAND48_SEED_2  (0x1234)
 320:/home/irfan/Desktop/arm/gcc-arm-none-eabi-10.3-2021.10-x86_64-linux/gcc-arm-none-eabi-10.3-2021.10/arm-none-eabi/include/sys/reent.h **** #define        _RAND48_MULT_0  (0xe66d)
 321:/home/irfan/Desktop/arm/gcc-arm-none-eabi-10.3-2021.10-x86_64-linux/gcc-arm-none-eabi-10.3-2021.10/arm-none-eabi/include/sys/reent.h **** #define        _RAND48_MULT_1  (0xdeec)
 322:/home/irfan/Desktop/arm/gcc-arm-none-eabi-10.3-2021.10-x86_64-linux/gcc-arm-none-eabi-10.3-2021.10/arm-none-eabi/include/sys/reent.h **** #define        _RAND48_MULT_2  (0x0005)
 323:/home/irfan/Desktop/arm/gcc-arm-none-eabi-10.3-2021.10-x86_64-linux/gcc-arm-none-eabi-10.3-2021.10/arm-none-eabi/include/sys/reent.h **** #define        _RAND48_ADD     (0x000b)
 324:/home/irfan/Desktop/arm/gcc-arm-none-eabi-10.3-2021.10-x86_64-linux/gcc-arm-none-eabi-10.3-2021.10/arm-none-eabi/include/sys/reent.h **** struct _rand48 {
 1754              		.loc 11 324 1 view .LVU771
 325:/home/irfan/Desktop/arm/gcc-arm-none-eabi-10.3-2021.10-x86_64-linux/gcc-arm-none-eabi-10.3-2021.10/arm-none-eabi/include/sys/reent.h ****   unsigned short _seed[3];
 326:/home/irfan/Desktop/arm/gcc-arm-none-eabi-10.3-2021.10-x86_64-linux/gcc-arm-none-eabi-10.3-2021.10/arm-none-eabi/include/sys/reent.h ****   unsigned short _mult[3];
 327:/home/irfan/Desktop/arm/gcc-arm-none-eabi-10.3-2021.10-x86_64-linux/gcc-arm-none-eabi-10.3-2021.10/arm-none-eabi/include/sys/reent.h ****   unsigned short _add;
 328:/home/irfan/Desktop/arm/gcc-arm-none-eabi-10.3-2021.10-x86_64-linux/gcc-arm-none-eabi-10.3-2021.10/arm-none-eabi/include/sys/reent.h **** #ifdef _REENT_SMALL
 329:/home/irfan/Desktop/arm/gcc-arm-none-eabi-10.3-2021.10-x86_64-linux/gcc-arm-none-eabi-10.3-2021.10/arm-none-eabi/include/sys/reent.h ****   /* Put this in here as well, for good luck.  */
 330:/home/irfan/Desktop/arm/gcc-arm-none-eabi-10.3-2021.10-x86_64-linux/gcc-arm-none-eabi-10.3-2021.10/arm-none-eabi/include/sys/reent.h ****   __extension__ unsigned long long _rand_next;
 331:/home/irfan/Desktop/arm/gcc-arm-none-eabi-10.3-2021.10-x86_64-linux/gcc-arm-none-eabi-10.3-2021.10/arm-none-eabi/include/sys/reent.h **** #endif
 332:/home/irfan/Desktop/arm/gcc-arm-none-eabi-10.3-2021.10-x86_64-linux/gcc-arm-none-eabi-10.3-2021.10/arm-none-eabi/include/sys/reent.h **** };
 333:/home/irfan/Desktop/arm/gcc-arm-none-eabi-10.3-2021.10-x86_64-linux/gcc-arm-none-eabi-10.3-2021.10/arm-none-eabi/include/sys/reent.h **** 
 334:/home/irfan/Desktop/arm/gcc-arm-none-eabi-10.3-2021.10-x86_64-linux/gcc-arm-none-eabi-10.3-2021.10/arm-none-eabi/include/sys/reent.h **** /* How big the some arrays are.  */
 335:/home/irfan/Desktop/arm/gcc-arm-none-eabi-10.3-2021.10-x86_64-linux/gcc-arm-none-eabi-10.3-2021.10/arm-none-eabi/include/sys/reent.h **** #define _REENT_EMERGENCY_SIZE 25
ARM GAS  /tmp/ccYgTI9f.s 			page 93


 336:/home/irfan/Desktop/arm/gcc-arm-none-eabi-10.3-2021.10-x86_64-linux/gcc-arm-none-eabi-10.3-2021.10/arm-none-eabi/include/sys/reent.h **** #define _REENT_ASCTIME_SIZE 26
 337:/home/irfan/Desktop/arm/gcc-arm-none-eabi-10.3-2021.10-x86_64-linux/gcc-arm-none-eabi-10.3-2021.10/arm-none-eabi/include/sys/reent.h **** #define _REENT_SIGNAL_SIZE 24
 338:/home/irfan/Desktop/arm/gcc-arm-none-eabi-10.3-2021.10-x86_64-linux/gcc-arm-none-eabi-10.3-2021.10/arm-none-eabi/include/sys/reent.h **** 
 339:/home/irfan/Desktop/arm/gcc-arm-none-eabi-10.3-2021.10-x86_64-linux/gcc-arm-none-eabi-10.3-2021.10/arm-none-eabi/include/sys/reent.h **** /*
 340:/home/irfan/Desktop/arm/gcc-arm-none-eabi-10.3-2021.10-x86_64-linux/gcc-arm-none-eabi-10.3-2021.10/arm-none-eabi/include/sys/reent.h ****  * struct _reent
 341:/home/irfan/Desktop/arm/gcc-arm-none-eabi-10.3-2021.10-x86_64-linux/gcc-arm-none-eabi-10.3-2021.10/arm-none-eabi/include/sys/reent.h ****  *
 342:/home/irfan/Desktop/arm/gcc-arm-none-eabi-10.3-2021.10-x86_64-linux/gcc-arm-none-eabi-10.3-2021.10/arm-none-eabi/include/sys/reent.h ****  * This structure contains *all* globals needed by the library.
 343:/home/irfan/Desktop/arm/gcc-arm-none-eabi-10.3-2021.10-x86_64-linux/gcc-arm-none-eabi-10.3-2021.10/arm-none-eabi/include/sys/reent.h ****  * It's raison d'etre is to facilitate threads by making all library routines
 344:/home/irfan/Desktop/arm/gcc-arm-none-eabi-10.3-2021.10-x86_64-linux/gcc-arm-none-eabi-10.3-2021.10/arm-none-eabi/include/sys/reent.h ****  * reentrant.  IE: All state information is contained here.
 345:/home/irfan/Desktop/arm/gcc-arm-none-eabi-10.3-2021.10-x86_64-linux/gcc-arm-none-eabi-10.3-2021.10/arm-none-eabi/include/sys/reent.h ****  */
 346:/home/irfan/Desktop/arm/gcc-arm-none-eabi-10.3-2021.10-x86_64-linux/gcc-arm-none-eabi-10.3-2021.10/arm-none-eabi/include/sys/reent.h **** 
 347:/home/irfan/Desktop/arm/gcc-arm-none-eabi-10.3-2021.10-x86_64-linux/gcc-arm-none-eabi-10.3-2021.10/arm-none-eabi/include/sys/reent.h **** #ifdef _REENT_SMALL
 348:/home/irfan/Desktop/arm/gcc-arm-none-eabi-10.3-2021.10-x86_64-linux/gcc-arm-none-eabi-10.3-2021.10/arm-none-eabi/include/sys/reent.h **** 
 349:/home/irfan/Desktop/arm/gcc-arm-none-eabi-10.3-2021.10-x86_64-linux/gcc-arm-none-eabi-10.3-2021.10/arm-none-eabi/include/sys/reent.h **** struct _mprec
 350:/home/irfan/Desktop/arm/gcc-arm-none-eabi-10.3-2021.10-x86_64-linux/gcc-arm-none-eabi-10.3-2021.10/arm-none-eabi/include/sys/reent.h **** {
 351:/home/irfan/Desktop/arm/gcc-arm-none-eabi-10.3-2021.10-x86_64-linux/gcc-arm-none-eabi-10.3-2021.10/arm-none-eabi/include/sys/reent.h ****   /* used by mprec routines */
 352:/home/irfan/Desktop/arm/gcc-arm-none-eabi-10.3-2021.10-x86_64-linux/gcc-arm-none-eabi-10.3-2021.10/arm-none-eabi/include/sys/reent.h ****   struct _Bigint *_result;
 353:/home/irfan/Desktop/arm/gcc-arm-none-eabi-10.3-2021.10-x86_64-linux/gcc-arm-none-eabi-10.3-2021.10/arm-none-eabi/include/sys/reent.h ****   int _result_k;
 354:/home/irfan/Desktop/arm/gcc-arm-none-eabi-10.3-2021.10-x86_64-linux/gcc-arm-none-eabi-10.3-2021.10/arm-none-eabi/include/sys/reent.h ****   struct _Bigint *_p5s;
 355:/home/irfan/Desktop/arm/gcc-arm-none-eabi-10.3-2021.10-x86_64-linux/gcc-arm-none-eabi-10.3-2021.10/arm-none-eabi/include/sys/reent.h ****   struct _Bigint **_freelist;
 356:/home/irfan/Desktop/arm/gcc-arm-none-eabi-10.3-2021.10-x86_64-linux/gcc-arm-none-eabi-10.3-2021.10/arm-none-eabi/include/sys/reent.h **** };
 357:/home/irfan/Desktop/arm/gcc-arm-none-eabi-10.3-2021.10-x86_64-linux/gcc-arm-none-eabi-10.3-2021.10/arm-none-eabi/include/sys/reent.h **** 
 358:/home/irfan/Desktop/arm/gcc-arm-none-eabi-10.3-2021.10-x86_64-linux/gcc-arm-none-eabi-10.3-2021.10/arm-none-eabi/include/sys/reent.h **** 
 359:/home/irfan/Desktop/arm/gcc-arm-none-eabi-10.3-2021.10-x86_64-linux/gcc-arm-none-eabi-10.3-2021.10/arm-none-eabi/include/sys/reent.h **** struct _misc_reent
 360:/home/irfan/Desktop/arm/gcc-arm-none-eabi-10.3-2021.10-x86_64-linux/gcc-arm-none-eabi-10.3-2021.10/arm-none-eabi/include/sys/reent.h **** {
 361:/home/irfan/Desktop/arm/gcc-arm-none-eabi-10.3-2021.10-x86_64-linux/gcc-arm-none-eabi-10.3-2021.10/arm-none-eabi/include/sys/reent.h ****   /* miscellaneous reentrant data */
 362:/home/irfan/Desktop/arm/gcc-arm-none-eabi-10.3-2021.10-x86_64-linux/gcc-arm-none-eabi-10.3-2021.10/arm-none-eabi/include/sys/reent.h ****   char *_strtok_last;
 363:/home/irfan/Desktop/arm/gcc-arm-none-eabi-10.3-2021.10-x86_64-linux/gcc-arm-none-eabi-10.3-2021.10/arm-none-eabi/include/sys/reent.h ****   _mbstate_t _mblen_state;
 364:/home/irfan/Desktop/arm/gcc-arm-none-eabi-10.3-2021.10-x86_64-linux/gcc-arm-none-eabi-10.3-2021.10/arm-none-eabi/include/sys/reent.h ****   _mbstate_t _wctomb_state;
 365:/home/irfan/Desktop/arm/gcc-arm-none-eabi-10.3-2021.10-x86_64-linux/gcc-arm-none-eabi-10.3-2021.10/arm-none-eabi/include/sys/reent.h ****   _mbstate_t _mbtowc_state;
 366:/home/irfan/Desktop/arm/gcc-arm-none-eabi-10.3-2021.10-x86_64-linux/gcc-arm-none-eabi-10.3-2021.10/arm-none-eabi/include/sys/reent.h ****   char _l64a_buf[8];
 367:/home/irfan/Desktop/arm/gcc-arm-none-eabi-10.3-2021.10-x86_64-linux/gcc-arm-none-eabi-10.3-2021.10/arm-none-eabi/include/sys/reent.h ****   int _getdate_err;
 368:/home/irfan/Desktop/arm/gcc-arm-none-eabi-10.3-2021.10-x86_64-linux/gcc-arm-none-eabi-10.3-2021.10/arm-none-eabi/include/sys/reent.h ****   _mbstate_t _mbrlen_state;
 369:/home/irfan/Desktop/arm/gcc-arm-none-eabi-10.3-2021.10-x86_64-linux/gcc-arm-none-eabi-10.3-2021.10/arm-none-eabi/include/sys/reent.h ****   _mbstate_t _mbrtowc_state;
 370:/home/irfan/Desktop/arm/gcc-arm-none-eabi-10.3-2021.10-x86_64-linux/gcc-arm-none-eabi-10.3-2021.10/arm-none-eabi/include/sys/reent.h ****   _mbstate_t _mbsrtowcs_state;
 371:/home/irfan/Desktop/arm/gcc-arm-none-eabi-10.3-2021.10-x86_64-linux/gcc-arm-none-eabi-10.3-2021.10/arm-none-eabi/include/sys/reent.h ****   _mbstate_t _wcrtomb_state;
 372:/home/irfan/Desktop/arm/gcc-arm-none-eabi-10.3-2021.10-x86_64-linux/gcc-arm-none-eabi-10.3-2021.10/arm-none-eabi/include/sys/reent.h ****   _mbstate_t _wcsrtombs_state;
 373:/home/irfan/Desktop/arm/gcc-arm-none-eabi-10.3-2021.10-x86_64-linux/gcc-arm-none-eabi-10.3-2021.10/arm-none-eabi/include/sys/reent.h **** };
 374:/home/irfan/Desktop/arm/gcc-arm-none-eabi-10.3-2021.10-x86_64-linux/gcc-arm-none-eabi-10.3-2021.10/arm-none-eabi/include/sys/reent.h **** 
 375:/home/irfan/Desktop/arm/gcc-arm-none-eabi-10.3-2021.10-x86_64-linux/gcc-arm-none-eabi-10.3-2021.10/arm-none-eabi/include/sys/reent.h **** /* This version of _reent is laid out with "int"s in pairs, to help
 376:/home/irfan/Desktop/arm/gcc-arm-none-eabi-10.3-2021.10-x86_64-linux/gcc-arm-none-eabi-10.3-2021.10/arm-none-eabi/include/sys/reent.h ****  * ports with 16-bit int's but 32-bit pointers, align nicely.  */
 377:/home/irfan/Desktop/arm/gcc-arm-none-eabi-10.3-2021.10-x86_64-linux/gcc-arm-none-eabi-10.3-2021.10/arm-none-eabi/include/sys/reent.h **** struct _reent
 378:/home/irfan/Desktop/arm/gcc-arm-none-eabi-10.3-2021.10-x86_64-linux/gcc-arm-none-eabi-10.3-2021.10/arm-none-eabi/include/sys/reent.h **** {
 379:/home/irfan/Desktop/arm/gcc-arm-none-eabi-10.3-2021.10-x86_64-linux/gcc-arm-none-eabi-10.3-2021.10/arm-none-eabi/include/sys/reent.h ****   /* As an exception to the above put _errno first for binary
 380:/home/irfan/Desktop/arm/gcc-arm-none-eabi-10.3-2021.10-x86_64-linux/gcc-arm-none-eabi-10.3-2021.10/arm-none-eabi/include/sys/reent.h ****      compatibility with non _REENT_SMALL targets.  */
 381:/home/irfan/Desktop/arm/gcc-arm-none-eabi-10.3-2021.10-x86_64-linux/gcc-arm-none-eabi-10.3-2021.10/arm-none-eabi/include/sys/reent.h ****   int _errno;			/* local copy of errno */
 382:/home/irfan/Desktop/arm/gcc-arm-none-eabi-10.3-2021.10-x86_64-linux/gcc-arm-none-eabi-10.3-2021.10/arm-none-eabi/include/sys/reent.h **** 
 383:/home/irfan/Desktop/arm/gcc-arm-none-eabi-10.3-2021.10-x86_64-linux/gcc-arm-none-eabi-10.3-2021.10/arm-none-eabi/include/sys/reent.h ****   /* FILE is a big struct and may change over time.  To try to achieve binary
 384:/home/irfan/Desktop/arm/gcc-arm-none-eabi-10.3-2021.10-x86_64-linux/gcc-arm-none-eabi-10.3-2021.10/arm-none-eabi/include/sys/reent.h ****      compatibility with future versions, put stdin,stdout,stderr here.
 385:/home/irfan/Desktop/arm/gcc-arm-none-eabi-10.3-2021.10-x86_64-linux/gcc-arm-none-eabi-10.3-2021.10/arm-none-eabi/include/sys/reent.h ****      These are pointers into member __sf defined below.  */
 386:/home/irfan/Desktop/arm/gcc-arm-none-eabi-10.3-2021.10-x86_64-linux/gcc-arm-none-eabi-10.3-2021.10/arm-none-eabi/include/sys/reent.h ****   __FILE *_stdin, *_stdout, *_stderr;	/* XXX */
 387:/home/irfan/Desktop/arm/gcc-arm-none-eabi-10.3-2021.10-x86_64-linux/gcc-arm-none-eabi-10.3-2021.10/arm-none-eabi/include/sys/reent.h **** 
 388:/home/irfan/Desktop/arm/gcc-arm-none-eabi-10.3-2021.10-x86_64-linux/gcc-arm-none-eabi-10.3-2021.10/arm-none-eabi/include/sys/reent.h ****   int  _inc;			/* used by tmpnam */
 389:/home/irfan/Desktop/arm/gcc-arm-none-eabi-10.3-2021.10-x86_64-linux/gcc-arm-none-eabi-10.3-2021.10/arm-none-eabi/include/sys/reent.h **** 
 390:/home/irfan/Desktop/arm/gcc-arm-none-eabi-10.3-2021.10-x86_64-linux/gcc-arm-none-eabi-10.3-2021.10/arm-none-eabi/include/sys/reent.h ****   char *_emergency;
 391:/home/irfan/Desktop/arm/gcc-arm-none-eabi-10.3-2021.10-x86_64-linux/gcc-arm-none-eabi-10.3-2021.10/arm-none-eabi/include/sys/reent.h **** 
 392:/home/irfan/Desktop/arm/gcc-arm-none-eabi-10.3-2021.10-x86_64-linux/gcc-arm-none-eabi-10.3-2021.10/arm-none-eabi/include/sys/reent.h ****   int __sdidinit;		/* 1 means stdio has been init'd */
ARM GAS  /tmp/ccYgTI9f.s 			page 94


 393:/home/irfan/Desktop/arm/gcc-arm-none-eabi-10.3-2021.10-x86_64-linux/gcc-arm-none-eabi-10.3-2021.10/arm-none-eabi/include/sys/reent.h **** 
 394:/home/irfan/Desktop/arm/gcc-arm-none-eabi-10.3-2021.10-x86_64-linux/gcc-arm-none-eabi-10.3-2021.10/arm-none-eabi/include/sys/reent.h ****   int _unspecified_locale_info;	/* unused, reserved for locale stuff */
 395:/home/irfan/Desktop/arm/gcc-arm-none-eabi-10.3-2021.10-x86_64-linux/gcc-arm-none-eabi-10.3-2021.10/arm-none-eabi/include/sys/reent.h ****   struct __locale_t *_locale;/* per-thread locale */
 396:/home/irfan/Desktop/arm/gcc-arm-none-eabi-10.3-2021.10-x86_64-linux/gcc-arm-none-eabi-10.3-2021.10/arm-none-eabi/include/sys/reent.h **** 
 397:/home/irfan/Desktop/arm/gcc-arm-none-eabi-10.3-2021.10-x86_64-linux/gcc-arm-none-eabi-10.3-2021.10/arm-none-eabi/include/sys/reent.h ****   struct _mprec *_mp;
 398:/home/irfan/Desktop/arm/gcc-arm-none-eabi-10.3-2021.10-x86_64-linux/gcc-arm-none-eabi-10.3-2021.10/arm-none-eabi/include/sys/reent.h **** 
 399:/home/irfan/Desktop/arm/gcc-arm-none-eabi-10.3-2021.10-x86_64-linux/gcc-arm-none-eabi-10.3-2021.10/arm-none-eabi/include/sys/reent.h ****   void (*__cleanup) (struct _reent *);
 400:/home/irfan/Desktop/arm/gcc-arm-none-eabi-10.3-2021.10-x86_64-linux/gcc-arm-none-eabi-10.3-2021.10/arm-none-eabi/include/sys/reent.h **** 
 401:/home/irfan/Desktop/arm/gcc-arm-none-eabi-10.3-2021.10-x86_64-linux/gcc-arm-none-eabi-10.3-2021.10/arm-none-eabi/include/sys/reent.h ****   int _gamma_signgam;
 402:/home/irfan/Desktop/arm/gcc-arm-none-eabi-10.3-2021.10-x86_64-linux/gcc-arm-none-eabi-10.3-2021.10/arm-none-eabi/include/sys/reent.h **** 
 403:/home/irfan/Desktop/arm/gcc-arm-none-eabi-10.3-2021.10-x86_64-linux/gcc-arm-none-eabi-10.3-2021.10/arm-none-eabi/include/sys/reent.h ****   /* used by some fp conversion routines */
 404:/home/irfan/Desktop/arm/gcc-arm-none-eabi-10.3-2021.10-x86_64-linux/gcc-arm-none-eabi-10.3-2021.10/arm-none-eabi/include/sys/reent.h ****   int _cvtlen;			/* should be size_t */
 405:/home/irfan/Desktop/arm/gcc-arm-none-eabi-10.3-2021.10-x86_64-linux/gcc-arm-none-eabi-10.3-2021.10/arm-none-eabi/include/sys/reent.h ****   char *_cvtbuf;
 406:/home/irfan/Desktop/arm/gcc-arm-none-eabi-10.3-2021.10-x86_64-linux/gcc-arm-none-eabi-10.3-2021.10/arm-none-eabi/include/sys/reent.h **** 
 407:/home/irfan/Desktop/arm/gcc-arm-none-eabi-10.3-2021.10-x86_64-linux/gcc-arm-none-eabi-10.3-2021.10/arm-none-eabi/include/sys/reent.h ****   struct _rand48 *_r48;
 408:/home/irfan/Desktop/arm/gcc-arm-none-eabi-10.3-2021.10-x86_64-linux/gcc-arm-none-eabi-10.3-2021.10/arm-none-eabi/include/sys/reent.h ****   struct __tm *_localtime_buf;
 409:/home/irfan/Desktop/arm/gcc-arm-none-eabi-10.3-2021.10-x86_64-linux/gcc-arm-none-eabi-10.3-2021.10/arm-none-eabi/include/sys/reent.h ****   char *_asctime_buf;
 410:/home/irfan/Desktop/arm/gcc-arm-none-eabi-10.3-2021.10-x86_64-linux/gcc-arm-none-eabi-10.3-2021.10/arm-none-eabi/include/sys/reent.h **** 
 411:/home/irfan/Desktop/arm/gcc-arm-none-eabi-10.3-2021.10-x86_64-linux/gcc-arm-none-eabi-10.3-2021.10/arm-none-eabi/include/sys/reent.h ****   /* signal info */
 412:/home/irfan/Desktop/arm/gcc-arm-none-eabi-10.3-2021.10-x86_64-linux/gcc-arm-none-eabi-10.3-2021.10/arm-none-eabi/include/sys/reent.h ****   void (**(_sig_func))(int);
 413:/home/irfan/Desktop/arm/gcc-arm-none-eabi-10.3-2021.10-x86_64-linux/gcc-arm-none-eabi-10.3-2021.10/arm-none-eabi/include/sys/reent.h **** 
 414:/home/irfan/Desktop/arm/gcc-arm-none-eabi-10.3-2021.10-x86_64-linux/gcc-arm-none-eabi-10.3-2021.10/arm-none-eabi/include/sys/reent.h **** # ifndef _REENT_GLOBAL_ATEXIT
 415:/home/irfan/Desktop/arm/gcc-arm-none-eabi-10.3-2021.10-x86_64-linux/gcc-arm-none-eabi-10.3-2021.10/arm-none-eabi/include/sys/reent.h ****   /* atexit stuff */
 416:/home/irfan/Desktop/arm/gcc-arm-none-eabi-10.3-2021.10-x86_64-linux/gcc-arm-none-eabi-10.3-2021.10/arm-none-eabi/include/sys/reent.h ****   struct _atexit *_atexit;
 417:/home/irfan/Desktop/arm/gcc-arm-none-eabi-10.3-2021.10-x86_64-linux/gcc-arm-none-eabi-10.3-2021.10/arm-none-eabi/include/sys/reent.h ****   struct _atexit _atexit0;
 418:/home/irfan/Desktop/arm/gcc-arm-none-eabi-10.3-2021.10-x86_64-linux/gcc-arm-none-eabi-10.3-2021.10/arm-none-eabi/include/sys/reent.h **** # endif
 419:/home/irfan/Desktop/arm/gcc-arm-none-eabi-10.3-2021.10-x86_64-linux/gcc-arm-none-eabi-10.3-2021.10/arm-none-eabi/include/sys/reent.h **** 
 420:/home/irfan/Desktop/arm/gcc-arm-none-eabi-10.3-2021.10-x86_64-linux/gcc-arm-none-eabi-10.3-2021.10/arm-none-eabi/include/sys/reent.h ****   struct _glue __sglue;			/* root of glue chain */
 421:/home/irfan/Desktop/arm/gcc-arm-none-eabi-10.3-2021.10-x86_64-linux/gcc-arm-none-eabi-10.3-2021.10/arm-none-eabi/include/sys/reent.h ****   __FILE *__sf;			        /* file descriptors */
 422:/home/irfan/Desktop/arm/gcc-arm-none-eabi-10.3-2021.10-x86_64-linux/gcc-arm-none-eabi-10.3-2021.10/arm-none-eabi/include/sys/reent.h ****   struct _misc_reent *_misc;            /* strtok, multibyte states */
 423:/home/irfan/Desktop/arm/gcc-arm-none-eabi-10.3-2021.10-x86_64-linux/gcc-arm-none-eabi-10.3-2021.10/arm-none-eabi/include/sys/reent.h ****   char *_signal_buf;                    /* strsignal */
 424:/home/irfan/Desktop/arm/gcc-arm-none-eabi-10.3-2021.10-x86_64-linux/gcc-arm-none-eabi-10.3-2021.10/arm-none-eabi/include/sys/reent.h **** };
 425:/home/irfan/Desktop/arm/gcc-arm-none-eabi-10.3-2021.10-x86_64-linux/gcc-arm-none-eabi-10.3-2021.10/arm-none-eabi/include/sys/reent.h **** 
 426:/home/irfan/Desktop/arm/gcc-arm-none-eabi-10.3-2021.10-x86_64-linux/gcc-arm-none-eabi-10.3-2021.10/arm-none-eabi/include/sys/reent.h **** #ifdef _REENT_GLOBAL_STDIO_STREAMS
 427:/home/irfan/Desktop/arm/gcc-arm-none-eabi-10.3-2021.10-x86_64-linux/gcc-arm-none-eabi-10.3-2021.10/arm-none-eabi/include/sys/reent.h **** extern __FILE __sf[3];
 428:/home/irfan/Desktop/arm/gcc-arm-none-eabi-10.3-2021.10-x86_64-linux/gcc-arm-none-eabi-10.3-2021.10/arm-none-eabi/include/sys/reent.h **** 
 429:/home/irfan/Desktop/arm/gcc-arm-none-eabi-10.3-2021.10-x86_64-linux/gcc-arm-none-eabi-10.3-2021.10/arm-none-eabi/include/sys/reent.h **** # define _REENT_INIT(var) \
 430:/home/irfan/Desktop/arm/gcc-arm-none-eabi-10.3-2021.10-x86_64-linux/gcc-arm-none-eabi-10.3-2021.10/arm-none-eabi/include/sys/reent.h ****   { 0, \
 431:/home/irfan/Desktop/arm/gcc-arm-none-eabi-10.3-2021.10-x86_64-linux/gcc-arm-none-eabi-10.3-2021.10/arm-none-eabi/include/sys/reent.h ****     &__sf[0], \
 432:/home/irfan/Desktop/arm/gcc-arm-none-eabi-10.3-2021.10-x86_64-linux/gcc-arm-none-eabi-10.3-2021.10/arm-none-eabi/include/sys/reent.h ****     &__sf[1], \
 433:/home/irfan/Desktop/arm/gcc-arm-none-eabi-10.3-2021.10-x86_64-linux/gcc-arm-none-eabi-10.3-2021.10/arm-none-eabi/include/sys/reent.h ****     &__sf[2], \
 434:/home/irfan/Desktop/arm/gcc-arm-none-eabi-10.3-2021.10-x86_64-linux/gcc-arm-none-eabi-10.3-2021.10/arm-none-eabi/include/sys/reent.h ****     0,   \
 435:/home/irfan/Desktop/arm/gcc-arm-none-eabi-10.3-2021.10-x86_64-linux/gcc-arm-none-eabi-10.3-2021.10/arm-none-eabi/include/sys/reent.h ****     _NULL, \
 436:/home/irfan/Desktop/arm/gcc-arm-none-eabi-10.3-2021.10-x86_64-linux/gcc-arm-none-eabi-10.3-2021.10/arm-none-eabi/include/sys/reent.h ****     0, \
 437:/home/irfan/Desktop/arm/gcc-arm-none-eabi-10.3-2021.10-x86_64-linux/gcc-arm-none-eabi-10.3-2021.10/arm-none-eabi/include/sys/reent.h ****     0, \
 438:/home/irfan/Desktop/arm/gcc-arm-none-eabi-10.3-2021.10-x86_64-linux/gcc-arm-none-eabi-10.3-2021.10/arm-none-eabi/include/sys/reent.h ****     _NULL, \
 439:/home/irfan/Desktop/arm/gcc-arm-none-eabi-10.3-2021.10-x86_64-linux/gcc-arm-none-eabi-10.3-2021.10/arm-none-eabi/include/sys/reent.h ****     _NULL, \
 440:/home/irfan/Desktop/arm/gcc-arm-none-eabi-10.3-2021.10-x86_64-linux/gcc-arm-none-eabi-10.3-2021.10/arm-none-eabi/include/sys/reent.h ****     _NULL, \
 441:/home/irfan/Desktop/arm/gcc-arm-none-eabi-10.3-2021.10-x86_64-linux/gcc-arm-none-eabi-10.3-2021.10/arm-none-eabi/include/sys/reent.h ****     0, \
 442:/home/irfan/Desktop/arm/gcc-arm-none-eabi-10.3-2021.10-x86_64-linux/gcc-arm-none-eabi-10.3-2021.10/arm-none-eabi/include/sys/reent.h ****     0, \
 443:/home/irfan/Desktop/arm/gcc-arm-none-eabi-10.3-2021.10-x86_64-linux/gcc-arm-none-eabi-10.3-2021.10/arm-none-eabi/include/sys/reent.h ****     _NULL, \
 444:/home/irfan/Desktop/arm/gcc-arm-none-eabi-10.3-2021.10-x86_64-linux/gcc-arm-none-eabi-10.3-2021.10/arm-none-eabi/include/sys/reent.h ****     _NULL, \
 445:/home/irfan/Desktop/arm/gcc-arm-none-eabi-10.3-2021.10-x86_64-linux/gcc-arm-none-eabi-10.3-2021.10/arm-none-eabi/include/sys/reent.h ****     _NULL, \
 446:/home/irfan/Desktop/arm/gcc-arm-none-eabi-10.3-2021.10-x86_64-linux/gcc-arm-none-eabi-10.3-2021.10/arm-none-eabi/include/sys/reent.h ****     _NULL, \
 447:/home/irfan/Desktop/arm/gcc-arm-none-eabi-10.3-2021.10-x86_64-linux/gcc-arm-none-eabi-10.3-2021.10/arm-none-eabi/include/sys/reent.h ****     _NULL, \
 448:/home/irfan/Desktop/arm/gcc-arm-none-eabi-10.3-2021.10-x86_64-linux/gcc-arm-none-eabi-10.3-2021.10/arm-none-eabi/include/sys/reent.h ****     _REENT_INIT_ATEXIT \
 449:/home/irfan/Desktop/arm/gcc-arm-none-eabi-10.3-2021.10-x86_64-linux/gcc-arm-none-eabi-10.3-2021.10/arm-none-eabi/include/sys/reent.h ****     {_NULL, 0, _NULL}, \
ARM GAS  /tmp/ccYgTI9f.s 			page 95


 450:/home/irfan/Desktop/arm/gcc-arm-none-eabi-10.3-2021.10-x86_64-linux/gcc-arm-none-eabi-10.3-2021.10/arm-none-eabi/include/sys/reent.h ****     _NULL, \
 451:/home/irfan/Desktop/arm/gcc-arm-none-eabi-10.3-2021.10-x86_64-linux/gcc-arm-none-eabi-10.3-2021.10/arm-none-eabi/include/sys/reent.h ****     _NULL, \
 452:/home/irfan/Desktop/arm/gcc-arm-none-eabi-10.3-2021.10-x86_64-linux/gcc-arm-none-eabi-10.3-2021.10/arm-none-eabi/include/sys/reent.h ****     _NULL \
 453:/home/irfan/Desktop/arm/gcc-arm-none-eabi-10.3-2021.10-x86_64-linux/gcc-arm-none-eabi-10.3-2021.10/arm-none-eabi/include/sys/reent.h ****   }
 454:/home/irfan/Desktop/arm/gcc-arm-none-eabi-10.3-2021.10-x86_64-linux/gcc-arm-none-eabi-10.3-2021.10/arm-none-eabi/include/sys/reent.h **** 
 455:/home/irfan/Desktop/arm/gcc-arm-none-eabi-10.3-2021.10-x86_64-linux/gcc-arm-none-eabi-10.3-2021.10/arm-none-eabi/include/sys/reent.h **** #define _REENT_INIT_PTR_ZEROED(var) \
 456:/home/irfan/Desktop/arm/gcc-arm-none-eabi-10.3-2021.10-x86_64-linux/gcc-arm-none-eabi-10.3-2021.10/arm-none-eabi/include/sys/reent.h ****   { (var)->_stdin = &__sf[0]; \
 457:/home/irfan/Desktop/arm/gcc-arm-none-eabi-10.3-2021.10-x86_64-linux/gcc-arm-none-eabi-10.3-2021.10/arm-none-eabi/include/sys/reent.h ****     (var)->_stdout = &__sf[1]; \
 458:/home/irfan/Desktop/arm/gcc-arm-none-eabi-10.3-2021.10-x86_64-linux/gcc-arm-none-eabi-10.3-2021.10/arm-none-eabi/include/sys/reent.h ****     (var)->_stderr = &__sf[2]; \
 459:/home/irfan/Desktop/arm/gcc-arm-none-eabi-10.3-2021.10-x86_64-linux/gcc-arm-none-eabi-10.3-2021.10/arm-none-eabi/include/sys/reent.h ****   }
 460:/home/irfan/Desktop/arm/gcc-arm-none-eabi-10.3-2021.10-x86_64-linux/gcc-arm-none-eabi-10.3-2021.10/arm-none-eabi/include/sys/reent.h **** 
 461:/home/irfan/Desktop/arm/gcc-arm-none-eabi-10.3-2021.10-x86_64-linux/gcc-arm-none-eabi-10.3-2021.10/arm-none-eabi/include/sys/reent.h **** #else /* _REENT_GLOBAL_STDIO_STREAMS */
 462:/home/irfan/Desktop/arm/gcc-arm-none-eabi-10.3-2021.10-x86_64-linux/gcc-arm-none-eabi-10.3-2021.10/arm-none-eabi/include/sys/reent.h **** 
 463:/home/irfan/Desktop/arm/gcc-arm-none-eabi-10.3-2021.10-x86_64-linux/gcc-arm-none-eabi-10.3-2021.10/arm-none-eabi/include/sys/reent.h **** extern const struct __sFILE_fake __sf_fake_stdin;
 464:/home/irfan/Desktop/arm/gcc-arm-none-eabi-10.3-2021.10-x86_64-linux/gcc-arm-none-eabi-10.3-2021.10/arm-none-eabi/include/sys/reent.h **** extern const struct __sFILE_fake __sf_fake_stdout;
 465:/home/irfan/Desktop/arm/gcc-arm-none-eabi-10.3-2021.10-x86_64-linux/gcc-arm-none-eabi-10.3-2021.10/arm-none-eabi/include/sys/reent.h **** extern const struct __sFILE_fake __sf_fake_stderr;
 466:/home/irfan/Desktop/arm/gcc-arm-none-eabi-10.3-2021.10-x86_64-linux/gcc-arm-none-eabi-10.3-2021.10/arm-none-eabi/include/sys/reent.h **** 
 467:/home/irfan/Desktop/arm/gcc-arm-none-eabi-10.3-2021.10-x86_64-linux/gcc-arm-none-eabi-10.3-2021.10/arm-none-eabi/include/sys/reent.h **** # define _REENT_INIT(var) \
 468:/home/irfan/Desktop/arm/gcc-arm-none-eabi-10.3-2021.10-x86_64-linux/gcc-arm-none-eabi-10.3-2021.10/arm-none-eabi/include/sys/reent.h ****   { 0, \
 469:/home/irfan/Desktop/arm/gcc-arm-none-eabi-10.3-2021.10-x86_64-linux/gcc-arm-none-eabi-10.3-2021.10/arm-none-eabi/include/sys/reent.h ****     (__FILE *)&__sf_fake_stdin, \
 470:/home/irfan/Desktop/arm/gcc-arm-none-eabi-10.3-2021.10-x86_64-linux/gcc-arm-none-eabi-10.3-2021.10/arm-none-eabi/include/sys/reent.h ****     (__FILE *)&__sf_fake_stdout, \
 471:/home/irfan/Desktop/arm/gcc-arm-none-eabi-10.3-2021.10-x86_64-linux/gcc-arm-none-eabi-10.3-2021.10/arm-none-eabi/include/sys/reent.h ****     (__FILE *)&__sf_fake_stderr, \
 472:/home/irfan/Desktop/arm/gcc-arm-none-eabi-10.3-2021.10-x86_64-linux/gcc-arm-none-eabi-10.3-2021.10/arm-none-eabi/include/sys/reent.h ****     0, \
 473:/home/irfan/Desktop/arm/gcc-arm-none-eabi-10.3-2021.10-x86_64-linux/gcc-arm-none-eabi-10.3-2021.10/arm-none-eabi/include/sys/reent.h ****     _NULL, \
 474:/home/irfan/Desktop/arm/gcc-arm-none-eabi-10.3-2021.10-x86_64-linux/gcc-arm-none-eabi-10.3-2021.10/arm-none-eabi/include/sys/reent.h ****     0, \
 475:/home/irfan/Desktop/arm/gcc-arm-none-eabi-10.3-2021.10-x86_64-linux/gcc-arm-none-eabi-10.3-2021.10/arm-none-eabi/include/sys/reent.h ****     0, \
 476:/home/irfan/Desktop/arm/gcc-arm-none-eabi-10.3-2021.10-x86_64-linux/gcc-arm-none-eabi-10.3-2021.10/arm-none-eabi/include/sys/reent.h ****     _NULL, \
 477:/home/irfan/Desktop/arm/gcc-arm-none-eabi-10.3-2021.10-x86_64-linux/gcc-arm-none-eabi-10.3-2021.10/arm-none-eabi/include/sys/reent.h ****     _NULL, \
 478:/home/irfan/Desktop/arm/gcc-arm-none-eabi-10.3-2021.10-x86_64-linux/gcc-arm-none-eabi-10.3-2021.10/arm-none-eabi/include/sys/reent.h ****     _NULL, \
 479:/home/irfan/Desktop/arm/gcc-arm-none-eabi-10.3-2021.10-x86_64-linux/gcc-arm-none-eabi-10.3-2021.10/arm-none-eabi/include/sys/reent.h ****     0, \
 480:/home/irfan/Desktop/arm/gcc-arm-none-eabi-10.3-2021.10-x86_64-linux/gcc-arm-none-eabi-10.3-2021.10/arm-none-eabi/include/sys/reent.h ****     0, \
 481:/home/irfan/Desktop/arm/gcc-arm-none-eabi-10.3-2021.10-x86_64-linux/gcc-arm-none-eabi-10.3-2021.10/arm-none-eabi/include/sys/reent.h ****     _NULL, \
 482:/home/irfan/Desktop/arm/gcc-arm-none-eabi-10.3-2021.10-x86_64-linux/gcc-arm-none-eabi-10.3-2021.10/arm-none-eabi/include/sys/reent.h ****     _NULL, \
 483:/home/irfan/Desktop/arm/gcc-arm-none-eabi-10.3-2021.10-x86_64-linux/gcc-arm-none-eabi-10.3-2021.10/arm-none-eabi/include/sys/reent.h ****     _NULL, \
 484:/home/irfan/Desktop/arm/gcc-arm-none-eabi-10.3-2021.10-x86_64-linux/gcc-arm-none-eabi-10.3-2021.10/arm-none-eabi/include/sys/reent.h ****     _NULL, \
 485:/home/irfan/Desktop/arm/gcc-arm-none-eabi-10.3-2021.10-x86_64-linux/gcc-arm-none-eabi-10.3-2021.10/arm-none-eabi/include/sys/reent.h ****     _NULL, \
 486:/home/irfan/Desktop/arm/gcc-arm-none-eabi-10.3-2021.10-x86_64-linux/gcc-arm-none-eabi-10.3-2021.10/arm-none-eabi/include/sys/reent.h ****     _REENT_INIT_ATEXIT \
 487:/home/irfan/Desktop/arm/gcc-arm-none-eabi-10.3-2021.10-x86_64-linux/gcc-arm-none-eabi-10.3-2021.10/arm-none-eabi/include/sys/reent.h ****     {_NULL, 0, _NULL}, \
 488:/home/irfan/Desktop/arm/gcc-arm-none-eabi-10.3-2021.10-x86_64-linux/gcc-arm-none-eabi-10.3-2021.10/arm-none-eabi/include/sys/reent.h ****     _NULL, \
 489:/home/irfan/Desktop/arm/gcc-arm-none-eabi-10.3-2021.10-x86_64-linux/gcc-arm-none-eabi-10.3-2021.10/arm-none-eabi/include/sys/reent.h ****     _NULL, \
 490:/home/irfan/Desktop/arm/gcc-arm-none-eabi-10.3-2021.10-x86_64-linux/gcc-arm-none-eabi-10.3-2021.10/arm-none-eabi/include/sys/reent.h ****     _NULL \
 491:/home/irfan/Desktop/arm/gcc-arm-none-eabi-10.3-2021.10-x86_64-linux/gcc-arm-none-eabi-10.3-2021.10/arm-none-eabi/include/sys/reent.h ****   }
 492:/home/irfan/Desktop/arm/gcc-arm-none-eabi-10.3-2021.10-x86_64-linux/gcc-arm-none-eabi-10.3-2021.10/arm-none-eabi/include/sys/reent.h **** 
 493:/home/irfan/Desktop/arm/gcc-arm-none-eabi-10.3-2021.10-x86_64-linux/gcc-arm-none-eabi-10.3-2021.10/arm-none-eabi/include/sys/reent.h **** #define _REENT_INIT_PTR_ZEROED(var) \
 494:/home/irfan/Desktop/arm/gcc-arm-none-eabi-10.3-2021.10-x86_64-linux/gcc-arm-none-eabi-10.3-2021.10/arm-none-eabi/include/sys/reent.h ****   { (var)->_stdin = (__FILE *)&__sf_fake_stdin; \
 495:/home/irfan/Desktop/arm/gcc-arm-none-eabi-10.3-2021.10-x86_64-linux/gcc-arm-none-eabi-10.3-2021.10/arm-none-eabi/include/sys/reent.h ****     (var)->_stdout = (__FILE *)&__sf_fake_stdout; \
 496:/home/irfan/Desktop/arm/gcc-arm-none-eabi-10.3-2021.10-x86_64-linux/gcc-arm-none-eabi-10.3-2021.10/arm-none-eabi/include/sys/reent.h ****     (var)->_stderr = (__FILE *)&__sf_fake_stderr; \
 497:/home/irfan/Desktop/arm/gcc-arm-none-eabi-10.3-2021.10-x86_64-linux/gcc-arm-none-eabi-10.3-2021.10/arm-none-eabi/include/sys/reent.h ****   }
 498:/home/irfan/Desktop/arm/gcc-arm-none-eabi-10.3-2021.10-x86_64-linux/gcc-arm-none-eabi-10.3-2021.10/arm-none-eabi/include/sys/reent.h **** 
 499:/home/irfan/Desktop/arm/gcc-arm-none-eabi-10.3-2021.10-x86_64-linux/gcc-arm-none-eabi-10.3-2021.10/arm-none-eabi/include/sys/reent.h **** #endif /* _REENT_GLOBAL_STDIO_STREAMS */
 500:/home/irfan/Desktop/arm/gcc-arm-none-eabi-10.3-2021.10-x86_64-linux/gcc-arm-none-eabi-10.3-2021.10/arm-none-eabi/include/sys/reent.h **** 
 501:/home/irfan/Desktop/arm/gcc-arm-none-eabi-10.3-2021.10-x86_64-linux/gcc-arm-none-eabi-10.3-2021.10/arm-none-eabi/include/sys/reent.h **** /* Specify how to handle reent_check malloc failures. */
 502:/home/irfan/Desktop/arm/gcc-arm-none-eabi-10.3-2021.10-x86_64-linux/gcc-arm-none-eabi-10.3-2021.10/arm-none-eabi/include/sys/reent.h **** #ifdef _REENT_CHECK_VERIFY
 503:/home/irfan/Desktop/arm/gcc-arm-none-eabi-10.3-2021.10-x86_64-linux/gcc-arm-none-eabi-10.3-2021.10/arm-none-eabi/include/sys/reent.h **** #include <assert.h>
 504:/home/irfan/Desktop/arm/gcc-arm-none-eabi-10.3-2021.10-x86_64-linux/gcc-arm-none-eabi-10.3-2021.10/arm-none-eabi/include/sys/reent.h **** #define __reent_assert(x) ((x) ? (void)0 : __assert_func(__FILE__, __LINE__, (char *)0, "REENT mall
 505:/home/irfan/Desktop/arm/gcc-arm-none-eabi-10.3-2021.10-x86_64-linux/gcc-arm-none-eabi-10.3-2021.10/arm-none-eabi/include/sys/reent.h **** #else
 506:/home/irfan/Desktop/arm/gcc-arm-none-eabi-10.3-2021.10-x86_64-linux/gcc-arm-none-eabi-10.3-2021.10/arm-none-eabi/include/sys/reent.h **** #define __reent_assert(x) ((void)0)
ARM GAS  /tmp/ccYgTI9f.s 			page 96


 507:/home/irfan/Desktop/arm/gcc-arm-none-eabi-10.3-2021.10-x86_64-linux/gcc-arm-none-eabi-10.3-2021.10/arm-none-eabi/include/sys/reent.h **** #endif
 508:/home/irfan/Desktop/arm/gcc-arm-none-eabi-10.3-2021.10-x86_64-linux/gcc-arm-none-eabi-10.3-2021.10/arm-none-eabi/include/sys/reent.h **** 
 509:/home/irfan/Desktop/arm/gcc-arm-none-eabi-10.3-2021.10-x86_64-linux/gcc-arm-none-eabi-10.3-2021.10/arm-none-eabi/include/sys/reent.h **** #ifdef __CUSTOM_FILE_IO__
 510:/home/irfan/Desktop/arm/gcc-arm-none-eabi-10.3-2021.10-x86_64-linux/gcc-arm-none-eabi-10.3-2021.10/arm-none-eabi/include/sys/reent.h **** #error Custom FILE I/O and _REENT_SMALL not currently supported.
 511:/home/irfan/Desktop/arm/gcc-arm-none-eabi-10.3-2021.10-x86_64-linux/gcc-arm-none-eabi-10.3-2021.10/arm-none-eabi/include/sys/reent.h **** #endif
 512:/home/irfan/Desktop/arm/gcc-arm-none-eabi-10.3-2021.10-x86_64-linux/gcc-arm-none-eabi-10.3-2021.10/arm-none-eabi/include/sys/reent.h **** 
 513:/home/irfan/Desktop/arm/gcc-arm-none-eabi-10.3-2021.10-x86_64-linux/gcc-arm-none-eabi-10.3-2021.10/arm-none-eabi/include/sys/reent.h **** /* Generic _REENT check macro.  */
 514:/home/irfan/Desktop/arm/gcc-arm-none-eabi-10.3-2021.10-x86_64-linux/gcc-arm-none-eabi-10.3-2021.10/arm-none-eabi/include/sys/reent.h **** #define _REENT_CHECK(var, what, type, size, init) do { \
 515:/home/irfan/Desktop/arm/gcc-arm-none-eabi-10.3-2021.10-x86_64-linux/gcc-arm-none-eabi-10.3-2021.10/arm-none-eabi/include/sys/reent.h ****   struct _reent *_r = (var); \
 516:/home/irfan/Desktop/arm/gcc-arm-none-eabi-10.3-2021.10-x86_64-linux/gcc-arm-none-eabi-10.3-2021.10/arm-none-eabi/include/sys/reent.h ****   if (_r->what == NULL) { \
 517:/home/irfan/Desktop/arm/gcc-arm-none-eabi-10.3-2021.10-x86_64-linux/gcc-arm-none-eabi-10.3-2021.10/arm-none-eabi/include/sys/reent.h ****     _r->what = (type)malloc(size); \
 518:/home/irfan/Desktop/arm/gcc-arm-none-eabi-10.3-2021.10-x86_64-linux/gcc-arm-none-eabi-10.3-2021.10/arm-none-eabi/include/sys/reent.h ****     __reent_assert(_r->what); \
 519:/home/irfan/Desktop/arm/gcc-arm-none-eabi-10.3-2021.10-x86_64-linux/gcc-arm-none-eabi-10.3-2021.10/arm-none-eabi/include/sys/reent.h ****     init; \
 520:/home/irfan/Desktop/arm/gcc-arm-none-eabi-10.3-2021.10-x86_64-linux/gcc-arm-none-eabi-10.3-2021.10/arm-none-eabi/include/sys/reent.h ****   } \
 521:/home/irfan/Desktop/arm/gcc-arm-none-eabi-10.3-2021.10-x86_64-linux/gcc-arm-none-eabi-10.3-2021.10/arm-none-eabi/include/sys/reent.h **** } while (0)
 522:/home/irfan/Desktop/arm/gcc-arm-none-eabi-10.3-2021.10-x86_64-linux/gcc-arm-none-eabi-10.3-2021.10/arm-none-eabi/include/sys/reent.h **** 
 523:/home/irfan/Desktop/arm/gcc-arm-none-eabi-10.3-2021.10-x86_64-linux/gcc-arm-none-eabi-10.3-2021.10/arm-none-eabi/include/sys/reent.h **** #define _REENT_CHECK_TM(var) \
 524:/home/irfan/Desktop/arm/gcc-arm-none-eabi-10.3-2021.10-x86_64-linux/gcc-arm-none-eabi-10.3-2021.10/arm-none-eabi/include/sys/reent.h ****   _REENT_CHECK(var, _localtime_buf, struct __tm *, sizeof *((var)->_localtime_buf), \
 525:/home/irfan/Desktop/arm/gcc-arm-none-eabi-10.3-2021.10-x86_64-linux/gcc-arm-none-eabi-10.3-2021.10/arm-none-eabi/include/sys/reent.h ****     /* nothing */)
 526:/home/irfan/Desktop/arm/gcc-arm-none-eabi-10.3-2021.10-x86_64-linux/gcc-arm-none-eabi-10.3-2021.10/arm-none-eabi/include/sys/reent.h **** 
 527:/home/irfan/Desktop/arm/gcc-arm-none-eabi-10.3-2021.10-x86_64-linux/gcc-arm-none-eabi-10.3-2021.10/arm-none-eabi/include/sys/reent.h **** #define _REENT_CHECK_ASCTIME_BUF(var) \
 528:/home/irfan/Desktop/arm/gcc-arm-none-eabi-10.3-2021.10-x86_64-linux/gcc-arm-none-eabi-10.3-2021.10/arm-none-eabi/include/sys/reent.h ****   _REENT_CHECK(var, _asctime_buf, char *, _REENT_ASCTIME_SIZE, \
 529:/home/irfan/Desktop/arm/gcc-arm-none-eabi-10.3-2021.10-x86_64-linux/gcc-arm-none-eabi-10.3-2021.10/arm-none-eabi/include/sys/reent.h ****     memset((var)->_asctime_buf, 0, _REENT_ASCTIME_SIZE))
 530:/home/irfan/Desktop/arm/gcc-arm-none-eabi-10.3-2021.10-x86_64-linux/gcc-arm-none-eabi-10.3-2021.10/arm-none-eabi/include/sys/reent.h **** 
 531:/home/irfan/Desktop/arm/gcc-arm-none-eabi-10.3-2021.10-x86_64-linux/gcc-arm-none-eabi-10.3-2021.10/arm-none-eabi/include/sys/reent.h **** /* Handle the dynamically allocated rand48 structure. */
 532:/home/irfan/Desktop/arm/gcc-arm-none-eabi-10.3-2021.10-x86_64-linux/gcc-arm-none-eabi-10.3-2021.10/arm-none-eabi/include/sys/reent.h **** #define _REENT_INIT_RAND48(var) do { \
 533:/home/irfan/Desktop/arm/gcc-arm-none-eabi-10.3-2021.10-x86_64-linux/gcc-arm-none-eabi-10.3-2021.10/arm-none-eabi/include/sys/reent.h ****   struct _reent *_r = (var); \
 534:/home/irfan/Desktop/arm/gcc-arm-none-eabi-10.3-2021.10-x86_64-linux/gcc-arm-none-eabi-10.3-2021.10/arm-none-eabi/include/sys/reent.h ****   _r->_r48->_seed[0] = _RAND48_SEED_0; \
 535:/home/irfan/Desktop/arm/gcc-arm-none-eabi-10.3-2021.10-x86_64-linux/gcc-arm-none-eabi-10.3-2021.10/arm-none-eabi/include/sys/reent.h ****   _r->_r48->_seed[1] = _RAND48_SEED_1; \
 536:/home/irfan/Desktop/arm/gcc-arm-none-eabi-10.3-2021.10-x86_64-linux/gcc-arm-none-eabi-10.3-2021.10/arm-none-eabi/include/sys/reent.h ****   _r->_r48->_seed[2] = _RAND48_SEED_2; \
 537:/home/irfan/Desktop/arm/gcc-arm-none-eabi-10.3-2021.10-x86_64-linux/gcc-arm-none-eabi-10.3-2021.10/arm-none-eabi/include/sys/reent.h ****   _r->_r48->_mult[0] = _RAND48_MULT_0; \
 538:/home/irfan/Desktop/arm/gcc-arm-none-eabi-10.3-2021.10-x86_64-linux/gcc-arm-none-eabi-10.3-2021.10/arm-none-eabi/include/sys/reent.h ****   _r->_r48->_mult[1] = _RAND48_MULT_1; \
 539:/home/irfan/Desktop/arm/gcc-arm-none-eabi-10.3-2021.10-x86_64-linux/gcc-arm-none-eabi-10.3-2021.10/arm-none-eabi/include/sys/reent.h ****   _r->_r48->_mult[2] = _RAND48_MULT_2; \
 540:/home/irfan/Desktop/arm/gcc-arm-none-eabi-10.3-2021.10-x86_64-linux/gcc-arm-none-eabi-10.3-2021.10/arm-none-eabi/include/sys/reent.h ****   _r->_r48->_add = _RAND48_ADD; \
 541:/home/irfan/Desktop/arm/gcc-arm-none-eabi-10.3-2021.10-x86_64-linux/gcc-arm-none-eabi-10.3-2021.10/arm-none-eabi/include/sys/reent.h ****   _r->_r48->_rand_next = 1; \
 542:/home/irfan/Desktop/arm/gcc-arm-none-eabi-10.3-2021.10-x86_64-linux/gcc-arm-none-eabi-10.3-2021.10/arm-none-eabi/include/sys/reent.h **** } while (0)
 543:/home/irfan/Desktop/arm/gcc-arm-none-eabi-10.3-2021.10-x86_64-linux/gcc-arm-none-eabi-10.3-2021.10/arm-none-eabi/include/sys/reent.h **** #define _REENT_CHECK_RAND48(var) \
 544:/home/irfan/Desktop/arm/gcc-arm-none-eabi-10.3-2021.10-x86_64-linux/gcc-arm-none-eabi-10.3-2021.10/arm-none-eabi/include/sys/reent.h ****   _REENT_CHECK(var, _r48, struct _rand48 *, sizeof *((var)->_r48), _REENT_INIT_RAND48((var)))
 545:/home/irfan/Desktop/arm/gcc-arm-none-eabi-10.3-2021.10-x86_64-linux/gcc-arm-none-eabi-10.3-2021.10/arm-none-eabi/include/sys/reent.h **** 
 546:/home/irfan/Desktop/arm/gcc-arm-none-eabi-10.3-2021.10-x86_64-linux/gcc-arm-none-eabi-10.3-2021.10/arm-none-eabi/include/sys/reent.h **** #define _REENT_INIT_MP(var) do { \
 547:/home/irfan/Desktop/arm/gcc-arm-none-eabi-10.3-2021.10-x86_64-linux/gcc-arm-none-eabi-10.3-2021.10/arm-none-eabi/include/sys/reent.h ****   struct _reent *_r = (var); \
 548:/home/irfan/Desktop/arm/gcc-arm-none-eabi-10.3-2021.10-x86_64-linux/gcc-arm-none-eabi-10.3-2021.10/arm-none-eabi/include/sys/reent.h ****   _r->_mp->_result_k = 0; \
 549:/home/irfan/Desktop/arm/gcc-arm-none-eabi-10.3-2021.10-x86_64-linux/gcc-arm-none-eabi-10.3-2021.10/arm-none-eabi/include/sys/reent.h ****   _r->_mp->_result = _r->_mp->_p5s = _NULL; \
 550:/home/irfan/Desktop/arm/gcc-arm-none-eabi-10.3-2021.10-x86_64-linux/gcc-arm-none-eabi-10.3-2021.10/arm-none-eabi/include/sys/reent.h ****   _r->_mp->_freelist = _NULL; \
 551:/home/irfan/Desktop/arm/gcc-arm-none-eabi-10.3-2021.10-x86_64-linux/gcc-arm-none-eabi-10.3-2021.10/arm-none-eabi/include/sys/reent.h **** } while (0)
 552:/home/irfan/Desktop/arm/gcc-arm-none-eabi-10.3-2021.10-x86_64-linux/gcc-arm-none-eabi-10.3-2021.10/arm-none-eabi/include/sys/reent.h **** #define _REENT_CHECK_MP(var) \
 553:/home/irfan/Desktop/arm/gcc-arm-none-eabi-10.3-2021.10-x86_64-linux/gcc-arm-none-eabi-10.3-2021.10/arm-none-eabi/include/sys/reent.h ****   _REENT_CHECK(var, _mp, struct _mprec *, sizeof *((var)->_mp), _REENT_INIT_MP(var))
 554:/home/irfan/Desktop/arm/gcc-arm-none-eabi-10.3-2021.10-x86_64-linux/gcc-arm-none-eabi-10.3-2021.10/arm-none-eabi/include/sys/reent.h **** 
 555:/home/irfan/Desktop/arm/gcc-arm-none-eabi-10.3-2021.10-x86_64-linux/gcc-arm-none-eabi-10.3-2021.10/arm-none-eabi/include/sys/reent.h **** #define _REENT_CHECK_EMERGENCY(var) \
 556:/home/irfan/Desktop/arm/gcc-arm-none-eabi-10.3-2021.10-x86_64-linux/gcc-arm-none-eabi-10.3-2021.10/arm-none-eabi/include/sys/reent.h ****   _REENT_CHECK(var, _emergency, char *, _REENT_EMERGENCY_SIZE, /* nothing */)
 557:/home/irfan/Desktop/arm/gcc-arm-none-eabi-10.3-2021.10-x86_64-linux/gcc-arm-none-eabi-10.3-2021.10/arm-none-eabi/include/sys/reent.h **** 
 558:/home/irfan/Desktop/arm/gcc-arm-none-eabi-10.3-2021.10-x86_64-linux/gcc-arm-none-eabi-10.3-2021.10/arm-none-eabi/include/sys/reent.h **** #define _REENT_INIT_MISC(var) do { \
 559:/home/irfan/Desktop/arm/gcc-arm-none-eabi-10.3-2021.10-x86_64-linux/gcc-arm-none-eabi-10.3-2021.10/arm-none-eabi/include/sys/reent.h ****   struct _reent *_r = (var); \
 560:/home/irfan/Desktop/arm/gcc-arm-none-eabi-10.3-2021.10-x86_64-linux/gcc-arm-none-eabi-10.3-2021.10/arm-none-eabi/include/sys/reent.h ****   _r->_misc->_strtok_last = _NULL; \
 561:/home/irfan/Desktop/arm/gcc-arm-none-eabi-10.3-2021.10-x86_64-linux/gcc-arm-none-eabi-10.3-2021.10/arm-none-eabi/include/sys/reent.h ****   _r->_misc->_mblen_state.__count = 0; \
 562:/home/irfan/Desktop/arm/gcc-arm-none-eabi-10.3-2021.10-x86_64-linux/gcc-arm-none-eabi-10.3-2021.10/arm-none-eabi/include/sys/reent.h ****   _r->_misc->_mblen_state.__value.__wch = 0; \
 563:/home/irfan/Desktop/arm/gcc-arm-none-eabi-10.3-2021.10-x86_64-linux/gcc-arm-none-eabi-10.3-2021.10/arm-none-eabi/include/sys/reent.h ****   _r->_misc->_wctomb_state.__count = 0; \
ARM GAS  /tmp/ccYgTI9f.s 			page 97


 564:/home/irfan/Desktop/arm/gcc-arm-none-eabi-10.3-2021.10-x86_64-linux/gcc-arm-none-eabi-10.3-2021.10/arm-none-eabi/include/sys/reent.h ****   _r->_misc->_wctomb_state.__value.__wch = 0; \
 565:/home/irfan/Desktop/arm/gcc-arm-none-eabi-10.3-2021.10-x86_64-linux/gcc-arm-none-eabi-10.3-2021.10/arm-none-eabi/include/sys/reent.h ****   _r->_misc->_mbtowc_state.__count = 0; \
 566:/home/irfan/Desktop/arm/gcc-arm-none-eabi-10.3-2021.10-x86_64-linux/gcc-arm-none-eabi-10.3-2021.10/arm-none-eabi/include/sys/reent.h ****   _r->_misc->_mbtowc_state.__value.__wch = 0; \
 567:/home/irfan/Desktop/arm/gcc-arm-none-eabi-10.3-2021.10-x86_64-linux/gcc-arm-none-eabi-10.3-2021.10/arm-none-eabi/include/sys/reent.h ****   _r->_misc->_mbrlen_state.__count = 0; \
 568:/home/irfan/Desktop/arm/gcc-arm-none-eabi-10.3-2021.10-x86_64-linux/gcc-arm-none-eabi-10.3-2021.10/arm-none-eabi/include/sys/reent.h ****   _r->_misc->_mbrlen_state.__value.__wch = 0; \
 569:/home/irfan/Desktop/arm/gcc-arm-none-eabi-10.3-2021.10-x86_64-linux/gcc-arm-none-eabi-10.3-2021.10/arm-none-eabi/include/sys/reent.h ****   _r->_misc->_mbrtowc_state.__count = 0; \
 570:/home/irfan/Desktop/arm/gcc-arm-none-eabi-10.3-2021.10-x86_64-linux/gcc-arm-none-eabi-10.3-2021.10/arm-none-eabi/include/sys/reent.h ****   _r->_misc->_mbrtowc_state.__value.__wch = 0; \
 571:/home/irfan/Desktop/arm/gcc-arm-none-eabi-10.3-2021.10-x86_64-linux/gcc-arm-none-eabi-10.3-2021.10/arm-none-eabi/include/sys/reent.h ****   _r->_misc->_mbsrtowcs_state.__count = 0; \
 572:/home/irfan/Desktop/arm/gcc-arm-none-eabi-10.3-2021.10-x86_64-linux/gcc-arm-none-eabi-10.3-2021.10/arm-none-eabi/include/sys/reent.h ****   _r->_misc->_mbsrtowcs_state.__value.__wch = 0; \
 573:/home/irfan/Desktop/arm/gcc-arm-none-eabi-10.3-2021.10-x86_64-linux/gcc-arm-none-eabi-10.3-2021.10/arm-none-eabi/include/sys/reent.h ****   _r->_misc->_wcrtomb_state.__count = 0; \
 574:/home/irfan/Desktop/arm/gcc-arm-none-eabi-10.3-2021.10-x86_64-linux/gcc-arm-none-eabi-10.3-2021.10/arm-none-eabi/include/sys/reent.h ****   _r->_misc->_wcrtomb_state.__value.__wch = 0; \
 575:/home/irfan/Desktop/arm/gcc-arm-none-eabi-10.3-2021.10-x86_64-linux/gcc-arm-none-eabi-10.3-2021.10/arm-none-eabi/include/sys/reent.h ****   _r->_misc->_wcsrtombs_state.__count = 0; \
 576:/home/irfan/Desktop/arm/gcc-arm-none-eabi-10.3-2021.10-x86_64-linux/gcc-arm-none-eabi-10.3-2021.10/arm-none-eabi/include/sys/reent.h ****   _r->_misc->_wcsrtombs_state.__value.__wch = 0; \
 577:/home/irfan/Desktop/arm/gcc-arm-none-eabi-10.3-2021.10-x86_64-linux/gcc-arm-none-eabi-10.3-2021.10/arm-none-eabi/include/sys/reent.h ****   _r->_misc->_l64a_buf[0] = '\0'; \
 578:/home/irfan/Desktop/arm/gcc-arm-none-eabi-10.3-2021.10-x86_64-linux/gcc-arm-none-eabi-10.3-2021.10/arm-none-eabi/include/sys/reent.h ****   _r->_misc->_getdate_err = 0; \
 579:/home/irfan/Desktop/arm/gcc-arm-none-eabi-10.3-2021.10-x86_64-linux/gcc-arm-none-eabi-10.3-2021.10/arm-none-eabi/include/sys/reent.h **** } while (0)
 580:/home/irfan/Desktop/arm/gcc-arm-none-eabi-10.3-2021.10-x86_64-linux/gcc-arm-none-eabi-10.3-2021.10/arm-none-eabi/include/sys/reent.h **** #define _REENT_CHECK_MISC(var) \
 581:/home/irfan/Desktop/arm/gcc-arm-none-eabi-10.3-2021.10-x86_64-linux/gcc-arm-none-eabi-10.3-2021.10/arm-none-eabi/include/sys/reent.h ****   _REENT_CHECK(var, _misc, struct _misc_reent *, sizeof *((var)->_misc), _REENT_INIT_MISC(var))
 582:/home/irfan/Desktop/arm/gcc-arm-none-eabi-10.3-2021.10-x86_64-linux/gcc-arm-none-eabi-10.3-2021.10/arm-none-eabi/include/sys/reent.h **** 
 583:/home/irfan/Desktop/arm/gcc-arm-none-eabi-10.3-2021.10-x86_64-linux/gcc-arm-none-eabi-10.3-2021.10/arm-none-eabi/include/sys/reent.h **** #define _REENT_CHECK_SIGNAL_BUF(var) \
 584:/home/irfan/Desktop/arm/gcc-arm-none-eabi-10.3-2021.10-x86_64-linux/gcc-arm-none-eabi-10.3-2021.10/arm-none-eabi/include/sys/reent.h ****   _REENT_CHECK(var, _signal_buf, char *, _REENT_SIGNAL_SIZE, /* nothing */)
 585:/home/irfan/Desktop/arm/gcc-arm-none-eabi-10.3-2021.10-x86_64-linux/gcc-arm-none-eabi-10.3-2021.10/arm-none-eabi/include/sys/reent.h **** 
 586:/home/irfan/Desktop/arm/gcc-arm-none-eabi-10.3-2021.10-x86_64-linux/gcc-arm-none-eabi-10.3-2021.10/arm-none-eabi/include/sys/reent.h **** #define _REENT_SIGNGAM(ptr)	((ptr)->_gamma_signgam)
 587:/home/irfan/Desktop/arm/gcc-arm-none-eabi-10.3-2021.10-x86_64-linux/gcc-arm-none-eabi-10.3-2021.10/arm-none-eabi/include/sys/reent.h **** #define _REENT_RAND_NEXT(ptr)	((ptr)->_r48->_rand_next)
 588:/home/irfan/Desktop/arm/gcc-arm-none-eabi-10.3-2021.10-x86_64-linux/gcc-arm-none-eabi-10.3-2021.10/arm-none-eabi/include/sys/reent.h **** #define _REENT_RAND48_SEED(ptr)	((ptr)->_r48->_seed)
 589:/home/irfan/Desktop/arm/gcc-arm-none-eabi-10.3-2021.10-x86_64-linux/gcc-arm-none-eabi-10.3-2021.10/arm-none-eabi/include/sys/reent.h **** #define _REENT_RAND48_MULT(ptr)	((ptr)->_r48->_mult)
 590:/home/irfan/Desktop/arm/gcc-arm-none-eabi-10.3-2021.10-x86_64-linux/gcc-arm-none-eabi-10.3-2021.10/arm-none-eabi/include/sys/reent.h **** #define _REENT_RAND48_ADD(ptr)	((ptr)->_r48->_add)
 591:/home/irfan/Desktop/arm/gcc-arm-none-eabi-10.3-2021.10-x86_64-linux/gcc-arm-none-eabi-10.3-2021.10/arm-none-eabi/include/sys/reent.h **** #define _REENT_MP_RESULT(ptr)	((ptr)->_mp->_result)
 592:/home/irfan/Desktop/arm/gcc-arm-none-eabi-10.3-2021.10-x86_64-linux/gcc-arm-none-eabi-10.3-2021.10/arm-none-eabi/include/sys/reent.h **** #define _REENT_MP_RESULT_K(ptr)	((ptr)->_mp->_result_k)
 593:/home/irfan/Desktop/arm/gcc-arm-none-eabi-10.3-2021.10-x86_64-linux/gcc-arm-none-eabi-10.3-2021.10/arm-none-eabi/include/sys/reent.h **** #define _REENT_MP_P5S(ptr)	((ptr)->_mp->_p5s)
 594:/home/irfan/Desktop/arm/gcc-arm-none-eabi-10.3-2021.10-x86_64-linux/gcc-arm-none-eabi-10.3-2021.10/arm-none-eabi/include/sys/reent.h **** #define _REENT_MP_FREELIST(ptr)	((ptr)->_mp->_freelist)
 595:/home/irfan/Desktop/arm/gcc-arm-none-eabi-10.3-2021.10-x86_64-linux/gcc-arm-none-eabi-10.3-2021.10/arm-none-eabi/include/sys/reent.h **** #define _REENT_ASCTIME_BUF(ptr)	((ptr)->_asctime_buf)
 596:/home/irfan/Desktop/arm/gcc-arm-none-eabi-10.3-2021.10-x86_64-linux/gcc-arm-none-eabi-10.3-2021.10/arm-none-eabi/include/sys/reent.h **** #define _REENT_TM(ptr)		((ptr)->_localtime_buf)
 597:/home/irfan/Desktop/arm/gcc-arm-none-eabi-10.3-2021.10-x86_64-linux/gcc-arm-none-eabi-10.3-2021.10/arm-none-eabi/include/sys/reent.h **** #define _REENT_EMERGENCY(ptr)	((ptr)->_emergency)
 598:/home/irfan/Desktop/arm/gcc-arm-none-eabi-10.3-2021.10-x86_64-linux/gcc-arm-none-eabi-10.3-2021.10/arm-none-eabi/include/sys/reent.h **** #define _REENT_STRTOK_LAST(ptr)	((ptr)->_misc->_strtok_last)
 599:/home/irfan/Desktop/arm/gcc-arm-none-eabi-10.3-2021.10-x86_64-linux/gcc-arm-none-eabi-10.3-2021.10/arm-none-eabi/include/sys/reent.h **** #define _REENT_MBLEN_STATE(ptr)	((ptr)->_misc->_mblen_state)
 600:/home/irfan/Desktop/arm/gcc-arm-none-eabi-10.3-2021.10-x86_64-linux/gcc-arm-none-eabi-10.3-2021.10/arm-none-eabi/include/sys/reent.h **** #define _REENT_MBTOWC_STATE(ptr)((ptr)->_misc->_mbtowc_state)
 601:/home/irfan/Desktop/arm/gcc-arm-none-eabi-10.3-2021.10-x86_64-linux/gcc-arm-none-eabi-10.3-2021.10/arm-none-eabi/include/sys/reent.h **** #define _REENT_WCTOMB_STATE(ptr)((ptr)->_misc->_wctomb_state)
 602:/home/irfan/Desktop/arm/gcc-arm-none-eabi-10.3-2021.10-x86_64-linux/gcc-arm-none-eabi-10.3-2021.10/arm-none-eabi/include/sys/reent.h **** #define _REENT_MBRLEN_STATE(ptr) ((ptr)->_misc->_mbrlen_state)
 603:/home/irfan/Desktop/arm/gcc-arm-none-eabi-10.3-2021.10-x86_64-linux/gcc-arm-none-eabi-10.3-2021.10/arm-none-eabi/include/sys/reent.h **** #define _REENT_MBRTOWC_STATE(ptr) ((ptr)->_misc->_mbrtowc_state)
 604:/home/irfan/Desktop/arm/gcc-arm-none-eabi-10.3-2021.10-x86_64-linux/gcc-arm-none-eabi-10.3-2021.10/arm-none-eabi/include/sys/reent.h **** #define _REENT_MBSRTOWCS_STATE(ptr) ((ptr)->_misc->_mbsrtowcs_state)
 605:/home/irfan/Desktop/arm/gcc-arm-none-eabi-10.3-2021.10-x86_64-linux/gcc-arm-none-eabi-10.3-2021.10/arm-none-eabi/include/sys/reent.h **** #define _REENT_WCRTOMB_STATE(ptr) ((ptr)->_misc->_wcrtomb_state)
 606:/home/irfan/Desktop/arm/gcc-arm-none-eabi-10.3-2021.10-x86_64-linux/gcc-arm-none-eabi-10.3-2021.10/arm-none-eabi/include/sys/reent.h **** #define _REENT_WCSRTOMBS_STATE(ptr) ((ptr)->_misc->_wcsrtombs_state)
 607:/home/irfan/Desktop/arm/gcc-arm-none-eabi-10.3-2021.10-x86_64-linux/gcc-arm-none-eabi-10.3-2021.10/arm-none-eabi/include/sys/reent.h **** #define _REENT_L64A_BUF(ptr)    ((ptr)->_misc->_l64a_buf)
 608:/home/irfan/Desktop/arm/gcc-arm-none-eabi-10.3-2021.10-x86_64-linux/gcc-arm-none-eabi-10.3-2021.10/arm-none-eabi/include/sys/reent.h **** #define _REENT_GETDATE_ERR_P(ptr) (&((ptr)->_misc->_getdate_err))
 609:/home/irfan/Desktop/arm/gcc-arm-none-eabi-10.3-2021.10-x86_64-linux/gcc-arm-none-eabi-10.3-2021.10/arm-none-eabi/include/sys/reent.h **** #define _REENT_SIGNAL_BUF(ptr)  ((ptr)->_signal_buf)
 610:/home/irfan/Desktop/arm/gcc-arm-none-eabi-10.3-2021.10-x86_64-linux/gcc-arm-none-eabi-10.3-2021.10/arm-none-eabi/include/sys/reent.h **** 
 611:/home/irfan/Desktop/arm/gcc-arm-none-eabi-10.3-2021.10-x86_64-linux/gcc-arm-none-eabi-10.3-2021.10/arm-none-eabi/include/sys/reent.h **** #else /* !_REENT_SMALL */
 612:/home/irfan/Desktop/arm/gcc-arm-none-eabi-10.3-2021.10-x86_64-linux/gcc-arm-none-eabi-10.3-2021.10/arm-none-eabi/include/sys/reent.h **** 
 613:/home/irfan/Desktop/arm/gcc-arm-none-eabi-10.3-2021.10-x86_64-linux/gcc-arm-none-eabi-10.3-2021.10/arm-none-eabi/include/sys/reent.h **** struct _reent
 1755              		.loc 11 613 1 view .LVU772
 614:/home/irfan/Desktop/arm/gcc-arm-none-eabi-10.3-2021.10-x86_64-linux/gcc-arm-none-eabi-10.3-2021.10/arm-none-eabi/include/sys/reent.h **** {
 615:/home/irfan/Desktop/arm/gcc-arm-none-eabi-10.3-2021.10-x86_64-linux/gcc-arm-none-eabi-10.3-2021.10/arm-none-eabi/include/sys/reent.h ****   int _errno;			/* local copy of errno */
 616:/home/irfan/Desktop/arm/gcc-arm-none-eabi-10.3-2021.10-x86_64-linux/gcc-arm-none-eabi-10.3-2021.10/arm-none-eabi/include/sys/reent.h **** 
 617:/home/irfan/Desktop/arm/gcc-arm-none-eabi-10.3-2021.10-x86_64-linux/gcc-arm-none-eabi-10.3-2021.10/arm-none-eabi/include/sys/reent.h ****   /* FILE is a big struct and may change over time.  To try to achieve binary
 618:/home/irfan/Desktop/arm/gcc-arm-none-eabi-10.3-2021.10-x86_64-linux/gcc-arm-none-eabi-10.3-2021.10/arm-none-eabi/include/sys/reent.h ****      compatibility with future versions, put stdin,stdout,stderr here.
 619:/home/irfan/Desktop/arm/gcc-arm-none-eabi-10.3-2021.10-x86_64-linux/gcc-arm-none-eabi-10.3-2021.10/arm-none-eabi/include/sys/reent.h ****      These are pointers into member __sf defined below.  */
ARM GAS  /tmp/ccYgTI9f.s 			page 98


 620:/home/irfan/Desktop/arm/gcc-arm-none-eabi-10.3-2021.10-x86_64-linux/gcc-arm-none-eabi-10.3-2021.10/arm-none-eabi/include/sys/reent.h ****   __FILE *_stdin, *_stdout, *_stderr;
 621:/home/irfan/Desktop/arm/gcc-arm-none-eabi-10.3-2021.10-x86_64-linux/gcc-arm-none-eabi-10.3-2021.10/arm-none-eabi/include/sys/reent.h **** 
 622:/home/irfan/Desktop/arm/gcc-arm-none-eabi-10.3-2021.10-x86_64-linux/gcc-arm-none-eabi-10.3-2021.10/arm-none-eabi/include/sys/reent.h ****   int  _inc;			/* used by tmpnam */
 623:/home/irfan/Desktop/arm/gcc-arm-none-eabi-10.3-2021.10-x86_64-linux/gcc-arm-none-eabi-10.3-2021.10/arm-none-eabi/include/sys/reent.h ****   char _emergency[_REENT_EMERGENCY_SIZE];
 624:/home/irfan/Desktop/arm/gcc-arm-none-eabi-10.3-2021.10-x86_64-linux/gcc-arm-none-eabi-10.3-2021.10/arm-none-eabi/include/sys/reent.h **** 
 625:/home/irfan/Desktop/arm/gcc-arm-none-eabi-10.3-2021.10-x86_64-linux/gcc-arm-none-eabi-10.3-2021.10/arm-none-eabi/include/sys/reent.h ****   /* TODO */
 626:/home/irfan/Desktop/arm/gcc-arm-none-eabi-10.3-2021.10-x86_64-linux/gcc-arm-none-eabi-10.3-2021.10/arm-none-eabi/include/sys/reent.h ****   int _unspecified_locale_info;	/* unused, reserved for locale stuff */
 627:/home/irfan/Desktop/arm/gcc-arm-none-eabi-10.3-2021.10-x86_64-linux/gcc-arm-none-eabi-10.3-2021.10/arm-none-eabi/include/sys/reent.h ****   struct __locale_t *_locale;/* per-thread locale */
 628:/home/irfan/Desktop/arm/gcc-arm-none-eabi-10.3-2021.10-x86_64-linux/gcc-arm-none-eabi-10.3-2021.10/arm-none-eabi/include/sys/reent.h **** 
 629:/home/irfan/Desktop/arm/gcc-arm-none-eabi-10.3-2021.10-x86_64-linux/gcc-arm-none-eabi-10.3-2021.10/arm-none-eabi/include/sys/reent.h ****   int __sdidinit;		/* 1 means stdio has been init'd */
 630:/home/irfan/Desktop/arm/gcc-arm-none-eabi-10.3-2021.10-x86_64-linux/gcc-arm-none-eabi-10.3-2021.10/arm-none-eabi/include/sys/reent.h **** 
 631:/home/irfan/Desktop/arm/gcc-arm-none-eabi-10.3-2021.10-x86_64-linux/gcc-arm-none-eabi-10.3-2021.10/arm-none-eabi/include/sys/reent.h ****   void (*__cleanup) (struct _reent *);
 632:/home/irfan/Desktop/arm/gcc-arm-none-eabi-10.3-2021.10-x86_64-linux/gcc-arm-none-eabi-10.3-2021.10/arm-none-eabi/include/sys/reent.h **** 
 633:/home/irfan/Desktop/arm/gcc-arm-none-eabi-10.3-2021.10-x86_64-linux/gcc-arm-none-eabi-10.3-2021.10/arm-none-eabi/include/sys/reent.h ****   /* used by mprec routines */
 634:/home/irfan/Desktop/arm/gcc-arm-none-eabi-10.3-2021.10-x86_64-linux/gcc-arm-none-eabi-10.3-2021.10/arm-none-eabi/include/sys/reent.h ****   struct _Bigint *_result;
 635:/home/irfan/Desktop/arm/gcc-arm-none-eabi-10.3-2021.10-x86_64-linux/gcc-arm-none-eabi-10.3-2021.10/arm-none-eabi/include/sys/reent.h ****   int _result_k;
 636:/home/irfan/Desktop/arm/gcc-arm-none-eabi-10.3-2021.10-x86_64-linux/gcc-arm-none-eabi-10.3-2021.10/arm-none-eabi/include/sys/reent.h ****   struct _Bigint *_p5s;
 637:/home/irfan/Desktop/arm/gcc-arm-none-eabi-10.3-2021.10-x86_64-linux/gcc-arm-none-eabi-10.3-2021.10/arm-none-eabi/include/sys/reent.h ****   struct _Bigint **_freelist;
 638:/home/irfan/Desktop/arm/gcc-arm-none-eabi-10.3-2021.10-x86_64-linux/gcc-arm-none-eabi-10.3-2021.10/arm-none-eabi/include/sys/reent.h **** 
 639:/home/irfan/Desktop/arm/gcc-arm-none-eabi-10.3-2021.10-x86_64-linux/gcc-arm-none-eabi-10.3-2021.10/arm-none-eabi/include/sys/reent.h ****   /* used by some fp conversion routines */
 640:/home/irfan/Desktop/arm/gcc-arm-none-eabi-10.3-2021.10-x86_64-linux/gcc-arm-none-eabi-10.3-2021.10/arm-none-eabi/include/sys/reent.h ****   int _cvtlen;			/* should be size_t */
 641:/home/irfan/Desktop/arm/gcc-arm-none-eabi-10.3-2021.10-x86_64-linux/gcc-arm-none-eabi-10.3-2021.10/arm-none-eabi/include/sys/reent.h ****   char *_cvtbuf;
 642:/home/irfan/Desktop/arm/gcc-arm-none-eabi-10.3-2021.10-x86_64-linux/gcc-arm-none-eabi-10.3-2021.10/arm-none-eabi/include/sys/reent.h **** 
 643:/home/irfan/Desktop/arm/gcc-arm-none-eabi-10.3-2021.10-x86_64-linux/gcc-arm-none-eabi-10.3-2021.10/arm-none-eabi/include/sys/reent.h ****   union
 644:/home/irfan/Desktop/arm/gcc-arm-none-eabi-10.3-2021.10-x86_64-linux/gcc-arm-none-eabi-10.3-2021.10/arm-none-eabi/include/sys/reent.h ****     {
 645:/home/irfan/Desktop/arm/gcc-arm-none-eabi-10.3-2021.10-x86_64-linux/gcc-arm-none-eabi-10.3-2021.10/arm-none-eabi/include/sys/reent.h ****       struct
 646:/home/irfan/Desktop/arm/gcc-arm-none-eabi-10.3-2021.10-x86_64-linux/gcc-arm-none-eabi-10.3-2021.10/arm-none-eabi/include/sys/reent.h ****         {
 647:/home/irfan/Desktop/arm/gcc-arm-none-eabi-10.3-2021.10-x86_64-linux/gcc-arm-none-eabi-10.3-2021.10/arm-none-eabi/include/sys/reent.h ****           unsigned int _unused_rand;
 648:/home/irfan/Desktop/arm/gcc-arm-none-eabi-10.3-2021.10-x86_64-linux/gcc-arm-none-eabi-10.3-2021.10/arm-none-eabi/include/sys/reent.h ****           char * _strtok_last;
 649:/home/irfan/Desktop/arm/gcc-arm-none-eabi-10.3-2021.10-x86_64-linux/gcc-arm-none-eabi-10.3-2021.10/arm-none-eabi/include/sys/reent.h ****           char _asctime_buf[_REENT_ASCTIME_SIZE];
 650:/home/irfan/Desktop/arm/gcc-arm-none-eabi-10.3-2021.10-x86_64-linux/gcc-arm-none-eabi-10.3-2021.10/arm-none-eabi/include/sys/reent.h ****           struct __tm _localtime_buf;
 651:/home/irfan/Desktop/arm/gcc-arm-none-eabi-10.3-2021.10-x86_64-linux/gcc-arm-none-eabi-10.3-2021.10/arm-none-eabi/include/sys/reent.h ****           int _gamma_signgam;
 652:/home/irfan/Desktop/arm/gcc-arm-none-eabi-10.3-2021.10-x86_64-linux/gcc-arm-none-eabi-10.3-2021.10/arm-none-eabi/include/sys/reent.h ****           __extension__ unsigned long long _rand_next;
 653:/home/irfan/Desktop/arm/gcc-arm-none-eabi-10.3-2021.10-x86_64-linux/gcc-arm-none-eabi-10.3-2021.10/arm-none-eabi/include/sys/reent.h ****           struct _rand48 _r48;
 654:/home/irfan/Desktop/arm/gcc-arm-none-eabi-10.3-2021.10-x86_64-linux/gcc-arm-none-eabi-10.3-2021.10/arm-none-eabi/include/sys/reent.h ****           _mbstate_t _mblen_state;
 655:/home/irfan/Desktop/arm/gcc-arm-none-eabi-10.3-2021.10-x86_64-linux/gcc-arm-none-eabi-10.3-2021.10/arm-none-eabi/include/sys/reent.h ****           _mbstate_t _mbtowc_state;
 656:/home/irfan/Desktop/arm/gcc-arm-none-eabi-10.3-2021.10-x86_64-linux/gcc-arm-none-eabi-10.3-2021.10/arm-none-eabi/include/sys/reent.h ****           _mbstate_t _wctomb_state;
 657:/home/irfan/Desktop/arm/gcc-arm-none-eabi-10.3-2021.10-x86_64-linux/gcc-arm-none-eabi-10.3-2021.10/arm-none-eabi/include/sys/reent.h ****           char _l64a_buf[8];
 658:/home/irfan/Desktop/arm/gcc-arm-none-eabi-10.3-2021.10-x86_64-linux/gcc-arm-none-eabi-10.3-2021.10/arm-none-eabi/include/sys/reent.h ****           char _signal_buf[_REENT_SIGNAL_SIZE];
 659:/home/irfan/Desktop/arm/gcc-arm-none-eabi-10.3-2021.10-x86_64-linux/gcc-arm-none-eabi-10.3-2021.10/arm-none-eabi/include/sys/reent.h ****           int _getdate_err;
 660:/home/irfan/Desktop/arm/gcc-arm-none-eabi-10.3-2021.10-x86_64-linux/gcc-arm-none-eabi-10.3-2021.10/arm-none-eabi/include/sys/reent.h ****           _mbstate_t _mbrlen_state;
 661:/home/irfan/Desktop/arm/gcc-arm-none-eabi-10.3-2021.10-x86_64-linux/gcc-arm-none-eabi-10.3-2021.10/arm-none-eabi/include/sys/reent.h ****           _mbstate_t _mbrtowc_state;
 662:/home/irfan/Desktop/arm/gcc-arm-none-eabi-10.3-2021.10-x86_64-linux/gcc-arm-none-eabi-10.3-2021.10/arm-none-eabi/include/sys/reent.h ****           _mbstate_t _mbsrtowcs_state;
 663:/home/irfan/Desktop/arm/gcc-arm-none-eabi-10.3-2021.10-x86_64-linux/gcc-arm-none-eabi-10.3-2021.10/arm-none-eabi/include/sys/reent.h ****           _mbstate_t _wcrtomb_state;
 664:/home/irfan/Desktop/arm/gcc-arm-none-eabi-10.3-2021.10-x86_64-linux/gcc-arm-none-eabi-10.3-2021.10/arm-none-eabi/include/sys/reent.h ****           _mbstate_t _wcsrtombs_state;
 665:/home/irfan/Desktop/arm/gcc-arm-none-eabi-10.3-2021.10-x86_64-linux/gcc-arm-none-eabi-10.3-2021.10/arm-none-eabi/include/sys/reent.h **** 	  int _h_errno;
 666:/home/irfan/Desktop/arm/gcc-arm-none-eabi-10.3-2021.10-x86_64-linux/gcc-arm-none-eabi-10.3-2021.10/arm-none-eabi/include/sys/reent.h ****         } _reent;
 667:/home/irfan/Desktop/arm/gcc-arm-none-eabi-10.3-2021.10-x86_64-linux/gcc-arm-none-eabi-10.3-2021.10/arm-none-eabi/include/sys/reent.h ****   /* Two next two fields were once used by malloc.  They are no longer
 668:/home/irfan/Desktop/arm/gcc-arm-none-eabi-10.3-2021.10-x86_64-linux/gcc-arm-none-eabi-10.3-2021.10/arm-none-eabi/include/sys/reent.h ****      used. They are used to preserve the space used before so as to
 669:/home/irfan/Desktop/arm/gcc-arm-none-eabi-10.3-2021.10-x86_64-linux/gcc-arm-none-eabi-10.3-2021.10/arm-none-eabi/include/sys/reent.h ****      allow addition of new reent fields and keep binary compatibility.   */
 670:/home/irfan/Desktop/arm/gcc-arm-none-eabi-10.3-2021.10-x86_64-linux/gcc-arm-none-eabi-10.3-2021.10/arm-none-eabi/include/sys/reent.h ****       struct
 671:/home/irfan/Desktop/arm/gcc-arm-none-eabi-10.3-2021.10-x86_64-linux/gcc-arm-none-eabi-10.3-2021.10/arm-none-eabi/include/sys/reent.h ****         {
 672:/home/irfan/Desktop/arm/gcc-arm-none-eabi-10.3-2021.10-x86_64-linux/gcc-arm-none-eabi-10.3-2021.10/arm-none-eabi/include/sys/reent.h **** #define _N_LISTS 30
 673:/home/irfan/Desktop/arm/gcc-arm-none-eabi-10.3-2021.10-x86_64-linux/gcc-arm-none-eabi-10.3-2021.10/arm-none-eabi/include/sys/reent.h ****           unsigned char * _nextf[_N_LISTS];
 674:/home/irfan/Desktop/arm/gcc-arm-none-eabi-10.3-2021.10-x86_64-linux/gcc-arm-none-eabi-10.3-2021.10/arm-none-eabi/include/sys/reent.h ****           unsigned int _nmalloc[_N_LISTS];
 675:/home/irfan/Desktop/arm/gcc-arm-none-eabi-10.3-2021.10-x86_64-linux/gcc-arm-none-eabi-10.3-2021.10/arm-none-eabi/include/sys/reent.h ****         } _unused;
 676:/home/irfan/Desktop/arm/gcc-arm-none-eabi-10.3-2021.10-x86_64-linux/gcc-arm-none-eabi-10.3-2021.10/arm-none-eabi/include/sys/reent.h ****     } _new;
ARM GAS  /tmp/ccYgTI9f.s 			page 99


 677:/home/irfan/Desktop/arm/gcc-arm-none-eabi-10.3-2021.10-x86_64-linux/gcc-arm-none-eabi-10.3-2021.10/arm-none-eabi/include/sys/reent.h **** 
 678:/home/irfan/Desktop/arm/gcc-arm-none-eabi-10.3-2021.10-x86_64-linux/gcc-arm-none-eabi-10.3-2021.10/arm-none-eabi/include/sys/reent.h **** # ifndef _REENT_GLOBAL_ATEXIT
 679:/home/irfan/Desktop/arm/gcc-arm-none-eabi-10.3-2021.10-x86_64-linux/gcc-arm-none-eabi-10.3-2021.10/arm-none-eabi/include/sys/reent.h ****   /* atexit stuff */
 680:/home/irfan/Desktop/arm/gcc-arm-none-eabi-10.3-2021.10-x86_64-linux/gcc-arm-none-eabi-10.3-2021.10/arm-none-eabi/include/sys/reent.h ****   struct _atexit *_atexit;	/* points to head of LIFO stack */
 681:/home/irfan/Desktop/arm/gcc-arm-none-eabi-10.3-2021.10-x86_64-linux/gcc-arm-none-eabi-10.3-2021.10/arm-none-eabi/include/sys/reent.h ****   struct _atexit _atexit0;	/* one guaranteed table, required by ANSI */
 682:/home/irfan/Desktop/arm/gcc-arm-none-eabi-10.3-2021.10-x86_64-linux/gcc-arm-none-eabi-10.3-2021.10/arm-none-eabi/include/sys/reent.h **** # endif
 683:/home/irfan/Desktop/arm/gcc-arm-none-eabi-10.3-2021.10-x86_64-linux/gcc-arm-none-eabi-10.3-2021.10/arm-none-eabi/include/sys/reent.h **** 
 684:/home/irfan/Desktop/arm/gcc-arm-none-eabi-10.3-2021.10-x86_64-linux/gcc-arm-none-eabi-10.3-2021.10/arm-none-eabi/include/sys/reent.h ****   /* signal info */
 685:/home/irfan/Desktop/arm/gcc-arm-none-eabi-10.3-2021.10-x86_64-linux/gcc-arm-none-eabi-10.3-2021.10/arm-none-eabi/include/sys/reent.h ****   void (**(_sig_func))(int);
 686:/home/irfan/Desktop/arm/gcc-arm-none-eabi-10.3-2021.10-x86_64-linux/gcc-arm-none-eabi-10.3-2021.10/arm-none-eabi/include/sys/reent.h **** 
 687:/home/irfan/Desktop/arm/gcc-arm-none-eabi-10.3-2021.10-x86_64-linux/gcc-arm-none-eabi-10.3-2021.10/arm-none-eabi/include/sys/reent.h ****   /* These are here last so that __FILE can grow without changing the offsets
 688:/home/irfan/Desktop/arm/gcc-arm-none-eabi-10.3-2021.10-x86_64-linux/gcc-arm-none-eabi-10.3-2021.10/arm-none-eabi/include/sys/reent.h ****      of the above members (on the off chance that future binary compatibility
 689:/home/irfan/Desktop/arm/gcc-arm-none-eabi-10.3-2021.10-x86_64-linux/gcc-arm-none-eabi-10.3-2021.10/arm-none-eabi/include/sys/reent.h ****      would be broken otherwise).  */
 690:/home/irfan/Desktop/arm/gcc-arm-none-eabi-10.3-2021.10-x86_64-linux/gcc-arm-none-eabi-10.3-2021.10/arm-none-eabi/include/sys/reent.h ****   struct _glue __sglue;		/* root of glue chain */
 691:/home/irfan/Desktop/arm/gcc-arm-none-eabi-10.3-2021.10-x86_64-linux/gcc-arm-none-eabi-10.3-2021.10/arm-none-eabi/include/sys/reent.h **** # ifndef _REENT_GLOBAL_STDIO_STREAMS
 692:/home/irfan/Desktop/arm/gcc-arm-none-eabi-10.3-2021.10-x86_64-linux/gcc-arm-none-eabi-10.3-2021.10/arm-none-eabi/include/sys/reent.h ****   __FILE __sf[3];  		/* first three file descriptors */
 693:/home/irfan/Desktop/arm/gcc-arm-none-eabi-10.3-2021.10-x86_64-linux/gcc-arm-none-eabi-10.3-2021.10/arm-none-eabi/include/sys/reent.h **** # endif
 694:/home/irfan/Desktop/arm/gcc-arm-none-eabi-10.3-2021.10-x86_64-linux/gcc-arm-none-eabi-10.3-2021.10/arm-none-eabi/include/sys/reent.h **** };
 695:/home/irfan/Desktop/arm/gcc-arm-none-eabi-10.3-2021.10-x86_64-linux/gcc-arm-none-eabi-10.3-2021.10/arm-none-eabi/include/sys/reent.h **** 
 696:/home/irfan/Desktop/arm/gcc-arm-none-eabi-10.3-2021.10-x86_64-linux/gcc-arm-none-eabi-10.3-2021.10/arm-none-eabi/include/sys/reent.h **** #ifdef _REENT_GLOBAL_STDIO_STREAMS
 697:/home/irfan/Desktop/arm/gcc-arm-none-eabi-10.3-2021.10-x86_64-linux/gcc-arm-none-eabi-10.3-2021.10/arm-none-eabi/include/sys/reent.h **** extern __FILE __sf[3];
 698:/home/irfan/Desktop/arm/gcc-arm-none-eabi-10.3-2021.10-x86_64-linux/gcc-arm-none-eabi-10.3-2021.10/arm-none-eabi/include/sys/reent.h **** #define _REENT_STDIO_STREAM(var, index) &__sf[index]
 699:/home/irfan/Desktop/arm/gcc-arm-none-eabi-10.3-2021.10-x86_64-linux/gcc-arm-none-eabi-10.3-2021.10/arm-none-eabi/include/sys/reent.h **** #else
 700:/home/irfan/Desktop/arm/gcc-arm-none-eabi-10.3-2021.10-x86_64-linux/gcc-arm-none-eabi-10.3-2021.10/arm-none-eabi/include/sys/reent.h **** #define _REENT_STDIO_STREAM(var, index) &(var)->__sf[index]
 701:/home/irfan/Desktop/arm/gcc-arm-none-eabi-10.3-2021.10-x86_64-linux/gcc-arm-none-eabi-10.3-2021.10/arm-none-eabi/include/sys/reent.h **** #endif
 702:/home/irfan/Desktop/arm/gcc-arm-none-eabi-10.3-2021.10-x86_64-linux/gcc-arm-none-eabi-10.3-2021.10/arm-none-eabi/include/sys/reent.h **** 
 703:/home/irfan/Desktop/arm/gcc-arm-none-eabi-10.3-2021.10-x86_64-linux/gcc-arm-none-eabi-10.3-2021.10/arm-none-eabi/include/sys/reent.h **** #define _REENT_INIT(var) \
 704:/home/irfan/Desktop/arm/gcc-arm-none-eabi-10.3-2021.10-x86_64-linux/gcc-arm-none-eabi-10.3-2021.10/arm-none-eabi/include/sys/reent.h ****   { 0, \
 705:/home/irfan/Desktop/arm/gcc-arm-none-eabi-10.3-2021.10-x86_64-linux/gcc-arm-none-eabi-10.3-2021.10/arm-none-eabi/include/sys/reent.h ****     _REENT_STDIO_STREAM(&(var), 0), \
 706:/home/irfan/Desktop/arm/gcc-arm-none-eabi-10.3-2021.10-x86_64-linux/gcc-arm-none-eabi-10.3-2021.10/arm-none-eabi/include/sys/reent.h ****     _REENT_STDIO_STREAM(&(var), 1), \
 707:/home/irfan/Desktop/arm/gcc-arm-none-eabi-10.3-2021.10-x86_64-linux/gcc-arm-none-eabi-10.3-2021.10/arm-none-eabi/include/sys/reent.h ****     _REENT_STDIO_STREAM(&(var), 2), \
 708:/home/irfan/Desktop/arm/gcc-arm-none-eabi-10.3-2021.10-x86_64-linux/gcc-arm-none-eabi-10.3-2021.10/arm-none-eabi/include/sys/reent.h ****     0, \
 709:/home/irfan/Desktop/arm/gcc-arm-none-eabi-10.3-2021.10-x86_64-linux/gcc-arm-none-eabi-10.3-2021.10/arm-none-eabi/include/sys/reent.h ****     "", \
 710:/home/irfan/Desktop/arm/gcc-arm-none-eabi-10.3-2021.10-x86_64-linux/gcc-arm-none-eabi-10.3-2021.10/arm-none-eabi/include/sys/reent.h ****     0, \
 711:/home/irfan/Desktop/arm/gcc-arm-none-eabi-10.3-2021.10-x86_64-linux/gcc-arm-none-eabi-10.3-2021.10/arm-none-eabi/include/sys/reent.h ****     _NULL, \
 712:/home/irfan/Desktop/arm/gcc-arm-none-eabi-10.3-2021.10-x86_64-linux/gcc-arm-none-eabi-10.3-2021.10/arm-none-eabi/include/sys/reent.h ****     0, \
 713:/home/irfan/Desktop/arm/gcc-arm-none-eabi-10.3-2021.10-x86_64-linux/gcc-arm-none-eabi-10.3-2021.10/arm-none-eabi/include/sys/reent.h ****     _NULL, \
 714:/home/irfan/Desktop/arm/gcc-arm-none-eabi-10.3-2021.10-x86_64-linux/gcc-arm-none-eabi-10.3-2021.10/arm-none-eabi/include/sys/reent.h ****     _NULL, \
 715:/home/irfan/Desktop/arm/gcc-arm-none-eabi-10.3-2021.10-x86_64-linux/gcc-arm-none-eabi-10.3-2021.10/arm-none-eabi/include/sys/reent.h ****     0, \
 716:/home/irfan/Desktop/arm/gcc-arm-none-eabi-10.3-2021.10-x86_64-linux/gcc-arm-none-eabi-10.3-2021.10/arm-none-eabi/include/sys/reent.h ****     _NULL, \
 717:/home/irfan/Desktop/arm/gcc-arm-none-eabi-10.3-2021.10-x86_64-linux/gcc-arm-none-eabi-10.3-2021.10/arm-none-eabi/include/sys/reent.h ****     _NULL, \
 718:/home/irfan/Desktop/arm/gcc-arm-none-eabi-10.3-2021.10-x86_64-linux/gcc-arm-none-eabi-10.3-2021.10/arm-none-eabi/include/sys/reent.h ****     0, \
 719:/home/irfan/Desktop/arm/gcc-arm-none-eabi-10.3-2021.10-x86_64-linux/gcc-arm-none-eabi-10.3-2021.10/arm-none-eabi/include/sys/reent.h ****     _NULL, \
 720:/home/irfan/Desktop/arm/gcc-arm-none-eabi-10.3-2021.10-x86_64-linux/gcc-arm-none-eabi-10.3-2021.10/arm-none-eabi/include/sys/reent.h ****     { \
 721:/home/irfan/Desktop/arm/gcc-arm-none-eabi-10.3-2021.10-x86_64-linux/gcc-arm-none-eabi-10.3-2021.10/arm-none-eabi/include/sys/reent.h ****       { \
 722:/home/irfan/Desktop/arm/gcc-arm-none-eabi-10.3-2021.10-x86_64-linux/gcc-arm-none-eabi-10.3-2021.10/arm-none-eabi/include/sys/reent.h ****         0, \
 723:/home/irfan/Desktop/arm/gcc-arm-none-eabi-10.3-2021.10-x86_64-linux/gcc-arm-none-eabi-10.3-2021.10/arm-none-eabi/include/sys/reent.h ****         _NULL, \
 724:/home/irfan/Desktop/arm/gcc-arm-none-eabi-10.3-2021.10-x86_64-linux/gcc-arm-none-eabi-10.3-2021.10/arm-none-eabi/include/sys/reent.h ****         "", \
 725:/home/irfan/Desktop/arm/gcc-arm-none-eabi-10.3-2021.10-x86_64-linux/gcc-arm-none-eabi-10.3-2021.10/arm-none-eabi/include/sys/reent.h ****         {0, 0, 0, 0, 0, 0, 0, 0, 0}, \
 726:/home/irfan/Desktop/arm/gcc-arm-none-eabi-10.3-2021.10-x86_64-linux/gcc-arm-none-eabi-10.3-2021.10/arm-none-eabi/include/sys/reent.h ****         0, \
 727:/home/irfan/Desktop/arm/gcc-arm-none-eabi-10.3-2021.10-x86_64-linux/gcc-arm-none-eabi-10.3-2021.10/arm-none-eabi/include/sys/reent.h ****         1, \
 728:/home/irfan/Desktop/arm/gcc-arm-none-eabi-10.3-2021.10-x86_64-linux/gcc-arm-none-eabi-10.3-2021.10/arm-none-eabi/include/sys/reent.h ****         { \
 729:/home/irfan/Desktop/arm/gcc-arm-none-eabi-10.3-2021.10-x86_64-linux/gcc-arm-none-eabi-10.3-2021.10/arm-none-eabi/include/sys/reent.h ****           {_RAND48_SEED_0, _RAND48_SEED_1, _RAND48_SEED_2}, \
 730:/home/irfan/Desktop/arm/gcc-arm-none-eabi-10.3-2021.10-x86_64-linux/gcc-arm-none-eabi-10.3-2021.10/arm-none-eabi/include/sys/reent.h ****           {_RAND48_MULT_0, _RAND48_MULT_1, _RAND48_MULT_2}, \
 731:/home/irfan/Desktop/arm/gcc-arm-none-eabi-10.3-2021.10-x86_64-linux/gcc-arm-none-eabi-10.3-2021.10/arm-none-eabi/include/sys/reent.h ****           _RAND48_ADD \
 732:/home/irfan/Desktop/arm/gcc-arm-none-eabi-10.3-2021.10-x86_64-linux/gcc-arm-none-eabi-10.3-2021.10/arm-none-eabi/include/sys/reent.h ****         }, \
 733:/home/irfan/Desktop/arm/gcc-arm-none-eabi-10.3-2021.10-x86_64-linux/gcc-arm-none-eabi-10.3-2021.10/arm-none-eabi/include/sys/reent.h ****         {0, {0}}, \
ARM GAS  /tmp/ccYgTI9f.s 			page 100


 734:/home/irfan/Desktop/arm/gcc-arm-none-eabi-10.3-2021.10-x86_64-linux/gcc-arm-none-eabi-10.3-2021.10/arm-none-eabi/include/sys/reent.h ****         {0, {0}}, \
 735:/home/irfan/Desktop/arm/gcc-arm-none-eabi-10.3-2021.10-x86_64-linux/gcc-arm-none-eabi-10.3-2021.10/arm-none-eabi/include/sys/reent.h ****         {0, {0}}, \
 736:/home/irfan/Desktop/arm/gcc-arm-none-eabi-10.3-2021.10-x86_64-linux/gcc-arm-none-eabi-10.3-2021.10/arm-none-eabi/include/sys/reent.h ****         "", \
 737:/home/irfan/Desktop/arm/gcc-arm-none-eabi-10.3-2021.10-x86_64-linux/gcc-arm-none-eabi-10.3-2021.10/arm-none-eabi/include/sys/reent.h ****         "", \
 738:/home/irfan/Desktop/arm/gcc-arm-none-eabi-10.3-2021.10-x86_64-linux/gcc-arm-none-eabi-10.3-2021.10/arm-none-eabi/include/sys/reent.h ****         0, \
 739:/home/irfan/Desktop/arm/gcc-arm-none-eabi-10.3-2021.10-x86_64-linux/gcc-arm-none-eabi-10.3-2021.10/arm-none-eabi/include/sys/reent.h ****         {0, {0}}, \
 740:/home/irfan/Desktop/arm/gcc-arm-none-eabi-10.3-2021.10-x86_64-linux/gcc-arm-none-eabi-10.3-2021.10/arm-none-eabi/include/sys/reent.h ****         {0, {0}}, \
 741:/home/irfan/Desktop/arm/gcc-arm-none-eabi-10.3-2021.10-x86_64-linux/gcc-arm-none-eabi-10.3-2021.10/arm-none-eabi/include/sys/reent.h ****         {0, {0}}, \
 742:/home/irfan/Desktop/arm/gcc-arm-none-eabi-10.3-2021.10-x86_64-linux/gcc-arm-none-eabi-10.3-2021.10/arm-none-eabi/include/sys/reent.h ****         {0, {0}}, \
 743:/home/irfan/Desktop/arm/gcc-arm-none-eabi-10.3-2021.10-x86_64-linux/gcc-arm-none-eabi-10.3-2021.10/arm-none-eabi/include/sys/reent.h ****         {0, {0}} \
 744:/home/irfan/Desktop/arm/gcc-arm-none-eabi-10.3-2021.10-x86_64-linux/gcc-arm-none-eabi-10.3-2021.10/arm-none-eabi/include/sys/reent.h ****       } \
 745:/home/irfan/Desktop/arm/gcc-arm-none-eabi-10.3-2021.10-x86_64-linux/gcc-arm-none-eabi-10.3-2021.10/arm-none-eabi/include/sys/reent.h ****     }, \
 746:/home/irfan/Desktop/arm/gcc-arm-none-eabi-10.3-2021.10-x86_64-linux/gcc-arm-none-eabi-10.3-2021.10/arm-none-eabi/include/sys/reent.h ****     _REENT_INIT_ATEXIT \
 747:/home/irfan/Desktop/arm/gcc-arm-none-eabi-10.3-2021.10-x86_64-linux/gcc-arm-none-eabi-10.3-2021.10/arm-none-eabi/include/sys/reent.h ****     _NULL, \
 748:/home/irfan/Desktop/arm/gcc-arm-none-eabi-10.3-2021.10-x86_64-linux/gcc-arm-none-eabi-10.3-2021.10/arm-none-eabi/include/sys/reent.h ****     {_NULL, 0, _NULL} \
 749:/home/irfan/Desktop/arm/gcc-arm-none-eabi-10.3-2021.10-x86_64-linux/gcc-arm-none-eabi-10.3-2021.10/arm-none-eabi/include/sys/reent.h ****   }
 750:/home/irfan/Desktop/arm/gcc-arm-none-eabi-10.3-2021.10-x86_64-linux/gcc-arm-none-eabi-10.3-2021.10/arm-none-eabi/include/sys/reent.h **** 
 751:/home/irfan/Desktop/arm/gcc-arm-none-eabi-10.3-2021.10-x86_64-linux/gcc-arm-none-eabi-10.3-2021.10/arm-none-eabi/include/sys/reent.h **** #define _REENT_INIT_PTR_ZEROED(var) \
 752:/home/irfan/Desktop/arm/gcc-arm-none-eabi-10.3-2021.10-x86_64-linux/gcc-arm-none-eabi-10.3-2021.10/arm-none-eabi/include/sys/reent.h ****   { (var)->_stdin = _REENT_STDIO_STREAM(var, 0); \
 753:/home/irfan/Desktop/arm/gcc-arm-none-eabi-10.3-2021.10-x86_64-linux/gcc-arm-none-eabi-10.3-2021.10/arm-none-eabi/include/sys/reent.h ****     (var)->_stdout = _REENT_STDIO_STREAM(var, 1); \
 754:/home/irfan/Desktop/arm/gcc-arm-none-eabi-10.3-2021.10-x86_64-linux/gcc-arm-none-eabi-10.3-2021.10/arm-none-eabi/include/sys/reent.h ****     (var)->_stderr = _REENT_STDIO_STREAM(var, 2); \
 755:/home/irfan/Desktop/arm/gcc-arm-none-eabi-10.3-2021.10-x86_64-linux/gcc-arm-none-eabi-10.3-2021.10/arm-none-eabi/include/sys/reent.h ****     (var)->_new._reent._rand_next = 1; \
 756:/home/irfan/Desktop/arm/gcc-arm-none-eabi-10.3-2021.10-x86_64-linux/gcc-arm-none-eabi-10.3-2021.10/arm-none-eabi/include/sys/reent.h ****     (var)->_new._reent._r48._seed[0] = _RAND48_SEED_0; \
 757:/home/irfan/Desktop/arm/gcc-arm-none-eabi-10.3-2021.10-x86_64-linux/gcc-arm-none-eabi-10.3-2021.10/arm-none-eabi/include/sys/reent.h ****     (var)->_new._reent._r48._seed[1] = _RAND48_SEED_1; \
 758:/home/irfan/Desktop/arm/gcc-arm-none-eabi-10.3-2021.10-x86_64-linux/gcc-arm-none-eabi-10.3-2021.10/arm-none-eabi/include/sys/reent.h ****     (var)->_new._reent._r48._seed[2] = _RAND48_SEED_2; \
 759:/home/irfan/Desktop/arm/gcc-arm-none-eabi-10.3-2021.10-x86_64-linux/gcc-arm-none-eabi-10.3-2021.10/arm-none-eabi/include/sys/reent.h ****     (var)->_new._reent._r48._mult[0] = _RAND48_MULT_0; \
 760:/home/irfan/Desktop/arm/gcc-arm-none-eabi-10.3-2021.10-x86_64-linux/gcc-arm-none-eabi-10.3-2021.10/arm-none-eabi/include/sys/reent.h ****     (var)->_new._reent._r48._mult[1] = _RAND48_MULT_1; \
 761:/home/irfan/Desktop/arm/gcc-arm-none-eabi-10.3-2021.10-x86_64-linux/gcc-arm-none-eabi-10.3-2021.10/arm-none-eabi/include/sys/reent.h ****     (var)->_new._reent._r48._mult[2] = _RAND48_MULT_2; \
 762:/home/irfan/Desktop/arm/gcc-arm-none-eabi-10.3-2021.10-x86_64-linux/gcc-arm-none-eabi-10.3-2021.10/arm-none-eabi/include/sys/reent.h ****     (var)->_new._reent._r48._add = _RAND48_ADD; \
 763:/home/irfan/Desktop/arm/gcc-arm-none-eabi-10.3-2021.10-x86_64-linux/gcc-arm-none-eabi-10.3-2021.10/arm-none-eabi/include/sys/reent.h ****   }
 764:/home/irfan/Desktop/arm/gcc-arm-none-eabi-10.3-2021.10-x86_64-linux/gcc-arm-none-eabi-10.3-2021.10/arm-none-eabi/include/sys/reent.h **** 
 765:/home/irfan/Desktop/arm/gcc-arm-none-eabi-10.3-2021.10-x86_64-linux/gcc-arm-none-eabi-10.3-2021.10/arm-none-eabi/include/sys/reent.h **** #define _REENT_CHECK_RAND48(ptr)	/* nothing */
 766:/home/irfan/Desktop/arm/gcc-arm-none-eabi-10.3-2021.10-x86_64-linux/gcc-arm-none-eabi-10.3-2021.10/arm-none-eabi/include/sys/reent.h **** #define _REENT_CHECK_MP(ptr)		/* nothing */
 767:/home/irfan/Desktop/arm/gcc-arm-none-eabi-10.3-2021.10-x86_64-linux/gcc-arm-none-eabi-10.3-2021.10/arm-none-eabi/include/sys/reent.h **** #define _REENT_CHECK_TM(ptr)		/* nothing */
 768:/home/irfan/Desktop/arm/gcc-arm-none-eabi-10.3-2021.10-x86_64-linux/gcc-arm-none-eabi-10.3-2021.10/arm-none-eabi/include/sys/reent.h **** #define _REENT_CHECK_ASCTIME_BUF(ptr)	/* nothing */
 769:/home/irfan/Desktop/arm/gcc-arm-none-eabi-10.3-2021.10-x86_64-linux/gcc-arm-none-eabi-10.3-2021.10/arm-none-eabi/include/sys/reent.h **** #define _REENT_CHECK_EMERGENCY(ptr)	/* nothing */
 770:/home/irfan/Desktop/arm/gcc-arm-none-eabi-10.3-2021.10-x86_64-linux/gcc-arm-none-eabi-10.3-2021.10/arm-none-eabi/include/sys/reent.h **** #define _REENT_CHECK_MISC(ptr)	        /* nothing */
 771:/home/irfan/Desktop/arm/gcc-arm-none-eabi-10.3-2021.10-x86_64-linux/gcc-arm-none-eabi-10.3-2021.10/arm-none-eabi/include/sys/reent.h **** #define _REENT_CHECK_SIGNAL_BUF(ptr)	/* nothing */
 772:/home/irfan/Desktop/arm/gcc-arm-none-eabi-10.3-2021.10-x86_64-linux/gcc-arm-none-eabi-10.3-2021.10/arm-none-eabi/include/sys/reent.h **** 
 773:/home/irfan/Desktop/arm/gcc-arm-none-eabi-10.3-2021.10-x86_64-linux/gcc-arm-none-eabi-10.3-2021.10/arm-none-eabi/include/sys/reent.h **** #define _REENT_SIGNGAM(ptr)	((ptr)->_new._reent._gamma_signgam)
 774:/home/irfan/Desktop/arm/gcc-arm-none-eabi-10.3-2021.10-x86_64-linux/gcc-arm-none-eabi-10.3-2021.10/arm-none-eabi/include/sys/reent.h **** #define _REENT_RAND_NEXT(ptr)	((ptr)->_new._reent._rand_next)
 775:/home/irfan/Desktop/arm/gcc-arm-none-eabi-10.3-2021.10-x86_64-linux/gcc-arm-none-eabi-10.3-2021.10/arm-none-eabi/include/sys/reent.h **** #define _REENT_RAND48_SEED(ptr)	((ptr)->_new._reent._r48._seed)
 776:/home/irfan/Desktop/arm/gcc-arm-none-eabi-10.3-2021.10-x86_64-linux/gcc-arm-none-eabi-10.3-2021.10/arm-none-eabi/include/sys/reent.h **** #define _REENT_RAND48_MULT(ptr)	((ptr)->_new._reent._r48._mult)
 777:/home/irfan/Desktop/arm/gcc-arm-none-eabi-10.3-2021.10-x86_64-linux/gcc-arm-none-eabi-10.3-2021.10/arm-none-eabi/include/sys/reent.h **** #define _REENT_RAND48_ADD(ptr)	((ptr)->_new._reent._r48._add)
 778:/home/irfan/Desktop/arm/gcc-arm-none-eabi-10.3-2021.10-x86_64-linux/gcc-arm-none-eabi-10.3-2021.10/arm-none-eabi/include/sys/reent.h **** #define _REENT_MP_RESULT(ptr)	((ptr)->_result)
 779:/home/irfan/Desktop/arm/gcc-arm-none-eabi-10.3-2021.10-x86_64-linux/gcc-arm-none-eabi-10.3-2021.10/arm-none-eabi/include/sys/reent.h **** #define _REENT_MP_RESULT_K(ptr)	((ptr)->_result_k)
 780:/home/irfan/Desktop/arm/gcc-arm-none-eabi-10.3-2021.10-x86_64-linux/gcc-arm-none-eabi-10.3-2021.10/arm-none-eabi/include/sys/reent.h **** #define _REENT_MP_P5S(ptr)	((ptr)->_p5s)
 781:/home/irfan/Desktop/arm/gcc-arm-none-eabi-10.3-2021.10-x86_64-linux/gcc-arm-none-eabi-10.3-2021.10/arm-none-eabi/include/sys/reent.h **** #define _REENT_MP_FREELIST(ptr)	((ptr)->_freelist)
 782:/home/irfan/Desktop/arm/gcc-arm-none-eabi-10.3-2021.10-x86_64-linux/gcc-arm-none-eabi-10.3-2021.10/arm-none-eabi/include/sys/reent.h **** #define _REENT_ASCTIME_BUF(ptr)	((ptr)->_new._reent._asctime_buf)
 783:/home/irfan/Desktop/arm/gcc-arm-none-eabi-10.3-2021.10-x86_64-linux/gcc-arm-none-eabi-10.3-2021.10/arm-none-eabi/include/sys/reent.h **** #define _REENT_TM(ptr)		(&(ptr)->_new._reent._localtime_buf)
 784:/home/irfan/Desktop/arm/gcc-arm-none-eabi-10.3-2021.10-x86_64-linux/gcc-arm-none-eabi-10.3-2021.10/arm-none-eabi/include/sys/reent.h **** #define _REENT_EMERGENCY(ptr)	((ptr)->_emergency)
 785:/home/irfan/Desktop/arm/gcc-arm-none-eabi-10.3-2021.10-x86_64-linux/gcc-arm-none-eabi-10.3-2021.10/arm-none-eabi/include/sys/reent.h **** #define _REENT_STRTOK_LAST(ptr)	((ptr)->_new._reent._strtok_last)
 786:/home/irfan/Desktop/arm/gcc-arm-none-eabi-10.3-2021.10-x86_64-linux/gcc-arm-none-eabi-10.3-2021.10/arm-none-eabi/include/sys/reent.h **** #define _REENT_MBLEN_STATE(ptr)	((ptr)->_new._reent._mblen_state)
 787:/home/irfan/Desktop/arm/gcc-arm-none-eabi-10.3-2021.10-x86_64-linux/gcc-arm-none-eabi-10.3-2021.10/arm-none-eabi/include/sys/reent.h **** #define _REENT_MBTOWC_STATE(ptr)((ptr)->_new._reent._mbtowc_state)
 788:/home/irfan/Desktop/arm/gcc-arm-none-eabi-10.3-2021.10-x86_64-linux/gcc-arm-none-eabi-10.3-2021.10/arm-none-eabi/include/sys/reent.h **** #define _REENT_WCTOMB_STATE(ptr)((ptr)->_new._reent._wctomb_state)
 789:/home/irfan/Desktop/arm/gcc-arm-none-eabi-10.3-2021.10-x86_64-linux/gcc-arm-none-eabi-10.3-2021.10/arm-none-eabi/include/sys/reent.h **** #define _REENT_MBRLEN_STATE(ptr)((ptr)->_new._reent._mbrlen_state)
 790:/home/irfan/Desktop/arm/gcc-arm-none-eabi-10.3-2021.10-x86_64-linux/gcc-arm-none-eabi-10.3-2021.10/arm-none-eabi/include/sys/reent.h **** #define _REENT_MBRTOWC_STATE(ptr)((ptr)->_new._reent._mbrtowc_state)
ARM GAS  /tmp/ccYgTI9f.s 			page 101


 791:/home/irfan/Desktop/arm/gcc-arm-none-eabi-10.3-2021.10-x86_64-linux/gcc-arm-none-eabi-10.3-2021.10/arm-none-eabi/include/sys/reent.h **** #define _REENT_MBSRTOWCS_STATE(ptr)((ptr)->_new._reent._mbsrtowcs_state)
 792:/home/irfan/Desktop/arm/gcc-arm-none-eabi-10.3-2021.10-x86_64-linux/gcc-arm-none-eabi-10.3-2021.10/arm-none-eabi/include/sys/reent.h **** #define _REENT_WCRTOMB_STATE(ptr)((ptr)->_new._reent._wcrtomb_state)
 793:/home/irfan/Desktop/arm/gcc-arm-none-eabi-10.3-2021.10-x86_64-linux/gcc-arm-none-eabi-10.3-2021.10/arm-none-eabi/include/sys/reent.h **** #define _REENT_WCSRTOMBS_STATE(ptr)((ptr)->_new._reent._wcsrtombs_state)
 794:/home/irfan/Desktop/arm/gcc-arm-none-eabi-10.3-2021.10-x86_64-linux/gcc-arm-none-eabi-10.3-2021.10/arm-none-eabi/include/sys/reent.h **** #define _REENT_L64A_BUF(ptr)    ((ptr)->_new._reent._l64a_buf)
 795:/home/irfan/Desktop/arm/gcc-arm-none-eabi-10.3-2021.10-x86_64-linux/gcc-arm-none-eabi-10.3-2021.10/arm-none-eabi/include/sys/reent.h **** #define _REENT_SIGNAL_BUF(ptr)  ((ptr)->_new._reent._signal_buf)
 796:/home/irfan/Desktop/arm/gcc-arm-none-eabi-10.3-2021.10-x86_64-linux/gcc-arm-none-eabi-10.3-2021.10/arm-none-eabi/include/sys/reent.h **** #define _REENT_GETDATE_ERR_P(ptr) (&((ptr)->_new._reent._getdate_err))
 797:/home/irfan/Desktop/arm/gcc-arm-none-eabi-10.3-2021.10-x86_64-linux/gcc-arm-none-eabi-10.3-2021.10/arm-none-eabi/include/sys/reent.h **** 
 798:/home/irfan/Desktop/arm/gcc-arm-none-eabi-10.3-2021.10-x86_64-linux/gcc-arm-none-eabi-10.3-2021.10/arm-none-eabi/include/sys/reent.h **** #endif /* !_REENT_SMALL */
 799:/home/irfan/Desktop/arm/gcc-arm-none-eabi-10.3-2021.10-x86_64-linux/gcc-arm-none-eabi-10.3-2021.10/arm-none-eabi/include/sys/reent.h **** 
 800:/home/irfan/Desktop/arm/gcc-arm-none-eabi-10.3-2021.10-x86_64-linux/gcc-arm-none-eabi-10.3-2021.10/arm-none-eabi/include/sys/reent.h **** #define _REENT_INIT_PTR(var) \
 801:/home/irfan/Desktop/arm/gcc-arm-none-eabi-10.3-2021.10-x86_64-linux/gcc-arm-none-eabi-10.3-2021.10/arm-none-eabi/include/sys/reent.h ****   { memset((var), 0, sizeof(*(var))); \
 802:/home/irfan/Desktop/arm/gcc-arm-none-eabi-10.3-2021.10-x86_64-linux/gcc-arm-none-eabi-10.3-2021.10/arm-none-eabi/include/sys/reent.h ****     _REENT_INIT_PTR_ZEROED(var); \
 803:/home/irfan/Desktop/arm/gcc-arm-none-eabi-10.3-2021.10-x86_64-linux/gcc-arm-none-eabi-10.3-2021.10/arm-none-eabi/include/sys/reent.h ****   }
 804:/home/irfan/Desktop/arm/gcc-arm-none-eabi-10.3-2021.10-x86_64-linux/gcc-arm-none-eabi-10.3-2021.10/arm-none-eabi/include/sys/reent.h **** 
 805:/home/irfan/Desktop/arm/gcc-arm-none-eabi-10.3-2021.10-x86_64-linux/gcc-arm-none-eabi-10.3-2021.10/arm-none-eabi/include/sys/reent.h **** /* This value is used in stdlib/misc.c.  reent/reent.c has to know it
 806:/home/irfan/Desktop/arm/gcc-arm-none-eabi-10.3-2021.10-x86_64-linux/gcc-arm-none-eabi-10.3-2021.10/arm-none-eabi/include/sys/reent.h ****    as well to make sure the freelist is correctly free'd.  Therefore
 807:/home/irfan/Desktop/arm/gcc-arm-none-eabi-10.3-2021.10-x86_64-linux/gcc-arm-none-eabi-10.3-2021.10/arm-none-eabi/include/sys/reent.h ****    we define it here, rather than in stdlib/misc.c, as before. */
 808:/home/irfan/Desktop/arm/gcc-arm-none-eabi-10.3-2021.10-x86_64-linux/gcc-arm-none-eabi-10.3-2021.10/arm-none-eabi/include/sys/reent.h **** #define _Kmax (sizeof (size_t) << 3)
 809:/home/irfan/Desktop/arm/gcc-arm-none-eabi-10.3-2021.10-x86_64-linux/gcc-arm-none-eabi-10.3-2021.10/arm-none-eabi/include/sys/reent.h **** 
 810:/home/irfan/Desktop/arm/gcc-arm-none-eabi-10.3-2021.10-x86_64-linux/gcc-arm-none-eabi-10.3-2021.10/arm-none-eabi/include/sys/reent.h **** /*
 811:/home/irfan/Desktop/arm/gcc-arm-none-eabi-10.3-2021.10-x86_64-linux/gcc-arm-none-eabi-10.3-2021.10/arm-none-eabi/include/sys/reent.h ****  * All references to struct _reent are via this pointer.
 812:/home/irfan/Desktop/arm/gcc-arm-none-eabi-10.3-2021.10-x86_64-linux/gcc-arm-none-eabi-10.3-2021.10/arm-none-eabi/include/sys/reent.h ****  * Internally, newlib routines that need to reference it should use _REENT.
 813:/home/irfan/Desktop/arm/gcc-arm-none-eabi-10.3-2021.10-x86_64-linux/gcc-arm-none-eabi-10.3-2021.10/arm-none-eabi/include/sys/reent.h ****  */
 814:/home/irfan/Desktop/arm/gcc-arm-none-eabi-10.3-2021.10-x86_64-linux/gcc-arm-none-eabi-10.3-2021.10/arm-none-eabi/include/sys/reent.h **** 
 815:/home/irfan/Desktop/arm/gcc-arm-none-eabi-10.3-2021.10-x86_64-linux/gcc-arm-none-eabi-10.3-2021.10/arm-none-eabi/include/sys/reent.h **** #ifndef __ATTRIBUTE_IMPURE_PTR__
 816:/home/irfan/Desktop/arm/gcc-arm-none-eabi-10.3-2021.10-x86_64-linux/gcc-arm-none-eabi-10.3-2021.10/arm-none-eabi/include/sys/reent.h **** #define __ATTRIBUTE_IMPURE_PTR__
 817:/home/irfan/Desktop/arm/gcc-arm-none-eabi-10.3-2021.10-x86_64-linux/gcc-arm-none-eabi-10.3-2021.10/arm-none-eabi/include/sys/reent.h **** #endif
 818:/home/irfan/Desktop/arm/gcc-arm-none-eabi-10.3-2021.10-x86_64-linux/gcc-arm-none-eabi-10.3-2021.10/arm-none-eabi/include/sys/reent.h **** 
 819:/home/irfan/Desktop/arm/gcc-arm-none-eabi-10.3-2021.10-x86_64-linux/gcc-arm-none-eabi-10.3-2021.10/arm-none-eabi/include/sys/reent.h **** extern struct _reent *_impure_ptr __ATTRIBUTE_IMPURE_PTR__;
 1756              		.loc 11 819 1 view .LVU773
 820:/home/irfan/Desktop/arm/gcc-arm-none-eabi-10.3-2021.10-x86_64-linux/gcc-arm-none-eabi-10.3-2021.10/arm-none-eabi/include/sys/reent.h **** extern struct _reent *const _global_impure_ptr __ATTRIBUTE_IMPURE_PTR__;
 1757              		.loc 11 820 1 view .LVU774
 821:/home/irfan/Desktop/arm/gcc-arm-none-eabi-10.3-2021.10-x86_64-linux/gcc-arm-none-eabi-10.3-2021.10/arm-none-eabi/include/sys/reent.h **** 
 822:/home/irfan/Desktop/arm/gcc-arm-none-eabi-10.3-2021.10-x86_64-linux/gcc-arm-none-eabi-10.3-2021.10/arm-none-eabi/include/sys/reent.h **** void _reclaim_reent (struct _reent *);
 1758              		.loc 11 822 1 view .LVU775
 1759              		.file 13 "/home/irfan/Desktop/arm/gcc-arm-none-eabi-10.3-2021.10-x86_64-linux/gcc-arm-none-eabi-10
   1:/home/irfan/Desktop/arm/gcc-arm-none-eabi-10.3-2021.10-x86_64-linux/gcc-arm-none-eabi-10.3-2021.10/arm-none-eabi/include/sys/_locale.h **** /* Definition of opaque POSIX-1.2008 type locale_t for userspace. */
   2:/home/irfan/Desktop/arm/gcc-arm-none-eabi-10.3-2021.10-x86_64-linux/gcc-arm-none-eabi-10.3-2021.10/arm-none-eabi/include/sys/_locale.h **** 
   3:/home/irfan/Desktop/arm/gcc-arm-none-eabi-10.3-2021.10-x86_64-linux/gcc-arm-none-eabi-10.3-2021.10/arm-none-eabi/include/sys/_locale.h **** #ifndef	_SYS__LOCALE_H
   4:/home/irfan/Desktop/arm/gcc-arm-none-eabi-10.3-2021.10-x86_64-linux/gcc-arm-none-eabi-10.3-2021.10/arm-none-eabi/include/sys/_locale.h **** #define _SYS__LOCALE_H
   5:/home/irfan/Desktop/arm/gcc-arm-none-eabi-10.3-2021.10-x86_64-linux/gcc-arm-none-eabi-10.3-2021.10/arm-none-eabi/include/sys/_locale.h **** 
   6:/home/irfan/Desktop/arm/gcc-arm-none-eabi-10.3-2021.10-x86_64-linux/gcc-arm-none-eabi-10.3-2021.10/arm-none-eabi/include/sys/_locale.h **** #include <newlib.h>
   7:/home/irfan/Desktop/arm/gcc-arm-none-eabi-10.3-2021.10-x86_64-linux/gcc-arm-none-eabi-10.3-2021.10/arm-none-eabi/include/sys/_locale.h **** #include <sys/config.h>
   8:/home/irfan/Desktop/arm/gcc-arm-none-eabi-10.3-2021.10-x86_64-linux/gcc-arm-none-eabi-10.3-2021.10/arm-none-eabi/include/sys/_locale.h **** 
   9:/home/irfan/Desktop/arm/gcc-arm-none-eabi-10.3-2021.10-x86_64-linux/gcc-arm-none-eabi-10.3-2021.10/arm-none-eabi/include/sys/_locale.h **** struct __locale_t;
 1760              		.loc 13 9 1 view .LVU776
  10:/home/irfan/Desktop/arm/gcc-arm-none-eabi-10.3-2021.10-x86_64-linux/gcc-arm-none-eabi-10.3-2021.10/arm-none-eabi/include/sys/_locale.h **** typedef struct __locale_t *locale_t;
 1761              		.loc 13 10 1 view .LVU777
 1762              		.file 14 "/home/irfan/Desktop/arm/gcc-arm-none-eabi-10.3-2021.10-x86_64-linux/gcc-arm-none-eabi-10
   1:/home/irfan/Desktop/arm/gcc-arm-none-eabi-10.3-2021.10-x86_64-linux/gcc-arm-none-eabi-10.3-2021.10/arm-none-eabi/include/strings.h **** /*-
   2:/home/irfan/Desktop/arm/gcc-arm-none-eabi-10.3-2021.10-x86_64-linux/gcc-arm-none-eabi-10.3-2021.10/arm-none-eabi/include/strings.h ****  * Copyright (c) 2002 Mike Barcroft <mike@FreeBSD.org>
   3:/home/irfan/Desktop/arm/gcc-arm-none-eabi-10.3-2021.10-x86_64-linux/gcc-arm-none-eabi-10.3-2021.10/arm-none-eabi/include/strings.h ****  * All rights reserved.
   4:/home/irfan/Desktop/arm/gcc-arm-none-eabi-10.3-2021.10-x86_64-linux/gcc-arm-none-eabi-10.3-2021.10/arm-none-eabi/include/strings.h ****  *
   5:/home/irfan/Desktop/arm/gcc-arm-none-eabi-10.3-2021.10-x86_64-linux/gcc-arm-none-eabi-10.3-2021.10/arm-none-eabi/include/strings.h ****  * Redistribution and use in source and binary forms, with or without
   6:/home/irfan/Desktop/arm/gcc-arm-none-eabi-10.3-2021.10-x86_64-linux/gcc-arm-none-eabi-10.3-2021.10/arm-none-eabi/include/strings.h ****  * modification, are permitted provided that the following conditions
   7:/home/irfan/Desktop/arm/gcc-arm-none-eabi-10.3-2021.10-x86_64-linux/gcc-arm-none-eabi-10.3-2021.10/arm-none-eabi/include/strings.h ****  * are met:
   8:/home/irfan/Desktop/arm/gcc-arm-none-eabi-10.3-2021.10-x86_64-linux/gcc-arm-none-eabi-10.3-2021.10/arm-none-eabi/include/strings.h ****  * 1. Redistributions of source code must retain the above copyright
ARM GAS  /tmp/ccYgTI9f.s 			page 102


   9:/home/irfan/Desktop/arm/gcc-arm-none-eabi-10.3-2021.10-x86_64-linux/gcc-arm-none-eabi-10.3-2021.10/arm-none-eabi/include/strings.h ****  *    notice, this list of conditions and the following disclaimer.
  10:/home/irfan/Desktop/arm/gcc-arm-none-eabi-10.3-2021.10-x86_64-linux/gcc-arm-none-eabi-10.3-2021.10/arm-none-eabi/include/strings.h ****  * 2. Redistributions in binary form must reproduce the above copyright
  11:/home/irfan/Desktop/arm/gcc-arm-none-eabi-10.3-2021.10-x86_64-linux/gcc-arm-none-eabi-10.3-2021.10/arm-none-eabi/include/strings.h ****  *    notice, this list of conditions and the following disclaimer in the
  12:/home/irfan/Desktop/arm/gcc-arm-none-eabi-10.3-2021.10-x86_64-linux/gcc-arm-none-eabi-10.3-2021.10/arm-none-eabi/include/strings.h ****  *    documentation and/or other materials provided with the distribution.
  13:/home/irfan/Desktop/arm/gcc-arm-none-eabi-10.3-2021.10-x86_64-linux/gcc-arm-none-eabi-10.3-2021.10/arm-none-eabi/include/strings.h ****  *
  14:/home/irfan/Desktop/arm/gcc-arm-none-eabi-10.3-2021.10-x86_64-linux/gcc-arm-none-eabi-10.3-2021.10/arm-none-eabi/include/strings.h ****  * THIS SOFTWARE IS PROVIDED BY THE AUTHOR AND CONTRIBUTORS ``AS IS'' AND
  15:/home/irfan/Desktop/arm/gcc-arm-none-eabi-10.3-2021.10-x86_64-linux/gcc-arm-none-eabi-10.3-2021.10/arm-none-eabi/include/strings.h ****  * ANY EXPRESS OR IMPLIED WARRANTIES, INCLUDING, BUT NOT LIMITED TO, THE
  16:/home/irfan/Desktop/arm/gcc-arm-none-eabi-10.3-2021.10-x86_64-linux/gcc-arm-none-eabi-10.3-2021.10/arm-none-eabi/include/strings.h ****  * IMPLIED WARRANTIES OF MERCHANTABILITY AND FITNESS FOR A PARTICULAR PURPOSE
  17:/home/irfan/Desktop/arm/gcc-arm-none-eabi-10.3-2021.10-x86_64-linux/gcc-arm-none-eabi-10.3-2021.10/arm-none-eabi/include/strings.h ****  * ARE DISCLAIMED.  IN NO EVENT SHALL THE AUTHOR OR CONTRIBUTORS BE LIABLE
  18:/home/irfan/Desktop/arm/gcc-arm-none-eabi-10.3-2021.10-x86_64-linux/gcc-arm-none-eabi-10.3-2021.10/arm-none-eabi/include/strings.h ****  * FOR ANY DIRECT, INDIRECT, INCIDENTAL, SPECIAL, EXEMPLARY, OR CONSEQUENTIAL
  19:/home/irfan/Desktop/arm/gcc-arm-none-eabi-10.3-2021.10-x86_64-linux/gcc-arm-none-eabi-10.3-2021.10/arm-none-eabi/include/strings.h ****  * DAMAGES (INCLUDING, BUT NOT LIMITED TO, PROCUREMENT OF SUBSTITUTE GOODS
  20:/home/irfan/Desktop/arm/gcc-arm-none-eabi-10.3-2021.10-x86_64-linux/gcc-arm-none-eabi-10.3-2021.10/arm-none-eabi/include/strings.h ****  * OR SERVICES; LOSS OF USE, DATA, OR PROFITS; OR BUSINESS INTERRUPTION)
  21:/home/irfan/Desktop/arm/gcc-arm-none-eabi-10.3-2021.10-x86_64-linux/gcc-arm-none-eabi-10.3-2021.10/arm-none-eabi/include/strings.h ****  * HOWEVER CAUSED AND ON ANY THEORY OF LIABILITY, WHETHER IN CONTRACT, STRICT
  22:/home/irfan/Desktop/arm/gcc-arm-none-eabi-10.3-2021.10-x86_64-linux/gcc-arm-none-eabi-10.3-2021.10/arm-none-eabi/include/strings.h ****  * LIABILITY, OR TORT (INCLUDING NEGLIGENCE OR OTHERWISE) ARISING IN ANY WAY
  23:/home/irfan/Desktop/arm/gcc-arm-none-eabi-10.3-2021.10-x86_64-linux/gcc-arm-none-eabi-10.3-2021.10/arm-none-eabi/include/strings.h ****  * OUT OF THE USE OF THIS SOFTWARE, EVEN IF ADVISED OF THE POSSIBILITY OF
  24:/home/irfan/Desktop/arm/gcc-arm-none-eabi-10.3-2021.10-x86_64-linux/gcc-arm-none-eabi-10.3-2021.10/arm-none-eabi/include/strings.h ****  * SUCH DAMAGE.
  25:/home/irfan/Desktop/arm/gcc-arm-none-eabi-10.3-2021.10-x86_64-linux/gcc-arm-none-eabi-10.3-2021.10/arm-none-eabi/include/strings.h ****  *
  26:/home/irfan/Desktop/arm/gcc-arm-none-eabi-10.3-2021.10-x86_64-linux/gcc-arm-none-eabi-10.3-2021.10/arm-none-eabi/include/strings.h ****  * $FreeBSD: head/include/strings.h 272673 2014-10-07 04:54:11Z delphij $
  27:/home/irfan/Desktop/arm/gcc-arm-none-eabi-10.3-2021.10-x86_64-linux/gcc-arm-none-eabi-10.3-2021.10/arm-none-eabi/include/strings.h ****  */
  28:/home/irfan/Desktop/arm/gcc-arm-none-eabi-10.3-2021.10-x86_64-linux/gcc-arm-none-eabi-10.3-2021.10/arm-none-eabi/include/strings.h **** 
  29:/home/irfan/Desktop/arm/gcc-arm-none-eabi-10.3-2021.10-x86_64-linux/gcc-arm-none-eabi-10.3-2021.10/arm-none-eabi/include/strings.h **** #ifndef _STRINGS_H_
  30:/home/irfan/Desktop/arm/gcc-arm-none-eabi-10.3-2021.10-x86_64-linux/gcc-arm-none-eabi-10.3-2021.10/arm-none-eabi/include/strings.h **** #define	_STRINGS_H_
  31:/home/irfan/Desktop/arm/gcc-arm-none-eabi-10.3-2021.10-x86_64-linux/gcc-arm-none-eabi-10.3-2021.10/arm-none-eabi/include/strings.h **** 
  32:/home/irfan/Desktop/arm/gcc-arm-none-eabi-10.3-2021.10-x86_64-linux/gcc-arm-none-eabi-10.3-2021.10/arm-none-eabi/include/strings.h **** #include <sys/cdefs.h>
  33:/home/irfan/Desktop/arm/gcc-arm-none-eabi-10.3-2021.10-x86_64-linux/gcc-arm-none-eabi-10.3-2021.10/arm-none-eabi/include/strings.h **** #include <sys/_types.h>
  34:/home/irfan/Desktop/arm/gcc-arm-none-eabi-10.3-2021.10-x86_64-linux/gcc-arm-none-eabi-10.3-2021.10/arm-none-eabi/include/strings.h **** 
  35:/home/irfan/Desktop/arm/gcc-arm-none-eabi-10.3-2021.10-x86_64-linux/gcc-arm-none-eabi-10.3-2021.10/arm-none-eabi/include/strings.h **** #if __POSIX_VISIBLE >= 200809
  36:/home/irfan/Desktop/arm/gcc-arm-none-eabi-10.3-2021.10-x86_64-linux/gcc-arm-none-eabi-10.3-2021.10/arm-none-eabi/include/strings.h **** #include <sys/_locale.h>
  37:/home/irfan/Desktop/arm/gcc-arm-none-eabi-10.3-2021.10-x86_64-linux/gcc-arm-none-eabi-10.3-2021.10/arm-none-eabi/include/strings.h **** #endif
  38:/home/irfan/Desktop/arm/gcc-arm-none-eabi-10.3-2021.10-x86_64-linux/gcc-arm-none-eabi-10.3-2021.10/arm-none-eabi/include/strings.h **** 
  39:/home/irfan/Desktop/arm/gcc-arm-none-eabi-10.3-2021.10-x86_64-linux/gcc-arm-none-eabi-10.3-2021.10/arm-none-eabi/include/strings.h **** #ifndef _SIZE_T_DECLARED
  40:/home/irfan/Desktop/arm/gcc-arm-none-eabi-10.3-2021.10-x86_64-linux/gcc-arm-none-eabi-10.3-2021.10/arm-none-eabi/include/strings.h **** typedef	__size_t	size_t;
  41:/home/irfan/Desktop/arm/gcc-arm-none-eabi-10.3-2021.10-x86_64-linux/gcc-arm-none-eabi-10.3-2021.10/arm-none-eabi/include/strings.h **** #define	_SIZE_T_DECLARED
  42:/home/irfan/Desktop/arm/gcc-arm-none-eabi-10.3-2021.10-x86_64-linux/gcc-arm-none-eabi-10.3-2021.10/arm-none-eabi/include/strings.h **** #endif
  43:/home/irfan/Desktop/arm/gcc-arm-none-eabi-10.3-2021.10-x86_64-linux/gcc-arm-none-eabi-10.3-2021.10/arm-none-eabi/include/strings.h **** 
  44:/home/irfan/Desktop/arm/gcc-arm-none-eabi-10.3-2021.10-x86_64-linux/gcc-arm-none-eabi-10.3-2021.10/arm-none-eabi/include/strings.h **** __BEGIN_DECLS
  45:/home/irfan/Desktop/arm/gcc-arm-none-eabi-10.3-2021.10-x86_64-linux/gcc-arm-none-eabi-10.3-2021.10/arm-none-eabi/include/strings.h **** #if __BSD_VISIBLE || __POSIX_VISIBLE <= 200112
  46:/home/irfan/Desktop/arm/gcc-arm-none-eabi-10.3-2021.10-x86_64-linux/gcc-arm-none-eabi-10.3-2021.10/arm-none-eabi/include/strings.h **** int	 bcmp(const void *, const void *, size_t) __pure;	/* LEGACY */
 1763              		.loc 14 46 1 view .LVU778
  47:/home/irfan/Desktop/arm/gcc-arm-none-eabi-10.3-2021.10-x86_64-linux/gcc-arm-none-eabi-10.3-2021.10/arm-none-eabi/include/strings.h **** void	 bcopy(const void *, void *, size_t);			/* LEGACY */
 1764              		.loc 14 47 1 view .LVU779
  48:/home/irfan/Desktop/arm/gcc-arm-none-eabi-10.3-2021.10-x86_64-linux/gcc-arm-none-eabi-10.3-2021.10/arm-none-eabi/include/strings.h **** void	 bzero(void *, size_t);					/* LEGACY */
 1765              		.loc 14 48 1 view .LVU780
  49:/home/irfan/Desktop/arm/gcc-arm-none-eabi-10.3-2021.10-x86_64-linux/gcc-arm-none-eabi-10.3-2021.10/arm-none-eabi/include/strings.h **** #endif
  50:/home/irfan/Desktop/arm/gcc-arm-none-eabi-10.3-2021.10-x86_64-linux/gcc-arm-none-eabi-10.3-2021.10/arm-none-eabi/include/strings.h **** #if __BSD_VISIBLE
  51:/home/irfan/Desktop/arm/gcc-arm-none-eabi-10.3-2021.10-x86_64-linux/gcc-arm-none-eabi-10.3-2021.10/arm-none-eabi/include/strings.h **** void	 explicit_bzero(void *, size_t);
 1766              		.loc 14 51 1 view .LVU781
  52:/home/irfan/Desktop/arm/gcc-arm-none-eabi-10.3-2021.10-x86_64-linux/gcc-arm-none-eabi-10.3-2021.10/arm-none-eabi/include/strings.h **** #endif
  53:/home/irfan/Desktop/arm/gcc-arm-none-eabi-10.3-2021.10-x86_64-linux/gcc-arm-none-eabi-10.3-2021.10/arm-none-eabi/include/strings.h **** #if __MISC_VISIBLE || __POSIX_VISIBLE < 200809 || __XSI_VISIBLE >= 700
  54:/home/irfan/Desktop/arm/gcc-arm-none-eabi-10.3-2021.10-x86_64-linux/gcc-arm-none-eabi-10.3-2021.10/arm-none-eabi/include/strings.h **** int	 ffs(int) __pure2;
 1767              		.loc 14 54 1 view .LVU782
  55:/home/irfan/Desktop/arm/gcc-arm-none-eabi-10.3-2021.10-x86_64-linux/gcc-arm-none-eabi-10.3-2021.10/arm-none-eabi/include/strings.h **** #endif
  56:/home/irfan/Desktop/arm/gcc-arm-none-eabi-10.3-2021.10-x86_64-linux/gcc-arm-none-eabi-10.3-2021.10/arm-none-eabi/include/strings.h **** #if __BSD_VISIBLE
  57:/home/irfan/Desktop/arm/gcc-arm-none-eabi-10.3-2021.10-x86_64-linux/gcc-arm-none-eabi-10.3-2021.10/arm-none-eabi/include/strings.h **** int	 ffsl(long) __pure2;
 1768              		.loc 14 57 1 view .LVU783
  58:/home/irfan/Desktop/arm/gcc-arm-none-eabi-10.3-2021.10-x86_64-linux/gcc-arm-none-eabi-10.3-2021.10/arm-none-eabi/include/strings.h **** int	 ffsll(long long) __pure2;
 1769              		.loc 14 58 1 view .LVU784
ARM GAS  /tmp/ccYgTI9f.s 			page 103


  59:/home/irfan/Desktop/arm/gcc-arm-none-eabi-10.3-2021.10-x86_64-linux/gcc-arm-none-eabi-10.3-2021.10/arm-none-eabi/include/strings.h **** int	 fls(int) __pure2;
 1770              		.loc 14 59 1 view .LVU785
  60:/home/irfan/Desktop/arm/gcc-arm-none-eabi-10.3-2021.10-x86_64-linux/gcc-arm-none-eabi-10.3-2021.10/arm-none-eabi/include/strings.h **** int	 flsl(long) __pure2;
 1771              		.loc 14 60 1 view .LVU786
  61:/home/irfan/Desktop/arm/gcc-arm-none-eabi-10.3-2021.10-x86_64-linux/gcc-arm-none-eabi-10.3-2021.10/arm-none-eabi/include/strings.h **** int	 flsll(long long) __pure2;
 1772              		.loc 14 61 1 view .LVU787
  62:/home/irfan/Desktop/arm/gcc-arm-none-eabi-10.3-2021.10-x86_64-linux/gcc-arm-none-eabi-10.3-2021.10/arm-none-eabi/include/strings.h **** #endif
  63:/home/irfan/Desktop/arm/gcc-arm-none-eabi-10.3-2021.10-x86_64-linux/gcc-arm-none-eabi-10.3-2021.10/arm-none-eabi/include/strings.h **** #if __BSD_VISIBLE || __POSIX_VISIBLE <= 200112
  64:/home/irfan/Desktop/arm/gcc-arm-none-eabi-10.3-2021.10-x86_64-linux/gcc-arm-none-eabi-10.3-2021.10/arm-none-eabi/include/strings.h **** char	*index(const char *, int) __pure;			/* LEGACY */
 1773              		.loc 14 64 1 view .LVU788
  65:/home/irfan/Desktop/arm/gcc-arm-none-eabi-10.3-2021.10-x86_64-linux/gcc-arm-none-eabi-10.3-2021.10/arm-none-eabi/include/strings.h **** char	*rindex(const char *, int) __pure;			/* LEGACY */
 1774              		.loc 14 65 1 view .LVU789
  66:/home/irfan/Desktop/arm/gcc-arm-none-eabi-10.3-2021.10-x86_64-linux/gcc-arm-none-eabi-10.3-2021.10/arm-none-eabi/include/strings.h **** #endif
  67:/home/irfan/Desktop/arm/gcc-arm-none-eabi-10.3-2021.10-x86_64-linux/gcc-arm-none-eabi-10.3-2021.10/arm-none-eabi/include/strings.h **** int	 strcasecmp(const char *, const char *) __pure;
 1775              		.loc 14 67 1 view .LVU790
  68:/home/irfan/Desktop/arm/gcc-arm-none-eabi-10.3-2021.10-x86_64-linux/gcc-arm-none-eabi-10.3-2021.10/arm-none-eabi/include/strings.h **** int	 strncasecmp(const char *, const char *, size_t) __pure;
 1776              		.loc 14 68 1 view .LVU791
  69:/home/irfan/Desktop/arm/gcc-arm-none-eabi-10.3-2021.10-x86_64-linux/gcc-arm-none-eabi-10.3-2021.10/arm-none-eabi/include/strings.h **** 
  70:/home/irfan/Desktop/arm/gcc-arm-none-eabi-10.3-2021.10-x86_64-linux/gcc-arm-none-eabi-10.3-2021.10/arm-none-eabi/include/strings.h **** #if __POSIX_VISIBLE >= 200809
  71:/home/irfan/Desktop/arm/gcc-arm-none-eabi-10.3-2021.10-x86_64-linux/gcc-arm-none-eabi-10.3-2021.10/arm-none-eabi/include/strings.h **** int	 strcasecmp_l (const char *, const char *, locale_t);
 1777              		.loc 14 71 1 view .LVU792
  72:/home/irfan/Desktop/arm/gcc-arm-none-eabi-10.3-2021.10-x86_64-linux/gcc-arm-none-eabi-10.3-2021.10/arm-none-eabi/include/strings.h **** int	 strncasecmp_l (const char *, const char *, size_t, locale_t);
 1778              		.loc 14 72 1 view .LVU793
 1779              		.file 15 "/home/irfan/Desktop/arm/gcc-arm-none-eabi-10.3-2021.10-x86_64-linux/gcc-arm-none-eabi-10
   1:/home/irfan/Desktop/arm/gcc-arm-none-eabi-10.3-2021.10-x86_64-linux/gcc-arm-none-eabi-10.3-2021.10/arm-none-eabi/include/string.h **** /*
   2:/home/irfan/Desktop/arm/gcc-arm-none-eabi-10.3-2021.10-x86_64-linux/gcc-arm-none-eabi-10.3-2021.10/arm-none-eabi/include/string.h ****  * string.h
   3:/home/irfan/Desktop/arm/gcc-arm-none-eabi-10.3-2021.10-x86_64-linux/gcc-arm-none-eabi-10.3-2021.10/arm-none-eabi/include/string.h ****  *
   4:/home/irfan/Desktop/arm/gcc-arm-none-eabi-10.3-2021.10-x86_64-linux/gcc-arm-none-eabi-10.3-2021.10/arm-none-eabi/include/string.h ****  * Definitions for memory and string functions.
   5:/home/irfan/Desktop/arm/gcc-arm-none-eabi-10.3-2021.10-x86_64-linux/gcc-arm-none-eabi-10.3-2021.10/arm-none-eabi/include/string.h ****  */
   6:/home/irfan/Desktop/arm/gcc-arm-none-eabi-10.3-2021.10-x86_64-linux/gcc-arm-none-eabi-10.3-2021.10/arm-none-eabi/include/string.h **** 
   7:/home/irfan/Desktop/arm/gcc-arm-none-eabi-10.3-2021.10-x86_64-linux/gcc-arm-none-eabi-10.3-2021.10/arm-none-eabi/include/string.h **** #ifndef _STRING_H_
   8:/home/irfan/Desktop/arm/gcc-arm-none-eabi-10.3-2021.10-x86_64-linux/gcc-arm-none-eabi-10.3-2021.10/arm-none-eabi/include/string.h **** #define	_STRING_H_
   9:/home/irfan/Desktop/arm/gcc-arm-none-eabi-10.3-2021.10-x86_64-linux/gcc-arm-none-eabi-10.3-2021.10/arm-none-eabi/include/string.h **** 
  10:/home/irfan/Desktop/arm/gcc-arm-none-eabi-10.3-2021.10-x86_64-linux/gcc-arm-none-eabi-10.3-2021.10/arm-none-eabi/include/string.h **** #include "_ansi.h"
  11:/home/irfan/Desktop/arm/gcc-arm-none-eabi-10.3-2021.10-x86_64-linux/gcc-arm-none-eabi-10.3-2021.10/arm-none-eabi/include/string.h **** #include <sys/reent.h>
  12:/home/irfan/Desktop/arm/gcc-arm-none-eabi-10.3-2021.10-x86_64-linux/gcc-arm-none-eabi-10.3-2021.10/arm-none-eabi/include/string.h **** #include <sys/cdefs.h>
  13:/home/irfan/Desktop/arm/gcc-arm-none-eabi-10.3-2021.10-x86_64-linux/gcc-arm-none-eabi-10.3-2021.10/arm-none-eabi/include/string.h **** #include <sys/features.h>
  14:/home/irfan/Desktop/arm/gcc-arm-none-eabi-10.3-2021.10-x86_64-linux/gcc-arm-none-eabi-10.3-2021.10/arm-none-eabi/include/string.h **** 
  15:/home/irfan/Desktop/arm/gcc-arm-none-eabi-10.3-2021.10-x86_64-linux/gcc-arm-none-eabi-10.3-2021.10/arm-none-eabi/include/string.h **** #define __need_size_t
  16:/home/irfan/Desktop/arm/gcc-arm-none-eabi-10.3-2021.10-x86_64-linux/gcc-arm-none-eabi-10.3-2021.10/arm-none-eabi/include/string.h **** #define __need_NULL
  17:/home/irfan/Desktop/arm/gcc-arm-none-eabi-10.3-2021.10-x86_64-linux/gcc-arm-none-eabi-10.3-2021.10/arm-none-eabi/include/string.h **** #include <stddef.h>
  18:/home/irfan/Desktop/arm/gcc-arm-none-eabi-10.3-2021.10-x86_64-linux/gcc-arm-none-eabi-10.3-2021.10/arm-none-eabi/include/string.h **** 
  19:/home/irfan/Desktop/arm/gcc-arm-none-eabi-10.3-2021.10-x86_64-linux/gcc-arm-none-eabi-10.3-2021.10/arm-none-eabi/include/string.h **** #if __POSIX_VISIBLE >= 200809
  20:/home/irfan/Desktop/arm/gcc-arm-none-eabi-10.3-2021.10-x86_64-linux/gcc-arm-none-eabi-10.3-2021.10/arm-none-eabi/include/string.h **** #include <sys/_locale.h>
  21:/home/irfan/Desktop/arm/gcc-arm-none-eabi-10.3-2021.10-x86_64-linux/gcc-arm-none-eabi-10.3-2021.10/arm-none-eabi/include/string.h **** #endif
  22:/home/irfan/Desktop/arm/gcc-arm-none-eabi-10.3-2021.10-x86_64-linux/gcc-arm-none-eabi-10.3-2021.10/arm-none-eabi/include/string.h **** 
  23:/home/irfan/Desktop/arm/gcc-arm-none-eabi-10.3-2021.10-x86_64-linux/gcc-arm-none-eabi-10.3-2021.10/arm-none-eabi/include/string.h **** #if __BSD_VISIBLE
  24:/home/irfan/Desktop/arm/gcc-arm-none-eabi-10.3-2021.10-x86_64-linux/gcc-arm-none-eabi-10.3-2021.10/arm-none-eabi/include/string.h **** #include <strings.h>
  25:/home/irfan/Desktop/arm/gcc-arm-none-eabi-10.3-2021.10-x86_64-linux/gcc-arm-none-eabi-10.3-2021.10/arm-none-eabi/include/string.h **** #endif
  26:/home/irfan/Desktop/arm/gcc-arm-none-eabi-10.3-2021.10-x86_64-linux/gcc-arm-none-eabi-10.3-2021.10/arm-none-eabi/include/string.h **** 
  27:/home/irfan/Desktop/arm/gcc-arm-none-eabi-10.3-2021.10-x86_64-linux/gcc-arm-none-eabi-10.3-2021.10/arm-none-eabi/include/string.h **** _BEGIN_STD_C
  28:/home/irfan/Desktop/arm/gcc-arm-none-eabi-10.3-2021.10-x86_64-linux/gcc-arm-none-eabi-10.3-2021.10/arm-none-eabi/include/string.h **** 
  29:/home/irfan/Desktop/arm/gcc-arm-none-eabi-10.3-2021.10-x86_64-linux/gcc-arm-none-eabi-10.3-2021.10/arm-none-eabi/include/string.h **** void *	 memchr (const void *, int, size_t);
 1780              		.loc 15 29 1 view .LVU794
  30:/home/irfan/Desktop/arm/gcc-arm-none-eabi-10.3-2021.10-x86_64-linux/gcc-arm-none-eabi-10.3-2021.10/arm-none-eabi/include/string.h **** int 	 memcmp (const void *, const void *, size_t);
 1781              		.loc 15 30 1 view .LVU795
  31:/home/irfan/Desktop/arm/gcc-arm-none-eabi-10.3-2021.10-x86_64-linux/gcc-arm-none-eabi-10.3-2021.10/arm-none-eabi/include/string.h **** void *	 memcpy (void *__restrict, const void *__restrict, size_t);
ARM GAS  /tmp/ccYgTI9f.s 			page 104


 1782              		.loc 15 31 1 view .LVU796
  32:/home/irfan/Desktop/arm/gcc-arm-none-eabi-10.3-2021.10-x86_64-linux/gcc-arm-none-eabi-10.3-2021.10/arm-none-eabi/include/string.h **** void *	 memmove (void *, const void *, size_t);
 1783              		.loc 15 32 1 view .LVU797
  33:/home/irfan/Desktop/arm/gcc-arm-none-eabi-10.3-2021.10-x86_64-linux/gcc-arm-none-eabi-10.3-2021.10/arm-none-eabi/include/string.h **** void *	 memset (void *, int, size_t);
 1784              		.loc 15 33 1 view .LVU798
  34:/home/irfan/Desktop/arm/gcc-arm-none-eabi-10.3-2021.10-x86_64-linux/gcc-arm-none-eabi-10.3-2021.10/arm-none-eabi/include/string.h **** char 	*strcat (char *__restrict, const char *__restrict);
 1785              		.loc 15 34 1 view .LVU799
  35:/home/irfan/Desktop/arm/gcc-arm-none-eabi-10.3-2021.10-x86_64-linux/gcc-arm-none-eabi-10.3-2021.10/arm-none-eabi/include/string.h **** char 	*strchr (const char *, int);
 1786              		.loc 15 35 1 view .LVU800
  36:/home/irfan/Desktop/arm/gcc-arm-none-eabi-10.3-2021.10-x86_64-linux/gcc-arm-none-eabi-10.3-2021.10/arm-none-eabi/include/string.h **** int	 strcmp (const char *, const char *);
 1787              		.loc 15 36 1 view .LVU801
  37:/home/irfan/Desktop/arm/gcc-arm-none-eabi-10.3-2021.10-x86_64-linux/gcc-arm-none-eabi-10.3-2021.10/arm-none-eabi/include/string.h **** int	 strcoll (const char *, const char *);
 1788              		.loc 15 37 1 view .LVU802
  38:/home/irfan/Desktop/arm/gcc-arm-none-eabi-10.3-2021.10-x86_64-linux/gcc-arm-none-eabi-10.3-2021.10/arm-none-eabi/include/string.h **** char 	*strcpy (char *__restrict, const char *__restrict);
 1789              		.loc 15 38 1 view .LVU803
  39:/home/irfan/Desktop/arm/gcc-arm-none-eabi-10.3-2021.10-x86_64-linux/gcc-arm-none-eabi-10.3-2021.10/arm-none-eabi/include/string.h **** size_t	 strcspn (const char *, const char *);
 1790              		.loc 15 39 1 view .LVU804
  40:/home/irfan/Desktop/arm/gcc-arm-none-eabi-10.3-2021.10-x86_64-linux/gcc-arm-none-eabi-10.3-2021.10/arm-none-eabi/include/string.h **** char 	*strerror (int);
 1791              		.loc 15 40 1 view .LVU805
  41:/home/irfan/Desktop/arm/gcc-arm-none-eabi-10.3-2021.10-x86_64-linux/gcc-arm-none-eabi-10.3-2021.10/arm-none-eabi/include/string.h **** size_t	 strlen (const char *);
 1792              		.loc 15 41 1 view .LVU806
  42:/home/irfan/Desktop/arm/gcc-arm-none-eabi-10.3-2021.10-x86_64-linux/gcc-arm-none-eabi-10.3-2021.10/arm-none-eabi/include/string.h **** char 	*strncat (char *__restrict, const char *__restrict, size_t);
 1793              		.loc 15 42 1 view .LVU807
  43:/home/irfan/Desktop/arm/gcc-arm-none-eabi-10.3-2021.10-x86_64-linux/gcc-arm-none-eabi-10.3-2021.10/arm-none-eabi/include/string.h **** int	 strncmp (const char *, const char *, size_t);
 1794              		.loc 15 43 1 view .LVU808
  44:/home/irfan/Desktop/arm/gcc-arm-none-eabi-10.3-2021.10-x86_64-linux/gcc-arm-none-eabi-10.3-2021.10/arm-none-eabi/include/string.h **** char 	*strncpy (char *__restrict, const char *__restrict, size_t);
 1795              		.loc 15 44 1 view .LVU809
  45:/home/irfan/Desktop/arm/gcc-arm-none-eabi-10.3-2021.10-x86_64-linux/gcc-arm-none-eabi-10.3-2021.10/arm-none-eabi/include/string.h **** char 	*strpbrk (const char *, const char *);
 1796              		.loc 15 45 1 view .LVU810
  46:/home/irfan/Desktop/arm/gcc-arm-none-eabi-10.3-2021.10-x86_64-linux/gcc-arm-none-eabi-10.3-2021.10/arm-none-eabi/include/string.h **** char 	*strrchr (const char *, int);
 1797              		.loc 15 46 1 view .LVU811
  47:/home/irfan/Desktop/arm/gcc-arm-none-eabi-10.3-2021.10-x86_64-linux/gcc-arm-none-eabi-10.3-2021.10/arm-none-eabi/include/string.h **** size_t	 strspn (const char *, const char *);
 1798              		.loc 15 47 1 view .LVU812
  48:/home/irfan/Desktop/arm/gcc-arm-none-eabi-10.3-2021.10-x86_64-linux/gcc-arm-none-eabi-10.3-2021.10/arm-none-eabi/include/string.h **** char 	*strstr (const char *, const char *);
 1799              		.loc 15 48 1 view .LVU813
  49:/home/irfan/Desktop/arm/gcc-arm-none-eabi-10.3-2021.10-x86_64-linux/gcc-arm-none-eabi-10.3-2021.10/arm-none-eabi/include/string.h **** #ifndef _REENT_ONLY
  50:/home/irfan/Desktop/arm/gcc-arm-none-eabi-10.3-2021.10-x86_64-linux/gcc-arm-none-eabi-10.3-2021.10/arm-none-eabi/include/string.h **** char 	*strtok (char *__restrict, const char *__restrict);
 1800              		.loc 15 50 1 view .LVU814
  51:/home/irfan/Desktop/arm/gcc-arm-none-eabi-10.3-2021.10-x86_64-linux/gcc-arm-none-eabi-10.3-2021.10/arm-none-eabi/include/string.h **** #endif
  52:/home/irfan/Desktop/arm/gcc-arm-none-eabi-10.3-2021.10-x86_64-linux/gcc-arm-none-eabi-10.3-2021.10/arm-none-eabi/include/string.h **** size_t	 strxfrm (char *__restrict, const char *__restrict, size_t);
 1801              		.loc 15 52 1 view .LVU815
  53:/home/irfan/Desktop/arm/gcc-arm-none-eabi-10.3-2021.10-x86_64-linux/gcc-arm-none-eabi-10.3-2021.10/arm-none-eabi/include/string.h **** 
  54:/home/irfan/Desktop/arm/gcc-arm-none-eabi-10.3-2021.10-x86_64-linux/gcc-arm-none-eabi-10.3-2021.10/arm-none-eabi/include/string.h **** #if __POSIX_VISIBLE >= 200809
  55:/home/irfan/Desktop/arm/gcc-arm-none-eabi-10.3-2021.10-x86_64-linux/gcc-arm-none-eabi-10.3-2021.10/arm-none-eabi/include/string.h **** int	 strcoll_l (const char *, const char *, locale_t);
 1802              		.loc 15 55 1 view .LVU816
  56:/home/irfan/Desktop/arm/gcc-arm-none-eabi-10.3-2021.10-x86_64-linux/gcc-arm-none-eabi-10.3-2021.10/arm-none-eabi/include/string.h **** char	*strerror_l (int, locale_t);
 1803              		.loc 15 56 1 view .LVU817
  57:/home/irfan/Desktop/arm/gcc-arm-none-eabi-10.3-2021.10-x86_64-linux/gcc-arm-none-eabi-10.3-2021.10/arm-none-eabi/include/string.h **** size_t	 strxfrm_l (char *__restrict, const char *__restrict, size_t, locale_t);
 1804              		.loc 15 57 1 view .LVU818
  58:/home/irfan/Desktop/arm/gcc-arm-none-eabi-10.3-2021.10-x86_64-linux/gcc-arm-none-eabi-10.3-2021.10/arm-none-eabi/include/string.h **** #endif
  59:/home/irfan/Desktop/arm/gcc-arm-none-eabi-10.3-2021.10-x86_64-linux/gcc-arm-none-eabi-10.3-2021.10/arm-none-eabi/include/string.h **** #if __MISC_VISIBLE || __POSIX_VISIBLE
  60:/home/irfan/Desktop/arm/gcc-arm-none-eabi-10.3-2021.10-x86_64-linux/gcc-arm-none-eabi-10.3-2021.10/arm-none-eabi/include/string.h **** char 	*strtok_r (char *__restrict, const char *__restrict, char **__restrict);
 1805              		.loc 15 60 1 view .LVU819
  61:/home/irfan/Desktop/arm/gcc-arm-none-eabi-10.3-2021.10-x86_64-linux/gcc-arm-none-eabi-10.3-2021.10/arm-none-eabi/include/string.h **** #endif
  62:/home/irfan/Desktop/arm/gcc-arm-none-eabi-10.3-2021.10-x86_64-linux/gcc-arm-none-eabi-10.3-2021.10/arm-none-eabi/include/string.h **** #if __BSD_VISIBLE
  63:/home/irfan/Desktop/arm/gcc-arm-none-eabi-10.3-2021.10-x86_64-linux/gcc-arm-none-eabi-10.3-2021.10/arm-none-eabi/include/string.h **** int	 timingsafe_bcmp (const void *, const void *, size_t);
 1806              		.loc 15 63 1 view .LVU820
ARM GAS  /tmp/ccYgTI9f.s 			page 105


  64:/home/irfan/Desktop/arm/gcc-arm-none-eabi-10.3-2021.10-x86_64-linux/gcc-arm-none-eabi-10.3-2021.10/arm-none-eabi/include/string.h **** int	 timingsafe_memcmp (const void *, const void *, size_t);
 1807              		.loc 15 64 1 view .LVU821
  65:/home/irfan/Desktop/arm/gcc-arm-none-eabi-10.3-2021.10-x86_64-linux/gcc-arm-none-eabi-10.3-2021.10/arm-none-eabi/include/string.h **** #endif
  66:/home/irfan/Desktop/arm/gcc-arm-none-eabi-10.3-2021.10-x86_64-linux/gcc-arm-none-eabi-10.3-2021.10/arm-none-eabi/include/string.h **** #if __MISC_VISIBLE || __POSIX_VISIBLE
  67:/home/irfan/Desktop/arm/gcc-arm-none-eabi-10.3-2021.10-x86_64-linux/gcc-arm-none-eabi-10.3-2021.10/arm-none-eabi/include/string.h **** void *	 memccpy (void *__restrict, const void *__restrict, int, size_t);
 1808              		.loc 15 67 1 view .LVU822
  68:/home/irfan/Desktop/arm/gcc-arm-none-eabi-10.3-2021.10-x86_64-linux/gcc-arm-none-eabi-10.3-2021.10/arm-none-eabi/include/string.h **** #endif
  69:/home/irfan/Desktop/arm/gcc-arm-none-eabi-10.3-2021.10-x86_64-linux/gcc-arm-none-eabi-10.3-2021.10/arm-none-eabi/include/string.h **** #if __GNU_VISIBLE
  70:/home/irfan/Desktop/arm/gcc-arm-none-eabi-10.3-2021.10-x86_64-linux/gcc-arm-none-eabi-10.3-2021.10/arm-none-eabi/include/string.h **** void *	 mempcpy (void *, const void *, size_t);
  71:/home/irfan/Desktop/arm/gcc-arm-none-eabi-10.3-2021.10-x86_64-linux/gcc-arm-none-eabi-10.3-2021.10/arm-none-eabi/include/string.h **** void *	 memmem (const void *, size_t, const void *, size_t);
  72:/home/irfan/Desktop/arm/gcc-arm-none-eabi-10.3-2021.10-x86_64-linux/gcc-arm-none-eabi-10.3-2021.10/arm-none-eabi/include/string.h **** void *	 memrchr (const void *, int, size_t);
  73:/home/irfan/Desktop/arm/gcc-arm-none-eabi-10.3-2021.10-x86_64-linux/gcc-arm-none-eabi-10.3-2021.10/arm-none-eabi/include/string.h **** void *	 rawmemchr (const void *, int);
  74:/home/irfan/Desktop/arm/gcc-arm-none-eabi-10.3-2021.10-x86_64-linux/gcc-arm-none-eabi-10.3-2021.10/arm-none-eabi/include/string.h **** #endif
  75:/home/irfan/Desktop/arm/gcc-arm-none-eabi-10.3-2021.10-x86_64-linux/gcc-arm-none-eabi-10.3-2021.10/arm-none-eabi/include/string.h **** #if __POSIX_VISIBLE >= 200809
  76:/home/irfan/Desktop/arm/gcc-arm-none-eabi-10.3-2021.10-x86_64-linux/gcc-arm-none-eabi-10.3-2021.10/arm-none-eabi/include/string.h **** char 	*stpcpy (char *__restrict, const char *__restrict);
 1809              		.loc 15 76 1 view .LVU823
  77:/home/irfan/Desktop/arm/gcc-arm-none-eabi-10.3-2021.10-x86_64-linux/gcc-arm-none-eabi-10.3-2021.10/arm-none-eabi/include/string.h **** char 	*stpncpy (char *__restrict, const char *__restrict, size_t);
 1810              		.loc 15 77 1 view .LVU824
  78:/home/irfan/Desktop/arm/gcc-arm-none-eabi-10.3-2021.10-x86_64-linux/gcc-arm-none-eabi-10.3-2021.10/arm-none-eabi/include/string.h **** #endif
  79:/home/irfan/Desktop/arm/gcc-arm-none-eabi-10.3-2021.10-x86_64-linux/gcc-arm-none-eabi-10.3-2021.10/arm-none-eabi/include/string.h **** #if __GNU_VISIBLE
  80:/home/irfan/Desktop/arm/gcc-arm-none-eabi-10.3-2021.10-x86_64-linux/gcc-arm-none-eabi-10.3-2021.10/arm-none-eabi/include/string.h **** char	*strcasestr (const char *, const char *);
  81:/home/irfan/Desktop/arm/gcc-arm-none-eabi-10.3-2021.10-x86_64-linux/gcc-arm-none-eabi-10.3-2021.10/arm-none-eabi/include/string.h **** char 	*strchrnul (const char *, int);
  82:/home/irfan/Desktop/arm/gcc-arm-none-eabi-10.3-2021.10-x86_64-linux/gcc-arm-none-eabi-10.3-2021.10/arm-none-eabi/include/string.h **** #endif
  83:/home/irfan/Desktop/arm/gcc-arm-none-eabi-10.3-2021.10-x86_64-linux/gcc-arm-none-eabi-10.3-2021.10/arm-none-eabi/include/string.h **** #if __MISC_VISIBLE || __POSIX_VISIBLE >= 200809 || __XSI_VISIBLE >= 4
  84:/home/irfan/Desktop/arm/gcc-arm-none-eabi-10.3-2021.10-x86_64-linux/gcc-arm-none-eabi-10.3-2021.10/arm-none-eabi/include/string.h **** char 	*strdup (const char *) __malloc_like __result_use_check;
 1811              		.loc 15 84 1 view .LVU825
  85:/home/irfan/Desktop/arm/gcc-arm-none-eabi-10.3-2021.10-x86_64-linux/gcc-arm-none-eabi-10.3-2021.10/arm-none-eabi/include/string.h **** #endif
  86:/home/irfan/Desktop/arm/gcc-arm-none-eabi-10.3-2021.10-x86_64-linux/gcc-arm-none-eabi-10.3-2021.10/arm-none-eabi/include/string.h **** char 	*_strdup_r (struct _reent *, const char *);
 1812              		.loc 15 86 1 view .LVU826
  87:/home/irfan/Desktop/arm/gcc-arm-none-eabi-10.3-2021.10-x86_64-linux/gcc-arm-none-eabi-10.3-2021.10/arm-none-eabi/include/string.h **** #if __POSIX_VISIBLE >= 200809
  88:/home/irfan/Desktop/arm/gcc-arm-none-eabi-10.3-2021.10-x86_64-linux/gcc-arm-none-eabi-10.3-2021.10/arm-none-eabi/include/string.h **** char 	*strndup (const char *, size_t) __malloc_like __result_use_check;
 1813              		.loc 15 88 1 view .LVU827
  89:/home/irfan/Desktop/arm/gcc-arm-none-eabi-10.3-2021.10-x86_64-linux/gcc-arm-none-eabi-10.3-2021.10/arm-none-eabi/include/string.h **** #endif
  90:/home/irfan/Desktop/arm/gcc-arm-none-eabi-10.3-2021.10-x86_64-linux/gcc-arm-none-eabi-10.3-2021.10/arm-none-eabi/include/string.h **** char 	*_strndup_r (struct _reent *, const char *, size_t);
 1814              		.loc 15 90 1 view .LVU828
  91:/home/irfan/Desktop/arm/gcc-arm-none-eabi-10.3-2021.10-x86_64-linux/gcc-arm-none-eabi-10.3-2021.10/arm-none-eabi/include/string.h **** 
  92:/home/irfan/Desktop/arm/gcc-arm-none-eabi-10.3-2021.10-x86_64-linux/gcc-arm-none-eabi-10.3-2021.10/arm-none-eabi/include/string.h **** /* There are two common strerror_r variants.  If you request
  93:/home/irfan/Desktop/arm/gcc-arm-none-eabi-10.3-2021.10-x86_64-linux/gcc-arm-none-eabi-10.3-2021.10/arm-none-eabi/include/string.h ****    _GNU_SOURCE, you get the GNU version; otherwise you get the POSIX
  94:/home/irfan/Desktop/arm/gcc-arm-none-eabi-10.3-2021.10-x86_64-linux/gcc-arm-none-eabi-10.3-2021.10/arm-none-eabi/include/string.h ****    version.  POSIX requires that #undef strerror_r will still let you
  95:/home/irfan/Desktop/arm/gcc-arm-none-eabi-10.3-2021.10-x86_64-linux/gcc-arm-none-eabi-10.3-2021.10/arm-none-eabi/include/string.h ****    invoke the underlying function, but that requires gcc support.  */
  96:/home/irfan/Desktop/arm/gcc-arm-none-eabi-10.3-2021.10-x86_64-linux/gcc-arm-none-eabi-10.3-2021.10/arm-none-eabi/include/string.h **** #if __GNU_VISIBLE
  97:/home/irfan/Desktop/arm/gcc-arm-none-eabi-10.3-2021.10-x86_64-linux/gcc-arm-none-eabi-10.3-2021.10/arm-none-eabi/include/string.h **** char	*strerror_r (int, char *, size_t);
  98:/home/irfan/Desktop/arm/gcc-arm-none-eabi-10.3-2021.10-x86_64-linux/gcc-arm-none-eabi-10.3-2021.10/arm-none-eabi/include/string.h **** #elif __POSIX_VISIBLE >= 200112
  99:/home/irfan/Desktop/arm/gcc-arm-none-eabi-10.3-2021.10-x86_64-linux/gcc-arm-none-eabi-10.3-2021.10/arm-none-eabi/include/string.h **** # ifdef __GNUC__
 100:/home/irfan/Desktop/arm/gcc-arm-none-eabi-10.3-2021.10-x86_64-linux/gcc-arm-none-eabi-10.3-2021.10/arm-none-eabi/include/string.h **** int	strerror_r (int, char *, size_t)
 1815              		.loc 15 100 1 view .LVU829
 101:/home/irfan/Desktop/arm/gcc-arm-none-eabi-10.3-2021.10-x86_64-linux/gcc-arm-none-eabi-10.3-2021.10/arm-none-eabi/include/string.h **** #ifdef __ASMNAME
 102:/home/irfan/Desktop/arm/gcc-arm-none-eabi-10.3-2021.10-x86_64-linux/gcc-arm-none-eabi-10.3-2021.10/arm-none-eabi/include/string.h ****              __asm__ (__ASMNAME ("__xpg_strerror_r"))
 103:/home/irfan/Desktop/arm/gcc-arm-none-eabi-10.3-2021.10-x86_64-linux/gcc-arm-none-eabi-10.3-2021.10/arm-none-eabi/include/string.h **** #endif
 104:/home/irfan/Desktop/arm/gcc-arm-none-eabi-10.3-2021.10-x86_64-linux/gcc-arm-none-eabi-10.3-2021.10/arm-none-eabi/include/string.h ****   ;
 105:/home/irfan/Desktop/arm/gcc-arm-none-eabi-10.3-2021.10-x86_64-linux/gcc-arm-none-eabi-10.3-2021.10/arm-none-eabi/include/string.h **** # else
 106:/home/irfan/Desktop/arm/gcc-arm-none-eabi-10.3-2021.10-x86_64-linux/gcc-arm-none-eabi-10.3-2021.10/arm-none-eabi/include/string.h **** int	__xpg_strerror_r (int, char *, size_t);
 107:/home/irfan/Desktop/arm/gcc-arm-none-eabi-10.3-2021.10-x86_64-linux/gcc-arm-none-eabi-10.3-2021.10/arm-none-eabi/include/string.h **** #  define strerror_r __xpg_strerror_r
 108:/home/irfan/Desktop/arm/gcc-arm-none-eabi-10.3-2021.10-x86_64-linux/gcc-arm-none-eabi-10.3-2021.10/arm-none-eabi/include/string.h **** # endif
 109:/home/irfan/Desktop/arm/gcc-arm-none-eabi-10.3-2021.10-x86_64-linux/gcc-arm-none-eabi-10.3-2021.10/arm-none-eabi/include/string.h **** #endif
 110:/home/irfan/Desktop/arm/gcc-arm-none-eabi-10.3-2021.10-x86_64-linux/gcc-arm-none-eabi-10.3-2021.10/arm-none-eabi/include/string.h **** 
 111:/home/irfan/Desktop/arm/gcc-arm-none-eabi-10.3-2021.10-x86_64-linux/gcc-arm-none-eabi-10.3-2021.10/arm-none-eabi/include/string.h **** /* Reentrant version of strerror.  */
ARM GAS  /tmp/ccYgTI9f.s 			page 106


 112:/home/irfan/Desktop/arm/gcc-arm-none-eabi-10.3-2021.10-x86_64-linux/gcc-arm-none-eabi-10.3-2021.10/arm-none-eabi/include/string.h **** char *	_strerror_r (struct _reent *, int, int, int *);
 1816              		.loc 15 112 1 view .LVU830
 113:/home/irfan/Desktop/arm/gcc-arm-none-eabi-10.3-2021.10-x86_64-linux/gcc-arm-none-eabi-10.3-2021.10/arm-none-eabi/include/string.h **** 
 114:/home/irfan/Desktop/arm/gcc-arm-none-eabi-10.3-2021.10-x86_64-linux/gcc-arm-none-eabi-10.3-2021.10/arm-none-eabi/include/string.h **** #if __BSD_VISIBLE
 115:/home/irfan/Desktop/arm/gcc-arm-none-eabi-10.3-2021.10-x86_64-linux/gcc-arm-none-eabi-10.3-2021.10/arm-none-eabi/include/string.h **** size_t	strlcat (char *, const char *, size_t);
 1817              		.loc 15 115 1 view .LVU831
 116:/home/irfan/Desktop/arm/gcc-arm-none-eabi-10.3-2021.10-x86_64-linux/gcc-arm-none-eabi-10.3-2021.10/arm-none-eabi/include/string.h **** size_t	strlcpy (char *, const char *, size_t);
 1818              		.loc 15 116 1 view .LVU832
 117:/home/irfan/Desktop/arm/gcc-arm-none-eabi-10.3-2021.10-x86_64-linux/gcc-arm-none-eabi-10.3-2021.10/arm-none-eabi/include/string.h **** #endif
 118:/home/irfan/Desktop/arm/gcc-arm-none-eabi-10.3-2021.10-x86_64-linux/gcc-arm-none-eabi-10.3-2021.10/arm-none-eabi/include/string.h **** #if __POSIX_VISIBLE >= 200809
 119:/home/irfan/Desktop/arm/gcc-arm-none-eabi-10.3-2021.10-x86_64-linux/gcc-arm-none-eabi-10.3-2021.10/arm-none-eabi/include/string.h **** size_t	 strnlen (const char *, size_t);
 1819              		.loc 15 119 1 view .LVU833
 120:/home/irfan/Desktop/arm/gcc-arm-none-eabi-10.3-2021.10-x86_64-linux/gcc-arm-none-eabi-10.3-2021.10/arm-none-eabi/include/string.h **** #endif
 121:/home/irfan/Desktop/arm/gcc-arm-none-eabi-10.3-2021.10-x86_64-linux/gcc-arm-none-eabi-10.3-2021.10/arm-none-eabi/include/string.h **** #if __BSD_VISIBLE
 122:/home/irfan/Desktop/arm/gcc-arm-none-eabi-10.3-2021.10-x86_64-linux/gcc-arm-none-eabi-10.3-2021.10/arm-none-eabi/include/string.h **** char 	*strsep (char **, const char *);
 1820              		.loc 15 122 1 view .LVU834
 123:/home/irfan/Desktop/arm/gcc-arm-none-eabi-10.3-2021.10-x86_64-linux/gcc-arm-none-eabi-10.3-2021.10/arm-none-eabi/include/string.h **** #endif
 124:/home/irfan/Desktop/arm/gcc-arm-none-eabi-10.3-2021.10-x86_64-linux/gcc-arm-none-eabi-10.3-2021.10/arm-none-eabi/include/string.h **** #if __BSD_VISIBLE
 125:/home/irfan/Desktop/arm/gcc-arm-none-eabi-10.3-2021.10-x86_64-linux/gcc-arm-none-eabi-10.3-2021.10/arm-none-eabi/include/string.h **** char    *strnstr(const char *, const char *, size_t) __pure;
 1821              		.loc 15 125 1 view .LVU835
 126:/home/irfan/Desktop/arm/gcc-arm-none-eabi-10.3-2021.10-x86_64-linux/gcc-arm-none-eabi-10.3-2021.10/arm-none-eabi/include/string.h **** #endif
 127:/home/irfan/Desktop/arm/gcc-arm-none-eabi-10.3-2021.10-x86_64-linux/gcc-arm-none-eabi-10.3-2021.10/arm-none-eabi/include/string.h **** 
 128:/home/irfan/Desktop/arm/gcc-arm-none-eabi-10.3-2021.10-x86_64-linux/gcc-arm-none-eabi-10.3-2021.10/arm-none-eabi/include/string.h **** #if __MISC_VISIBLE
 129:/home/irfan/Desktop/arm/gcc-arm-none-eabi-10.3-2021.10-x86_64-linux/gcc-arm-none-eabi-10.3-2021.10/arm-none-eabi/include/string.h **** char	*strlwr (char *);
 1822              		.loc 15 129 1 view .LVU836
 130:/home/irfan/Desktop/arm/gcc-arm-none-eabi-10.3-2021.10-x86_64-linux/gcc-arm-none-eabi-10.3-2021.10/arm-none-eabi/include/string.h **** char	*strupr (char *);
 1823              		.loc 15 130 1 view .LVU837
 131:/home/irfan/Desktop/arm/gcc-arm-none-eabi-10.3-2021.10-x86_64-linux/gcc-arm-none-eabi-10.3-2021.10/arm-none-eabi/include/string.h **** #endif
 132:/home/irfan/Desktop/arm/gcc-arm-none-eabi-10.3-2021.10-x86_64-linux/gcc-arm-none-eabi-10.3-2021.10/arm-none-eabi/include/string.h **** 
 133:/home/irfan/Desktop/arm/gcc-arm-none-eabi-10.3-2021.10-x86_64-linux/gcc-arm-none-eabi-10.3-2021.10/arm-none-eabi/include/string.h **** #ifndef DEFS_H	/* Kludge to work around problem compiling in gdb */
 134:/home/irfan/Desktop/arm/gcc-arm-none-eabi-10.3-2021.10-x86_64-linux/gcc-arm-none-eabi-10.3-2021.10/arm-none-eabi/include/string.h **** char	*strsignal (int __signo);
 1824              		.loc 15 134 1 view .LVU838
 161:Core/Src/main.c ****     BSP_LCD_Init();
 1825              		.loc 1 161 5 view .LVU839
 1826 03da FFF7FEFF 		bl	BSP_SDRAM_Init
 1827              	.LVL31:
 162:Core/Src/main.c ****     //BSP_LCD_LayerDefaultInit(LCD_BACKGROUND_LAYER,LCD_FRAME_BUFFER);
 1828              		.loc 1 162 5 view .LVU840
 1829 03de FFF7FEFF 		bl	BSP_LCD_Init
 1830              	.LVL32:
 164:Core/Src/main.c ****     BSP_LCD_SelectLayer(LCD_FOREGROUND_LAYER);
 1831              		.loc 1 164 5 view .LVU841
 1832 03e2 4FF05041 		mov	r1, #-805306368
 1833 03e6 0120     		movs	r0, #1
 1834 03e8 FFF7FEFF 		bl	BSP_LCD_LayerDefaultInit
 1835              	.LVL33:
 165:Core/Src/main.c ****     BSP_LCD_DisplayOn();
 1836              		.loc 1 165 5 view .LVU842
 1837 03ec 0120     		movs	r0, #1
 1838 03ee FFF7FEFF 		bl	BSP_LCD_SelectLayer
 1839              	.LVL34:
 166:Core/Src/main.c **** 
 1840              		.loc 1 166 5 view .LVU843
 1841 03f2 FFF7FEFF 		bl	BSP_LCD_DisplayOn
 1842              	.LVL35:
 168:Core/Src/main.c ****     char pData[15];
 1843              		.loc 1 168 5 view .LVU844
ARM GAS  /tmp/ccYgTI9f.s 			page 107


 1844 03f6 4FF4FA70 		mov	r0, #500
 1845 03fa FFF7FEFF 		bl	HAL_Delay
 1846              	.LVL36:
 169:Core/Src/main.c ****     memset(pData,0,15);
 1847              		.loc 1 169 5 view .LVU845
 170:Core/Src/main.c ****     strcpy(pData,(char*)" Hello from ");
 1848              		.loc 1 170 5 view .LVU846
 171:Core/Src/main.c ****     int cx =100, count = 0;
 1849              		.loc 1 171 5 is_stmt 0 view .LVU847
 1850 03fe 2B4B     		ldr	r3, .L49+24
 170:Core/Src/main.c ****     strcpy(pData,(char*)" Hello from ");
 1851              		.loc 1 170 5 view .LVU848
 1852 0400 ADF83940 		strh	r4, [sp, #57]	@ unaligned
 171:Core/Src/main.c ****     int cx =100, count = 0;
 1853              		.loc 1 171 5 is_stmt 1 view .LVU849
 1854 0404 0FCB     		ldm	r3, {r0, r1, r2, r3}
 1855 0406 0BAD     		add	r5, sp, #44
 1856 0408 07C5     		stmia	r5!, {r0, r1, r2}
 194:Core/Src/main.c ****     			BSP_LCD_ClearStringLine(1);
 1857              		.loc 1 194 8 is_stmt 0 view .LVU850
 1858 040a 294F     		ldr	r7, .L49+28
 198:Core/Src/main.c ****     			BSP_LCD_SetTextColor(LCD_COLOR_RED);
 1859              		.loc 1 198 8 view .LVU851
 1860 040c DFF8A880 		ldr	r8, .L49+36
 199:Core/Src/main.c ****     			BSP_LCD_DrawCircle(cx, 140, 25);
 1861              		.loc 1 199 8 view .LVU852
 1862 0410 284E     		ldr	r6, .L49+32
 171:Core/Src/main.c ****     int cx =100, count = 0;
 1863              		.loc 1 171 5 view .LVU853
 1864 0412 2B70     		strb	r3, [r5]
 172:Core/Src/main.c ****     while (1)
 1865              		.loc 1 172 5 is_stmt 1 view .LVU854
 1866              	.LVL37:
 172:Core/Src/main.c ****     while (1)
 1867              		.loc 1 172 5 is_stmt 0 view .LVU855
 1868 0414 2FE0     		b	.L39
 1869              	.LVL38:
 1870              	.L46:
 178:Core/Src/main.c **** 		BSP_LCD_ClearStringLine(1);
 1871              		.loc 1 178 3 view .LVU856
 1872 0416 FFF7FEFF 		bl	BSP_LCD_Clear
 1873              	.LVL39:
 179:Core/Src/main.c **** 		BSP_LCD_SetTextColor(LCD_COLOR_GREEN);
 1874              		.loc 1 179 3 is_stmt 1 view .LVU857
 1875 041a 0120     		movs	r0, #1
 1876 041c FFF7FEFF 		bl	BSP_LCD_ClearStringLine
 1877              	.LVL40:
 180:Core/Src/main.c **** 		BSP_LCD_DisplayStringAtLine(1,(uint8_t*)pData);
 1878              		.loc 1 180 3 view .LVU858
 1879 0420 4FF0FF20 		mov	r0, #-16711936
 1880 0424 FFF7FEFF 		bl	BSP_LCD_SetTextColor
 1881              	.LVL41:
 181:Core/Src/main.c **** 		//BSP_LCD_DisplayStringAtLine(2,(uint8_t*)"   Irfan!!  ");
 1882              		.loc 1 181 3 view .LVU859
 1883 0428 0BA9     		add	r1, sp, #44
 1884              	.L44:
 198:Core/Src/main.c ****     			BSP_LCD_SetTextColor(LCD_COLOR_RED);
ARM GAS  /tmp/ccYgTI9f.s 			page 108


 1885              		.loc 1 198 8 is_stmt 0 view .LVU860
 1886 042a 0120     		movs	r0, #1
 1887 042c FFF7FEFF 		bl	BSP_LCD_DisplayStringAtLine
 1888              	.LVL42:
 199:Core/Src/main.c ****     			BSP_LCD_DrawCircle(cx, 140, 25);
 1889              		.loc 1 199 8 is_stmt 1 view .LVU861
 1890 0430 3046     		mov	r0, r6
 1891 0432 FFF7FEFF 		bl	BSP_LCD_SetTextColor
 1892              	.LVL43:
 200:Core/Src/main.c ****     			BSP_LCD_SetTextColor(LCD_COLOR_YELLOW);
 1893              		.loc 1 200 8 view .LVU862
 1894 0436 1922     		movs	r2, #25
 1895 0438 8C21     		movs	r1, #140
 1896 043a 6420     		movs	r0, #100
 1897 043c FFF7FEFF 		bl	BSP_LCD_DrawCircle
 1898              	.LVL44:
 201:Core/Src/main.c ****     			BSP_LCD_DrawHLine(40, 200 , 120);
 1899              		.loc 1 201 8 view .LVU863
 1900 0440 6FF0FF00 		mvn	r0, #255
 1901 0444 FFF7FEFF 		bl	BSP_LCD_SetTextColor
 1902              	.LVL45:
 202:Core/Src/main.c ****     			BSP_LCD_DrawHLine(40, 220 , 120);
 1903              		.loc 1 202 8 view .LVU864
 1904 0448 7822     		movs	r2, #120
 1905 044a C821     		movs	r1, #200
 1906 044c 2820     		movs	r0, #40
 1907 044e FFF7FEFF 		bl	BSP_LCD_DrawHLine
 1908              	.LVL46:
 203:Core/Src/main.c ****     			BSP_LCD_DrawHLine(40, 225 , 120);
 1909              		.loc 1 203 8 view .LVU865
 1910 0452 7822     		movs	r2, #120
 1911 0454 DC21     		movs	r1, #220
 1912 0456 2820     		movs	r0, #40
 1913 0458 FFF7FEFF 		bl	BSP_LCD_DrawHLine
 1914              	.LVL47:
 204:Core/Src/main.c ****     			//BSP_LCD_DrawHLine(40, 225 , 120);
 1915              		.loc 1 204 8 view .LVU866
 1916 045c 7822     		movs	r2, #120
 1917 045e E121     		movs	r1, #225
 1918 0460 2820     		movs	r0, #40
 1919 0462 FFF7FEFF 		bl	BSP_LCD_DrawHLine
 1920              	.LVL48:
 208:Core/Src/main.c ****    	count +=1;
 1921              		.loc 1 208 5 view .LVU867
 209:Core/Src/main.c ****    	if(count == 10)	count =0;
 1922              		.loc 1 209 11 is_stmt 0 view .LVU868
 1923 0466 0134     		adds	r4, r4, #1
 1924              	.LVL49:
 208:Core/Src/main.c ****    	count +=1;
 1925              		.loc 1 208 5 view .LVU869
 1926 0468 4FF47A70 		mov	r0, #1000
 1927 046c FFF7FEFF 		bl	HAL_Delay
 1928              	.LVL50:
 209:Core/Src/main.c ****    	if(count == 10)	count =0;
 1929              		.loc 1 209 5 is_stmt 1 view .LVU870
 210:Core/Src/main.c ****    	//BSP_LCD_Clear(LCD_COLOR_WHITE);
 1930              		.loc 1 210 5 view .LVU871
ARM GAS  /tmp/ccYgTI9f.s 			page 109


 210:Core/Src/main.c ****    	//BSP_LCD_Clear(LCD_COLOR_WHITE);
 1931              		.loc 1 210 27 is_stmt 0 view .LVU872
 1932 0470 0A2C     		cmp	r4, #10
 1933 0472 08BF     		it	eq
 1934 0474 0024     		moveq	r4, #0
 1935              	.LVL51:
 1936              	.L39:
 173:Core/Src/main.c ****     {
 1937              		.loc 1 173 5 is_stmt 1 view .LVU873
 175:Core/Src/main.c ****     {
 1938              		.loc 1 175 5 view .LVU874
 178:Core/Src/main.c **** 		BSP_LCD_ClearStringLine(1);
 1939              		.loc 1 178 3 view .LVU875
 194:Core/Src/main.c ****     			BSP_LCD_ClearStringLine(1);
 1940              		.loc 1 194 8 view .LVU876
 175:Core/Src/main.c ****     {
 1941              		.loc 1 175 7 is_stmt 0 view .LVU877
 1942 0476 E307     		lsls	r3, r4, #31
 178:Core/Src/main.c **** 		BSP_LCD_ClearStringLine(1);
 1943              		.loc 1 178 3 view .LVU878
 1944 0478 3846     		mov	r0, r7
 175:Core/Src/main.c ****     {
 1945              		.loc 1 175 7 view .LVU879
 1946 047a CCD5     		bpl	.L46
 194:Core/Src/main.c ****     			BSP_LCD_ClearStringLine(1);
 1947              		.loc 1 194 8 view .LVU880
 1948 047c FFF7FEFF 		bl	BSP_LCD_Clear
 1949              	.LVL52:
 195:Core/Src/main.c ****     			BSP_LCD_SetTextColor(LCD_COLOR_GREEN);
 1950              		.loc 1 195 8 is_stmt 1 view .LVU881
 1951 0480 0120     		movs	r0, #1
 1952 0482 FFF7FEFF 		bl	BSP_LCD_ClearStringLine
 1953              	.LVL53:
 196:Core/Src/main.c ****     			//BSP_LCD_DisplayStringAtLine(1,(uint8_t*)pData);
 1954              		.loc 1 196 8 view .LVU882
 1955 0486 4FF0FF20 		mov	r0, #-16711936
 1956 048a FFF7FEFF 		bl	BSP_LCD_SetTextColor
 1957              	.LVL54:
 198:Core/Src/main.c ****     			BSP_LCD_SetTextColor(LCD_COLOR_RED);
 1958              		.loc 1 198 8 view .LVU883
 1959 048e 4146     		mov	r1, r8
 1960 0490 CBE7     		b	.L44
 1961              	.L50:
 1962 0492 00BF     		.align	2
 1963              	.L49:
 1964 0494 00000000 		.word	.LANCHOR5
 1965 0498 00500140 		.word	1073827840
 1966 049c 00000000 		.word	.LANCHOR6
 1967 04a0 00000140 		.word	1073807360
 1968 04a4 00000000 		.word	.LANCHOR7
 1969 04a8 00100140 		.word	1073811456
 1970 04ac 00000000 		.word	.LC0
 1971 04b0 FF0000FF 		.word	-16776961
 1972 04b4 0000FFFF 		.word	-65536
 1973 04b8 10000000 		.word	.LC1
 1974              		.cfi_endproc
 1975              	.LFE135:
ARM GAS  /tmp/ccYgTI9f.s 			page 110


 1977              		.section	.text.StartDefaultTask,"ax",%progbits
 1978              		.align	1
 1979              		.p2align 2,,3
 1980              		.global	StartDefaultTask
 1981              		.syntax unified
 1982              		.thumb
 1983              		.thumb_func
 1985              	StartDefaultTask:
 1986              	.LVL55:
 1987              	.LFB146:
 695:Core/Src/main.c ****   /* init code for USB_HOST */
 1988              		.loc 1 695 1 view -0
 1989              		.cfi_startproc
 1990              		@ Volatile: function does not return.
 1991              		@ args = 0, pretend = 0, frame = 0
 1992              		@ frame_needed = 0, uses_anonymous_args = 0
 697:Core/Src/main.c ****   /* USER CODE BEGIN 5 */
 1993              		.loc 1 697 3 view .LVU885
 695:Core/Src/main.c ****   /* init code for USB_HOST */
 1994              		.loc 1 695 1 is_stmt 0 view .LVU886
 1995 0000 08B5     		push	{r3, lr}
 1996              	.LCFI5:
 1997              		.cfi_def_cfa_offset 8
 1998              		.cfi_offset 3, -8
 1999              		.cfi_offset 14, -4
 697:Core/Src/main.c ****   /* USER CODE BEGIN 5 */
 2000              		.loc 1 697 3 view .LVU887
 2001 0002 FFF7FEFF 		bl	MX_USB_HOST_Init
 2002              	.LVL56:
 2003              	.L52:
 700:Core/Src/main.c ****   {
 2004              		.loc 1 700 3 is_stmt 1 discriminator 1 view .LVU888
 702:Core/Src/main.c ****   }
 2005              		.loc 1 702 5 discriminator 1 view .LVU889
 2006 0006 0120     		movs	r0, #1
 2007 0008 FFF7FEFF 		bl	osDelay
 2008              	.LVL57:
 700:Core/Src/main.c ****   {
 2009              		.loc 1 700 8 discriminator 1 view .LVU890
 2010 000c FBE7     		b	.L52
 2011              		.cfi_endproc
 2012              	.LFE146:
 2014 000e 00BF     		.section	.text.HAL_TIM_PeriodElapsedCallback,"ax",%progbits
 2015              		.align	1
 2016              		.p2align 2,,3
 2017              		.global	HAL_TIM_PeriodElapsedCallback
 2018              		.syntax unified
 2019              		.thumb
 2020              		.thumb_func
 2022              	HAL_TIM_PeriodElapsedCallback:
 2023              	.LVL58:
 2024              	.LFB147:
 716:Core/Src/main.c ****   /* USER CODE BEGIN Callback 0 */
 2025              		.loc 1 716 1 view -0
 2026              		.cfi_startproc
 2027              		@ args = 0, pretend = 0, frame = 0
 2028              		@ frame_needed = 0, uses_anonymous_args = 0
ARM GAS  /tmp/ccYgTI9f.s 			page 111


 2029              		@ link register save eliminated.
 720:Core/Src/main.c ****     HAL_IncTick();
 2030              		.loc 1 720 3 view .LVU892
 720:Core/Src/main.c ****     HAL_IncTick();
 2031              		.loc 1 720 6 is_stmt 0 view .LVU893
 2032 0000 034B     		ldr	r3, .L57
 2033 0002 0268     		ldr	r2, [r0]
 2034 0004 9A42     		cmp	r2, r3
 2035 0006 00D0     		beq	.L56
 726:Core/Src/main.c **** 
 2036              		.loc 1 726 1 view .LVU894
 2037 0008 7047     		bx	lr
 2038              	.L56:
 721:Core/Src/main.c ****   }
 2039              		.loc 1 721 5 is_stmt 1 view .LVU895
 2040 000a FFF7FEBF 		b	HAL_IncTick
 2041              	.LVL59:
 2042              	.L58:
 721:Core/Src/main.c ****   }
 2043              		.loc 1 721 5 is_stmt 0 view .LVU896
 2044 000e 00BF     		.align	2
 2045              	.L57:
 2046 0010 00100040 		.word	1073745920
 2047              		.cfi_endproc
 2048              	.LFE147:
 2050              		.section	.text.Error_Handler,"ax",%progbits
 2051              		.align	1
 2052              		.p2align 2,,3
 2053              		.global	Error_Handler
 2054              		.syntax unified
 2055              		.thumb
 2056              		.thumb_func
 2058              	Error_Handler:
 2059              	.LFB148:
 733:Core/Src/main.c ****   /* USER CODE BEGIN Error_Handler_Debug */
 2060              		.loc 1 733 1 is_stmt 1 view -0
 2061              		.cfi_startproc
 2062              		@ Volatile: function does not return.
 2063              		@ args = 0, pretend = 0, frame = 0
 2064              		@ frame_needed = 0, uses_anonymous_args = 0
 2065              		@ link register save eliminated.
 736:Core/Src/main.c ****   while (1)
 2066              		.loc 1 736 3 view .LVU898
 2067              	.LBB283:
 2068              	.LBI283:
 140:Drivers/CMSIS/Include/cmsis_gcc.h **** {
 2069              		.loc 2 140 27 view .LVU899
 2070              	.LBB284:
 2071              		.loc 2 142 3 view .LVU900
 2072              		.syntax unified
 2073              	@ 142 "Drivers/CMSIS/Include/cmsis_gcc.h" 1
 2074 0000 72B6     		cpsid i
 2075              	@ 0 "" 2
 2076              		.thumb
 2077              		.syntax unified
 2078              	.L60:
 2079              	.LBE284:
ARM GAS  /tmp/ccYgTI9f.s 			page 112


 2080              	.LBE283:
 737:Core/Src/main.c ****   {
 2081              		.loc 1 737 3 discriminator 1 view .LVU901
 2082              		.loc 1 739 3 discriminator 1 view .LVU902
 737:Core/Src/main.c ****   {
 2083              		.loc 1 737 9 discriminator 1 view .LVU903
 737:Core/Src/main.c ****   {
 2084              		.loc 1 737 3 discriminator 1 view .LVU904
 2085              		.loc 1 739 3 discriminator 1 view .LVU905
 737:Core/Src/main.c ****   {
 2086              		.loc 1 737 9 discriminator 1 view .LVU906
 2087 0002 FEE7     		b	.L60
 2088              		.cfi_endproc
 2089              	.LFE148:
 2091              		.global	defaultTaskHandle
 2092              		.global	hsdram1
 2093              		.global	huart1
 2094              		.global	htim1
 2095              		.global	hspi5
 2096              		.global	hltdc
 2097              		.global	hi2c3
 2098              		.global	hdma2d
 2099              		.global	hcrc
 2100              		.section	.bss.defaultTaskHandle,"aw",%nobits
 2101              		.align	2
 2104              	defaultTaskHandle:
 2105 0000 00000000 		.space	4
 2106              		.section	.bss.hcrc,"aw",%nobits
 2107              		.align	2
 2108              		.set	.LANCHOR0,. + 0
 2111              	hcrc:
 2112 0000 00000000 		.space	8
 2112      00000000 
 2113              		.section	.bss.hdma2d,"aw",%nobits
 2114              		.align	2
 2115              		.set	.LANCHOR1,. + 0
 2118              	hdma2d:
 2119 0000 00000000 		.space	64
 2119      00000000 
 2119      00000000 
 2119      00000000 
 2119      00000000 
 2120              		.section	.bss.hi2c3,"aw",%nobits
 2121              		.align	2
 2122              		.set	.LANCHOR3,. + 0
 2125              	hi2c3:
 2126 0000 00000000 		.space	84
 2126      00000000 
 2126      00000000 
 2126      00000000 
 2126      00000000 
 2127              		.section	.bss.hltdc,"aw",%nobits
 2128              		.align	2
 2129              		.set	.LANCHOR4,. + 0
 2132              	hltdc:
 2133 0000 00000000 		.space	168
 2133      00000000 
ARM GAS  /tmp/ccYgTI9f.s 			page 113


 2133      00000000 
 2133      00000000 
 2133      00000000 
 2134              		.section	.bss.hsdram1,"aw",%nobits
 2135              		.align	2
 2136              		.set	.LANCHOR2,. + 0
 2139              	hsdram1:
 2140 0000 00000000 		.space	52
 2140      00000000 
 2140      00000000 
 2140      00000000 
 2140      00000000 
 2141              		.section	.bss.hspi5,"aw",%nobits
 2142              		.align	2
 2143              		.set	.LANCHOR5,. + 0
 2146              	hspi5:
 2147 0000 00000000 		.space	88
 2147      00000000 
 2147      00000000 
 2147      00000000 
 2147      00000000 
 2148              		.section	.bss.htim1,"aw",%nobits
 2149              		.align	2
 2150              		.set	.LANCHOR6,. + 0
 2153              	htim1:
 2154 0000 00000000 		.space	72
 2154      00000000 
 2154      00000000 
 2154      00000000 
 2154      00000000 
 2155              		.section	.bss.huart1,"aw",%nobits
 2156              		.align	2
 2157              		.set	.LANCHOR7,. + 0
 2160              	huart1:
 2161 0000 00000000 		.space	68
 2161      00000000 
 2161      00000000 
 2161      00000000 
 2161      00000000 
 2162              		.text
 2163              	.Letext0:
 2164              		.file 16 "/home/irfan/Desktop/arm/gcc-arm-none-eabi-10.3-2021.10-x86_64-linux/gcc-arm-none-eabi-10
 2165              		.file 17 "/home/irfan/Desktop/arm/gcc-arm-none-eabi-10.3-2021.10-x86_64-linux/gcc-arm-none-eabi-10
 2166              		.file 18 "Drivers/CMSIS/Device/ST/STM32F4xx/Include/stm32f429xx.h"
 2167              		.file 19 "Drivers/CMSIS/Device/ST/STM32F4xx/Include/stm32f4xx.h"
 2168              		.file 20 "Drivers/STM32F4xx_HAL_Driver/Inc/stm32f4xx_hal_def.h"
 2169              		.file 21 "Drivers/STM32F4xx_HAL_Driver/Inc/stm32f4xx_hal_rcc_ex.h"
 2170              		.file 22 "Drivers/STM32F4xx_HAL_Driver/Inc/stm32f4xx_hal_rcc.h"
 2171              		.file 23 "Drivers/STM32F4xx_HAL_Driver/Inc/stm32f4xx_hal_gpio.h"
 2172              		.file 24 "Drivers/STM32F4xx_HAL_Driver/Inc/stm32f4xx_hal_dma.h"
 2173              		.file 25 "Drivers/STM32F4xx_HAL_Driver/Inc/stm32f4xx_hal_crc.h"
 2174              		.file 26 "Drivers/STM32F4xx_HAL_Driver/Inc/stm32f4xx_hal_dma2d.h"
 2175              		.file 27 "Drivers/STM32F4xx_HAL_Driver/Inc/stm32f4xx_ll_fmc.h"
 2176              		.file 28 "Drivers/STM32F4xx_HAL_Driver/Inc/stm32f4xx_hal_sdram.h"
 2177              		.file 29 "Drivers/STM32F4xx_HAL_Driver/Inc/stm32f4xx_hal_i2c.h"
 2178              		.file 30 "Drivers/STM32F4xx_HAL_Driver/Inc/stm32f4xx_hal_ltdc.h"
 2179              		.file 31 "Drivers/STM32F4xx_HAL_Driver/Inc/stm32f4xx_hal_spi.h"
ARM GAS  /tmp/ccYgTI9f.s 			page 114


 2180              		.file 32 "Drivers/STM32F4xx_HAL_Driver/Inc/stm32f4xx_hal_tim.h"
 2181              		.file 33 "Drivers/STM32F4xx_HAL_Driver/Inc/stm32f4xx_hal_uart.h"
 2182              		.file 34 "Middlewares/Third_Party/FreeRTOS/Source/include/task.h"
 2183              		.file 35 "Middlewares/Third_Party/FreeRTOS/Source/CMSIS_RTOS/cmsis_os.h"
 2184              		.file 36 "Drivers/STM32F4xx_HAL_Driver/Inc/stm32f4xx_hal.h"
 2185              		.file 37 "USB_HOST/App/usb_host.h"
 2186              		.file 38 "Drivers/STM32F4xx_HAL_Driver/Inc/stm32f4xx_hal_i2c_ex.h"
 2187              		.file 39 "Drivers/STM32F4xx_HAL_Driver/Inc/stm32f4xx_hal_tim_ex.h"
 2188              		.file 40 "<built-in>"
ARM GAS  /tmp/ccYgTI9f.s 			page 115


DEFINED SYMBOLS
                            *ABS*:0000000000000000 main.c
     /tmp/ccYgTI9f.s:20     .text.SystemClock_Config:0000000000000000 $t
     /tmp/ccYgTI9f.s:27     .text.SystemClock_Config:0000000000000000 SystemClock_Config
     /tmp/ccYgTI9f.s:235    .text.SystemClock_Config:000000000000009c $d
     /tmp/ccYgTI9f.s:241    .rodata.main.str1.4:0000000000000000 $d
     /tmp/ccYgTI9f.s:248    .text.startup.main:0000000000000000 $t
     /tmp/ccYgTI9f.s:255    .text.startup.main:0000000000000000 main
     /tmp/ccYgTI9f.s:1156   .text.startup.main:00000000000002a0 $d
     /tmp/ccYgTI9f.s:1192   .text.startup.main:00000000000002e4 $t
     /tmp/ccYgTI9f.s:1964   .text.startup.main:0000000000000494 $d
     /tmp/ccYgTI9f.s:1978   .text.StartDefaultTask:0000000000000000 $t
     /tmp/ccYgTI9f.s:1985   .text.StartDefaultTask:0000000000000000 StartDefaultTask
     /tmp/ccYgTI9f.s:2015   .text.HAL_TIM_PeriodElapsedCallback:0000000000000000 $t
     /tmp/ccYgTI9f.s:2022   .text.HAL_TIM_PeriodElapsedCallback:0000000000000000 HAL_TIM_PeriodElapsedCallback
     /tmp/ccYgTI9f.s:2046   .text.HAL_TIM_PeriodElapsedCallback:0000000000000010 $d
     /tmp/ccYgTI9f.s:2051   .text.Error_Handler:0000000000000000 $t
     /tmp/ccYgTI9f.s:2058   .text.Error_Handler:0000000000000000 Error_Handler
     /tmp/ccYgTI9f.s:2104   .bss.defaultTaskHandle:0000000000000000 defaultTaskHandle
     /tmp/ccYgTI9f.s:2139   .bss.hsdram1:0000000000000000 hsdram1
     /tmp/ccYgTI9f.s:2160   .bss.huart1:0000000000000000 huart1
     /tmp/ccYgTI9f.s:2153   .bss.htim1:0000000000000000 htim1
     /tmp/ccYgTI9f.s:2146   .bss.hspi5:0000000000000000 hspi5
     /tmp/ccYgTI9f.s:2132   .bss.hltdc:0000000000000000 hltdc
     /tmp/ccYgTI9f.s:2125   .bss.hi2c3:0000000000000000 hi2c3
     /tmp/ccYgTI9f.s:2118   .bss.hdma2d:0000000000000000 hdma2d
     /tmp/ccYgTI9f.s:2111   .bss.hcrc:0000000000000000 hcrc
     /tmp/ccYgTI9f.s:2101   .bss.defaultTaskHandle:0000000000000000 $d
     /tmp/ccYgTI9f.s:2107   .bss.hcrc:0000000000000000 $d
     /tmp/ccYgTI9f.s:2114   .bss.hdma2d:0000000000000000 $d
     /tmp/ccYgTI9f.s:2121   .bss.hi2c3:0000000000000000 $d
     /tmp/ccYgTI9f.s:2128   .bss.hltdc:0000000000000000 $d
     /tmp/ccYgTI9f.s:2135   .bss.hsdram1:0000000000000000 $d
     /tmp/ccYgTI9f.s:2142   .bss.hspi5:0000000000000000 $d
     /tmp/ccYgTI9f.s:2149   .bss.htim1:0000000000000000 $d
     /tmp/ccYgTI9f.s:2156   .bss.huart1:0000000000000000 $d

UNDEFINED SYMBOLS
HAL_RCC_OscConfig
HAL_RCC_ClockConfig
HAL_Init
HAL_GPIO_WritePin
HAL_GPIO_Init
HAL_CRC_Init
HAL_DMA2D_Init
HAL_DMA2D_ConfigLayer
HAL_SDRAM_Init
HAL_I2C_Init
HAL_I2CEx_ConfigAnalogFilter
HAL_I2CEx_ConfigDigitalFilter
memset
HAL_LTDC_Init
HAL_LTDC_ConfigLayer
HAL_SPI_Init
HAL_TIM_Base_Init
HAL_TIM_ConfigClockSource
HAL_TIMEx_MasterConfigSynchronization
ARM GAS  /tmp/ccYgTI9f.s 			page 116


HAL_UART_Init
BSP_SDRAM_Init
BSP_LCD_Init
BSP_LCD_LayerDefaultInit
BSP_LCD_SelectLayer
BSP_LCD_DisplayOn
HAL_Delay
BSP_LCD_Clear
BSP_LCD_ClearStringLine
BSP_LCD_SetTextColor
BSP_LCD_DisplayStringAtLine
BSP_LCD_DrawCircle
BSP_LCD_DrawHLine
MX_USB_HOST_Init
osDelay
HAL_IncTick
