ARM GAS  /tmp/ccTCOTTa.s 			page 1


   1              		.cpu cortex-m4
   2              		.arch armv7e-m
   3              		.fpu fpv4-sp-d16
   4              		.eabi_attribute 27, 1
   5              		.eabi_attribute 28, 1
   6              		.eabi_attribute 20, 1
   7              		.eabi_attribute 21, 1
   8              		.eabi_attribute 23, 3
   9              		.eabi_attribute 24, 1
  10              		.eabi_attribute 25, 1
  11              		.eabi_attribute 26, 1
  12              		.eabi_attribute 30, 2
  13              		.eabi_attribute 34, 1
  14              		.eabi_attribute 18, 4
  15              		.file	"stm32f4xx_ll_usb.c"
  16              		.text
  17              	.Ltext0:
  18              		.cfi_sections	.debug_frame
  19              		.section	.text.USB_CoreReset,"ax",%progbits
  20              		.align	1
  21              		.p2align 2,,3
  22              		.syntax unified
  23              		.thumb
  24              		.thumb_func
  26              	USB_CoreReset:
  27              	.LVL0:
  28              	.LFB163:
  29              		.file 1 "Drivers/STM32F4xx_HAL_Driver/Src/stm32f4xx_ll_usb.c"
   1:Drivers/STM32F4xx_HAL_Driver/Src/stm32f4xx_ll_usb.c **** /**
   2:Drivers/STM32F4xx_HAL_Driver/Src/stm32f4xx_ll_usb.c ****   ******************************************************************************
   3:Drivers/STM32F4xx_HAL_Driver/Src/stm32f4xx_ll_usb.c ****   * @file    stm32f4xx_ll_usb.c
   4:Drivers/STM32F4xx_HAL_Driver/Src/stm32f4xx_ll_usb.c ****   * @author  MCD Application Team
   5:Drivers/STM32F4xx_HAL_Driver/Src/stm32f4xx_ll_usb.c ****   * @brief   USB Low Layer HAL module driver.
   6:Drivers/STM32F4xx_HAL_Driver/Src/stm32f4xx_ll_usb.c ****   *
   7:Drivers/STM32F4xx_HAL_Driver/Src/stm32f4xx_ll_usb.c ****   *          This file provides firmware functions to manage the following
   8:Drivers/STM32F4xx_HAL_Driver/Src/stm32f4xx_ll_usb.c ****   *          functionalities of the USB Peripheral Controller:
   9:Drivers/STM32F4xx_HAL_Driver/Src/stm32f4xx_ll_usb.c ****   *           + Initialization/de-initialization functions
  10:Drivers/STM32F4xx_HAL_Driver/Src/stm32f4xx_ll_usb.c ****   *           + I/O operation functions
  11:Drivers/STM32F4xx_HAL_Driver/Src/stm32f4xx_ll_usb.c ****   *           + Peripheral Control functions
  12:Drivers/STM32F4xx_HAL_Driver/Src/stm32f4xx_ll_usb.c ****   *           + Peripheral State functions
  13:Drivers/STM32F4xx_HAL_Driver/Src/stm32f4xx_ll_usb.c ****   *
  14:Drivers/STM32F4xx_HAL_Driver/Src/stm32f4xx_ll_usb.c ****   @verbatim
  15:Drivers/STM32F4xx_HAL_Driver/Src/stm32f4xx_ll_usb.c ****   ==============================================================================
  16:Drivers/STM32F4xx_HAL_Driver/Src/stm32f4xx_ll_usb.c ****                     ##### How to use this driver #####
  17:Drivers/STM32F4xx_HAL_Driver/Src/stm32f4xx_ll_usb.c ****   ==============================================================================
  18:Drivers/STM32F4xx_HAL_Driver/Src/stm32f4xx_ll_usb.c ****     [..]
  19:Drivers/STM32F4xx_HAL_Driver/Src/stm32f4xx_ll_usb.c ****       (#) Fill parameters of Init structure in USB_OTG_CfgTypeDef structure.
  20:Drivers/STM32F4xx_HAL_Driver/Src/stm32f4xx_ll_usb.c **** 
  21:Drivers/STM32F4xx_HAL_Driver/Src/stm32f4xx_ll_usb.c ****       (#) Call USB_CoreInit() API to initialize the USB Core peripheral.
  22:Drivers/STM32F4xx_HAL_Driver/Src/stm32f4xx_ll_usb.c **** 
  23:Drivers/STM32F4xx_HAL_Driver/Src/stm32f4xx_ll_usb.c ****       (#) The upper HAL HCD/PCD driver will call the right routines for its internal processes.
  24:Drivers/STM32F4xx_HAL_Driver/Src/stm32f4xx_ll_usb.c **** 
  25:Drivers/STM32F4xx_HAL_Driver/Src/stm32f4xx_ll_usb.c ****   @endverbatim
  26:Drivers/STM32F4xx_HAL_Driver/Src/stm32f4xx_ll_usb.c ****   ******************************************************************************
  27:Drivers/STM32F4xx_HAL_Driver/Src/stm32f4xx_ll_usb.c ****   * @attention
  28:Drivers/STM32F4xx_HAL_Driver/Src/stm32f4xx_ll_usb.c ****   *
  29:Drivers/STM32F4xx_HAL_Driver/Src/stm32f4xx_ll_usb.c ****   * <h2><center>&copy; Copyright (c) 2016 STMicroelectronics.
ARM GAS  /tmp/ccTCOTTa.s 			page 2


  30:Drivers/STM32F4xx_HAL_Driver/Src/stm32f4xx_ll_usb.c ****   * All rights reserved.</center></h2>
  31:Drivers/STM32F4xx_HAL_Driver/Src/stm32f4xx_ll_usb.c ****   *
  32:Drivers/STM32F4xx_HAL_Driver/Src/stm32f4xx_ll_usb.c ****   * This software component is licensed by ST under BSD 3-Clause license,
  33:Drivers/STM32F4xx_HAL_Driver/Src/stm32f4xx_ll_usb.c ****   * the "License"; You may not use this file except in compliance with the
  34:Drivers/STM32F4xx_HAL_Driver/Src/stm32f4xx_ll_usb.c ****   * License. You may obtain a copy of the License at:
  35:Drivers/STM32F4xx_HAL_Driver/Src/stm32f4xx_ll_usb.c ****   *                        opensource.org/licenses/BSD-3-Clause
  36:Drivers/STM32F4xx_HAL_Driver/Src/stm32f4xx_ll_usb.c ****   *
  37:Drivers/STM32F4xx_HAL_Driver/Src/stm32f4xx_ll_usb.c ****   ******************************************************************************
  38:Drivers/STM32F4xx_HAL_Driver/Src/stm32f4xx_ll_usb.c ****   */
  39:Drivers/STM32F4xx_HAL_Driver/Src/stm32f4xx_ll_usb.c **** 
  40:Drivers/STM32F4xx_HAL_Driver/Src/stm32f4xx_ll_usb.c **** /* Includes ------------------------------------------------------------------*/
  41:Drivers/STM32F4xx_HAL_Driver/Src/stm32f4xx_ll_usb.c **** #include "stm32f4xx_hal.h"
  42:Drivers/STM32F4xx_HAL_Driver/Src/stm32f4xx_ll_usb.c **** 
  43:Drivers/STM32F4xx_HAL_Driver/Src/stm32f4xx_ll_usb.c **** /** @addtogroup STM32F4xx_LL_USB_DRIVER
  44:Drivers/STM32F4xx_HAL_Driver/Src/stm32f4xx_ll_usb.c ****   * @{
  45:Drivers/STM32F4xx_HAL_Driver/Src/stm32f4xx_ll_usb.c ****   */
  46:Drivers/STM32F4xx_HAL_Driver/Src/stm32f4xx_ll_usb.c **** 
  47:Drivers/STM32F4xx_HAL_Driver/Src/stm32f4xx_ll_usb.c **** #if defined (HAL_PCD_MODULE_ENABLED) || defined (HAL_HCD_MODULE_ENABLED)
  48:Drivers/STM32F4xx_HAL_Driver/Src/stm32f4xx_ll_usb.c **** #if defined (USB_OTG_FS) || defined (USB_OTG_HS)
  49:Drivers/STM32F4xx_HAL_Driver/Src/stm32f4xx_ll_usb.c **** /* Private typedef -----------------------------------------------------------*/
  50:Drivers/STM32F4xx_HAL_Driver/Src/stm32f4xx_ll_usb.c **** /* Private define ------------------------------------------------------------*/
  51:Drivers/STM32F4xx_HAL_Driver/Src/stm32f4xx_ll_usb.c **** /* Private macro -------------------------------------------------------------*/
  52:Drivers/STM32F4xx_HAL_Driver/Src/stm32f4xx_ll_usb.c **** /* Private variables ---------------------------------------------------------*/
  53:Drivers/STM32F4xx_HAL_Driver/Src/stm32f4xx_ll_usb.c **** /* Private function prototypes -----------------------------------------------*/
  54:Drivers/STM32F4xx_HAL_Driver/Src/stm32f4xx_ll_usb.c **** /* Private functions ---------------------------------------------------------*/
  55:Drivers/STM32F4xx_HAL_Driver/Src/stm32f4xx_ll_usb.c **** #if defined (USB_OTG_FS) || defined (USB_OTG_HS)
  56:Drivers/STM32F4xx_HAL_Driver/Src/stm32f4xx_ll_usb.c **** static HAL_StatusTypeDef USB_CoreReset(USB_OTG_GlobalTypeDef *USBx);
  57:Drivers/STM32F4xx_HAL_Driver/Src/stm32f4xx_ll_usb.c **** 
  58:Drivers/STM32F4xx_HAL_Driver/Src/stm32f4xx_ll_usb.c **** /* Exported functions --------------------------------------------------------*/
  59:Drivers/STM32F4xx_HAL_Driver/Src/stm32f4xx_ll_usb.c **** /** @defgroup USB_LL_Exported_Functions USB Low Layer Exported Functions
  60:Drivers/STM32F4xx_HAL_Driver/Src/stm32f4xx_ll_usb.c ****   * @{
  61:Drivers/STM32F4xx_HAL_Driver/Src/stm32f4xx_ll_usb.c ****   */
  62:Drivers/STM32F4xx_HAL_Driver/Src/stm32f4xx_ll_usb.c **** 
  63:Drivers/STM32F4xx_HAL_Driver/Src/stm32f4xx_ll_usb.c **** /** @defgroup USB_LL_Exported_Functions_Group1 Initialization/de-initialization functions
  64:Drivers/STM32F4xx_HAL_Driver/Src/stm32f4xx_ll_usb.c ****   *  @brief    Initialization and Configuration functions
  65:Drivers/STM32F4xx_HAL_Driver/Src/stm32f4xx_ll_usb.c ****   *
  66:Drivers/STM32F4xx_HAL_Driver/Src/stm32f4xx_ll_usb.c **** @verbatim
  67:Drivers/STM32F4xx_HAL_Driver/Src/stm32f4xx_ll_usb.c ****  ===============================================================================
  68:Drivers/STM32F4xx_HAL_Driver/Src/stm32f4xx_ll_usb.c ****                       ##### Initialization/de-initialization functions #####
  69:Drivers/STM32F4xx_HAL_Driver/Src/stm32f4xx_ll_usb.c ****  ===============================================================================
  70:Drivers/STM32F4xx_HAL_Driver/Src/stm32f4xx_ll_usb.c **** 
  71:Drivers/STM32F4xx_HAL_Driver/Src/stm32f4xx_ll_usb.c **** @endverbatim
  72:Drivers/STM32F4xx_HAL_Driver/Src/stm32f4xx_ll_usb.c ****   * @{
  73:Drivers/STM32F4xx_HAL_Driver/Src/stm32f4xx_ll_usb.c ****   */
  74:Drivers/STM32F4xx_HAL_Driver/Src/stm32f4xx_ll_usb.c **** 
  75:Drivers/STM32F4xx_HAL_Driver/Src/stm32f4xx_ll_usb.c **** /**
  76:Drivers/STM32F4xx_HAL_Driver/Src/stm32f4xx_ll_usb.c ****   * @brief  Initializes the USB Core
  77:Drivers/STM32F4xx_HAL_Driver/Src/stm32f4xx_ll_usb.c ****   * @param  USBx USB Instance
  78:Drivers/STM32F4xx_HAL_Driver/Src/stm32f4xx_ll_usb.c ****   * @param  cfg pointer to a USB_OTG_CfgTypeDef structure that contains
  79:Drivers/STM32F4xx_HAL_Driver/Src/stm32f4xx_ll_usb.c ****   *         the configuration information for the specified USBx peripheral.
  80:Drivers/STM32F4xx_HAL_Driver/Src/stm32f4xx_ll_usb.c ****   * @retval HAL status
  81:Drivers/STM32F4xx_HAL_Driver/Src/stm32f4xx_ll_usb.c ****   */
  82:Drivers/STM32F4xx_HAL_Driver/Src/stm32f4xx_ll_usb.c **** HAL_StatusTypeDef USB_CoreInit(USB_OTG_GlobalTypeDef *USBx, USB_OTG_CfgTypeDef cfg)
  83:Drivers/STM32F4xx_HAL_Driver/Src/stm32f4xx_ll_usb.c **** {
  84:Drivers/STM32F4xx_HAL_Driver/Src/stm32f4xx_ll_usb.c ****   HAL_StatusTypeDef ret;
  85:Drivers/STM32F4xx_HAL_Driver/Src/stm32f4xx_ll_usb.c **** 
  86:Drivers/STM32F4xx_HAL_Driver/Src/stm32f4xx_ll_usb.c ****   if (cfg.phy_itface == USB_OTG_ULPI_PHY)
ARM GAS  /tmp/ccTCOTTa.s 			page 3


  87:Drivers/STM32F4xx_HAL_Driver/Src/stm32f4xx_ll_usb.c ****   {
  88:Drivers/STM32F4xx_HAL_Driver/Src/stm32f4xx_ll_usb.c ****     USBx->GCCFG &= ~(USB_OTG_GCCFG_PWRDWN);
  89:Drivers/STM32F4xx_HAL_Driver/Src/stm32f4xx_ll_usb.c **** 
  90:Drivers/STM32F4xx_HAL_Driver/Src/stm32f4xx_ll_usb.c ****     /* Init The ULPI Interface */
  91:Drivers/STM32F4xx_HAL_Driver/Src/stm32f4xx_ll_usb.c ****     USBx->GUSBCFG &= ~(USB_OTG_GUSBCFG_TSDPS | USB_OTG_GUSBCFG_ULPIFSLS | USB_OTG_GUSBCFG_PHYSEL);
  92:Drivers/STM32F4xx_HAL_Driver/Src/stm32f4xx_ll_usb.c **** 
  93:Drivers/STM32F4xx_HAL_Driver/Src/stm32f4xx_ll_usb.c ****     /* Select vbus source */
  94:Drivers/STM32F4xx_HAL_Driver/Src/stm32f4xx_ll_usb.c ****     USBx->GUSBCFG &= ~(USB_OTG_GUSBCFG_ULPIEVBUSD | USB_OTG_GUSBCFG_ULPIEVBUSI);
  95:Drivers/STM32F4xx_HAL_Driver/Src/stm32f4xx_ll_usb.c ****     if (cfg.use_external_vbus == 1U)
  96:Drivers/STM32F4xx_HAL_Driver/Src/stm32f4xx_ll_usb.c ****     {
  97:Drivers/STM32F4xx_HAL_Driver/Src/stm32f4xx_ll_usb.c ****       USBx->GUSBCFG |= USB_OTG_GUSBCFG_ULPIEVBUSD;
  98:Drivers/STM32F4xx_HAL_Driver/Src/stm32f4xx_ll_usb.c ****     }
  99:Drivers/STM32F4xx_HAL_Driver/Src/stm32f4xx_ll_usb.c **** 
 100:Drivers/STM32F4xx_HAL_Driver/Src/stm32f4xx_ll_usb.c ****     /* Reset after a PHY select */
 101:Drivers/STM32F4xx_HAL_Driver/Src/stm32f4xx_ll_usb.c ****     ret = USB_CoreReset(USBx);
 102:Drivers/STM32F4xx_HAL_Driver/Src/stm32f4xx_ll_usb.c ****   }
 103:Drivers/STM32F4xx_HAL_Driver/Src/stm32f4xx_ll_usb.c ****   else /* FS interface (embedded Phy) */
 104:Drivers/STM32F4xx_HAL_Driver/Src/stm32f4xx_ll_usb.c ****   {
 105:Drivers/STM32F4xx_HAL_Driver/Src/stm32f4xx_ll_usb.c ****     /* Select FS Embedded PHY */
 106:Drivers/STM32F4xx_HAL_Driver/Src/stm32f4xx_ll_usb.c ****     USBx->GUSBCFG |= USB_OTG_GUSBCFG_PHYSEL;
 107:Drivers/STM32F4xx_HAL_Driver/Src/stm32f4xx_ll_usb.c **** 
 108:Drivers/STM32F4xx_HAL_Driver/Src/stm32f4xx_ll_usb.c ****     /* Reset after a PHY select */
 109:Drivers/STM32F4xx_HAL_Driver/Src/stm32f4xx_ll_usb.c ****     ret = USB_CoreReset(USBx);
 110:Drivers/STM32F4xx_HAL_Driver/Src/stm32f4xx_ll_usb.c **** 
 111:Drivers/STM32F4xx_HAL_Driver/Src/stm32f4xx_ll_usb.c ****     if (cfg.battery_charging_enable == 0U)
 112:Drivers/STM32F4xx_HAL_Driver/Src/stm32f4xx_ll_usb.c ****     {
 113:Drivers/STM32F4xx_HAL_Driver/Src/stm32f4xx_ll_usb.c ****       /* Activate the USB Transceiver */
 114:Drivers/STM32F4xx_HAL_Driver/Src/stm32f4xx_ll_usb.c ****       USBx->GCCFG |= USB_OTG_GCCFG_PWRDWN;
 115:Drivers/STM32F4xx_HAL_Driver/Src/stm32f4xx_ll_usb.c ****     }
 116:Drivers/STM32F4xx_HAL_Driver/Src/stm32f4xx_ll_usb.c ****     else
 117:Drivers/STM32F4xx_HAL_Driver/Src/stm32f4xx_ll_usb.c ****     {
 118:Drivers/STM32F4xx_HAL_Driver/Src/stm32f4xx_ll_usb.c ****       /* Deactivate the USB Transceiver */
 119:Drivers/STM32F4xx_HAL_Driver/Src/stm32f4xx_ll_usb.c ****       USBx->GCCFG &= ~(USB_OTG_GCCFG_PWRDWN);
 120:Drivers/STM32F4xx_HAL_Driver/Src/stm32f4xx_ll_usb.c ****     }
 121:Drivers/STM32F4xx_HAL_Driver/Src/stm32f4xx_ll_usb.c ****   }
 122:Drivers/STM32F4xx_HAL_Driver/Src/stm32f4xx_ll_usb.c **** 
 123:Drivers/STM32F4xx_HAL_Driver/Src/stm32f4xx_ll_usb.c ****   if (cfg.dma_enable == 1U)
 124:Drivers/STM32F4xx_HAL_Driver/Src/stm32f4xx_ll_usb.c ****   {
 125:Drivers/STM32F4xx_HAL_Driver/Src/stm32f4xx_ll_usb.c ****     USBx->GAHBCFG |= USB_OTG_GAHBCFG_HBSTLEN_2;
 126:Drivers/STM32F4xx_HAL_Driver/Src/stm32f4xx_ll_usb.c ****     USBx->GAHBCFG |= USB_OTG_GAHBCFG_DMAEN;
 127:Drivers/STM32F4xx_HAL_Driver/Src/stm32f4xx_ll_usb.c ****   }
 128:Drivers/STM32F4xx_HAL_Driver/Src/stm32f4xx_ll_usb.c **** 
 129:Drivers/STM32F4xx_HAL_Driver/Src/stm32f4xx_ll_usb.c ****   return ret;
 130:Drivers/STM32F4xx_HAL_Driver/Src/stm32f4xx_ll_usb.c **** }
 131:Drivers/STM32F4xx_HAL_Driver/Src/stm32f4xx_ll_usb.c **** 
 132:Drivers/STM32F4xx_HAL_Driver/Src/stm32f4xx_ll_usb.c **** 
 133:Drivers/STM32F4xx_HAL_Driver/Src/stm32f4xx_ll_usb.c **** /**
 134:Drivers/STM32F4xx_HAL_Driver/Src/stm32f4xx_ll_usb.c ****   * @brief  Set the USB turnaround time
 135:Drivers/STM32F4xx_HAL_Driver/Src/stm32f4xx_ll_usb.c ****   * @param  USBx USB Instance
 136:Drivers/STM32F4xx_HAL_Driver/Src/stm32f4xx_ll_usb.c ****   * @param  hclk: AHB clock frequency
 137:Drivers/STM32F4xx_HAL_Driver/Src/stm32f4xx_ll_usb.c ****   * @retval USB turnaround time In PHY Clocks number
 138:Drivers/STM32F4xx_HAL_Driver/Src/stm32f4xx_ll_usb.c ****   */
 139:Drivers/STM32F4xx_HAL_Driver/Src/stm32f4xx_ll_usb.c **** HAL_StatusTypeDef USB_SetTurnaroundTime(USB_OTG_GlobalTypeDef *USBx,
 140:Drivers/STM32F4xx_HAL_Driver/Src/stm32f4xx_ll_usb.c ****                                         uint32_t hclk, uint8_t speed)
 141:Drivers/STM32F4xx_HAL_Driver/Src/stm32f4xx_ll_usb.c **** {
 142:Drivers/STM32F4xx_HAL_Driver/Src/stm32f4xx_ll_usb.c ****   uint32_t UsbTrd;
 143:Drivers/STM32F4xx_HAL_Driver/Src/stm32f4xx_ll_usb.c **** 
ARM GAS  /tmp/ccTCOTTa.s 			page 4


 144:Drivers/STM32F4xx_HAL_Driver/Src/stm32f4xx_ll_usb.c ****   /* The USBTRD is configured according to the tables below, depending on AHB frequency
 145:Drivers/STM32F4xx_HAL_Driver/Src/stm32f4xx_ll_usb.c ****   used by application. In the low AHB frequency range it is used to stretch enough the USB response
 146:Drivers/STM32F4xx_HAL_Driver/Src/stm32f4xx_ll_usb.c ****   time to IN tokens, the USB turnaround time, so to compensate for the longer AHB read access
 147:Drivers/STM32F4xx_HAL_Driver/Src/stm32f4xx_ll_usb.c ****   latency to the Data FIFO */
 148:Drivers/STM32F4xx_HAL_Driver/Src/stm32f4xx_ll_usb.c ****   if (speed == USBD_FS_SPEED)
 149:Drivers/STM32F4xx_HAL_Driver/Src/stm32f4xx_ll_usb.c ****   {
 150:Drivers/STM32F4xx_HAL_Driver/Src/stm32f4xx_ll_usb.c ****     if ((hclk >= 14200000U) && (hclk < 15000000U))
 151:Drivers/STM32F4xx_HAL_Driver/Src/stm32f4xx_ll_usb.c ****     {
 152:Drivers/STM32F4xx_HAL_Driver/Src/stm32f4xx_ll_usb.c ****       /* hclk Clock Range between 14.2-15 MHz */
 153:Drivers/STM32F4xx_HAL_Driver/Src/stm32f4xx_ll_usb.c ****       UsbTrd = 0xFU;
 154:Drivers/STM32F4xx_HAL_Driver/Src/stm32f4xx_ll_usb.c ****     }
 155:Drivers/STM32F4xx_HAL_Driver/Src/stm32f4xx_ll_usb.c ****     else if ((hclk >= 15000000U) && (hclk < 16000000U))
 156:Drivers/STM32F4xx_HAL_Driver/Src/stm32f4xx_ll_usb.c ****     {
 157:Drivers/STM32F4xx_HAL_Driver/Src/stm32f4xx_ll_usb.c ****       /* hclk Clock Range between 15-16 MHz */
 158:Drivers/STM32F4xx_HAL_Driver/Src/stm32f4xx_ll_usb.c ****       UsbTrd = 0xEU;
 159:Drivers/STM32F4xx_HAL_Driver/Src/stm32f4xx_ll_usb.c ****     }
 160:Drivers/STM32F4xx_HAL_Driver/Src/stm32f4xx_ll_usb.c ****     else if ((hclk >= 16000000U) && (hclk < 17200000U))
 161:Drivers/STM32F4xx_HAL_Driver/Src/stm32f4xx_ll_usb.c ****     {
 162:Drivers/STM32F4xx_HAL_Driver/Src/stm32f4xx_ll_usb.c ****       /* hclk Clock Range between 16-17.2 MHz */
 163:Drivers/STM32F4xx_HAL_Driver/Src/stm32f4xx_ll_usb.c ****       UsbTrd = 0xDU;
 164:Drivers/STM32F4xx_HAL_Driver/Src/stm32f4xx_ll_usb.c ****     }
 165:Drivers/STM32F4xx_HAL_Driver/Src/stm32f4xx_ll_usb.c ****     else if ((hclk >= 17200000U) && (hclk < 18500000U))
 166:Drivers/STM32F4xx_HAL_Driver/Src/stm32f4xx_ll_usb.c ****     {
 167:Drivers/STM32F4xx_HAL_Driver/Src/stm32f4xx_ll_usb.c ****       /* hclk Clock Range between 17.2-18.5 MHz */
 168:Drivers/STM32F4xx_HAL_Driver/Src/stm32f4xx_ll_usb.c ****       UsbTrd = 0xCU;
 169:Drivers/STM32F4xx_HAL_Driver/Src/stm32f4xx_ll_usb.c ****     }
 170:Drivers/STM32F4xx_HAL_Driver/Src/stm32f4xx_ll_usb.c ****     else if ((hclk >= 18500000U) && (hclk < 20000000U))
 171:Drivers/STM32F4xx_HAL_Driver/Src/stm32f4xx_ll_usb.c ****     {
 172:Drivers/STM32F4xx_HAL_Driver/Src/stm32f4xx_ll_usb.c ****       /* hclk Clock Range between 18.5-20 MHz */
 173:Drivers/STM32F4xx_HAL_Driver/Src/stm32f4xx_ll_usb.c ****       UsbTrd = 0xBU;
 174:Drivers/STM32F4xx_HAL_Driver/Src/stm32f4xx_ll_usb.c ****     }
 175:Drivers/STM32F4xx_HAL_Driver/Src/stm32f4xx_ll_usb.c ****     else if ((hclk >= 20000000U) && (hclk < 21800000U))
 176:Drivers/STM32F4xx_HAL_Driver/Src/stm32f4xx_ll_usb.c ****     {
 177:Drivers/STM32F4xx_HAL_Driver/Src/stm32f4xx_ll_usb.c ****       /* hclk Clock Range between 20-21.8 MHz */
 178:Drivers/STM32F4xx_HAL_Driver/Src/stm32f4xx_ll_usb.c ****       UsbTrd = 0xAU;
 179:Drivers/STM32F4xx_HAL_Driver/Src/stm32f4xx_ll_usb.c ****     }
 180:Drivers/STM32F4xx_HAL_Driver/Src/stm32f4xx_ll_usb.c ****     else if ((hclk >= 21800000U) && (hclk < 24000000U))
 181:Drivers/STM32F4xx_HAL_Driver/Src/stm32f4xx_ll_usb.c ****     {
 182:Drivers/STM32F4xx_HAL_Driver/Src/stm32f4xx_ll_usb.c ****       /* hclk Clock Range between 21.8-24 MHz */
 183:Drivers/STM32F4xx_HAL_Driver/Src/stm32f4xx_ll_usb.c ****       UsbTrd = 0x9U;
 184:Drivers/STM32F4xx_HAL_Driver/Src/stm32f4xx_ll_usb.c ****     }
 185:Drivers/STM32F4xx_HAL_Driver/Src/stm32f4xx_ll_usb.c ****     else if ((hclk >= 24000000U) && (hclk < 27700000U))
 186:Drivers/STM32F4xx_HAL_Driver/Src/stm32f4xx_ll_usb.c ****     {
 187:Drivers/STM32F4xx_HAL_Driver/Src/stm32f4xx_ll_usb.c ****       /* hclk Clock Range between 24-27.7 MHz */
 188:Drivers/STM32F4xx_HAL_Driver/Src/stm32f4xx_ll_usb.c ****       UsbTrd = 0x8U;
 189:Drivers/STM32F4xx_HAL_Driver/Src/stm32f4xx_ll_usb.c ****     }
 190:Drivers/STM32F4xx_HAL_Driver/Src/stm32f4xx_ll_usb.c ****     else if ((hclk >= 27700000U) && (hclk < 32000000U))
 191:Drivers/STM32F4xx_HAL_Driver/Src/stm32f4xx_ll_usb.c ****     {
 192:Drivers/STM32F4xx_HAL_Driver/Src/stm32f4xx_ll_usb.c ****       /* hclk Clock Range between 27.7-32 MHz */
 193:Drivers/STM32F4xx_HAL_Driver/Src/stm32f4xx_ll_usb.c ****       UsbTrd = 0x7U;
 194:Drivers/STM32F4xx_HAL_Driver/Src/stm32f4xx_ll_usb.c ****     }
 195:Drivers/STM32F4xx_HAL_Driver/Src/stm32f4xx_ll_usb.c ****     else /* if(hclk >= 32000000) */
 196:Drivers/STM32F4xx_HAL_Driver/Src/stm32f4xx_ll_usb.c ****     {
 197:Drivers/STM32F4xx_HAL_Driver/Src/stm32f4xx_ll_usb.c ****       /* hclk Clock Range between 32-200 MHz */
 198:Drivers/STM32F4xx_HAL_Driver/Src/stm32f4xx_ll_usb.c ****       UsbTrd = 0x6U;
 199:Drivers/STM32F4xx_HAL_Driver/Src/stm32f4xx_ll_usb.c ****     }
 200:Drivers/STM32F4xx_HAL_Driver/Src/stm32f4xx_ll_usb.c ****   }
ARM GAS  /tmp/ccTCOTTa.s 			page 5


 201:Drivers/STM32F4xx_HAL_Driver/Src/stm32f4xx_ll_usb.c ****   else if (speed == USBD_HS_SPEED)
 202:Drivers/STM32F4xx_HAL_Driver/Src/stm32f4xx_ll_usb.c ****   {
 203:Drivers/STM32F4xx_HAL_Driver/Src/stm32f4xx_ll_usb.c ****     UsbTrd = USBD_HS_TRDT_VALUE;
 204:Drivers/STM32F4xx_HAL_Driver/Src/stm32f4xx_ll_usb.c ****   }
 205:Drivers/STM32F4xx_HAL_Driver/Src/stm32f4xx_ll_usb.c ****   else
 206:Drivers/STM32F4xx_HAL_Driver/Src/stm32f4xx_ll_usb.c ****   {
 207:Drivers/STM32F4xx_HAL_Driver/Src/stm32f4xx_ll_usb.c ****     UsbTrd = USBD_DEFAULT_TRDT_VALUE;
 208:Drivers/STM32F4xx_HAL_Driver/Src/stm32f4xx_ll_usb.c ****   }
 209:Drivers/STM32F4xx_HAL_Driver/Src/stm32f4xx_ll_usb.c **** 
 210:Drivers/STM32F4xx_HAL_Driver/Src/stm32f4xx_ll_usb.c ****   USBx->GUSBCFG &= ~USB_OTG_GUSBCFG_TRDT;
 211:Drivers/STM32F4xx_HAL_Driver/Src/stm32f4xx_ll_usb.c ****   USBx->GUSBCFG |= (uint32_t)((UsbTrd << 10) & USB_OTG_GUSBCFG_TRDT);
 212:Drivers/STM32F4xx_HAL_Driver/Src/stm32f4xx_ll_usb.c **** 
 213:Drivers/STM32F4xx_HAL_Driver/Src/stm32f4xx_ll_usb.c ****   return HAL_OK;
 214:Drivers/STM32F4xx_HAL_Driver/Src/stm32f4xx_ll_usb.c **** }
 215:Drivers/STM32F4xx_HAL_Driver/Src/stm32f4xx_ll_usb.c **** 
 216:Drivers/STM32F4xx_HAL_Driver/Src/stm32f4xx_ll_usb.c **** /**
 217:Drivers/STM32F4xx_HAL_Driver/Src/stm32f4xx_ll_usb.c ****   * @brief  USB_EnableGlobalInt
 218:Drivers/STM32F4xx_HAL_Driver/Src/stm32f4xx_ll_usb.c ****   *         Enables the controller's Global Int in the AHB Config reg
 219:Drivers/STM32F4xx_HAL_Driver/Src/stm32f4xx_ll_usb.c ****   * @param  USBx  Selected device
 220:Drivers/STM32F4xx_HAL_Driver/Src/stm32f4xx_ll_usb.c ****   * @retval HAL status
 221:Drivers/STM32F4xx_HAL_Driver/Src/stm32f4xx_ll_usb.c ****   */
 222:Drivers/STM32F4xx_HAL_Driver/Src/stm32f4xx_ll_usb.c **** HAL_StatusTypeDef USB_EnableGlobalInt(USB_OTG_GlobalTypeDef *USBx)
 223:Drivers/STM32F4xx_HAL_Driver/Src/stm32f4xx_ll_usb.c **** {
 224:Drivers/STM32F4xx_HAL_Driver/Src/stm32f4xx_ll_usb.c ****   USBx->GAHBCFG |= USB_OTG_GAHBCFG_GINT;
 225:Drivers/STM32F4xx_HAL_Driver/Src/stm32f4xx_ll_usb.c ****   return HAL_OK;
 226:Drivers/STM32F4xx_HAL_Driver/Src/stm32f4xx_ll_usb.c **** }
 227:Drivers/STM32F4xx_HAL_Driver/Src/stm32f4xx_ll_usb.c **** 
 228:Drivers/STM32F4xx_HAL_Driver/Src/stm32f4xx_ll_usb.c **** /**
 229:Drivers/STM32F4xx_HAL_Driver/Src/stm32f4xx_ll_usb.c ****   * @brief  USB_DisableGlobalInt
 230:Drivers/STM32F4xx_HAL_Driver/Src/stm32f4xx_ll_usb.c ****   *         Disable the controller's Global Int in the AHB Config reg
 231:Drivers/STM32F4xx_HAL_Driver/Src/stm32f4xx_ll_usb.c ****   * @param  USBx  Selected device
 232:Drivers/STM32F4xx_HAL_Driver/Src/stm32f4xx_ll_usb.c ****   * @retval HAL status
 233:Drivers/STM32F4xx_HAL_Driver/Src/stm32f4xx_ll_usb.c ****   */
 234:Drivers/STM32F4xx_HAL_Driver/Src/stm32f4xx_ll_usb.c **** HAL_StatusTypeDef USB_DisableGlobalInt(USB_OTG_GlobalTypeDef *USBx)
 235:Drivers/STM32F4xx_HAL_Driver/Src/stm32f4xx_ll_usb.c **** {
 236:Drivers/STM32F4xx_HAL_Driver/Src/stm32f4xx_ll_usb.c ****   USBx->GAHBCFG &= ~USB_OTG_GAHBCFG_GINT;
 237:Drivers/STM32F4xx_HAL_Driver/Src/stm32f4xx_ll_usb.c ****   return HAL_OK;
 238:Drivers/STM32F4xx_HAL_Driver/Src/stm32f4xx_ll_usb.c **** }
 239:Drivers/STM32F4xx_HAL_Driver/Src/stm32f4xx_ll_usb.c **** 
 240:Drivers/STM32F4xx_HAL_Driver/Src/stm32f4xx_ll_usb.c **** /**
 241:Drivers/STM32F4xx_HAL_Driver/Src/stm32f4xx_ll_usb.c ****   * @brief  USB_SetCurrentMode Set functional mode
 242:Drivers/STM32F4xx_HAL_Driver/Src/stm32f4xx_ll_usb.c ****   * @param  USBx  Selected device
 243:Drivers/STM32F4xx_HAL_Driver/Src/stm32f4xx_ll_usb.c ****   * @param  mode  current core mode
 244:Drivers/STM32F4xx_HAL_Driver/Src/stm32f4xx_ll_usb.c ****   *          This parameter can be one of these values:
 245:Drivers/STM32F4xx_HAL_Driver/Src/stm32f4xx_ll_usb.c ****   *            @arg USB_DEVICE_MODE Peripheral mode
 246:Drivers/STM32F4xx_HAL_Driver/Src/stm32f4xx_ll_usb.c ****   *            @arg USB_HOST_MODE Host mode
 247:Drivers/STM32F4xx_HAL_Driver/Src/stm32f4xx_ll_usb.c ****   * @retval HAL status
 248:Drivers/STM32F4xx_HAL_Driver/Src/stm32f4xx_ll_usb.c ****   */
 249:Drivers/STM32F4xx_HAL_Driver/Src/stm32f4xx_ll_usb.c **** HAL_StatusTypeDef USB_SetCurrentMode(USB_OTG_GlobalTypeDef *USBx, USB_OTG_ModeTypeDef mode)
 250:Drivers/STM32F4xx_HAL_Driver/Src/stm32f4xx_ll_usb.c **** {
 251:Drivers/STM32F4xx_HAL_Driver/Src/stm32f4xx_ll_usb.c ****   uint32_t ms = 0U;
 252:Drivers/STM32F4xx_HAL_Driver/Src/stm32f4xx_ll_usb.c **** 
 253:Drivers/STM32F4xx_HAL_Driver/Src/stm32f4xx_ll_usb.c ****   USBx->GUSBCFG &= ~(USB_OTG_GUSBCFG_FHMOD | USB_OTG_GUSBCFG_FDMOD);
 254:Drivers/STM32F4xx_HAL_Driver/Src/stm32f4xx_ll_usb.c **** 
 255:Drivers/STM32F4xx_HAL_Driver/Src/stm32f4xx_ll_usb.c ****   if (mode == USB_HOST_MODE)
 256:Drivers/STM32F4xx_HAL_Driver/Src/stm32f4xx_ll_usb.c ****   {
 257:Drivers/STM32F4xx_HAL_Driver/Src/stm32f4xx_ll_usb.c ****     USBx->GUSBCFG |= USB_OTG_GUSBCFG_FHMOD;
ARM GAS  /tmp/ccTCOTTa.s 			page 6


 258:Drivers/STM32F4xx_HAL_Driver/Src/stm32f4xx_ll_usb.c **** 
 259:Drivers/STM32F4xx_HAL_Driver/Src/stm32f4xx_ll_usb.c ****     do
 260:Drivers/STM32F4xx_HAL_Driver/Src/stm32f4xx_ll_usb.c ****     {
 261:Drivers/STM32F4xx_HAL_Driver/Src/stm32f4xx_ll_usb.c ****       HAL_Delay(1U);
 262:Drivers/STM32F4xx_HAL_Driver/Src/stm32f4xx_ll_usb.c ****       ms++;
 263:Drivers/STM32F4xx_HAL_Driver/Src/stm32f4xx_ll_usb.c ****     } while ((USB_GetMode(USBx) != (uint32_t)USB_HOST_MODE) && (ms < 50U));
 264:Drivers/STM32F4xx_HAL_Driver/Src/stm32f4xx_ll_usb.c ****   }
 265:Drivers/STM32F4xx_HAL_Driver/Src/stm32f4xx_ll_usb.c ****   else if (mode == USB_DEVICE_MODE)
 266:Drivers/STM32F4xx_HAL_Driver/Src/stm32f4xx_ll_usb.c ****   {
 267:Drivers/STM32F4xx_HAL_Driver/Src/stm32f4xx_ll_usb.c ****     USBx->GUSBCFG |= USB_OTG_GUSBCFG_FDMOD;
 268:Drivers/STM32F4xx_HAL_Driver/Src/stm32f4xx_ll_usb.c **** 
 269:Drivers/STM32F4xx_HAL_Driver/Src/stm32f4xx_ll_usb.c ****     do
 270:Drivers/STM32F4xx_HAL_Driver/Src/stm32f4xx_ll_usb.c ****     {
 271:Drivers/STM32F4xx_HAL_Driver/Src/stm32f4xx_ll_usb.c ****       HAL_Delay(1U);
 272:Drivers/STM32F4xx_HAL_Driver/Src/stm32f4xx_ll_usb.c ****       ms++;
 273:Drivers/STM32F4xx_HAL_Driver/Src/stm32f4xx_ll_usb.c ****     } while ((USB_GetMode(USBx) != (uint32_t)USB_DEVICE_MODE) && (ms < 50U));
 274:Drivers/STM32F4xx_HAL_Driver/Src/stm32f4xx_ll_usb.c ****   }
 275:Drivers/STM32F4xx_HAL_Driver/Src/stm32f4xx_ll_usb.c ****   else
 276:Drivers/STM32F4xx_HAL_Driver/Src/stm32f4xx_ll_usb.c ****   {
 277:Drivers/STM32F4xx_HAL_Driver/Src/stm32f4xx_ll_usb.c ****     return HAL_ERROR;
 278:Drivers/STM32F4xx_HAL_Driver/Src/stm32f4xx_ll_usb.c ****   }
 279:Drivers/STM32F4xx_HAL_Driver/Src/stm32f4xx_ll_usb.c **** 
 280:Drivers/STM32F4xx_HAL_Driver/Src/stm32f4xx_ll_usb.c ****   if (ms == 50U)
 281:Drivers/STM32F4xx_HAL_Driver/Src/stm32f4xx_ll_usb.c ****   {
 282:Drivers/STM32F4xx_HAL_Driver/Src/stm32f4xx_ll_usb.c ****     return HAL_ERROR;
 283:Drivers/STM32F4xx_HAL_Driver/Src/stm32f4xx_ll_usb.c ****   }
 284:Drivers/STM32F4xx_HAL_Driver/Src/stm32f4xx_ll_usb.c **** 
 285:Drivers/STM32F4xx_HAL_Driver/Src/stm32f4xx_ll_usb.c ****   return HAL_OK;
 286:Drivers/STM32F4xx_HAL_Driver/Src/stm32f4xx_ll_usb.c **** }
 287:Drivers/STM32F4xx_HAL_Driver/Src/stm32f4xx_ll_usb.c **** 
 288:Drivers/STM32F4xx_HAL_Driver/Src/stm32f4xx_ll_usb.c **** /**
 289:Drivers/STM32F4xx_HAL_Driver/Src/stm32f4xx_ll_usb.c ****   * @brief  USB_DevInit Initializes the USB_OTG controller registers
 290:Drivers/STM32F4xx_HAL_Driver/Src/stm32f4xx_ll_usb.c ****   *         for device mode
 291:Drivers/STM32F4xx_HAL_Driver/Src/stm32f4xx_ll_usb.c ****   * @param  USBx  Selected device
 292:Drivers/STM32F4xx_HAL_Driver/Src/stm32f4xx_ll_usb.c ****   * @param  cfg   pointer to a USB_OTG_CfgTypeDef structure that contains
 293:Drivers/STM32F4xx_HAL_Driver/Src/stm32f4xx_ll_usb.c ****   *         the configuration information for the specified USBx peripheral.
 294:Drivers/STM32F4xx_HAL_Driver/Src/stm32f4xx_ll_usb.c ****   * @retval HAL status
 295:Drivers/STM32F4xx_HAL_Driver/Src/stm32f4xx_ll_usb.c ****   */
 296:Drivers/STM32F4xx_HAL_Driver/Src/stm32f4xx_ll_usb.c **** HAL_StatusTypeDef USB_DevInit(USB_OTG_GlobalTypeDef *USBx, USB_OTG_CfgTypeDef cfg)
 297:Drivers/STM32F4xx_HAL_Driver/Src/stm32f4xx_ll_usb.c **** {
 298:Drivers/STM32F4xx_HAL_Driver/Src/stm32f4xx_ll_usb.c ****   HAL_StatusTypeDef ret = HAL_OK;
 299:Drivers/STM32F4xx_HAL_Driver/Src/stm32f4xx_ll_usb.c ****   uint32_t USBx_BASE = (uint32_t)USBx;
 300:Drivers/STM32F4xx_HAL_Driver/Src/stm32f4xx_ll_usb.c ****   uint32_t i;
 301:Drivers/STM32F4xx_HAL_Driver/Src/stm32f4xx_ll_usb.c **** 
 302:Drivers/STM32F4xx_HAL_Driver/Src/stm32f4xx_ll_usb.c ****   for (i = 0U; i < 15U; i++)
 303:Drivers/STM32F4xx_HAL_Driver/Src/stm32f4xx_ll_usb.c ****   {
 304:Drivers/STM32F4xx_HAL_Driver/Src/stm32f4xx_ll_usb.c ****     USBx->DIEPTXF[i] = 0U;
 305:Drivers/STM32F4xx_HAL_Driver/Src/stm32f4xx_ll_usb.c ****   }
 306:Drivers/STM32F4xx_HAL_Driver/Src/stm32f4xx_ll_usb.c **** 
 307:Drivers/STM32F4xx_HAL_Driver/Src/stm32f4xx_ll_usb.c **** #if defined(STM32F446xx) || defined(STM32F469xx) || defined(STM32F479xx) || defined(STM32F412Zx) ||
 308:Drivers/STM32F4xx_HAL_Driver/Src/stm32f4xx_ll_usb.c ****   /* VBUS Sensing setup */
 309:Drivers/STM32F4xx_HAL_Driver/Src/stm32f4xx_ll_usb.c ****   if (cfg.vbus_sensing_enable == 0U)
 310:Drivers/STM32F4xx_HAL_Driver/Src/stm32f4xx_ll_usb.c ****   {
 311:Drivers/STM32F4xx_HAL_Driver/Src/stm32f4xx_ll_usb.c ****     USBx_DEVICE->DCTL |= USB_OTG_DCTL_SDIS;
 312:Drivers/STM32F4xx_HAL_Driver/Src/stm32f4xx_ll_usb.c **** 
 313:Drivers/STM32F4xx_HAL_Driver/Src/stm32f4xx_ll_usb.c ****     /* Deactivate VBUS Sensing B */
 314:Drivers/STM32F4xx_HAL_Driver/Src/stm32f4xx_ll_usb.c ****     USBx->GCCFG &= ~USB_OTG_GCCFG_VBDEN;
ARM GAS  /tmp/ccTCOTTa.s 			page 7


 315:Drivers/STM32F4xx_HAL_Driver/Src/stm32f4xx_ll_usb.c **** 
 316:Drivers/STM32F4xx_HAL_Driver/Src/stm32f4xx_ll_usb.c ****     /* B-peripheral session valid override enable */
 317:Drivers/STM32F4xx_HAL_Driver/Src/stm32f4xx_ll_usb.c ****     USBx->GOTGCTL |= USB_OTG_GOTGCTL_BVALOEN;
 318:Drivers/STM32F4xx_HAL_Driver/Src/stm32f4xx_ll_usb.c ****     USBx->GOTGCTL |= USB_OTG_GOTGCTL_BVALOVAL;
 319:Drivers/STM32F4xx_HAL_Driver/Src/stm32f4xx_ll_usb.c ****   }
 320:Drivers/STM32F4xx_HAL_Driver/Src/stm32f4xx_ll_usb.c ****   else
 321:Drivers/STM32F4xx_HAL_Driver/Src/stm32f4xx_ll_usb.c ****   {
 322:Drivers/STM32F4xx_HAL_Driver/Src/stm32f4xx_ll_usb.c ****     /* Enable HW VBUS sensing */
 323:Drivers/STM32F4xx_HAL_Driver/Src/stm32f4xx_ll_usb.c ****     USBx->GCCFG |= USB_OTG_GCCFG_VBDEN;
 324:Drivers/STM32F4xx_HAL_Driver/Src/stm32f4xx_ll_usb.c ****   }
 325:Drivers/STM32F4xx_HAL_Driver/Src/stm32f4xx_ll_usb.c **** #else
 326:Drivers/STM32F4xx_HAL_Driver/Src/stm32f4xx_ll_usb.c ****   /* VBUS Sensing setup */
 327:Drivers/STM32F4xx_HAL_Driver/Src/stm32f4xx_ll_usb.c ****   if (cfg.vbus_sensing_enable == 0U)
 328:Drivers/STM32F4xx_HAL_Driver/Src/stm32f4xx_ll_usb.c ****   {
 329:Drivers/STM32F4xx_HAL_Driver/Src/stm32f4xx_ll_usb.c ****     /*
 330:Drivers/STM32F4xx_HAL_Driver/Src/stm32f4xx_ll_usb.c ****      * Disable HW VBUS sensing. VBUS is internally considered to be always
 331:Drivers/STM32F4xx_HAL_Driver/Src/stm32f4xx_ll_usb.c ****      * at VBUS-Valid level (5V).
 332:Drivers/STM32F4xx_HAL_Driver/Src/stm32f4xx_ll_usb.c ****      */
 333:Drivers/STM32F4xx_HAL_Driver/Src/stm32f4xx_ll_usb.c ****     USBx_DEVICE->DCTL |= USB_OTG_DCTL_SDIS;
 334:Drivers/STM32F4xx_HAL_Driver/Src/stm32f4xx_ll_usb.c ****     USBx->GCCFG |= USB_OTG_GCCFG_NOVBUSSENS;
 335:Drivers/STM32F4xx_HAL_Driver/Src/stm32f4xx_ll_usb.c ****     USBx->GCCFG &= ~USB_OTG_GCCFG_VBUSBSEN;
 336:Drivers/STM32F4xx_HAL_Driver/Src/stm32f4xx_ll_usb.c ****     USBx->GCCFG &= ~USB_OTG_GCCFG_VBUSASEN;
 337:Drivers/STM32F4xx_HAL_Driver/Src/stm32f4xx_ll_usb.c ****   }
 338:Drivers/STM32F4xx_HAL_Driver/Src/stm32f4xx_ll_usb.c ****   else
 339:Drivers/STM32F4xx_HAL_Driver/Src/stm32f4xx_ll_usb.c ****   {
 340:Drivers/STM32F4xx_HAL_Driver/Src/stm32f4xx_ll_usb.c ****     /* Enable HW VBUS sensing */
 341:Drivers/STM32F4xx_HAL_Driver/Src/stm32f4xx_ll_usb.c ****     USBx->GCCFG &= ~USB_OTG_GCCFG_NOVBUSSENS;
 342:Drivers/STM32F4xx_HAL_Driver/Src/stm32f4xx_ll_usb.c ****     USBx->GCCFG |= USB_OTG_GCCFG_VBUSBSEN;
 343:Drivers/STM32F4xx_HAL_Driver/Src/stm32f4xx_ll_usb.c ****   }
 344:Drivers/STM32F4xx_HAL_Driver/Src/stm32f4xx_ll_usb.c **** #endif /* defined(STM32F446xx) || defined(STM32F469xx) || defined(STM32F479xx) || defined(STM32F412
 345:Drivers/STM32F4xx_HAL_Driver/Src/stm32f4xx_ll_usb.c **** 
 346:Drivers/STM32F4xx_HAL_Driver/Src/stm32f4xx_ll_usb.c ****   /* Restart the Phy Clock */
 347:Drivers/STM32F4xx_HAL_Driver/Src/stm32f4xx_ll_usb.c ****   USBx_PCGCCTL = 0U;
 348:Drivers/STM32F4xx_HAL_Driver/Src/stm32f4xx_ll_usb.c **** 
 349:Drivers/STM32F4xx_HAL_Driver/Src/stm32f4xx_ll_usb.c ****   /* Device mode configuration */
 350:Drivers/STM32F4xx_HAL_Driver/Src/stm32f4xx_ll_usb.c ****   USBx_DEVICE->DCFG |= DCFG_FRAME_INTERVAL_80;
 351:Drivers/STM32F4xx_HAL_Driver/Src/stm32f4xx_ll_usb.c **** 
 352:Drivers/STM32F4xx_HAL_Driver/Src/stm32f4xx_ll_usb.c ****   if (cfg.phy_itface == USB_OTG_ULPI_PHY)
 353:Drivers/STM32F4xx_HAL_Driver/Src/stm32f4xx_ll_usb.c ****   {
 354:Drivers/STM32F4xx_HAL_Driver/Src/stm32f4xx_ll_usb.c ****     if (cfg.speed == USBD_HS_SPEED)
 355:Drivers/STM32F4xx_HAL_Driver/Src/stm32f4xx_ll_usb.c ****     {
 356:Drivers/STM32F4xx_HAL_Driver/Src/stm32f4xx_ll_usb.c ****       /* Set Core speed to High speed mode */
 357:Drivers/STM32F4xx_HAL_Driver/Src/stm32f4xx_ll_usb.c ****       (void)USB_SetDevSpeed(USBx, USB_OTG_SPEED_HIGH);
 358:Drivers/STM32F4xx_HAL_Driver/Src/stm32f4xx_ll_usb.c ****     }
 359:Drivers/STM32F4xx_HAL_Driver/Src/stm32f4xx_ll_usb.c ****     else
 360:Drivers/STM32F4xx_HAL_Driver/Src/stm32f4xx_ll_usb.c ****     {
 361:Drivers/STM32F4xx_HAL_Driver/Src/stm32f4xx_ll_usb.c ****       /* Set Core speed to Full speed mode */
 362:Drivers/STM32F4xx_HAL_Driver/Src/stm32f4xx_ll_usb.c ****       (void)USB_SetDevSpeed(USBx, USB_OTG_SPEED_HIGH_IN_FULL);
 363:Drivers/STM32F4xx_HAL_Driver/Src/stm32f4xx_ll_usb.c ****     }
 364:Drivers/STM32F4xx_HAL_Driver/Src/stm32f4xx_ll_usb.c ****   }
 365:Drivers/STM32F4xx_HAL_Driver/Src/stm32f4xx_ll_usb.c ****   else
 366:Drivers/STM32F4xx_HAL_Driver/Src/stm32f4xx_ll_usb.c ****   {
 367:Drivers/STM32F4xx_HAL_Driver/Src/stm32f4xx_ll_usb.c ****     /* Set Core speed to Full speed mode */
 368:Drivers/STM32F4xx_HAL_Driver/Src/stm32f4xx_ll_usb.c ****     (void)USB_SetDevSpeed(USBx, USB_OTG_SPEED_FULL);
 369:Drivers/STM32F4xx_HAL_Driver/Src/stm32f4xx_ll_usb.c ****   }
 370:Drivers/STM32F4xx_HAL_Driver/Src/stm32f4xx_ll_usb.c **** 
 371:Drivers/STM32F4xx_HAL_Driver/Src/stm32f4xx_ll_usb.c ****   /* Flush the FIFOs */
ARM GAS  /tmp/ccTCOTTa.s 			page 8


 372:Drivers/STM32F4xx_HAL_Driver/Src/stm32f4xx_ll_usb.c ****   if (USB_FlushTxFifo(USBx, 0x10U) != HAL_OK) /* all Tx FIFOs */
 373:Drivers/STM32F4xx_HAL_Driver/Src/stm32f4xx_ll_usb.c ****   {
 374:Drivers/STM32F4xx_HAL_Driver/Src/stm32f4xx_ll_usb.c ****     ret = HAL_ERROR;
 375:Drivers/STM32F4xx_HAL_Driver/Src/stm32f4xx_ll_usb.c ****   }
 376:Drivers/STM32F4xx_HAL_Driver/Src/stm32f4xx_ll_usb.c **** 
 377:Drivers/STM32F4xx_HAL_Driver/Src/stm32f4xx_ll_usb.c ****   if (USB_FlushRxFifo(USBx) != HAL_OK)
 378:Drivers/STM32F4xx_HAL_Driver/Src/stm32f4xx_ll_usb.c ****   {
 379:Drivers/STM32F4xx_HAL_Driver/Src/stm32f4xx_ll_usb.c ****     ret = HAL_ERROR;
 380:Drivers/STM32F4xx_HAL_Driver/Src/stm32f4xx_ll_usb.c ****   }
 381:Drivers/STM32F4xx_HAL_Driver/Src/stm32f4xx_ll_usb.c **** 
 382:Drivers/STM32F4xx_HAL_Driver/Src/stm32f4xx_ll_usb.c ****   /* Clear all pending Device Interrupts */
 383:Drivers/STM32F4xx_HAL_Driver/Src/stm32f4xx_ll_usb.c ****   USBx_DEVICE->DIEPMSK = 0U;
 384:Drivers/STM32F4xx_HAL_Driver/Src/stm32f4xx_ll_usb.c ****   USBx_DEVICE->DOEPMSK = 0U;
 385:Drivers/STM32F4xx_HAL_Driver/Src/stm32f4xx_ll_usb.c ****   USBx_DEVICE->DAINTMSK = 0U;
 386:Drivers/STM32F4xx_HAL_Driver/Src/stm32f4xx_ll_usb.c **** 
 387:Drivers/STM32F4xx_HAL_Driver/Src/stm32f4xx_ll_usb.c ****   for (i = 0U; i < cfg.dev_endpoints; i++)
 388:Drivers/STM32F4xx_HAL_Driver/Src/stm32f4xx_ll_usb.c ****   {
 389:Drivers/STM32F4xx_HAL_Driver/Src/stm32f4xx_ll_usb.c ****     if ((USBx_INEP(i)->DIEPCTL & USB_OTG_DIEPCTL_EPENA) == USB_OTG_DIEPCTL_EPENA)
 390:Drivers/STM32F4xx_HAL_Driver/Src/stm32f4xx_ll_usb.c ****     {
 391:Drivers/STM32F4xx_HAL_Driver/Src/stm32f4xx_ll_usb.c ****       if (i == 0U)
 392:Drivers/STM32F4xx_HAL_Driver/Src/stm32f4xx_ll_usb.c ****       {
 393:Drivers/STM32F4xx_HAL_Driver/Src/stm32f4xx_ll_usb.c ****         USBx_INEP(i)->DIEPCTL = USB_OTG_DIEPCTL_SNAK;
 394:Drivers/STM32F4xx_HAL_Driver/Src/stm32f4xx_ll_usb.c ****       }
 395:Drivers/STM32F4xx_HAL_Driver/Src/stm32f4xx_ll_usb.c ****       else
 396:Drivers/STM32F4xx_HAL_Driver/Src/stm32f4xx_ll_usb.c ****       {
 397:Drivers/STM32F4xx_HAL_Driver/Src/stm32f4xx_ll_usb.c ****         USBx_INEP(i)->DIEPCTL = USB_OTG_DIEPCTL_EPDIS | USB_OTG_DIEPCTL_SNAK;
 398:Drivers/STM32F4xx_HAL_Driver/Src/stm32f4xx_ll_usb.c ****       }
 399:Drivers/STM32F4xx_HAL_Driver/Src/stm32f4xx_ll_usb.c ****     }
 400:Drivers/STM32F4xx_HAL_Driver/Src/stm32f4xx_ll_usb.c ****     else
 401:Drivers/STM32F4xx_HAL_Driver/Src/stm32f4xx_ll_usb.c ****     {
 402:Drivers/STM32F4xx_HAL_Driver/Src/stm32f4xx_ll_usb.c ****       USBx_INEP(i)->DIEPCTL = 0U;
 403:Drivers/STM32F4xx_HAL_Driver/Src/stm32f4xx_ll_usb.c ****     }
 404:Drivers/STM32F4xx_HAL_Driver/Src/stm32f4xx_ll_usb.c **** 
 405:Drivers/STM32F4xx_HAL_Driver/Src/stm32f4xx_ll_usb.c ****     USBx_INEP(i)->DIEPTSIZ = 0U;
 406:Drivers/STM32F4xx_HAL_Driver/Src/stm32f4xx_ll_usb.c ****     USBx_INEP(i)->DIEPINT  = 0xFB7FU;
 407:Drivers/STM32F4xx_HAL_Driver/Src/stm32f4xx_ll_usb.c ****   }
 408:Drivers/STM32F4xx_HAL_Driver/Src/stm32f4xx_ll_usb.c **** 
 409:Drivers/STM32F4xx_HAL_Driver/Src/stm32f4xx_ll_usb.c ****   for (i = 0U; i < cfg.dev_endpoints; i++)
 410:Drivers/STM32F4xx_HAL_Driver/Src/stm32f4xx_ll_usb.c ****   {
 411:Drivers/STM32F4xx_HAL_Driver/Src/stm32f4xx_ll_usb.c ****     if ((USBx_OUTEP(i)->DOEPCTL & USB_OTG_DOEPCTL_EPENA) == USB_OTG_DOEPCTL_EPENA)
 412:Drivers/STM32F4xx_HAL_Driver/Src/stm32f4xx_ll_usb.c ****     {
 413:Drivers/STM32F4xx_HAL_Driver/Src/stm32f4xx_ll_usb.c ****       if (i == 0U)
 414:Drivers/STM32F4xx_HAL_Driver/Src/stm32f4xx_ll_usb.c ****       {
 415:Drivers/STM32F4xx_HAL_Driver/Src/stm32f4xx_ll_usb.c ****         USBx_OUTEP(i)->DOEPCTL = USB_OTG_DOEPCTL_SNAK;
 416:Drivers/STM32F4xx_HAL_Driver/Src/stm32f4xx_ll_usb.c ****       }
 417:Drivers/STM32F4xx_HAL_Driver/Src/stm32f4xx_ll_usb.c ****       else
 418:Drivers/STM32F4xx_HAL_Driver/Src/stm32f4xx_ll_usb.c ****       {
 419:Drivers/STM32F4xx_HAL_Driver/Src/stm32f4xx_ll_usb.c ****         USBx_OUTEP(i)->DOEPCTL = USB_OTG_DOEPCTL_EPDIS | USB_OTG_DOEPCTL_SNAK;
 420:Drivers/STM32F4xx_HAL_Driver/Src/stm32f4xx_ll_usb.c ****       }
 421:Drivers/STM32F4xx_HAL_Driver/Src/stm32f4xx_ll_usb.c ****     }
 422:Drivers/STM32F4xx_HAL_Driver/Src/stm32f4xx_ll_usb.c ****     else
 423:Drivers/STM32F4xx_HAL_Driver/Src/stm32f4xx_ll_usb.c ****     {
 424:Drivers/STM32F4xx_HAL_Driver/Src/stm32f4xx_ll_usb.c ****       USBx_OUTEP(i)->DOEPCTL = 0U;
 425:Drivers/STM32F4xx_HAL_Driver/Src/stm32f4xx_ll_usb.c ****     }
 426:Drivers/STM32F4xx_HAL_Driver/Src/stm32f4xx_ll_usb.c **** 
 427:Drivers/STM32F4xx_HAL_Driver/Src/stm32f4xx_ll_usb.c ****     USBx_OUTEP(i)->DOEPTSIZ = 0U;
 428:Drivers/STM32F4xx_HAL_Driver/Src/stm32f4xx_ll_usb.c ****     USBx_OUTEP(i)->DOEPINT  = 0xFB7FU;
ARM GAS  /tmp/ccTCOTTa.s 			page 9


 429:Drivers/STM32F4xx_HAL_Driver/Src/stm32f4xx_ll_usb.c ****   }
 430:Drivers/STM32F4xx_HAL_Driver/Src/stm32f4xx_ll_usb.c **** 
 431:Drivers/STM32F4xx_HAL_Driver/Src/stm32f4xx_ll_usb.c ****   USBx_DEVICE->DIEPMSK &= ~(USB_OTG_DIEPMSK_TXFURM);
 432:Drivers/STM32F4xx_HAL_Driver/Src/stm32f4xx_ll_usb.c **** 
 433:Drivers/STM32F4xx_HAL_Driver/Src/stm32f4xx_ll_usb.c ****   /* Disable all interrupts. */
 434:Drivers/STM32F4xx_HAL_Driver/Src/stm32f4xx_ll_usb.c ****   USBx->GINTMSK = 0U;
 435:Drivers/STM32F4xx_HAL_Driver/Src/stm32f4xx_ll_usb.c **** 
 436:Drivers/STM32F4xx_HAL_Driver/Src/stm32f4xx_ll_usb.c ****   /* Clear any pending interrupts */
 437:Drivers/STM32F4xx_HAL_Driver/Src/stm32f4xx_ll_usb.c ****   USBx->GINTSTS = 0xBFFFFFFFU;
 438:Drivers/STM32F4xx_HAL_Driver/Src/stm32f4xx_ll_usb.c **** 
 439:Drivers/STM32F4xx_HAL_Driver/Src/stm32f4xx_ll_usb.c ****   /* Enable the common interrupts */
 440:Drivers/STM32F4xx_HAL_Driver/Src/stm32f4xx_ll_usb.c ****   if (cfg.dma_enable == 0U)
 441:Drivers/STM32F4xx_HAL_Driver/Src/stm32f4xx_ll_usb.c ****   {
 442:Drivers/STM32F4xx_HAL_Driver/Src/stm32f4xx_ll_usb.c ****     USBx->GINTMSK |= USB_OTG_GINTMSK_RXFLVLM;
 443:Drivers/STM32F4xx_HAL_Driver/Src/stm32f4xx_ll_usb.c ****   }
 444:Drivers/STM32F4xx_HAL_Driver/Src/stm32f4xx_ll_usb.c **** 
 445:Drivers/STM32F4xx_HAL_Driver/Src/stm32f4xx_ll_usb.c ****   /* Enable interrupts matching to the Device mode ONLY */
 446:Drivers/STM32F4xx_HAL_Driver/Src/stm32f4xx_ll_usb.c ****   USBx->GINTMSK |= USB_OTG_GINTMSK_USBSUSPM | USB_OTG_GINTMSK_USBRST |
 447:Drivers/STM32F4xx_HAL_Driver/Src/stm32f4xx_ll_usb.c ****                    USB_OTG_GINTMSK_ENUMDNEM | USB_OTG_GINTMSK_IEPINT |
 448:Drivers/STM32F4xx_HAL_Driver/Src/stm32f4xx_ll_usb.c ****                    USB_OTG_GINTMSK_OEPINT   | USB_OTG_GINTMSK_IISOIXFRM |
 449:Drivers/STM32F4xx_HAL_Driver/Src/stm32f4xx_ll_usb.c ****                    USB_OTG_GINTMSK_PXFRM_IISOOXFRM | USB_OTG_GINTMSK_WUIM;
 450:Drivers/STM32F4xx_HAL_Driver/Src/stm32f4xx_ll_usb.c **** 
 451:Drivers/STM32F4xx_HAL_Driver/Src/stm32f4xx_ll_usb.c ****   if (cfg.Sof_enable != 0U)
 452:Drivers/STM32F4xx_HAL_Driver/Src/stm32f4xx_ll_usb.c ****   {
 453:Drivers/STM32F4xx_HAL_Driver/Src/stm32f4xx_ll_usb.c ****     USBx->GINTMSK |= USB_OTG_GINTMSK_SOFM;
 454:Drivers/STM32F4xx_HAL_Driver/Src/stm32f4xx_ll_usb.c ****   }
 455:Drivers/STM32F4xx_HAL_Driver/Src/stm32f4xx_ll_usb.c **** 
 456:Drivers/STM32F4xx_HAL_Driver/Src/stm32f4xx_ll_usb.c ****   if (cfg.vbus_sensing_enable == 1U)
 457:Drivers/STM32F4xx_HAL_Driver/Src/stm32f4xx_ll_usb.c ****   {
 458:Drivers/STM32F4xx_HAL_Driver/Src/stm32f4xx_ll_usb.c ****     USBx->GINTMSK |= (USB_OTG_GINTMSK_SRQIM | USB_OTG_GINTMSK_OTGINT);
 459:Drivers/STM32F4xx_HAL_Driver/Src/stm32f4xx_ll_usb.c ****   }
 460:Drivers/STM32F4xx_HAL_Driver/Src/stm32f4xx_ll_usb.c **** 
 461:Drivers/STM32F4xx_HAL_Driver/Src/stm32f4xx_ll_usb.c ****   return ret;
 462:Drivers/STM32F4xx_HAL_Driver/Src/stm32f4xx_ll_usb.c **** }
 463:Drivers/STM32F4xx_HAL_Driver/Src/stm32f4xx_ll_usb.c **** 
 464:Drivers/STM32F4xx_HAL_Driver/Src/stm32f4xx_ll_usb.c **** /**
 465:Drivers/STM32F4xx_HAL_Driver/Src/stm32f4xx_ll_usb.c ****   * @brief  USB_OTG_FlushTxFifo : Flush a Tx FIFO
 466:Drivers/STM32F4xx_HAL_Driver/Src/stm32f4xx_ll_usb.c ****   * @param  USBx  Selected device
 467:Drivers/STM32F4xx_HAL_Driver/Src/stm32f4xx_ll_usb.c ****   * @param  num  FIFO number
 468:Drivers/STM32F4xx_HAL_Driver/Src/stm32f4xx_ll_usb.c ****   *         This parameter can be a value from 1 to 15
 469:Drivers/STM32F4xx_HAL_Driver/Src/stm32f4xx_ll_usb.c ****             15 means Flush all Tx FIFOs
 470:Drivers/STM32F4xx_HAL_Driver/Src/stm32f4xx_ll_usb.c ****   * @retval HAL status
 471:Drivers/STM32F4xx_HAL_Driver/Src/stm32f4xx_ll_usb.c ****   */
 472:Drivers/STM32F4xx_HAL_Driver/Src/stm32f4xx_ll_usb.c **** HAL_StatusTypeDef USB_FlushTxFifo(USB_OTG_GlobalTypeDef *USBx, uint32_t num)
 473:Drivers/STM32F4xx_HAL_Driver/Src/stm32f4xx_ll_usb.c **** {
 474:Drivers/STM32F4xx_HAL_Driver/Src/stm32f4xx_ll_usb.c ****   __IO uint32_t count = 0U;
 475:Drivers/STM32F4xx_HAL_Driver/Src/stm32f4xx_ll_usb.c **** 
 476:Drivers/STM32F4xx_HAL_Driver/Src/stm32f4xx_ll_usb.c ****   USBx->GRSTCTL = (USB_OTG_GRSTCTL_TXFFLSH | (num << 6));
 477:Drivers/STM32F4xx_HAL_Driver/Src/stm32f4xx_ll_usb.c **** 
 478:Drivers/STM32F4xx_HAL_Driver/Src/stm32f4xx_ll_usb.c ****   do
 479:Drivers/STM32F4xx_HAL_Driver/Src/stm32f4xx_ll_usb.c ****   {
 480:Drivers/STM32F4xx_HAL_Driver/Src/stm32f4xx_ll_usb.c ****     if (++count > 200000U)
 481:Drivers/STM32F4xx_HAL_Driver/Src/stm32f4xx_ll_usb.c ****     {
 482:Drivers/STM32F4xx_HAL_Driver/Src/stm32f4xx_ll_usb.c ****       return HAL_TIMEOUT;
 483:Drivers/STM32F4xx_HAL_Driver/Src/stm32f4xx_ll_usb.c ****     }
 484:Drivers/STM32F4xx_HAL_Driver/Src/stm32f4xx_ll_usb.c ****   } while ((USBx->GRSTCTL & USB_OTG_GRSTCTL_TXFFLSH) == USB_OTG_GRSTCTL_TXFFLSH);
 485:Drivers/STM32F4xx_HAL_Driver/Src/stm32f4xx_ll_usb.c **** 
ARM GAS  /tmp/ccTCOTTa.s 			page 10


 486:Drivers/STM32F4xx_HAL_Driver/Src/stm32f4xx_ll_usb.c ****   return HAL_OK;
 487:Drivers/STM32F4xx_HAL_Driver/Src/stm32f4xx_ll_usb.c **** }
 488:Drivers/STM32F4xx_HAL_Driver/Src/stm32f4xx_ll_usb.c **** 
 489:Drivers/STM32F4xx_HAL_Driver/Src/stm32f4xx_ll_usb.c **** /**
 490:Drivers/STM32F4xx_HAL_Driver/Src/stm32f4xx_ll_usb.c ****   * @brief  USB_FlushRxFifo : Flush Rx FIFO
 491:Drivers/STM32F4xx_HAL_Driver/Src/stm32f4xx_ll_usb.c ****   * @param  USBx  Selected device
 492:Drivers/STM32F4xx_HAL_Driver/Src/stm32f4xx_ll_usb.c ****   * @retval HAL status
 493:Drivers/STM32F4xx_HAL_Driver/Src/stm32f4xx_ll_usb.c ****   */
 494:Drivers/STM32F4xx_HAL_Driver/Src/stm32f4xx_ll_usb.c **** HAL_StatusTypeDef USB_FlushRxFifo(USB_OTG_GlobalTypeDef *USBx)
 495:Drivers/STM32F4xx_HAL_Driver/Src/stm32f4xx_ll_usb.c **** {
 496:Drivers/STM32F4xx_HAL_Driver/Src/stm32f4xx_ll_usb.c ****   __IO uint32_t count = 0U;
 497:Drivers/STM32F4xx_HAL_Driver/Src/stm32f4xx_ll_usb.c **** 
 498:Drivers/STM32F4xx_HAL_Driver/Src/stm32f4xx_ll_usb.c ****   USBx->GRSTCTL = USB_OTG_GRSTCTL_RXFFLSH;
 499:Drivers/STM32F4xx_HAL_Driver/Src/stm32f4xx_ll_usb.c **** 
 500:Drivers/STM32F4xx_HAL_Driver/Src/stm32f4xx_ll_usb.c ****   do
 501:Drivers/STM32F4xx_HAL_Driver/Src/stm32f4xx_ll_usb.c ****   {
 502:Drivers/STM32F4xx_HAL_Driver/Src/stm32f4xx_ll_usb.c ****     if (++count > 200000U)
 503:Drivers/STM32F4xx_HAL_Driver/Src/stm32f4xx_ll_usb.c ****     {
 504:Drivers/STM32F4xx_HAL_Driver/Src/stm32f4xx_ll_usb.c ****       return HAL_TIMEOUT;
 505:Drivers/STM32F4xx_HAL_Driver/Src/stm32f4xx_ll_usb.c ****     }
 506:Drivers/STM32F4xx_HAL_Driver/Src/stm32f4xx_ll_usb.c ****   } while ((USBx->GRSTCTL & USB_OTG_GRSTCTL_RXFFLSH) == USB_OTG_GRSTCTL_RXFFLSH);
 507:Drivers/STM32F4xx_HAL_Driver/Src/stm32f4xx_ll_usb.c **** 
 508:Drivers/STM32F4xx_HAL_Driver/Src/stm32f4xx_ll_usb.c ****   return HAL_OK;
 509:Drivers/STM32F4xx_HAL_Driver/Src/stm32f4xx_ll_usb.c **** }
 510:Drivers/STM32F4xx_HAL_Driver/Src/stm32f4xx_ll_usb.c **** 
 511:Drivers/STM32F4xx_HAL_Driver/Src/stm32f4xx_ll_usb.c **** /**
 512:Drivers/STM32F4xx_HAL_Driver/Src/stm32f4xx_ll_usb.c ****   * @brief  USB_SetDevSpeed  Initializes the DevSpd field of DCFG register
 513:Drivers/STM32F4xx_HAL_Driver/Src/stm32f4xx_ll_usb.c ****   *         depending the PHY type and the enumeration speed of the device.
 514:Drivers/STM32F4xx_HAL_Driver/Src/stm32f4xx_ll_usb.c ****   * @param  USBx  Selected device
 515:Drivers/STM32F4xx_HAL_Driver/Src/stm32f4xx_ll_usb.c ****   * @param  speed  device speed
 516:Drivers/STM32F4xx_HAL_Driver/Src/stm32f4xx_ll_usb.c ****   *          This parameter can be one of these values:
 517:Drivers/STM32F4xx_HAL_Driver/Src/stm32f4xx_ll_usb.c ****   *            @arg USB_OTG_SPEED_HIGH: High speed mode
 518:Drivers/STM32F4xx_HAL_Driver/Src/stm32f4xx_ll_usb.c ****   *            @arg USB_OTG_SPEED_HIGH_IN_FULL: High speed core in Full Speed mode
 519:Drivers/STM32F4xx_HAL_Driver/Src/stm32f4xx_ll_usb.c ****   *            @arg USB_OTG_SPEED_FULL: Full speed mode
 520:Drivers/STM32F4xx_HAL_Driver/Src/stm32f4xx_ll_usb.c ****   * @retval  Hal status
 521:Drivers/STM32F4xx_HAL_Driver/Src/stm32f4xx_ll_usb.c ****   */
 522:Drivers/STM32F4xx_HAL_Driver/Src/stm32f4xx_ll_usb.c **** HAL_StatusTypeDef USB_SetDevSpeed(USB_OTG_GlobalTypeDef *USBx, uint8_t speed)
 523:Drivers/STM32F4xx_HAL_Driver/Src/stm32f4xx_ll_usb.c **** {
 524:Drivers/STM32F4xx_HAL_Driver/Src/stm32f4xx_ll_usb.c ****   uint32_t USBx_BASE = (uint32_t)USBx;
 525:Drivers/STM32F4xx_HAL_Driver/Src/stm32f4xx_ll_usb.c **** 
 526:Drivers/STM32F4xx_HAL_Driver/Src/stm32f4xx_ll_usb.c ****   USBx_DEVICE->DCFG |= speed;
 527:Drivers/STM32F4xx_HAL_Driver/Src/stm32f4xx_ll_usb.c ****   return HAL_OK;
 528:Drivers/STM32F4xx_HAL_Driver/Src/stm32f4xx_ll_usb.c **** }
 529:Drivers/STM32F4xx_HAL_Driver/Src/stm32f4xx_ll_usb.c **** 
 530:Drivers/STM32F4xx_HAL_Driver/Src/stm32f4xx_ll_usb.c **** /**
 531:Drivers/STM32F4xx_HAL_Driver/Src/stm32f4xx_ll_usb.c ****   * @brief  USB_GetDevSpeed  Return the Dev Speed
 532:Drivers/STM32F4xx_HAL_Driver/Src/stm32f4xx_ll_usb.c ****   * @param  USBx  Selected device
 533:Drivers/STM32F4xx_HAL_Driver/Src/stm32f4xx_ll_usb.c ****   * @retval speed  device speed
 534:Drivers/STM32F4xx_HAL_Driver/Src/stm32f4xx_ll_usb.c ****   *          This parameter can be one of these values:
 535:Drivers/STM32F4xx_HAL_Driver/Src/stm32f4xx_ll_usb.c ****   *            @arg USBD_HS_SPEED: High speed mode
 536:Drivers/STM32F4xx_HAL_Driver/Src/stm32f4xx_ll_usb.c ****   *            @arg USBD_FS_SPEED: Full speed mode
 537:Drivers/STM32F4xx_HAL_Driver/Src/stm32f4xx_ll_usb.c ****   */
 538:Drivers/STM32F4xx_HAL_Driver/Src/stm32f4xx_ll_usb.c **** uint8_t USB_GetDevSpeed(USB_OTG_GlobalTypeDef *USBx)
 539:Drivers/STM32F4xx_HAL_Driver/Src/stm32f4xx_ll_usb.c **** {
 540:Drivers/STM32F4xx_HAL_Driver/Src/stm32f4xx_ll_usb.c ****   uint32_t USBx_BASE = (uint32_t)USBx;
 541:Drivers/STM32F4xx_HAL_Driver/Src/stm32f4xx_ll_usb.c ****   uint8_t speed;
 542:Drivers/STM32F4xx_HAL_Driver/Src/stm32f4xx_ll_usb.c ****   uint32_t DevEnumSpeed = USBx_DEVICE->DSTS & USB_OTG_DSTS_ENUMSPD;
ARM GAS  /tmp/ccTCOTTa.s 			page 11


 543:Drivers/STM32F4xx_HAL_Driver/Src/stm32f4xx_ll_usb.c **** 
 544:Drivers/STM32F4xx_HAL_Driver/Src/stm32f4xx_ll_usb.c ****   if (DevEnumSpeed == DSTS_ENUMSPD_HS_PHY_30MHZ_OR_60MHZ)
 545:Drivers/STM32F4xx_HAL_Driver/Src/stm32f4xx_ll_usb.c ****   {
 546:Drivers/STM32F4xx_HAL_Driver/Src/stm32f4xx_ll_usb.c ****     speed = USBD_HS_SPEED;
 547:Drivers/STM32F4xx_HAL_Driver/Src/stm32f4xx_ll_usb.c ****   }
 548:Drivers/STM32F4xx_HAL_Driver/Src/stm32f4xx_ll_usb.c ****   else if ((DevEnumSpeed == DSTS_ENUMSPD_FS_PHY_30MHZ_OR_60MHZ) ||
 549:Drivers/STM32F4xx_HAL_Driver/Src/stm32f4xx_ll_usb.c ****            (DevEnumSpeed == DSTS_ENUMSPD_FS_PHY_48MHZ))
 550:Drivers/STM32F4xx_HAL_Driver/Src/stm32f4xx_ll_usb.c ****   {
 551:Drivers/STM32F4xx_HAL_Driver/Src/stm32f4xx_ll_usb.c ****     speed = USBD_FS_SPEED;
 552:Drivers/STM32F4xx_HAL_Driver/Src/stm32f4xx_ll_usb.c ****   }
 553:Drivers/STM32F4xx_HAL_Driver/Src/stm32f4xx_ll_usb.c ****   else
 554:Drivers/STM32F4xx_HAL_Driver/Src/stm32f4xx_ll_usb.c ****   {
 555:Drivers/STM32F4xx_HAL_Driver/Src/stm32f4xx_ll_usb.c ****     speed = 0xFU;
 556:Drivers/STM32F4xx_HAL_Driver/Src/stm32f4xx_ll_usb.c ****   }
 557:Drivers/STM32F4xx_HAL_Driver/Src/stm32f4xx_ll_usb.c **** 
 558:Drivers/STM32F4xx_HAL_Driver/Src/stm32f4xx_ll_usb.c ****   return speed;
 559:Drivers/STM32F4xx_HAL_Driver/Src/stm32f4xx_ll_usb.c **** }
 560:Drivers/STM32F4xx_HAL_Driver/Src/stm32f4xx_ll_usb.c **** 
 561:Drivers/STM32F4xx_HAL_Driver/Src/stm32f4xx_ll_usb.c **** /**
 562:Drivers/STM32F4xx_HAL_Driver/Src/stm32f4xx_ll_usb.c ****   * @brief  Activate and configure an endpoint
 563:Drivers/STM32F4xx_HAL_Driver/Src/stm32f4xx_ll_usb.c ****   * @param  USBx  Selected device
 564:Drivers/STM32F4xx_HAL_Driver/Src/stm32f4xx_ll_usb.c ****   * @param  ep pointer to endpoint structure
 565:Drivers/STM32F4xx_HAL_Driver/Src/stm32f4xx_ll_usb.c ****   * @retval HAL status
 566:Drivers/STM32F4xx_HAL_Driver/Src/stm32f4xx_ll_usb.c ****   */
 567:Drivers/STM32F4xx_HAL_Driver/Src/stm32f4xx_ll_usb.c **** HAL_StatusTypeDef USB_ActivateEndpoint(USB_OTG_GlobalTypeDef *USBx, USB_OTG_EPTypeDef *ep)
 568:Drivers/STM32F4xx_HAL_Driver/Src/stm32f4xx_ll_usb.c **** {
 569:Drivers/STM32F4xx_HAL_Driver/Src/stm32f4xx_ll_usb.c ****   uint32_t USBx_BASE = (uint32_t)USBx;
 570:Drivers/STM32F4xx_HAL_Driver/Src/stm32f4xx_ll_usb.c ****   uint32_t epnum = (uint32_t)ep->num;
 571:Drivers/STM32F4xx_HAL_Driver/Src/stm32f4xx_ll_usb.c **** 
 572:Drivers/STM32F4xx_HAL_Driver/Src/stm32f4xx_ll_usb.c ****   if (ep->is_in == 1U)
 573:Drivers/STM32F4xx_HAL_Driver/Src/stm32f4xx_ll_usb.c ****   {
 574:Drivers/STM32F4xx_HAL_Driver/Src/stm32f4xx_ll_usb.c ****     USBx_DEVICE->DAINTMSK |= USB_OTG_DAINTMSK_IEPM & (uint32_t)(1UL << (ep->num & EP_ADDR_MSK));
 575:Drivers/STM32F4xx_HAL_Driver/Src/stm32f4xx_ll_usb.c **** 
 576:Drivers/STM32F4xx_HAL_Driver/Src/stm32f4xx_ll_usb.c ****     if ((USBx_INEP(epnum)->DIEPCTL & USB_OTG_DIEPCTL_USBAEP) == 0U)
 577:Drivers/STM32F4xx_HAL_Driver/Src/stm32f4xx_ll_usb.c ****     {
 578:Drivers/STM32F4xx_HAL_Driver/Src/stm32f4xx_ll_usb.c ****       USBx_INEP(epnum)->DIEPCTL |= (ep->maxpacket & USB_OTG_DIEPCTL_MPSIZ) |
 579:Drivers/STM32F4xx_HAL_Driver/Src/stm32f4xx_ll_usb.c ****                                    ((uint32_t)ep->type << 18) | (epnum << 22) |
 580:Drivers/STM32F4xx_HAL_Driver/Src/stm32f4xx_ll_usb.c ****                                    USB_OTG_DIEPCTL_SD0PID_SEVNFRM |
 581:Drivers/STM32F4xx_HAL_Driver/Src/stm32f4xx_ll_usb.c ****                                    USB_OTG_DIEPCTL_USBAEP;
 582:Drivers/STM32F4xx_HAL_Driver/Src/stm32f4xx_ll_usb.c ****     }
 583:Drivers/STM32F4xx_HAL_Driver/Src/stm32f4xx_ll_usb.c ****   }
 584:Drivers/STM32F4xx_HAL_Driver/Src/stm32f4xx_ll_usb.c ****   else
 585:Drivers/STM32F4xx_HAL_Driver/Src/stm32f4xx_ll_usb.c ****   {
 586:Drivers/STM32F4xx_HAL_Driver/Src/stm32f4xx_ll_usb.c ****     USBx_DEVICE->DAINTMSK |= USB_OTG_DAINTMSK_OEPM & ((uint32_t)(1UL << (ep->num & EP_ADDR_MSK)) <<
 587:Drivers/STM32F4xx_HAL_Driver/Src/stm32f4xx_ll_usb.c **** 
 588:Drivers/STM32F4xx_HAL_Driver/Src/stm32f4xx_ll_usb.c ****     if (((USBx_OUTEP(epnum)->DOEPCTL) & USB_OTG_DOEPCTL_USBAEP) == 0U)
 589:Drivers/STM32F4xx_HAL_Driver/Src/stm32f4xx_ll_usb.c ****     {
 590:Drivers/STM32F4xx_HAL_Driver/Src/stm32f4xx_ll_usb.c ****       USBx_OUTEP(epnum)->DOEPCTL |= (ep->maxpacket & USB_OTG_DOEPCTL_MPSIZ) |
 591:Drivers/STM32F4xx_HAL_Driver/Src/stm32f4xx_ll_usb.c ****                                     ((uint32_t)ep->type << 18) |
 592:Drivers/STM32F4xx_HAL_Driver/Src/stm32f4xx_ll_usb.c ****                                     USB_OTG_DIEPCTL_SD0PID_SEVNFRM |
 593:Drivers/STM32F4xx_HAL_Driver/Src/stm32f4xx_ll_usb.c ****                                     USB_OTG_DOEPCTL_USBAEP;
 594:Drivers/STM32F4xx_HAL_Driver/Src/stm32f4xx_ll_usb.c ****     }
 595:Drivers/STM32F4xx_HAL_Driver/Src/stm32f4xx_ll_usb.c ****   }
 596:Drivers/STM32F4xx_HAL_Driver/Src/stm32f4xx_ll_usb.c ****   return HAL_OK;
 597:Drivers/STM32F4xx_HAL_Driver/Src/stm32f4xx_ll_usb.c **** }
 598:Drivers/STM32F4xx_HAL_Driver/Src/stm32f4xx_ll_usb.c **** 
 599:Drivers/STM32F4xx_HAL_Driver/Src/stm32f4xx_ll_usb.c **** /**
ARM GAS  /tmp/ccTCOTTa.s 			page 12


 600:Drivers/STM32F4xx_HAL_Driver/Src/stm32f4xx_ll_usb.c ****   * @brief  Activate and configure a dedicated endpoint
 601:Drivers/STM32F4xx_HAL_Driver/Src/stm32f4xx_ll_usb.c ****   * @param  USBx  Selected device
 602:Drivers/STM32F4xx_HAL_Driver/Src/stm32f4xx_ll_usb.c ****   * @param  ep pointer to endpoint structure
 603:Drivers/STM32F4xx_HAL_Driver/Src/stm32f4xx_ll_usb.c ****   * @retval HAL status
 604:Drivers/STM32F4xx_HAL_Driver/Src/stm32f4xx_ll_usb.c ****   */
 605:Drivers/STM32F4xx_HAL_Driver/Src/stm32f4xx_ll_usb.c **** HAL_StatusTypeDef USB_ActivateDedicatedEndpoint(USB_OTG_GlobalTypeDef *USBx, USB_OTG_EPTypeDef *ep)
 606:Drivers/STM32F4xx_HAL_Driver/Src/stm32f4xx_ll_usb.c **** {
 607:Drivers/STM32F4xx_HAL_Driver/Src/stm32f4xx_ll_usb.c ****   uint32_t USBx_BASE = (uint32_t)USBx;
 608:Drivers/STM32F4xx_HAL_Driver/Src/stm32f4xx_ll_usb.c ****   uint32_t epnum = (uint32_t)ep->num;
 609:Drivers/STM32F4xx_HAL_Driver/Src/stm32f4xx_ll_usb.c **** 
 610:Drivers/STM32F4xx_HAL_Driver/Src/stm32f4xx_ll_usb.c ****   /* Read DEPCTLn register */
 611:Drivers/STM32F4xx_HAL_Driver/Src/stm32f4xx_ll_usb.c ****   if (ep->is_in == 1U)
 612:Drivers/STM32F4xx_HAL_Driver/Src/stm32f4xx_ll_usb.c ****   {
 613:Drivers/STM32F4xx_HAL_Driver/Src/stm32f4xx_ll_usb.c ****     if (((USBx_INEP(epnum)->DIEPCTL) & USB_OTG_DIEPCTL_USBAEP) == 0U)
 614:Drivers/STM32F4xx_HAL_Driver/Src/stm32f4xx_ll_usb.c ****     {
 615:Drivers/STM32F4xx_HAL_Driver/Src/stm32f4xx_ll_usb.c ****       USBx_INEP(epnum)->DIEPCTL |= (ep->maxpacket & USB_OTG_DIEPCTL_MPSIZ) |
 616:Drivers/STM32F4xx_HAL_Driver/Src/stm32f4xx_ll_usb.c ****                                    ((uint32_t)ep->type << 18) | (epnum << 22) |
 617:Drivers/STM32F4xx_HAL_Driver/Src/stm32f4xx_ll_usb.c ****                                    USB_OTG_DIEPCTL_SD0PID_SEVNFRM |
 618:Drivers/STM32F4xx_HAL_Driver/Src/stm32f4xx_ll_usb.c ****                                    USB_OTG_DIEPCTL_USBAEP;
 619:Drivers/STM32F4xx_HAL_Driver/Src/stm32f4xx_ll_usb.c ****     }
 620:Drivers/STM32F4xx_HAL_Driver/Src/stm32f4xx_ll_usb.c **** 
 621:Drivers/STM32F4xx_HAL_Driver/Src/stm32f4xx_ll_usb.c ****     USBx_DEVICE->DEACHMSK |= USB_OTG_DAINTMSK_IEPM & (uint32_t)(1UL << (ep->num & EP_ADDR_MSK));
 622:Drivers/STM32F4xx_HAL_Driver/Src/stm32f4xx_ll_usb.c ****   }
 623:Drivers/STM32F4xx_HAL_Driver/Src/stm32f4xx_ll_usb.c ****   else
 624:Drivers/STM32F4xx_HAL_Driver/Src/stm32f4xx_ll_usb.c ****   {
 625:Drivers/STM32F4xx_HAL_Driver/Src/stm32f4xx_ll_usb.c ****     if (((USBx_OUTEP(epnum)->DOEPCTL) & USB_OTG_DOEPCTL_USBAEP) == 0U)
 626:Drivers/STM32F4xx_HAL_Driver/Src/stm32f4xx_ll_usb.c ****     {
 627:Drivers/STM32F4xx_HAL_Driver/Src/stm32f4xx_ll_usb.c ****       USBx_OUTEP(epnum)->DOEPCTL |= (ep->maxpacket & USB_OTG_DOEPCTL_MPSIZ) |
 628:Drivers/STM32F4xx_HAL_Driver/Src/stm32f4xx_ll_usb.c ****                                     ((uint32_t)ep->type << 18) | (epnum << 22) |
 629:Drivers/STM32F4xx_HAL_Driver/Src/stm32f4xx_ll_usb.c ****                                     USB_OTG_DOEPCTL_USBAEP;
 630:Drivers/STM32F4xx_HAL_Driver/Src/stm32f4xx_ll_usb.c ****     }
 631:Drivers/STM32F4xx_HAL_Driver/Src/stm32f4xx_ll_usb.c **** 
 632:Drivers/STM32F4xx_HAL_Driver/Src/stm32f4xx_ll_usb.c ****     USBx_DEVICE->DEACHMSK |= USB_OTG_DAINTMSK_OEPM & ((uint32_t)(1UL << (ep->num & EP_ADDR_MSK)) <<
 633:Drivers/STM32F4xx_HAL_Driver/Src/stm32f4xx_ll_usb.c ****   }
 634:Drivers/STM32F4xx_HAL_Driver/Src/stm32f4xx_ll_usb.c **** 
 635:Drivers/STM32F4xx_HAL_Driver/Src/stm32f4xx_ll_usb.c ****   return HAL_OK;
 636:Drivers/STM32F4xx_HAL_Driver/Src/stm32f4xx_ll_usb.c **** }
 637:Drivers/STM32F4xx_HAL_Driver/Src/stm32f4xx_ll_usb.c **** 
 638:Drivers/STM32F4xx_HAL_Driver/Src/stm32f4xx_ll_usb.c **** /**
 639:Drivers/STM32F4xx_HAL_Driver/Src/stm32f4xx_ll_usb.c ****   * @brief  De-activate and de-initialize an endpoint
 640:Drivers/STM32F4xx_HAL_Driver/Src/stm32f4xx_ll_usb.c ****   * @param  USBx  Selected device
 641:Drivers/STM32F4xx_HAL_Driver/Src/stm32f4xx_ll_usb.c ****   * @param  ep pointer to endpoint structure
 642:Drivers/STM32F4xx_HAL_Driver/Src/stm32f4xx_ll_usb.c ****   * @retval HAL status
 643:Drivers/STM32F4xx_HAL_Driver/Src/stm32f4xx_ll_usb.c ****   */
 644:Drivers/STM32F4xx_HAL_Driver/Src/stm32f4xx_ll_usb.c **** HAL_StatusTypeDef USB_DeactivateEndpoint(USB_OTG_GlobalTypeDef *USBx, USB_OTG_EPTypeDef *ep)
 645:Drivers/STM32F4xx_HAL_Driver/Src/stm32f4xx_ll_usb.c **** {
 646:Drivers/STM32F4xx_HAL_Driver/Src/stm32f4xx_ll_usb.c ****   uint32_t USBx_BASE = (uint32_t)USBx;
 647:Drivers/STM32F4xx_HAL_Driver/Src/stm32f4xx_ll_usb.c ****   uint32_t epnum = (uint32_t)ep->num;
 648:Drivers/STM32F4xx_HAL_Driver/Src/stm32f4xx_ll_usb.c **** 
 649:Drivers/STM32F4xx_HAL_Driver/Src/stm32f4xx_ll_usb.c ****   /* Read DEPCTLn register */
 650:Drivers/STM32F4xx_HAL_Driver/Src/stm32f4xx_ll_usb.c ****   if (ep->is_in == 1U)
 651:Drivers/STM32F4xx_HAL_Driver/Src/stm32f4xx_ll_usb.c ****   {
 652:Drivers/STM32F4xx_HAL_Driver/Src/stm32f4xx_ll_usb.c ****     if ((USBx_INEP(epnum)->DIEPCTL & USB_OTG_DIEPCTL_EPENA) == USB_OTG_DIEPCTL_EPENA)
 653:Drivers/STM32F4xx_HAL_Driver/Src/stm32f4xx_ll_usb.c ****     {
 654:Drivers/STM32F4xx_HAL_Driver/Src/stm32f4xx_ll_usb.c ****       USBx_INEP(epnum)->DIEPCTL |= USB_OTG_DIEPCTL_SNAK;
 655:Drivers/STM32F4xx_HAL_Driver/Src/stm32f4xx_ll_usb.c ****       USBx_INEP(epnum)->DIEPCTL |= USB_OTG_DIEPCTL_EPDIS;
 656:Drivers/STM32F4xx_HAL_Driver/Src/stm32f4xx_ll_usb.c ****     }
ARM GAS  /tmp/ccTCOTTa.s 			page 13


 657:Drivers/STM32F4xx_HAL_Driver/Src/stm32f4xx_ll_usb.c **** 
 658:Drivers/STM32F4xx_HAL_Driver/Src/stm32f4xx_ll_usb.c ****     USBx_DEVICE->DEACHMSK &= ~(USB_OTG_DAINTMSK_IEPM & (uint32_t)(1UL << (ep->num & EP_ADDR_MSK)));
 659:Drivers/STM32F4xx_HAL_Driver/Src/stm32f4xx_ll_usb.c ****     USBx_DEVICE->DAINTMSK &= ~(USB_OTG_DAINTMSK_IEPM & (uint32_t)(1UL << (ep->num & EP_ADDR_MSK)));
 660:Drivers/STM32F4xx_HAL_Driver/Src/stm32f4xx_ll_usb.c ****     USBx_INEP(epnum)->DIEPCTL &= ~(USB_OTG_DIEPCTL_USBAEP |
 661:Drivers/STM32F4xx_HAL_Driver/Src/stm32f4xx_ll_usb.c ****                                    USB_OTG_DIEPCTL_MPSIZ |
 662:Drivers/STM32F4xx_HAL_Driver/Src/stm32f4xx_ll_usb.c ****                                    USB_OTG_DIEPCTL_TXFNUM |
 663:Drivers/STM32F4xx_HAL_Driver/Src/stm32f4xx_ll_usb.c ****                                    USB_OTG_DIEPCTL_SD0PID_SEVNFRM |
 664:Drivers/STM32F4xx_HAL_Driver/Src/stm32f4xx_ll_usb.c ****                                    USB_OTG_DIEPCTL_EPTYP);
 665:Drivers/STM32F4xx_HAL_Driver/Src/stm32f4xx_ll_usb.c ****   }
 666:Drivers/STM32F4xx_HAL_Driver/Src/stm32f4xx_ll_usb.c ****   else
 667:Drivers/STM32F4xx_HAL_Driver/Src/stm32f4xx_ll_usb.c ****   {
 668:Drivers/STM32F4xx_HAL_Driver/Src/stm32f4xx_ll_usb.c ****     if ((USBx_OUTEP(epnum)->DOEPCTL & USB_OTG_DOEPCTL_EPENA) == USB_OTG_DOEPCTL_EPENA)
 669:Drivers/STM32F4xx_HAL_Driver/Src/stm32f4xx_ll_usb.c ****     {
 670:Drivers/STM32F4xx_HAL_Driver/Src/stm32f4xx_ll_usb.c ****       USBx_OUTEP(epnum)->DOEPCTL |= USB_OTG_DOEPCTL_SNAK;
 671:Drivers/STM32F4xx_HAL_Driver/Src/stm32f4xx_ll_usb.c ****       USBx_OUTEP(epnum)->DOEPCTL |= USB_OTG_DOEPCTL_EPDIS;
 672:Drivers/STM32F4xx_HAL_Driver/Src/stm32f4xx_ll_usb.c ****     }
 673:Drivers/STM32F4xx_HAL_Driver/Src/stm32f4xx_ll_usb.c **** 
 674:Drivers/STM32F4xx_HAL_Driver/Src/stm32f4xx_ll_usb.c ****     USBx_DEVICE->DEACHMSK &= ~(USB_OTG_DAINTMSK_OEPM & ((uint32_t)(1UL << (ep->num & EP_ADDR_MSK)) 
 675:Drivers/STM32F4xx_HAL_Driver/Src/stm32f4xx_ll_usb.c ****     USBx_DEVICE->DAINTMSK &= ~(USB_OTG_DAINTMSK_OEPM & ((uint32_t)(1UL << (ep->num & EP_ADDR_MSK)) 
 676:Drivers/STM32F4xx_HAL_Driver/Src/stm32f4xx_ll_usb.c ****     USBx_OUTEP(epnum)->DOEPCTL &= ~(USB_OTG_DOEPCTL_USBAEP |
 677:Drivers/STM32F4xx_HAL_Driver/Src/stm32f4xx_ll_usb.c ****                                     USB_OTG_DOEPCTL_MPSIZ |
 678:Drivers/STM32F4xx_HAL_Driver/Src/stm32f4xx_ll_usb.c ****                                     USB_OTG_DOEPCTL_SD0PID_SEVNFRM |
 679:Drivers/STM32F4xx_HAL_Driver/Src/stm32f4xx_ll_usb.c ****                                     USB_OTG_DOEPCTL_EPTYP);
 680:Drivers/STM32F4xx_HAL_Driver/Src/stm32f4xx_ll_usb.c ****   }
 681:Drivers/STM32F4xx_HAL_Driver/Src/stm32f4xx_ll_usb.c **** 
 682:Drivers/STM32F4xx_HAL_Driver/Src/stm32f4xx_ll_usb.c ****   return HAL_OK;
 683:Drivers/STM32F4xx_HAL_Driver/Src/stm32f4xx_ll_usb.c **** }
 684:Drivers/STM32F4xx_HAL_Driver/Src/stm32f4xx_ll_usb.c **** 
 685:Drivers/STM32F4xx_HAL_Driver/Src/stm32f4xx_ll_usb.c **** /**
 686:Drivers/STM32F4xx_HAL_Driver/Src/stm32f4xx_ll_usb.c ****   * @brief  De-activate and de-initialize a dedicated endpoint
 687:Drivers/STM32F4xx_HAL_Driver/Src/stm32f4xx_ll_usb.c ****   * @param  USBx  Selected device
 688:Drivers/STM32F4xx_HAL_Driver/Src/stm32f4xx_ll_usb.c ****   * @param  ep pointer to endpoint structure
 689:Drivers/STM32F4xx_HAL_Driver/Src/stm32f4xx_ll_usb.c ****   * @retval HAL status
 690:Drivers/STM32F4xx_HAL_Driver/Src/stm32f4xx_ll_usb.c ****   */
 691:Drivers/STM32F4xx_HAL_Driver/Src/stm32f4xx_ll_usb.c **** HAL_StatusTypeDef USB_DeactivateDedicatedEndpoint(USB_OTG_GlobalTypeDef *USBx, USB_OTG_EPTypeDef *e
 692:Drivers/STM32F4xx_HAL_Driver/Src/stm32f4xx_ll_usb.c **** {
 693:Drivers/STM32F4xx_HAL_Driver/Src/stm32f4xx_ll_usb.c ****   uint32_t USBx_BASE = (uint32_t)USBx;
 694:Drivers/STM32F4xx_HAL_Driver/Src/stm32f4xx_ll_usb.c ****   uint32_t epnum = (uint32_t)ep->num;
 695:Drivers/STM32F4xx_HAL_Driver/Src/stm32f4xx_ll_usb.c **** 
 696:Drivers/STM32F4xx_HAL_Driver/Src/stm32f4xx_ll_usb.c ****   /* Read DEPCTLn register */
 697:Drivers/STM32F4xx_HAL_Driver/Src/stm32f4xx_ll_usb.c ****   if (ep->is_in == 1U)
 698:Drivers/STM32F4xx_HAL_Driver/Src/stm32f4xx_ll_usb.c ****   {
 699:Drivers/STM32F4xx_HAL_Driver/Src/stm32f4xx_ll_usb.c ****     if ((USBx_INEP(epnum)->DIEPCTL & USB_OTG_DIEPCTL_EPENA) == USB_OTG_DIEPCTL_EPENA)
 700:Drivers/STM32F4xx_HAL_Driver/Src/stm32f4xx_ll_usb.c ****     {
 701:Drivers/STM32F4xx_HAL_Driver/Src/stm32f4xx_ll_usb.c ****       USBx_INEP(epnum)->DIEPCTL  |= USB_OTG_DIEPCTL_SNAK;
 702:Drivers/STM32F4xx_HAL_Driver/Src/stm32f4xx_ll_usb.c ****       USBx_INEP(epnum)->DIEPCTL  |= USB_OTG_DIEPCTL_EPDIS;
 703:Drivers/STM32F4xx_HAL_Driver/Src/stm32f4xx_ll_usb.c ****     }
 704:Drivers/STM32F4xx_HAL_Driver/Src/stm32f4xx_ll_usb.c **** 
 705:Drivers/STM32F4xx_HAL_Driver/Src/stm32f4xx_ll_usb.c ****     USBx_INEP(epnum)->DIEPCTL &= ~ USB_OTG_DIEPCTL_USBAEP;
 706:Drivers/STM32F4xx_HAL_Driver/Src/stm32f4xx_ll_usb.c ****     USBx_DEVICE->DAINTMSK &= ~(USB_OTG_DAINTMSK_IEPM & (uint32_t)(1UL << (ep->num & EP_ADDR_MSK)));
 707:Drivers/STM32F4xx_HAL_Driver/Src/stm32f4xx_ll_usb.c ****   }
 708:Drivers/STM32F4xx_HAL_Driver/Src/stm32f4xx_ll_usb.c ****   else
 709:Drivers/STM32F4xx_HAL_Driver/Src/stm32f4xx_ll_usb.c ****   {
 710:Drivers/STM32F4xx_HAL_Driver/Src/stm32f4xx_ll_usb.c ****     if ((USBx_OUTEP(epnum)->DOEPCTL & USB_OTG_DOEPCTL_EPENA) == USB_OTG_DOEPCTL_EPENA)
 711:Drivers/STM32F4xx_HAL_Driver/Src/stm32f4xx_ll_usb.c ****     {
 712:Drivers/STM32F4xx_HAL_Driver/Src/stm32f4xx_ll_usb.c ****       USBx_OUTEP(epnum)->DOEPCTL  |= USB_OTG_DOEPCTL_SNAK;
 713:Drivers/STM32F4xx_HAL_Driver/Src/stm32f4xx_ll_usb.c ****       USBx_OUTEP(epnum)->DOEPCTL  |= USB_OTG_DOEPCTL_EPDIS;
ARM GAS  /tmp/ccTCOTTa.s 			page 14


 714:Drivers/STM32F4xx_HAL_Driver/Src/stm32f4xx_ll_usb.c ****     }
 715:Drivers/STM32F4xx_HAL_Driver/Src/stm32f4xx_ll_usb.c **** 
 716:Drivers/STM32F4xx_HAL_Driver/Src/stm32f4xx_ll_usb.c ****     USBx_OUTEP(epnum)->DOEPCTL &= ~USB_OTG_DOEPCTL_USBAEP;
 717:Drivers/STM32F4xx_HAL_Driver/Src/stm32f4xx_ll_usb.c ****     USBx_DEVICE->DAINTMSK &= ~(USB_OTG_DAINTMSK_OEPM & ((uint32_t)(1UL << (ep->num & EP_ADDR_MSK)) 
 718:Drivers/STM32F4xx_HAL_Driver/Src/stm32f4xx_ll_usb.c ****   }
 719:Drivers/STM32F4xx_HAL_Driver/Src/stm32f4xx_ll_usb.c **** 
 720:Drivers/STM32F4xx_HAL_Driver/Src/stm32f4xx_ll_usb.c ****   return HAL_OK;
 721:Drivers/STM32F4xx_HAL_Driver/Src/stm32f4xx_ll_usb.c **** }
 722:Drivers/STM32F4xx_HAL_Driver/Src/stm32f4xx_ll_usb.c **** 
 723:Drivers/STM32F4xx_HAL_Driver/Src/stm32f4xx_ll_usb.c **** /**
 724:Drivers/STM32F4xx_HAL_Driver/Src/stm32f4xx_ll_usb.c ****   * @brief  USB_EPStartXfer : setup and starts a transfer over an EP
 725:Drivers/STM32F4xx_HAL_Driver/Src/stm32f4xx_ll_usb.c ****   * @param  USBx  Selected device
 726:Drivers/STM32F4xx_HAL_Driver/Src/stm32f4xx_ll_usb.c ****   * @param  ep pointer to endpoint structure
 727:Drivers/STM32F4xx_HAL_Driver/Src/stm32f4xx_ll_usb.c ****   * @param  dma USB dma enabled or disabled
 728:Drivers/STM32F4xx_HAL_Driver/Src/stm32f4xx_ll_usb.c ****   *          This parameter can be one of these values:
 729:Drivers/STM32F4xx_HAL_Driver/Src/stm32f4xx_ll_usb.c ****   *           0 : DMA feature not used
 730:Drivers/STM32F4xx_HAL_Driver/Src/stm32f4xx_ll_usb.c ****   *           1 : DMA feature used
 731:Drivers/STM32F4xx_HAL_Driver/Src/stm32f4xx_ll_usb.c ****   * @retval HAL status
 732:Drivers/STM32F4xx_HAL_Driver/Src/stm32f4xx_ll_usb.c ****   */
 733:Drivers/STM32F4xx_HAL_Driver/Src/stm32f4xx_ll_usb.c **** HAL_StatusTypeDef USB_EPStartXfer(USB_OTG_GlobalTypeDef *USBx, USB_OTG_EPTypeDef *ep, uint8_t dma)
 734:Drivers/STM32F4xx_HAL_Driver/Src/stm32f4xx_ll_usb.c **** {
 735:Drivers/STM32F4xx_HAL_Driver/Src/stm32f4xx_ll_usb.c ****   uint32_t USBx_BASE = (uint32_t)USBx;
 736:Drivers/STM32F4xx_HAL_Driver/Src/stm32f4xx_ll_usb.c ****   uint32_t epnum = (uint32_t)ep->num;
 737:Drivers/STM32F4xx_HAL_Driver/Src/stm32f4xx_ll_usb.c ****   uint16_t pktcnt;
 738:Drivers/STM32F4xx_HAL_Driver/Src/stm32f4xx_ll_usb.c **** 
 739:Drivers/STM32F4xx_HAL_Driver/Src/stm32f4xx_ll_usb.c ****   /* IN endpoint */
 740:Drivers/STM32F4xx_HAL_Driver/Src/stm32f4xx_ll_usb.c ****   if (ep->is_in == 1U)
 741:Drivers/STM32F4xx_HAL_Driver/Src/stm32f4xx_ll_usb.c ****   {
 742:Drivers/STM32F4xx_HAL_Driver/Src/stm32f4xx_ll_usb.c ****     /* Zero Length Packet? */
 743:Drivers/STM32F4xx_HAL_Driver/Src/stm32f4xx_ll_usb.c ****     if (ep->xfer_len == 0U)
 744:Drivers/STM32F4xx_HAL_Driver/Src/stm32f4xx_ll_usb.c ****     {
 745:Drivers/STM32F4xx_HAL_Driver/Src/stm32f4xx_ll_usb.c ****       USBx_INEP(epnum)->DIEPTSIZ &= ~(USB_OTG_DIEPTSIZ_PKTCNT);
 746:Drivers/STM32F4xx_HAL_Driver/Src/stm32f4xx_ll_usb.c ****       USBx_INEP(epnum)->DIEPTSIZ |= (USB_OTG_DIEPTSIZ_PKTCNT & (1U << 19));
 747:Drivers/STM32F4xx_HAL_Driver/Src/stm32f4xx_ll_usb.c ****       USBx_INEP(epnum)->DIEPTSIZ &= ~(USB_OTG_DIEPTSIZ_XFRSIZ);
 748:Drivers/STM32F4xx_HAL_Driver/Src/stm32f4xx_ll_usb.c ****     }
 749:Drivers/STM32F4xx_HAL_Driver/Src/stm32f4xx_ll_usb.c ****     else
 750:Drivers/STM32F4xx_HAL_Driver/Src/stm32f4xx_ll_usb.c ****     {
 751:Drivers/STM32F4xx_HAL_Driver/Src/stm32f4xx_ll_usb.c ****       /* Program the transfer size and packet count
 752:Drivers/STM32F4xx_HAL_Driver/Src/stm32f4xx_ll_usb.c ****       * as follows: xfersize = N * maxpacket +
 753:Drivers/STM32F4xx_HAL_Driver/Src/stm32f4xx_ll_usb.c ****       * short_packet pktcnt = N + (short_packet
 754:Drivers/STM32F4xx_HAL_Driver/Src/stm32f4xx_ll_usb.c ****       * exist ? 1 : 0)
 755:Drivers/STM32F4xx_HAL_Driver/Src/stm32f4xx_ll_usb.c ****       */
 756:Drivers/STM32F4xx_HAL_Driver/Src/stm32f4xx_ll_usb.c ****       USBx_INEP(epnum)->DIEPTSIZ &= ~(USB_OTG_DIEPTSIZ_XFRSIZ);
 757:Drivers/STM32F4xx_HAL_Driver/Src/stm32f4xx_ll_usb.c ****       USBx_INEP(epnum)->DIEPTSIZ &= ~(USB_OTG_DIEPTSIZ_PKTCNT);
 758:Drivers/STM32F4xx_HAL_Driver/Src/stm32f4xx_ll_usb.c ****       USBx_INEP(epnum)->DIEPTSIZ |= (USB_OTG_DIEPTSIZ_PKTCNT &
 759:Drivers/STM32F4xx_HAL_Driver/Src/stm32f4xx_ll_usb.c ****                                      (((ep->xfer_len + ep->maxpacket - 1U) / ep->maxpacket) << 19))
 760:Drivers/STM32F4xx_HAL_Driver/Src/stm32f4xx_ll_usb.c **** 
 761:Drivers/STM32F4xx_HAL_Driver/Src/stm32f4xx_ll_usb.c ****       USBx_INEP(epnum)->DIEPTSIZ |= (USB_OTG_DIEPTSIZ_XFRSIZ & ep->xfer_len);
 762:Drivers/STM32F4xx_HAL_Driver/Src/stm32f4xx_ll_usb.c **** 
 763:Drivers/STM32F4xx_HAL_Driver/Src/stm32f4xx_ll_usb.c ****       if (ep->type == EP_TYPE_ISOC)
 764:Drivers/STM32F4xx_HAL_Driver/Src/stm32f4xx_ll_usb.c ****       {
 765:Drivers/STM32F4xx_HAL_Driver/Src/stm32f4xx_ll_usb.c ****         USBx_INEP(epnum)->DIEPTSIZ &= ~(USB_OTG_DIEPTSIZ_MULCNT);
 766:Drivers/STM32F4xx_HAL_Driver/Src/stm32f4xx_ll_usb.c ****         USBx_INEP(epnum)->DIEPTSIZ |= (USB_OTG_DIEPTSIZ_MULCNT & (1U << 29));
 767:Drivers/STM32F4xx_HAL_Driver/Src/stm32f4xx_ll_usb.c ****       }
 768:Drivers/STM32F4xx_HAL_Driver/Src/stm32f4xx_ll_usb.c ****     }
 769:Drivers/STM32F4xx_HAL_Driver/Src/stm32f4xx_ll_usb.c **** 
 770:Drivers/STM32F4xx_HAL_Driver/Src/stm32f4xx_ll_usb.c ****     if (dma == 1U)
ARM GAS  /tmp/ccTCOTTa.s 			page 15


 771:Drivers/STM32F4xx_HAL_Driver/Src/stm32f4xx_ll_usb.c ****     {
 772:Drivers/STM32F4xx_HAL_Driver/Src/stm32f4xx_ll_usb.c ****       if ((uint32_t)ep->dma_addr != 0U)
 773:Drivers/STM32F4xx_HAL_Driver/Src/stm32f4xx_ll_usb.c ****       {
 774:Drivers/STM32F4xx_HAL_Driver/Src/stm32f4xx_ll_usb.c ****         USBx_INEP(epnum)->DIEPDMA = (uint32_t)(ep->dma_addr);
 775:Drivers/STM32F4xx_HAL_Driver/Src/stm32f4xx_ll_usb.c ****       }
 776:Drivers/STM32F4xx_HAL_Driver/Src/stm32f4xx_ll_usb.c **** 
 777:Drivers/STM32F4xx_HAL_Driver/Src/stm32f4xx_ll_usb.c ****       if (ep->type == EP_TYPE_ISOC)
 778:Drivers/STM32F4xx_HAL_Driver/Src/stm32f4xx_ll_usb.c ****       {
 779:Drivers/STM32F4xx_HAL_Driver/Src/stm32f4xx_ll_usb.c ****         if ((USBx_DEVICE->DSTS & (1U << 8)) == 0U)
 780:Drivers/STM32F4xx_HAL_Driver/Src/stm32f4xx_ll_usb.c ****         {
 781:Drivers/STM32F4xx_HAL_Driver/Src/stm32f4xx_ll_usb.c ****           USBx_INEP(epnum)->DIEPCTL |= USB_OTG_DIEPCTL_SODDFRM;
 782:Drivers/STM32F4xx_HAL_Driver/Src/stm32f4xx_ll_usb.c ****         }
 783:Drivers/STM32F4xx_HAL_Driver/Src/stm32f4xx_ll_usb.c ****         else
 784:Drivers/STM32F4xx_HAL_Driver/Src/stm32f4xx_ll_usb.c ****         {
 785:Drivers/STM32F4xx_HAL_Driver/Src/stm32f4xx_ll_usb.c ****           USBx_INEP(epnum)->DIEPCTL |= USB_OTG_DIEPCTL_SD0PID_SEVNFRM;
 786:Drivers/STM32F4xx_HAL_Driver/Src/stm32f4xx_ll_usb.c ****         }
 787:Drivers/STM32F4xx_HAL_Driver/Src/stm32f4xx_ll_usb.c ****       }
 788:Drivers/STM32F4xx_HAL_Driver/Src/stm32f4xx_ll_usb.c **** 
 789:Drivers/STM32F4xx_HAL_Driver/Src/stm32f4xx_ll_usb.c ****       /* EP enable, IN data in FIFO */
 790:Drivers/STM32F4xx_HAL_Driver/Src/stm32f4xx_ll_usb.c ****       USBx_INEP(epnum)->DIEPCTL |= (USB_OTG_DIEPCTL_CNAK | USB_OTG_DIEPCTL_EPENA);
 791:Drivers/STM32F4xx_HAL_Driver/Src/stm32f4xx_ll_usb.c ****     }
 792:Drivers/STM32F4xx_HAL_Driver/Src/stm32f4xx_ll_usb.c ****     else
 793:Drivers/STM32F4xx_HAL_Driver/Src/stm32f4xx_ll_usb.c ****     {
 794:Drivers/STM32F4xx_HAL_Driver/Src/stm32f4xx_ll_usb.c ****       /* EP enable, IN data in FIFO */
 795:Drivers/STM32F4xx_HAL_Driver/Src/stm32f4xx_ll_usb.c ****       USBx_INEP(epnum)->DIEPCTL |= (USB_OTG_DIEPCTL_CNAK | USB_OTG_DIEPCTL_EPENA);
 796:Drivers/STM32F4xx_HAL_Driver/Src/stm32f4xx_ll_usb.c **** 
 797:Drivers/STM32F4xx_HAL_Driver/Src/stm32f4xx_ll_usb.c ****       if (ep->type != EP_TYPE_ISOC)
 798:Drivers/STM32F4xx_HAL_Driver/Src/stm32f4xx_ll_usb.c ****       {
 799:Drivers/STM32F4xx_HAL_Driver/Src/stm32f4xx_ll_usb.c ****         /* Enable the Tx FIFO Empty Interrupt for this EP */
 800:Drivers/STM32F4xx_HAL_Driver/Src/stm32f4xx_ll_usb.c ****         if (ep->xfer_len > 0U)
 801:Drivers/STM32F4xx_HAL_Driver/Src/stm32f4xx_ll_usb.c ****         {
 802:Drivers/STM32F4xx_HAL_Driver/Src/stm32f4xx_ll_usb.c ****           USBx_DEVICE->DIEPEMPMSK |= 1UL << (ep->num & EP_ADDR_MSK);
 803:Drivers/STM32F4xx_HAL_Driver/Src/stm32f4xx_ll_usb.c ****         }
 804:Drivers/STM32F4xx_HAL_Driver/Src/stm32f4xx_ll_usb.c ****       }
 805:Drivers/STM32F4xx_HAL_Driver/Src/stm32f4xx_ll_usb.c ****       else
 806:Drivers/STM32F4xx_HAL_Driver/Src/stm32f4xx_ll_usb.c ****       {
 807:Drivers/STM32F4xx_HAL_Driver/Src/stm32f4xx_ll_usb.c ****         if ((USBx_DEVICE->DSTS & (1U << 8)) == 0U)
 808:Drivers/STM32F4xx_HAL_Driver/Src/stm32f4xx_ll_usb.c ****         {
 809:Drivers/STM32F4xx_HAL_Driver/Src/stm32f4xx_ll_usb.c ****           USBx_INEP(epnum)->DIEPCTL |= USB_OTG_DIEPCTL_SODDFRM;
 810:Drivers/STM32F4xx_HAL_Driver/Src/stm32f4xx_ll_usb.c ****         }
 811:Drivers/STM32F4xx_HAL_Driver/Src/stm32f4xx_ll_usb.c ****         else
 812:Drivers/STM32F4xx_HAL_Driver/Src/stm32f4xx_ll_usb.c ****         {
 813:Drivers/STM32F4xx_HAL_Driver/Src/stm32f4xx_ll_usb.c ****           USBx_INEP(epnum)->DIEPCTL |= USB_OTG_DIEPCTL_SD0PID_SEVNFRM;
 814:Drivers/STM32F4xx_HAL_Driver/Src/stm32f4xx_ll_usb.c ****         }
 815:Drivers/STM32F4xx_HAL_Driver/Src/stm32f4xx_ll_usb.c **** 
 816:Drivers/STM32F4xx_HAL_Driver/Src/stm32f4xx_ll_usb.c ****         (void)USB_WritePacket(USBx, ep->xfer_buff, ep->num, (uint16_t)ep->xfer_len, dma);
 817:Drivers/STM32F4xx_HAL_Driver/Src/stm32f4xx_ll_usb.c ****       }
 818:Drivers/STM32F4xx_HAL_Driver/Src/stm32f4xx_ll_usb.c ****     }
 819:Drivers/STM32F4xx_HAL_Driver/Src/stm32f4xx_ll_usb.c ****   }
 820:Drivers/STM32F4xx_HAL_Driver/Src/stm32f4xx_ll_usb.c ****   else /* OUT endpoint */
 821:Drivers/STM32F4xx_HAL_Driver/Src/stm32f4xx_ll_usb.c ****   {
 822:Drivers/STM32F4xx_HAL_Driver/Src/stm32f4xx_ll_usb.c ****     /* Program the transfer size and packet count as follows:
 823:Drivers/STM32F4xx_HAL_Driver/Src/stm32f4xx_ll_usb.c ****     * pktcnt = N
 824:Drivers/STM32F4xx_HAL_Driver/Src/stm32f4xx_ll_usb.c ****     * xfersize = N * maxpacket
 825:Drivers/STM32F4xx_HAL_Driver/Src/stm32f4xx_ll_usb.c ****     */
 826:Drivers/STM32F4xx_HAL_Driver/Src/stm32f4xx_ll_usb.c ****     USBx_OUTEP(epnum)->DOEPTSIZ &= ~(USB_OTG_DOEPTSIZ_XFRSIZ);
 827:Drivers/STM32F4xx_HAL_Driver/Src/stm32f4xx_ll_usb.c ****     USBx_OUTEP(epnum)->DOEPTSIZ &= ~(USB_OTG_DOEPTSIZ_PKTCNT);
ARM GAS  /tmp/ccTCOTTa.s 			page 16


 828:Drivers/STM32F4xx_HAL_Driver/Src/stm32f4xx_ll_usb.c **** 
 829:Drivers/STM32F4xx_HAL_Driver/Src/stm32f4xx_ll_usb.c ****     if (ep->xfer_len == 0U)
 830:Drivers/STM32F4xx_HAL_Driver/Src/stm32f4xx_ll_usb.c ****     {
 831:Drivers/STM32F4xx_HAL_Driver/Src/stm32f4xx_ll_usb.c ****       USBx_OUTEP(epnum)->DOEPTSIZ |= (USB_OTG_DOEPTSIZ_XFRSIZ & ep->maxpacket);
 832:Drivers/STM32F4xx_HAL_Driver/Src/stm32f4xx_ll_usb.c ****       USBx_OUTEP(epnum)->DOEPTSIZ |= (USB_OTG_DOEPTSIZ_PKTCNT & (1U << 19));
 833:Drivers/STM32F4xx_HAL_Driver/Src/stm32f4xx_ll_usb.c ****     }
 834:Drivers/STM32F4xx_HAL_Driver/Src/stm32f4xx_ll_usb.c ****     else
 835:Drivers/STM32F4xx_HAL_Driver/Src/stm32f4xx_ll_usb.c ****     {
 836:Drivers/STM32F4xx_HAL_Driver/Src/stm32f4xx_ll_usb.c ****       pktcnt = (uint16_t)((ep->xfer_len + ep->maxpacket - 1U) / ep->maxpacket);
 837:Drivers/STM32F4xx_HAL_Driver/Src/stm32f4xx_ll_usb.c ****       USBx_OUTEP(epnum)->DOEPTSIZ |= USB_OTG_DOEPTSIZ_PKTCNT & ((uint32_t)pktcnt << 19);
 838:Drivers/STM32F4xx_HAL_Driver/Src/stm32f4xx_ll_usb.c ****       USBx_OUTEP(epnum)->DOEPTSIZ |= USB_OTG_DOEPTSIZ_XFRSIZ & (ep->maxpacket * pktcnt);
 839:Drivers/STM32F4xx_HAL_Driver/Src/stm32f4xx_ll_usb.c ****     }
 840:Drivers/STM32F4xx_HAL_Driver/Src/stm32f4xx_ll_usb.c **** 
 841:Drivers/STM32F4xx_HAL_Driver/Src/stm32f4xx_ll_usb.c ****     if (dma == 1U)
 842:Drivers/STM32F4xx_HAL_Driver/Src/stm32f4xx_ll_usb.c ****     {
 843:Drivers/STM32F4xx_HAL_Driver/Src/stm32f4xx_ll_usb.c ****       if ((uint32_t)ep->xfer_buff != 0U)
 844:Drivers/STM32F4xx_HAL_Driver/Src/stm32f4xx_ll_usb.c ****       {
 845:Drivers/STM32F4xx_HAL_Driver/Src/stm32f4xx_ll_usb.c ****         USBx_OUTEP(epnum)->DOEPDMA = (uint32_t)(ep->xfer_buff);
 846:Drivers/STM32F4xx_HAL_Driver/Src/stm32f4xx_ll_usb.c ****       }
 847:Drivers/STM32F4xx_HAL_Driver/Src/stm32f4xx_ll_usb.c ****     }
 848:Drivers/STM32F4xx_HAL_Driver/Src/stm32f4xx_ll_usb.c **** 
 849:Drivers/STM32F4xx_HAL_Driver/Src/stm32f4xx_ll_usb.c ****     if (ep->type == EP_TYPE_ISOC)
 850:Drivers/STM32F4xx_HAL_Driver/Src/stm32f4xx_ll_usb.c ****     {
 851:Drivers/STM32F4xx_HAL_Driver/Src/stm32f4xx_ll_usb.c ****       if ((USBx_DEVICE->DSTS & (1U << 8)) == 0U)
 852:Drivers/STM32F4xx_HAL_Driver/Src/stm32f4xx_ll_usb.c ****       {
 853:Drivers/STM32F4xx_HAL_Driver/Src/stm32f4xx_ll_usb.c ****         USBx_OUTEP(epnum)->DOEPCTL |= USB_OTG_DOEPCTL_SODDFRM;
 854:Drivers/STM32F4xx_HAL_Driver/Src/stm32f4xx_ll_usb.c ****       }
 855:Drivers/STM32F4xx_HAL_Driver/Src/stm32f4xx_ll_usb.c ****       else
 856:Drivers/STM32F4xx_HAL_Driver/Src/stm32f4xx_ll_usb.c ****       {
 857:Drivers/STM32F4xx_HAL_Driver/Src/stm32f4xx_ll_usb.c ****         USBx_OUTEP(epnum)->DOEPCTL |= USB_OTG_DOEPCTL_SD0PID_SEVNFRM;
 858:Drivers/STM32F4xx_HAL_Driver/Src/stm32f4xx_ll_usb.c ****       }
 859:Drivers/STM32F4xx_HAL_Driver/Src/stm32f4xx_ll_usb.c ****     }
 860:Drivers/STM32F4xx_HAL_Driver/Src/stm32f4xx_ll_usb.c ****     /* EP enable */
 861:Drivers/STM32F4xx_HAL_Driver/Src/stm32f4xx_ll_usb.c ****     USBx_OUTEP(epnum)->DOEPCTL |= (USB_OTG_DOEPCTL_CNAK | USB_OTG_DOEPCTL_EPENA);
 862:Drivers/STM32F4xx_HAL_Driver/Src/stm32f4xx_ll_usb.c ****   }
 863:Drivers/STM32F4xx_HAL_Driver/Src/stm32f4xx_ll_usb.c **** 
 864:Drivers/STM32F4xx_HAL_Driver/Src/stm32f4xx_ll_usb.c ****   return HAL_OK;
 865:Drivers/STM32F4xx_HAL_Driver/Src/stm32f4xx_ll_usb.c **** }
 866:Drivers/STM32F4xx_HAL_Driver/Src/stm32f4xx_ll_usb.c **** 
 867:Drivers/STM32F4xx_HAL_Driver/Src/stm32f4xx_ll_usb.c **** /**
 868:Drivers/STM32F4xx_HAL_Driver/Src/stm32f4xx_ll_usb.c ****   * @brief  USB_EP0StartXfer : setup and starts a transfer over the EP  0
 869:Drivers/STM32F4xx_HAL_Driver/Src/stm32f4xx_ll_usb.c ****   * @param  USBx  Selected device
 870:Drivers/STM32F4xx_HAL_Driver/Src/stm32f4xx_ll_usb.c ****   * @param  ep pointer to endpoint structure
 871:Drivers/STM32F4xx_HAL_Driver/Src/stm32f4xx_ll_usb.c ****   * @param  dma USB dma enabled or disabled
 872:Drivers/STM32F4xx_HAL_Driver/Src/stm32f4xx_ll_usb.c ****   *          This parameter can be one of these values:
 873:Drivers/STM32F4xx_HAL_Driver/Src/stm32f4xx_ll_usb.c ****   *           0 : DMA feature not used
 874:Drivers/STM32F4xx_HAL_Driver/Src/stm32f4xx_ll_usb.c ****   *           1 : DMA feature used
 875:Drivers/STM32F4xx_HAL_Driver/Src/stm32f4xx_ll_usb.c ****   * @retval HAL status
 876:Drivers/STM32F4xx_HAL_Driver/Src/stm32f4xx_ll_usb.c ****   */
 877:Drivers/STM32F4xx_HAL_Driver/Src/stm32f4xx_ll_usb.c **** HAL_StatusTypeDef USB_EP0StartXfer(USB_OTG_GlobalTypeDef *USBx, USB_OTG_EPTypeDef *ep, uint8_t dma)
 878:Drivers/STM32F4xx_HAL_Driver/Src/stm32f4xx_ll_usb.c **** {
 879:Drivers/STM32F4xx_HAL_Driver/Src/stm32f4xx_ll_usb.c ****   uint32_t USBx_BASE = (uint32_t)USBx;
 880:Drivers/STM32F4xx_HAL_Driver/Src/stm32f4xx_ll_usb.c ****   uint32_t epnum = (uint32_t)ep->num;
 881:Drivers/STM32F4xx_HAL_Driver/Src/stm32f4xx_ll_usb.c **** 
 882:Drivers/STM32F4xx_HAL_Driver/Src/stm32f4xx_ll_usb.c ****   /* IN endpoint */
 883:Drivers/STM32F4xx_HAL_Driver/Src/stm32f4xx_ll_usb.c ****   if (ep->is_in == 1U)
 884:Drivers/STM32F4xx_HAL_Driver/Src/stm32f4xx_ll_usb.c ****   {
ARM GAS  /tmp/ccTCOTTa.s 			page 17


 885:Drivers/STM32F4xx_HAL_Driver/Src/stm32f4xx_ll_usb.c ****     /* Zero Length Packet? */
 886:Drivers/STM32F4xx_HAL_Driver/Src/stm32f4xx_ll_usb.c ****     if (ep->xfer_len == 0U)
 887:Drivers/STM32F4xx_HAL_Driver/Src/stm32f4xx_ll_usb.c ****     {
 888:Drivers/STM32F4xx_HAL_Driver/Src/stm32f4xx_ll_usb.c ****       USBx_INEP(epnum)->DIEPTSIZ &= ~(USB_OTG_DIEPTSIZ_PKTCNT);
 889:Drivers/STM32F4xx_HAL_Driver/Src/stm32f4xx_ll_usb.c ****       USBx_INEP(epnum)->DIEPTSIZ |= (USB_OTG_DIEPTSIZ_PKTCNT & (1U << 19));
 890:Drivers/STM32F4xx_HAL_Driver/Src/stm32f4xx_ll_usb.c ****       USBx_INEP(epnum)->DIEPTSIZ &= ~(USB_OTG_DIEPTSIZ_XFRSIZ);
 891:Drivers/STM32F4xx_HAL_Driver/Src/stm32f4xx_ll_usb.c ****     }
 892:Drivers/STM32F4xx_HAL_Driver/Src/stm32f4xx_ll_usb.c ****     else
 893:Drivers/STM32F4xx_HAL_Driver/Src/stm32f4xx_ll_usb.c ****     {
 894:Drivers/STM32F4xx_HAL_Driver/Src/stm32f4xx_ll_usb.c ****       /* Program the transfer size and packet count
 895:Drivers/STM32F4xx_HAL_Driver/Src/stm32f4xx_ll_usb.c ****       * as follows: xfersize = N * maxpacket +
 896:Drivers/STM32F4xx_HAL_Driver/Src/stm32f4xx_ll_usb.c ****       * short_packet pktcnt = N + (short_packet
 897:Drivers/STM32F4xx_HAL_Driver/Src/stm32f4xx_ll_usb.c ****       * exist ? 1 : 0)
 898:Drivers/STM32F4xx_HAL_Driver/Src/stm32f4xx_ll_usb.c ****       */
 899:Drivers/STM32F4xx_HAL_Driver/Src/stm32f4xx_ll_usb.c ****       USBx_INEP(epnum)->DIEPTSIZ &= ~(USB_OTG_DIEPTSIZ_XFRSIZ);
 900:Drivers/STM32F4xx_HAL_Driver/Src/stm32f4xx_ll_usb.c ****       USBx_INEP(epnum)->DIEPTSIZ &= ~(USB_OTG_DIEPTSIZ_PKTCNT);
 901:Drivers/STM32F4xx_HAL_Driver/Src/stm32f4xx_ll_usb.c **** 
 902:Drivers/STM32F4xx_HAL_Driver/Src/stm32f4xx_ll_usb.c ****       if (ep->xfer_len > ep->maxpacket)
 903:Drivers/STM32F4xx_HAL_Driver/Src/stm32f4xx_ll_usb.c ****       {
 904:Drivers/STM32F4xx_HAL_Driver/Src/stm32f4xx_ll_usb.c ****         ep->xfer_len = ep->maxpacket;
 905:Drivers/STM32F4xx_HAL_Driver/Src/stm32f4xx_ll_usb.c ****       }
 906:Drivers/STM32F4xx_HAL_Driver/Src/stm32f4xx_ll_usb.c ****       USBx_INEP(epnum)->DIEPTSIZ |= (USB_OTG_DIEPTSIZ_PKTCNT & (1U << 19));
 907:Drivers/STM32F4xx_HAL_Driver/Src/stm32f4xx_ll_usb.c ****       USBx_INEP(epnum)->DIEPTSIZ |= (USB_OTG_DIEPTSIZ_XFRSIZ & ep->xfer_len);
 908:Drivers/STM32F4xx_HAL_Driver/Src/stm32f4xx_ll_usb.c ****     }
 909:Drivers/STM32F4xx_HAL_Driver/Src/stm32f4xx_ll_usb.c **** 
 910:Drivers/STM32F4xx_HAL_Driver/Src/stm32f4xx_ll_usb.c ****     if (dma == 1U)
 911:Drivers/STM32F4xx_HAL_Driver/Src/stm32f4xx_ll_usb.c ****     {
 912:Drivers/STM32F4xx_HAL_Driver/Src/stm32f4xx_ll_usb.c ****       if ((uint32_t)ep->dma_addr != 0U)
 913:Drivers/STM32F4xx_HAL_Driver/Src/stm32f4xx_ll_usb.c ****       {
 914:Drivers/STM32F4xx_HAL_Driver/Src/stm32f4xx_ll_usb.c ****         USBx_INEP(epnum)->DIEPDMA = (uint32_t)(ep->dma_addr);
 915:Drivers/STM32F4xx_HAL_Driver/Src/stm32f4xx_ll_usb.c ****       }
 916:Drivers/STM32F4xx_HAL_Driver/Src/stm32f4xx_ll_usb.c **** 
 917:Drivers/STM32F4xx_HAL_Driver/Src/stm32f4xx_ll_usb.c ****       /* EP enable, IN data in FIFO */
 918:Drivers/STM32F4xx_HAL_Driver/Src/stm32f4xx_ll_usb.c ****       USBx_INEP(epnum)->DIEPCTL |= (USB_OTG_DIEPCTL_CNAK | USB_OTG_DIEPCTL_EPENA);
 919:Drivers/STM32F4xx_HAL_Driver/Src/stm32f4xx_ll_usb.c ****     }
 920:Drivers/STM32F4xx_HAL_Driver/Src/stm32f4xx_ll_usb.c ****     else
 921:Drivers/STM32F4xx_HAL_Driver/Src/stm32f4xx_ll_usb.c ****     {
 922:Drivers/STM32F4xx_HAL_Driver/Src/stm32f4xx_ll_usb.c ****       /* EP enable, IN data in FIFO */
 923:Drivers/STM32F4xx_HAL_Driver/Src/stm32f4xx_ll_usb.c ****       USBx_INEP(epnum)->DIEPCTL |= (USB_OTG_DIEPCTL_CNAK | USB_OTG_DIEPCTL_EPENA);
 924:Drivers/STM32F4xx_HAL_Driver/Src/stm32f4xx_ll_usb.c **** 
 925:Drivers/STM32F4xx_HAL_Driver/Src/stm32f4xx_ll_usb.c ****       /* Enable the Tx FIFO Empty Interrupt for this EP */
 926:Drivers/STM32F4xx_HAL_Driver/Src/stm32f4xx_ll_usb.c ****       if (ep->xfer_len > 0U)
 927:Drivers/STM32F4xx_HAL_Driver/Src/stm32f4xx_ll_usb.c ****       {
 928:Drivers/STM32F4xx_HAL_Driver/Src/stm32f4xx_ll_usb.c ****         USBx_DEVICE->DIEPEMPMSK |= 1UL << (ep->num & EP_ADDR_MSK);
 929:Drivers/STM32F4xx_HAL_Driver/Src/stm32f4xx_ll_usb.c ****       }
 930:Drivers/STM32F4xx_HAL_Driver/Src/stm32f4xx_ll_usb.c ****     }
 931:Drivers/STM32F4xx_HAL_Driver/Src/stm32f4xx_ll_usb.c ****   }
 932:Drivers/STM32F4xx_HAL_Driver/Src/stm32f4xx_ll_usb.c ****   else /* OUT endpoint */
 933:Drivers/STM32F4xx_HAL_Driver/Src/stm32f4xx_ll_usb.c ****   {
 934:Drivers/STM32F4xx_HAL_Driver/Src/stm32f4xx_ll_usb.c ****     /* Program the transfer size and packet count as follows:
 935:Drivers/STM32F4xx_HAL_Driver/Src/stm32f4xx_ll_usb.c ****     * pktcnt = N
 936:Drivers/STM32F4xx_HAL_Driver/Src/stm32f4xx_ll_usb.c ****     * xfersize = N * maxpacket
 937:Drivers/STM32F4xx_HAL_Driver/Src/stm32f4xx_ll_usb.c ****     */
 938:Drivers/STM32F4xx_HAL_Driver/Src/stm32f4xx_ll_usb.c ****     USBx_OUTEP(epnum)->DOEPTSIZ &= ~(USB_OTG_DOEPTSIZ_XFRSIZ);
 939:Drivers/STM32F4xx_HAL_Driver/Src/stm32f4xx_ll_usb.c ****     USBx_OUTEP(epnum)->DOEPTSIZ &= ~(USB_OTG_DOEPTSIZ_PKTCNT);
 940:Drivers/STM32F4xx_HAL_Driver/Src/stm32f4xx_ll_usb.c **** 
 941:Drivers/STM32F4xx_HAL_Driver/Src/stm32f4xx_ll_usb.c ****     if (ep->xfer_len > 0U)
ARM GAS  /tmp/ccTCOTTa.s 			page 18


 942:Drivers/STM32F4xx_HAL_Driver/Src/stm32f4xx_ll_usb.c ****     {
 943:Drivers/STM32F4xx_HAL_Driver/Src/stm32f4xx_ll_usb.c ****       ep->xfer_len = ep->maxpacket;
 944:Drivers/STM32F4xx_HAL_Driver/Src/stm32f4xx_ll_usb.c ****     }
 945:Drivers/STM32F4xx_HAL_Driver/Src/stm32f4xx_ll_usb.c **** 
 946:Drivers/STM32F4xx_HAL_Driver/Src/stm32f4xx_ll_usb.c ****     USBx_OUTEP(epnum)->DOEPTSIZ |= (USB_OTG_DOEPTSIZ_PKTCNT & (1U << 19));
 947:Drivers/STM32F4xx_HAL_Driver/Src/stm32f4xx_ll_usb.c ****     USBx_OUTEP(epnum)->DOEPTSIZ |= (USB_OTG_DOEPTSIZ_XFRSIZ & (ep->maxpacket));
 948:Drivers/STM32F4xx_HAL_Driver/Src/stm32f4xx_ll_usb.c **** 
 949:Drivers/STM32F4xx_HAL_Driver/Src/stm32f4xx_ll_usb.c ****     if (dma == 1U)
 950:Drivers/STM32F4xx_HAL_Driver/Src/stm32f4xx_ll_usb.c ****     {
 951:Drivers/STM32F4xx_HAL_Driver/Src/stm32f4xx_ll_usb.c ****       if ((uint32_t)ep->xfer_buff != 0U)
 952:Drivers/STM32F4xx_HAL_Driver/Src/stm32f4xx_ll_usb.c ****       {
 953:Drivers/STM32F4xx_HAL_Driver/Src/stm32f4xx_ll_usb.c ****         USBx_OUTEP(epnum)->DOEPDMA = (uint32_t)(ep->xfer_buff);
 954:Drivers/STM32F4xx_HAL_Driver/Src/stm32f4xx_ll_usb.c ****       }
 955:Drivers/STM32F4xx_HAL_Driver/Src/stm32f4xx_ll_usb.c ****     }
 956:Drivers/STM32F4xx_HAL_Driver/Src/stm32f4xx_ll_usb.c **** 
 957:Drivers/STM32F4xx_HAL_Driver/Src/stm32f4xx_ll_usb.c ****     /* EP enable */
 958:Drivers/STM32F4xx_HAL_Driver/Src/stm32f4xx_ll_usb.c ****     USBx_OUTEP(epnum)->DOEPCTL |= (USB_OTG_DOEPCTL_CNAK | USB_OTG_DOEPCTL_EPENA);
 959:Drivers/STM32F4xx_HAL_Driver/Src/stm32f4xx_ll_usb.c ****   }
 960:Drivers/STM32F4xx_HAL_Driver/Src/stm32f4xx_ll_usb.c **** 
 961:Drivers/STM32F4xx_HAL_Driver/Src/stm32f4xx_ll_usb.c ****   return HAL_OK;
 962:Drivers/STM32F4xx_HAL_Driver/Src/stm32f4xx_ll_usb.c **** }
 963:Drivers/STM32F4xx_HAL_Driver/Src/stm32f4xx_ll_usb.c **** 
 964:Drivers/STM32F4xx_HAL_Driver/Src/stm32f4xx_ll_usb.c **** /**
 965:Drivers/STM32F4xx_HAL_Driver/Src/stm32f4xx_ll_usb.c ****   * @brief  USB_WritePacket : Writes a packet into the Tx FIFO associated
 966:Drivers/STM32F4xx_HAL_Driver/Src/stm32f4xx_ll_usb.c ****   *         with the EP/channel
 967:Drivers/STM32F4xx_HAL_Driver/Src/stm32f4xx_ll_usb.c ****   * @param  USBx  Selected device
 968:Drivers/STM32F4xx_HAL_Driver/Src/stm32f4xx_ll_usb.c ****   * @param  src   pointer to source buffer
 969:Drivers/STM32F4xx_HAL_Driver/Src/stm32f4xx_ll_usb.c ****   * @param  ch_ep_num  endpoint or host channel number
 970:Drivers/STM32F4xx_HAL_Driver/Src/stm32f4xx_ll_usb.c ****   * @param  len  Number of bytes to write
 971:Drivers/STM32F4xx_HAL_Driver/Src/stm32f4xx_ll_usb.c ****   * @param  dma USB dma enabled or disabled
 972:Drivers/STM32F4xx_HAL_Driver/Src/stm32f4xx_ll_usb.c ****   *          This parameter can be one of these values:
 973:Drivers/STM32F4xx_HAL_Driver/Src/stm32f4xx_ll_usb.c ****   *           0 : DMA feature not used
 974:Drivers/STM32F4xx_HAL_Driver/Src/stm32f4xx_ll_usb.c ****   *           1 : DMA feature used
 975:Drivers/STM32F4xx_HAL_Driver/Src/stm32f4xx_ll_usb.c ****   * @retval HAL status
 976:Drivers/STM32F4xx_HAL_Driver/Src/stm32f4xx_ll_usb.c ****   */
 977:Drivers/STM32F4xx_HAL_Driver/Src/stm32f4xx_ll_usb.c **** HAL_StatusTypeDef USB_WritePacket(USB_OTG_GlobalTypeDef *USBx, uint8_t *src,
 978:Drivers/STM32F4xx_HAL_Driver/Src/stm32f4xx_ll_usb.c ****                                   uint8_t ch_ep_num, uint16_t len, uint8_t dma)
 979:Drivers/STM32F4xx_HAL_Driver/Src/stm32f4xx_ll_usb.c **** {
 980:Drivers/STM32F4xx_HAL_Driver/Src/stm32f4xx_ll_usb.c ****   uint32_t USBx_BASE = (uint32_t)USBx;
 981:Drivers/STM32F4xx_HAL_Driver/Src/stm32f4xx_ll_usb.c ****   uint8_t *pSrc = src;
 982:Drivers/STM32F4xx_HAL_Driver/Src/stm32f4xx_ll_usb.c ****   uint32_t count32b;
 983:Drivers/STM32F4xx_HAL_Driver/Src/stm32f4xx_ll_usb.c ****   uint32_t i;
 984:Drivers/STM32F4xx_HAL_Driver/Src/stm32f4xx_ll_usb.c **** 
 985:Drivers/STM32F4xx_HAL_Driver/Src/stm32f4xx_ll_usb.c ****   if (dma == 0U)
 986:Drivers/STM32F4xx_HAL_Driver/Src/stm32f4xx_ll_usb.c ****   {
 987:Drivers/STM32F4xx_HAL_Driver/Src/stm32f4xx_ll_usb.c ****     count32b = ((uint32_t)len + 3U) / 4U;
 988:Drivers/STM32F4xx_HAL_Driver/Src/stm32f4xx_ll_usb.c ****     for (i = 0U; i < count32b; i++)
 989:Drivers/STM32F4xx_HAL_Driver/Src/stm32f4xx_ll_usb.c ****     {
 990:Drivers/STM32F4xx_HAL_Driver/Src/stm32f4xx_ll_usb.c ****       USBx_DFIFO((uint32_t)ch_ep_num) = __UNALIGNED_UINT32_READ(pSrc);
 991:Drivers/STM32F4xx_HAL_Driver/Src/stm32f4xx_ll_usb.c ****       pSrc++;
 992:Drivers/STM32F4xx_HAL_Driver/Src/stm32f4xx_ll_usb.c ****       pSrc++;
 993:Drivers/STM32F4xx_HAL_Driver/Src/stm32f4xx_ll_usb.c ****       pSrc++;
 994:Drivers/STM32F4xx_HAL_Driver/Src/stm32f4xx_ll_usb.c ****       pSrc++;
 995:Drivers/STM32F4xx_HAL_Driver/Src/stm32f4xx_ll_usb.c ****     }
 996:Drivers/STM32F4xx_HAL_Driver/Src/stm32f4xx_ll_usb.c ****   }
 997:Drivers/STM32F4xx_HAL_Driver/Src/stm32f4xx_ll_usb.c **** 
 998:Drivers/STM32F4xx_HAL_Driver/Src/stm32f4xx_ll_usb.c ****   return HAL_OK;
ARM GAS  /tmp/ccTCOTTa.s 			page 19


 999:Drivers/STM32F4xx_HAL_Driver/Src/stm32f4xx_ll_usb.c **** }
1000:Drivers/STM32F4xx_HAL_Driver/Src/stm32f4xx_ll_usb.c **** 
1001:Drivers/STM32F4xx_HAL_Driver/Src/stm32f4xx_ll_usb.c **** /**
1002:Drivers/STM32F4xx_HAL_Driver/Src/stm32f4xx_ll_usb.c ****   * @brief  USB_ReadPacket : read a packet from the RX FIFO
1003:Drivers/STM32F4xx_HAL_Driver/Src/stm32f4xx_ll_usb.c ****   * @param  USBx  Selected device
1004:Drivers/STM32F4xx_HAL_Driver/Src/stm32f4xx_ll_usb.c ****   * @param  dest  source pointer
1005:Drivers/STM32F4xx_HAL_Driver/Src/stm32f4xx_ll_usb.c ****   * @param  len  Number of bytes to read
1006:Drivers/STM32F4xx_HAL_Driver/Src/stm32f4xx_ll_usb.c ****   * @retval pointer to destination buffer
1007:Drivers/STM32F4xx_HAL_Driver/Src/stm32f4xx_ll_usb.c ****   */
1008:Drivers/STM32F4xx_HAL_Driver/Src/stm32f4xx_ll_usb.c **** void *USB_ReadPacket(USB_OTG_GlobalTypeDef *USBx, uint8_t *dest, uint16_t len)
1009:Drivers/STM32F4xx_HAL_Driver/Src/stm32f4xx_ll_usb.c **** {
1010:Drivers/STM32F4xx_HAL_Driver/Src/stm32f4xx_ll_usb.c ****   uint32_t USBx_BASE = (uint32_t)USBx;
1011:Drivers/STM32F4xx_HAL_Driver/Src/stm32f4xx_ll_usb.c ****   uint8_t *pDest = dest;
1012:Drivers/STM32F4xx_HAL_Driver/Src/stm32f4xx_ll_usb.c ****   uint32_t pData;
1013:Drivers/STM32F4xx_HAL_Driver/Src/stm32f4xx_ll_usb.c ****   uint32_t i;
1014:Drivers/STM32F4xx_HAL_Driver/Src/stm32f4xx_ll_usb.c ****   uint32_t count32b = (uint32_t)len >> 2U;
1015:Drivers/STM32F4xx_HAL_Driver/Src/stm32f4xx_ll_usb.c ****   uint16_t remaining_bytes = len % 4U;
1016:Drivers/STM32F4xx_HAL_Driver/Src/stm32f4xx_ll_usb.c **** 
1017:Drivers/STM32F4xx_HAL_Driver/Src/stm32f4xx_ll_usb.c ****   for (i = 0U; i < count32b; i++)
1018:Drivers/STM32F4xx_HAL_Driver/Src/stm32f4xx_ll_usb.c ****   {
1019:Drivers/STM32F4xx_HAL_Driver/Src/stm32f4xx_ll_usb.c ****     __UNALIGNED_UINT32_WRITE(pDest, USBx_DFIFO(0U));
1020:Drivers/STM32F4xx_HAL_Driver/Src/stm32f4xx_ll_usb.c ****     pDest++;
1021:Drivers/STM32F4xx_HAL_Driver/Src/stm32f4xx_ll_usb.c ****     pDest++;
1022:Drivers/STM32F4xx_HAL_Driver/Src/stm32f4xx_ll_usb.c ****     pDest++;
1023:Drivers/STM32F4xx_HAL_Driver/Src/stm32f4xx_ll_usb.c ****     pDest++;
1024:Drivers/STM32F4xx_HAL_Driver/Src/stm32f4xx_ll_usb.c ****   }
1025:Drivers/STM32F4xx_HAL_Driver/Src/stm32f4xx_ll_usb.c **** 
1026:Drivers/STM32F4xx_HAL_Driver/Src/stm32f4xx_ll_usb.c ****   /* When Number of data is not word aligned, read the remaining byte */
1027:Drivers/STM32F4xx_HAL_Driver/Src/stm32f4xx_ll_usb.c ****   if (remaining_bytes != 0U)
1028:Drivers/STM32F4xx_HAL_Driver/Src/stm32f4xx_ll_usb.c ****   {
1029:Drivers/STM32F4xx_HAL_Driver/Src/stm32f4xx_ll_usb.c ****     i = 0U;
1030:Drivers/STM32F4xx_HAL_Driver/Src/stm32f4xx_ll_usb.c ****     __UNALIGNED_UINT32_WRITE(&pData, USBx_DFIFO(0U));
1031:Drivers/STM32F4xx_HAL_Driver/Src/stm32f4xx_ll_usb.c **** 
1032:Drivers/STM32F4xx_HAL_Driver/Src/stm32f4xx_ll_usb.c ****     do
1033:Drivers/STM32F4xx_HAL_Driver/Src/stm32f4xx_ll_usb.c ****     {
1034:Drivers/STM32F4xx_HAL_Driver/Src/stm32f4xx_ll_usb.c ****       *(uint8_t *)pDest = (uint8_t)(pData >> (8U * (uint8_t)(i)));
1035:Drivers/STM32F4xx_HAL_Driver/Src/stm32f4xx_ll_usb.c ****       i++;
1036:Drivers/STM32F4xx_HAL_Driver/Src/stm32f4xx_ll_usb.c ****       pDest++;
1037:Drivers/STM32F4xx_HAL_Driver/Src/stm32f4xx_ll_usb.c ****       remaining_bytes--;
1038:Drivers/STM32F4xx_HAL_Driver/Src/stm32f4xx_ll_usb.c ****     } while (remaining_bytes != 0U);
1039:Drivers/STM32F4xx_HAL_Driver/Src/stm32f4xx_ll_usb.c ****   }
1040:Drivers/STM32F4xx_HAL_Driver/Src/stm32f4xx_ll_usb.c **** 
1041:Drivers/STM32F4xx_HAL_Driver/Src/stm32f4xx_ll_usb.c ****   return ((void *)pDest);
1042:Drivers/STM32F4xx_HAL_Driver/Src/stm32f4xx_ll_usb.c **** }
1043:Drivers/STM32F4xx_HAL_Driver/Src/stm32f4xx_ll_usb.c **** 
1044:Drivers/STM32F4xx_HAL_Driver/Src/stm32f4xx_ll_usb.c **** /**
1045:Drivers/STM32F4xx_HAL_Driver/Src/stm32f4xx_ll_usb.c ****   * @brief  USB_EPSetStall : set a stall condition over an EP
1046:Drivers/STM32F4xx_HAL_Driver/Src/stm32f4xx_ll_usb.c ****   * @param  USBx  Selected device
1047:Drivers/STM32F4xx_HAL_Driver/Src/stm32f4xx_ll_usb.c ****   * @param  ep pointer to endpoint structure
1048:Drivers/STM32F4xx_HAL_Driver/Src/stm32f4xx_ll_usb.c ****   * @retval HAL status
1049:Drivers/STM32F4xx_HAL_Driver/Src/stm32f4xx_ll_usb.c ****   */
1050:Drivers/STM32F4xx_HAL_Driver/Src/stm32f4xx_ll_usb.c **** HAL_StatusTypeDef USB_EPSetStall(USB_OTG_GlobalTypeDef *USBx, USB_OTG_EPTypeDef *ep)
1051:Drivers/STM32F4xx_HAL_Driver/Src/stm32f4xx_ll_usb.c **** {
1052:Drivers/STM32F4xx_HAL_Driver/Src/stm32f4xx_ll_usb.c ****   uint32_t USBx_BASE = (uint32_t)USBx;
1053:Drivers/STM32F4xx_HAL_Driver/Src/stm32f4xx_ll_usb.c ****   uint32_t epnum = (uint32_t)ep->num;
1054:Drivers/STM32F4xx_HAL_Driver/Src/stm32f4xx_ll_usb.c **** 
1055:Drivers/STM32F4xx_HAL_Driver/Src/stm32f4xx_ll_usb.c ****   if (ep->is_in == 1U)
ARM GAS  /tmp/ccTCOTTa.s 			page 20


1056:Drivers/STM32F4xx_HAL_Driver/Src/stm32f4xx_ll_usb.c ****   {
1057:Drivers/STM32F4xx_HAL_Driver/Src/stm32f4xx_ll_usb.c ****     if (((USBx_INEP(epnum)->DIEPCTL & USB_OTG_DIEPCTL_EPENA) == 0U) && (epnum != 0U))
1058:Drivers/STM32F4xx_HAL_Driver/Src/stm32f4xx_ll_usb.c ****     {
1059:Drivers/STM32F4xx_HAL_Driver/Src/stm32f4xx_ll_usb.c ****       USBx_INEP(epnum)->DIEPCTL &= ~(USB_OTG_DIEPCTL_EPDIS);
1060:Drivers/STM32F4xx_HAL_Driver/Src/stm32f4xx_ll_usb.c ****     }
1061:Drivers/STM32F4xx_HAL_Driver/Src/stm32f4xx_ll_usb.c ****     USBx_INEP(epnum)->DIEPCTL |= USB_OTG_DIEPCTL_STALL;
1062:Drivers/STM32F4xx_HAL_Driver/Src/stm32f4xx_ll_usb.c ****   }
1063:Drivers/STM32F4xx_HAL_Driver/Src/stm32f4xx_ll_usb.c ****   else
1064:Drivers/STM32F4xx_HAL_Driver/Src/stm32f4xx_ll_usb.c ****   {
1065:Drivers/STM32F4xx_HAL_Driver/Src/stm32f4xx_ll_usb.c ****     if (((USBx_OUTEP(epnum)->DOEPCTL & USB_OTG_DOEPCTL_EPENA) == 0U) && (epnum != 0U))
1066:Drivers/STM32F4xx_HAL_Driver/Src/stm32f4xx_ll_usb.c ****     {
1067:Drivers/STM32F4xx_HAL_Driver/Src/stm32f4xx_ll_usb.c ****       USBx_OUTEP(epnum)->DOEPCTL &= ~(USB_OTG_DOEPCTL_EPDIS);
1068:Drivers/STM32F4xx_HAL_Driver/Src/stm32f4xx_ll_usb.c ****     }
1069:Drivers/STM32F4xx_HAL_Driver/Src/stm32f4xx_ll_usb.c ****     USBx_OUTEP(epnum)->DOEPCTL |= USB_OTG_DOEPCTL_STALL;
1070:Drivers/STM32F4xx_HAL_Driver/Src/stm32f4xx_ll_usb.c ****   }
1071:Drivers/STM32F4xx_HAL_Driver/Src/stm32f4xx_ll_usb.c **** 
1072:Drivers/STM32F4xx_HAL_Driver/Src/stm32f4xx_ll_usb.c ****   return HAL_OK;
1073:Drivers/STM32F4xx_HAL_Driver/Src/stm32f4xx_ll_usb.c **** }
1074:Drivers/STM32F4xx_HAL_Driver/Src/stm32f4xx_ll_usb.c **** 
1075:Drivers/STM32F4xx_HAL_Driver/Src/stm32f4xx_ll_usb.c **** /**
1076:Drivers/STM32F4xx_HAL_Driver/Src/stm32f4xx_ll_usb.c ****   * @brief  USB_EPClearStall : Clear a stall condition over an EP
1077:Drivers/STM32F4xx_HAL_Driver/Src/stm32f4xx_ll_usb.c ****   * @param  USBx  Selected device
1078:Drivers/STM32F4xx_HAL_Driver/Src/stm32f4xx_ll_usb.c ****   * @param  ep pointer to endpoint structure
1079:Drivers/STM32F4xx_HAL_Driver/Src/stm32f4xx_ll_usb.c ****   * @retval HAL status
1080:Drivers/STM32F4xx_HAL_Driver/Src/stm32f4xx_ll_usb.c ****   */
1081:Drivers/STM32F4xx_HAL_Driver/Src/stm32f4xx_ll_usb.c **** HAL_StatusTypeDef USB_EPClearStall(USB_OTG_GlobalTypeDef *USBx, USB_OTG_EPTypeDef *ep)
1082:Drivers/STM32F4xx_HAL_Driver/Src/stm32f4xx_ll_usb.c **** {
1083:Drivers/STM32F4xx_HAL_Driver/Src/stm32f4xx_ll_usb.c ****   uint32_t USBx_BASE = (uint32_t)USBx;
1084:Drivers/STM32F4xx_HAL_Driver/Src/stm32f4xx_ll_usb.c ****   uint32_t epnum = (uint32_t)ep->num;
1085:Drivers/STM32F4xx_HAL_Driver/Src/stm32f4xx_ll_usb.c **** 
1086:Drivers/STM32F4xx_HAL_Driver/Src/stm32f4xx_ll_usb.c ****   if (ep->is_in == 1U)
1087:Drivers/STM32F4xx_HAL_Driver/Src/stm32f4xx_ll_usb.c ****   {
1088:Drivers/STM32F4xx_HAL_Driver/Src/stm32f4xx_ll_usb.c ****     USBx_INEP(epnum)->DIEPCTL &= ~USB_OTG_DIEPCTL_STALL;
1089:Drivers/STM32F4xx_HAL_Driver/Src/stm32f4xx_ll_usb.c ****     if ((ep->type == EP_TYPE_INTR) || (ep->type == EP_TYPE_BULK))
1090:Drivers/STM32F4xx_HAL_Driver/Src/stm32f4xx_ll_usb.c ****     {
1091:Drivers/STM32F4xx_HAL_Driver/Src/stm32f4xx_ll_usb.c ****       USBx_INEP(epnum)->DIEPCTL |= USB_OTG_DIEPCTL_SD0PID_SEVNFRM; /* DATA0 */
1092:Drivers/STM32F4xx_HAL_Driver/Src/stm32f4xx_ll_usb.c ****     }
1093:Drivers/STM32F4xx_HAL_Driver/Src/stm32f4xx_ll_usb.c ****   }
1094:Drivers/STM32F4xx_HAL_Driver/Src/stm32f4xx_ll_usb.c ****   else
1095:Drivers/STM32F4xx_HAL_Driver/Src/stm32f4xx_ll_usb.c ****   {
1096:Drivers/STM32F4xx_HAL_Driver/Src/stm32f4xx_ll_usb.c ****     USBx_OUTEP(epnum)->DOEPCTL &= ~USB_OTG_DOEPCTL_STALL;
1097:Drivers/STM32F4xx_HAL_Driver/Src/stm32f4xx_ll_usb.c ****     if ((ep->type == EP_TYPE_INTR) || (ep->type == EP_TYPE_BULK))
1098:Drivers/STM32F4xx_HAL_Driver/Src/stm32f4xx_ll_usb.c ****     {
1099:Drivers/STM32F4xx_HAL_Driver/Src/stm32f4xx_ll_usb.c ****       USBx_OUTEP(epnum)->DOEPCTL |= USB_OTG_DOEPCTL_SD0PID_SEVNFRM; /* DATA0 */
1100:Drivers/STM32F4xx_HAL_Driver/Src/stm32f4xx_ll_usb.c ****     }
1101:Drivers/STM32F4xx_HAL_Driver/Src/stm32f4xx_ll_usb.c ****   }
1102:Drivers/STM32F4xx_HAL_Driver/Src/stm32f4xx_ll_usb.c ****   return HAL_OK;
1103:Drivers/STM32F4xx_HAL_Driver/Src/stm32f4xx_ll_usb.c **** }
1104:Drivers/STM32F4xx_HAL_Driver/Src/stm32f4xx_ll_usb.c **** 
1105:Drivers/STM32F4xx_HAL_Driver/Src/stm32f4xx_ll_usb.c **** /**
1106:Drivers/STM32F4xx_HAL_Driver/Src/stm32f4xx_ll_usb.c ****   * @brief  USB_StopDevice : Stop the usb device mode
1107:Drivers/STM32F4xx_HAL_Driver/Src/stm32f4xx_ll_usb.c ****   * @param  USBx  Selected device
1108:Drivers/STM32F4xx_HAL_Driver/Src/stm32f4xx_ll_usb.c ****   * @retval HAL status
1109:Drivers/STM32F4xx_HAL_Driver/Src/stm32f4xx_ll_usb.c ****   */
1110:Drivers/STM32F4xx_HAL_Driver/Src/stm32f4xx_ll_usb.c **** HAL_StatusTypeDef USB_StopDevice(USB_OTG_GlobalTypeDef *USBx)
1111:Drivers/STM32F4xx_HAL_Driver/Src/stm32f4xx_ll_usb.c **** {
1112:Drivers/STM32F4xx_HAL_Driver/Src/stm32f4xx_ll_usb.c ****   HAL_StatusTypeDef ret;
ARM GAS  /tmp/ccTCOTTa.s 			page 21


1113:Drivers/STM32F4xx_HAL_Driver/Src/stm32f4xx_ll_usb.c ****   uint32_t USBx_BASE = (uint32_t)USBx;
1114:Drivers/STM32F4xx_HAL_Driver/Src/stm32f4xx_ll_usb.c ****   uint32_t i;
1115:Drivers/STM32F4xx_HAL_Driver/Src/stm32f4xx_ll_usb.c **** 
1116:Drivers/STM32F4xx_HAL_Driver/Src/stm32f4xx_ll_usb.c ****   /* Clear Pending interrupt */
1117:Drivers/STM32F4xx_HAL_Driver/Src/stm32f4xx_ll_usb.c ****   for (i = 0U; i < 15U; i++)
1118:Drivers/STM32F4xx_HAL_Driver/Src/stm32f4xx_ll_usb.c ****   {
1119:Drivers/STM32F4xx_HAL_Driver/Src/stm32f4xx_ll_usb.c ****     USBx_INEP(i)->DIEPINT = 0xFB7FU;
1120:Drivers/STM32F4xx_HAL_Driver/Src/stm32f4xx_ll_usb.c ****     USBx_OUTEP(i)->DOEPINT = 0xFB7FU;
1121:Drivers/STM32F4xx_HAL_Driver/Src/stm32f4xx_ll_usb.c ****   }
1122:Drivers/STM32F4xx_HAL_Driver/Src/stm32f4xx_ll_usb.c **** 
1123:Drivers/STM32F4xx_HAL_Driver/Src/stm32f4xx_ll_usb.c ****   /* Clear interrupt masks */
1124:Drivers/STM32F4xx_HAL_Driver/Src/stm32f4xx_ll_usb.c ****   USBx_DEVICE->DIEPMSK  = 0U;
1125:Drivers/STM32F4xx_HAL_Driver/Src/stm32f4xx_ll_usb.c ****   USBx_DEVICE->DOEPMSK  = 0U;
1126:Drivers/STM32F4xx_HAL_Driver/Src/stm32f4xx_ll_usb.c ****   USBx_DEVICE->DAINTMSK = 0U;
1127:Drivers/STM32F4xx_HAL_Driver/Src/stm32f4xx_ll_usb.c **** 
1128:Drivers/STM32F4xx_HAL_Driver/Src/stm32f4xx_ll_usb.c ****   /* Flush the FIFO */
1129:Drivers/STM32F4xx_HAL_Driver/Src/stm32f4xx_ll_usb.c ****   ret = USB_FlushRxFifo(USBx);
1130:Drivers/STM32F4xx_HAL_Driver/Src/stm32f4xx_ll_usb.c ****   if (ret != HAL_OK)
1131:Drivers/STM32F4xx_HAL_Driver/Src/stm32f4xx_ll_usb.c ****   {
1132:Drivers/STM32F4xx_HAL_Driver/Src/stm32f4xx_ll_usb.c ****     return ret;
1133:Drivers/STM32F4xx_HAL_Driver/Src/stm32f4xx_ll_usb.c ****   }
1134:Drivers/STM32F4xx_HAL_Driver/Src/stm32f4xx_ll_usb.c **** 
1135:Drivers/STM32F4xx_HAL_Driver/Src/stm32f4xx_ll_usb.c ****   ret = USB_FlushTxFifo(USBx,  0x10U);
1136:Drivers/STM32F4xx_HAL_Driver/Src/stm32f4xx_ll_usb.c ****   if (ret != HAL_OK)
1137:Drivers/STM32F4xx_HAL_Driver/Src/stm32f4xx_ll_usb.c ****   {
1138:Drivers/STM32F4xx_HAL_Driver/Src/stm32f4xx_ll_usb.c ****     return ret;
1139:Drivers/STM32F4xx_HAL_Driver/Src/stm32f4xx_ll_usb.c ****   }
1140:Drivers/STM32F4xx_HAL_Driver/Src/stm32f4xx_ll_usb.c **** 
1141:Drivers/STM32F4xx_HAL_Driver/Src/stm32f4xx_ll_usb.c ****   return ret;
1142:Drivers/STM32F4xx_HAL_Driver/Src/stm32f4xx_ll_usb.c **** }
1143:Drivers/STM32F4xx_HAL_Driver/Src/stm32f4xx_ll_usb.c **** 
1144:Drivers/STM32F4xx_HAL_Driver/Src/stm32f4xx_ll_usb.c **** /**
1145:Drivers/STM32F4xx_HAL_Driver/Src/stm32f4xx_ll_usb.c ****   * @brief  USB_SetDevAddress : Stop the usb device mode
1146:Drivers/STM32F4xx_HAL_Driver/Src/stm32f4xx_ll_usb.c ****   * @param  USBx  Selected device
1147:Drivers/STM32F4xx_HAL_Driver/Src/stm32f4xx_ll_usb.c ****   * @param  address  new device address to be assigned
1148:Drivers/STM32F4xx_HAL_Driver/Src/stm32f4xx_ll_usb.c ****   *          This parameter can be a value from 0 to 255
1149:Drivers/STM32F4xx_HAL_Driver/Src/stm32f4xx_ll_usb.c ****   * @retval HAL status
1150:Drivers/STM32F4xx_HAL_Driver/Src/stm32f4xx_ll_usb.c ****   */
1151:Drivers/STM32F4xx_HAL_Driver/Src/stm32f4xx_ll_usb.c **** HAL_StatusTypeDef  USB_SetDevAddress(USB_OTG_GlobalTypeDef *USBx, uint8_t address)
1152:Drivers/STM32F4xx_HAL_Driver/Src/stm32f4xx_ll_usb.c **** {
1153:Drivers/STM32F4xx_HAL_Driver/Src/stm32f4xx_ll_usb.c ****   uint32_t USBx_BASE = (uint32_t)USBx;
1154:Drivers/STM32F4xx_HAL_Driver/Src/stm32f4xx_ll_usb.c **** 
1155:Drivers/STM32F4xx_HAL_Driver/Src/stm32f4xx_ll_usb.c ****   USBx_DEVICE->DCFG &= ~(USB_OTG_DCFG_DAD);
1156:Drivers/STM32F4xx_HAL_Driver/Src/stm32f4xx_ll_usb.c ****   USBx_DEVICE->DCFG |= ((uint32_t)address << 4) & USB_OTG_DCFG_DAD;
1157:Drivers/STM32F4xx_HAL_Driver/Src/stm32f4xx_ll_usb.c **** 
1158:Drivers/STM32F4xx_HAL_Driver/Src/stm32f4xx_ll_usb.c ****   return HAL_OK;
1159:Drivers/STM32F4xx_HAL_Driver/Src/stm32f4xx_ll_usb.c **** }
1160:Drivers/STM32F4xx_HAL_Driver/Src/stm32f4xx_ll_usb.c **** 
1161:Drivers/STM32F4xx_HAL_Driver/Src/stm32f4xx_ll_usb.c **** /**
1162:Drivers/STM32F4xx_HAL_Driver/Src/stm32f4xx_ll_usb.c ****   * @brief  USB_DevConnect : Connect the USB device by enabling Rpu
1163:Drivers/STM32F4xx_HAL_Driver/Src/stm32f4xx_ll_usb.c ****   * @param  USBx  Selected device
1164:Drivers/STM32F4xx_HAL_Driver/Src/stm32f4xx_ll_usb.c ****   * @retval HAL status
1165:Drivers/STM32F4xx_HAL_Driver/Src/stm32f4xx_ll_usb.c ****   */
1166:Drivers/STM32F4xx_HAL_Driver/Src/stm32f4xx_ll_usb.c **** HAL_StatusTypeDef  USB_DevConnect(USB_OTG_GlobalTypeDef *USBx)
1167:Drivers/STM32F4xx_HAL_Driver/Src/stm32f4xx_ll_usb.c **** {
1168:Drivers/STM32F4xx_HAL_Driver/Src/stm32f4xx_ll_usb.c ****   uint32_t USBx_BASE = (uint32_t)USBx;
1169:Drivers/STM32F4xx_HAL_Driver/Src/stm32f4xx_ll_usb.c **** 
ARM GAS  /tmp/ccTCOTTa.s 			page 22


1170:Drivers/STM32F4xx_HAL_Driver/Src/stm32f4xx_ll_usb.c ****   /* In case phy is stopped, ensure to ungate and restore the phy CLK */
1171:Drivers/STM32F4xx_HAL_Driver/Src/stm32f4xx_ll_usb.c ****   USBx_PCGCCTL &= ~(USB_OTG_PCGCCTL_STOPCLK | USB_OTG_PCGCCTL_GATECLK);
1172:Drivers/STM32F4xx_HAL_Driver/Src/stm32f4xx_ll_usb.c **** 
1173:Drivers/STM32F4xx_HAL_Driver/Src/stm32f4xx_ll_usb.c ****   USBx_DEVICE->DCTL &= ~USB_OTG_DCTL_SDIS;
1174:Drivers/STM32F4xx_HAL_Driver/Src/stm32f4xx_ll_usb.c **** 
1175:Drivers/STM32F4xx_HAL_Driver/Src/stm32f4xx_ll_usb.c ****   return HAL_OK;
1176:Drivers/STM32F4xx_HAL_Driver/Src/stm32f4xx_ll_usb.c **** }
1177:Drivers/STM32F4xx_HAL_Driver/Src/stm32f4xx_ll_usb.c **** 
1178:Drivers/STM32F4xx_HAL_Driver/Src/stm32f4xx_ll_usb.c **** /**
1179:Drivers/STM32F4xx_HAL_Driver/Src/stm32f4xx_ll_usb.c ****   * @brief  USB_DevDisconnect : Disconnect the USB device by disabling Rpu
1180:Drivers/STM32F4xx_HAL_Driver/Src/stm32f4xx_ll_usb.c ****   * @param  USBx  Selected device
1181:Drivers/STM32F4xx_HAL_Driver/Src/stm32f4xx_ll_usb.c ****   * @retval HAL status
1182:Drivers/STM32F4xx_HAL_Driver/Src/stm32f4xx_ll_usb.c ****   */
1183:Drivers/STM32F4xx_HAL_Driver/Src/stm32f4xx_ll_usb.c **** HAL_StatusTypeDef  USB_DevDisconnect(USB_OTG_GlobalTypeDef *USBx)
1184:Drivers/STM32F4xx_HAL_Driver/Src/stm32f4xx_ll_usb.c **** {
1185:Drivers/STM32F4xx_HAL_Driver/Src/stm32f4xx_ll_usb.c ****   uint32_t USBx_BASE = (uint32_t)USBx;
1186:Drivers/STM32F4xx_HAL_Driver/Src/stm32f4xx_ll_usb.c **** 
1187:Drivers/STM32F4xx_HAL_Driver/Src/stm32f4xx_ll_usb.c ****   /* In case phy is stopped, ensure to ungate and restore the phy CLK */
1188:Drivers/STM32F4xx_HAL_Driver/Src/stm32f4xx_ll_usb.c ****   USBx_PCGCCTL &= ~(USB_OTG_PCGCCTL_STOPCLK | USB_OTG_PCGCCTL_GATECLK);
1189:Drivers/STM32F4xx_HAL_Driver/Src/stm32f4xx_ll_usb.c **** 
1190:Drivers/STM32F4xx_HAL_Driver/Src/stm32f4xx_ll_usb.c ****   USBx_DEVICE->DCTL |= USB_OTG_DCTL_SDIS;
1191:Drivers/STM32F4xx_HAL_Driver/Src/stm32f4xx_ll_usb.c **** 
1192:Drivers/STM32F4xx_HAL_Driver/Src/stm32f4xx_ll_usb.c ****   return HAL_OK;
1193:Drivers/STM32F4xx_HAL_Driver/Src/stm32f4xx_ll_usb.c **** }
1194:Drivers/STM32F4xx_HAL_Driver/Src/stm32f4xx_ll_usb.c **** 
1195:Drivers/STM32F4xx_HAL_Driver/Src/stm32f4xx_ll_usb.c **** /**
1196:Drivers/STM32F4xx_HAL_Driver/Src/stm32f4xx_ll_usb.c ****   * @brief  USB_ReadInterrupts: return the global USB interrupt status
1197:Drivers/STM32F4xx_HAL_Driver/Src/stm32f4xx_ll_usb.c ****   * @param  USBx  Selected device
1198:Drivers/STM32F4xx_HAL_Driver/Src/stm32f4xx_ll_usb.c ****   * @retval HAL status
1199:Drivers/STM32F4xx_HAL_Driver/Src/stm32f4xx_ll_usb.c ****   */
1200:Drivers/STM32F4xx_HAL_Driver/Src/stm32f4xx_ll_usb.c **** uint32_t  USB_ReadInterrupts(USB_OTG_GlobalTypeDef *USBx)
1201:Drivers/STM32F4xx_HAL_Driver/Src/stm32f4xx_ll_usb.c **** {
1202:Drivers/STM32F4xx_HAL_Driver/Src/stm32f4xx_ll_usb.c ****   uint32_t tmpreg;
1203:Drivers/STM32F4xx_HAL_Driver/Src/stm32f4xx_ll_usb.c **** 
1204:Drivers/STM32F4xx_HAL_Driver/Src/stm32f4xx_ll_usb.c ****   tmpreg = USBx->GINTSTS;
1205:Drivers/STM32F4xx_HAL_Driver/Src/stm32f4xx_ll_usb.c ****   tmpreg &= USBx->GINTMSK;
1206:Drivers/STM32F4xx_HAL_Driver/Src/stm32f4xx_ll_usb.c **** 
1207:Drivers/STM32F4xx_HAL_Driver/Src/stm32f4xx_ll_usb.c ****   return tmpreg;
1208:Drivers/STM32F4xx_HAL_Driver/Src/stm32f4xx_ll_usb.c **** }
1209:Drivers/STM32F4xx_HAL_Driver/Src/stm32f4xx_ll_usb.c **** 
1210:Drivers/STM32F4xx_HAL_Driver/Src/stm32f4xx_ll_usb.c **** /**
1211:Drivers/STM32F4xx_HAL_Driver/Src/stm32f4xx_ll_usb.c ****   * @brief  USB_ReadDevAllOutEpInterrupt: return the USB device OUT endpoints interrupt status
1212:Drivers/STM32F4xx_HAL_Driver/Src/stm32f4xx_ll_usb.c ****   * @param  USBx  Selected device
1213:Drivers/STM32F4xx_HAL_Driver/Src/stm32f4xx_ll_usb.c ****   * @retval HAL status
1214:Drivers/STM32F4xx_HAL_Driver/Src/stm32f4xx_ll_usb.c ****   */
1215:Drivers/STM32F4xx_HAL_Driver/Src/stm32f4xx_ll_usb.c **** uint32_t USB_ReadDevAllOutEpInterrupt(USB_OTG_GlobalTypeDef *USBx)
1216:Drivers/STM32F4xx_HAL_Driver/Src/stm32f4xx_ll_usb.c **** {
1217:Drivers/STM32F4xx_HAL_Driver/Src/stm32f4xx_ll_usb.c ****   uint32_t USBx_BASE = (uint32_t)USBx;
1218:Drivers/STM32F4xx_HAL_Driver/Src/stm32f4xx_ll_usb.c ****   uint32_t tmpreg;
1219:Drivers/STM32F4xx_HAL_Driver/Src/stm32f4xx_ll_usb.c **** 
1220:Drivers/STM32F4xx_HAL_Driver/Src/stm32f4xx_ll_usb.c ****   tmpreg  = USBx_DEVICE->DAINT;
1221:Drivers/STM32F4xx_HAL_Driver/Src/stm32f4xx_ll_usb.c ****   tmpreg &= USBx_DEVICE->DAINTMSK;
1222:Drivers/STM32F4xx_HAL_Driver/Src/stm32f4xx_ll_usb.c **** 
1223:Drivers/STM32F4xx_HAL_Driver/Src/stm32f4xx_ll_usb.c ****   return ((tmpreg & 0xffff0000U) >> 16);
1224:Drivers/STM32F4xx_HAL_Driver/Src/stm32f4xx_ll_usb.c **** }
1225:Drivers/STM32F4xx_HAL_Driver/Src/stm32f4xx_ll_usb.c **** 
1226:Drivers/STM32F4xx_HAL_Driver/Src/stm32f4xx_ll_usb.c **** /**
ARM GAS  /tmp/ccTCOTTa.s 			page 23


1227:Drivers/STM32F4xx_HAL_Driver/Src/stm32f4xx_ll_usb.c ****   * @brief  USB_ReadDevAllInEpInterrupt: return the USB device IN endpoints interrupt status
1228:Drivers/STM32F4xx_HAL_Driver/Src/stm32f4xx_ll_usb.c ****   * @param  USBx  Selected device
1229:Drivers/STM32F4xx_HAL_Driver/Src/stm32f4xx_ll_usb.c ****   * @retval HAL status
1230:Drivers/STM32F4xx_HAL_Driver/Src/stm32f4xx_ll_usb.c ****   */
1231:Drivers/STM32F4xx_HAL_Driver/Src/stm32f4xx_ll_usb.c **** uint32_t USB_ReadDevAllInEpInterrupt(USB_OTG_GlobalTypeDef *USBx)
1232:Drivers/STM32F4xx_HAL_Driver/Src/stm32f4xx_ll_usb.c **** {
1233:Drivers/STM32F4xx_HAL_Driver/Src/stm32f4xx_ll_usb.c ****   uint32_t USBx_BASE = (uint32_t)USBx;
1234:Drivers/STM32F4xx_HAL_Driver/Src/stm32f4xx_ll_usb.c ****   uint32_t tmpreg;
1235:Drivers/STM32F4xx_HAL_Driver/Src/stm32f4xx_ll_usb.c **** 
1236:Drivers/STM32F4xx_HAL_Driver/Src/stm32f4xx_ll_usb.c ****   tmpreg  = USBx_DEVICE->DAINT;
1237:Drivers/STM32F4xx_HAL_Driver/Src/stm32f4xx_ll_usb.c ****   tmpreg &= USBx_DEVICE->DAINTMSK;
1238:Drivers/STM32F4xx_HAL_Driver/Src/stm32f4xx_ll_usb.c **** 
1239:Drivers/STM32F4xx_HAL_Driver/Src/stm32f4xx_ll_usb.c ****   return ((tmpreg & 0xFFFFU));
1240:Drivers/STM32F4xx_HAL_Driver/Src/stm32f4xx_ll_usb.c **** }
1241:Drivers/STM32F4xx_HAL_Driver/Src/stm32f4xx_ll_usb.c **** 
1242:Drivers/STM32F4xx_HAL_Driver/Src/stm32f4xx_ll_usb.c **** /**
1243:Drivers/STM32F4xx_HAL_Driver/Src/stm32f4xx_ll_usb.c ****   * @brief  Returns Device OUT EP Interrupt register
1244:Drivers/STM32F4xx_HAL_Driver/Src/stm32f4xx_ll_usb.c ****   * @param  USBx  Selected device
1245:Drivers/STM32F4xx_HAL_Driver/Src/stm32f4xx_ll_usb.c ****   * @param  epnum  endpoint number
1246:Drivers/STM32F4xx_HAL_Driver/Src/stm32f4xx_ll_usb.c ****   *          This parameter can be a value from 0 to 15
1247:Drivers/STM32F4xx_HAL_Driver/Src/stm32f4xx_ll_usb.c ****   * @retval Device OUT EP Interrupt register
1248:Drivers/STM32F4xx_HAL_Driver/Src/stm32f4xx_ll_usb.c ****   */
1249:Drivers/STM32F4xx_HAL_Driver/Src/stm32f4xx_ll_usb.c **** uint32_t USB_ReadDevOutEPInterrupt(USB_OTG_GlobalTypeDef *USBx, uint8_t epnum)
1250:Drivers/STM32F4xx_HAL_Driver/Src/stm32f4xx_ll_usb.c **** {
1251:Drivers/STM32F4xx_HAL_Driver/Src/stm32f4xx_ll_usb.c ****   uint32_t USBx_BASE = (uint32_t)USBx;
1252:Drivers/STM32F4xx_HAL_Driver/Src/stm32f4xx_ll_usb.c ****   uint32_t tmpreg;
1253:Drivers/STM32F4xx_HAL_Driver/Src/stm32f4xx_ll_usb.c **** 
1254:Drivers/STM32F4xx_HAL_Driver/Src/stm32f4xx_ll_usb.c ****   tmpreg  = USBx_OUTEP((uint32_t)epnum)->DOEPINT;
1255:Drivers/STM32F4xx_HAL_Driver/Src/stm32f4xx_ll_usb.c ****   tmpreg &= USBx_DEVICE->DOEPMSK;
1256:Drivers/STM32F4xx_HAL_Driver/Src/stm32f4xx_ll_usb.c **** 
1257:Drivers/STM32F4xx_HAL_Driver/Src/stm32f4xx_ll_usb.c ****   return tmpreg;
1258:Drivers/STM32F4xx_HAL_Driver/Src/stm32f4xx_ll_usb.c **** }
1259:Drivers/STM32F4xx_HAL_Driver/Src/stm32f4xx_ll_usb.c **** 
1260:Drivers/STM32F4xx_HAL_Driver/Src/stm32f4xx_ll_usb.c **** /**
1261:Drivers/STM32F4xx_HAL_Driver/Src/stm32f4xx_ll_usb.c ****   * @brief  Returns Device IN EP Interrupt register
1262:Drivers/STM32F4xx_HAL_Driver/Src/stm32f4xx_ll_usb.c ****   * @param  USBx  Selected device
1263:Drivers/STM32F4xx_HAL_Driver/Src/stm32f4xx_ll_usb.c ****   * @param  epnum  endpoint number
1264:Drivers/STM32F4xx_HAL_Driver/Src/stm32f4xx_ll_usb.c ****   *          This parameter can be a value from 0 to 15
1265:Drivers/STM32F4xx_HAL_Driver/Src/stm32f4xx_ll_usb.c ****   * @retval Device IN EP Interrupt register
1266:Drivers/STM32F4xx_HAL_Driver/Src/stm32f4xx_ll_usb.c ****   */
1267:Drivers/STM32F4xx_HAL_Driver/Src/stm32f4xx_ll_usb.c **** uint32_t USB_ReadDevInEPInterrupt(USB_OTG_GlobalTypeDef *USBx, uint8_t epnum)
1268:Drivers/STM32F4xx_HAL_Driver/Src/stm32f4xx_ll_usb.c **** {
1269:Drivers/STM32F4xx_HAL_Driver/Src/stm32f4xx_ll_usb.c ****   uint32_t USBx_BASE = (uint32_t)USBx;
1270:Drivers/STM32F4xx_HAL_Driver/Src/stm32f4xx_ll_usb.c ****   uint32_t tmpreg;
1271:Drivers/STM32F4xx_HAL_Driver/Src/stm32f4xx_ll_usb.c ****   uint32_t msk;
1272:Drivers/STM32F4xx_HAL_Driver/Src/stm32f4xx_ll_usb.c ****   uint32_t emp;
1273:Drivers/STM32F4xx_HAL_Driver/Src/stm32f4xx_ll_usb.c **** 
1274:Drivers/STM32F4xx_HAL_Driver/Src/stm32f4xx_ll_usb.c ****   msk = USBx_DEVICE->DIEPMSK;
1275:Drivers/STM32F4xx_HAL_Driver/Src/stm32f4xx_ll_usb.c ****   emp = USBx_DEVICE->DIEPEMPMSK;
1276:Drivers/STM32F4xx_HAL_Driver/Src/stm32f4xx_ll_usb.c ****   msk |= ((emp >> (epnum & EP_ADDR_MSK)) & 0x1U) << 7;
1277:Drivers/STM32F4xx_HAL_Driver/Src/stm32f4xx_ll_usb.c ****   tmpreg = USBx_INEP((uint32_t)epnum)->DIEPINT & msk;
1278:Drivers/STM32F4xx_HAL_Driver/Src/stm32f4xx_ll_usb.c **** 
1279:Drivers/STM32F4xx_HAL_Driver/Src/stm32f4xx_ll_usb.c ****   return tmpreg;
1280:Drivers/STM32F4xx_HAL_Driver/Src/stm32f4xx_ll_usb.c **** }
1281:Drivers/STM32F4xx_HAL_Driver/Src/stm32f4xx_ll_usb.c **** 
1282:Drivers/STM32F4xx_HAL_Driver/Src/stm32f4xx_ll_usb.c **** /**
1283:Drivers/STM32F4xx_HAL_Driver/Src/stm32f4xx_ll_usb.c ****   * @brief  USB_ClearInterrupts: clear a USB interrupt
ARM GAS  /tmp/ccTCOTTa.s 			page 24


1284:Drivers/STM32F4xx_HAL_Driver/Src/stm32f4xx_ll_usb.c ****   * @param  USBx  Selected device
1285:Drivers/STM32F4xx_HAL_Driver/Src/stm32f4xx_ll_usb.c ****   * @param  interrupt  flag
1286:Drivers/STM32F4xx_HAL_Driver/Src/stm32f4xx_ll_usb.c ****   * @retval None
1287:Drivers/STM32F4xx_HAL_Driver/Src/stm32f4xx_ll_usb.c ****   */
1288:Drivers/STM32F4xx_HAL_Driver/Src/stm32f4xx_ll_usb.c **** void  USB_ClearInterrupts(USB_OTG_GlobalTypeDef *USBx, uint32_t interrupt)
1289:Drivers/STM32F4xx_HAL_Driver/Src/stm32f4xx_ll_usb.c **** {
1290:Drivers/STM32F4xx_HAL_Driver/Src/stm32f4xx_ll_usb.c ****   USBx->GINTSTS |= interrupt;
1291:Drivers/STM32F4xx_HAL_Driver/Src/stm32f4xx_ll_usb.c **** }
1292:Drivers/STM32F4xx_HAL_Driver/Src/stm32f4xx_ll_usb.c **** 
1293:Drivers/STM32F4xx_HAL_Driver/Src/stm32f4xx_ll_usb.c **** /**
1294:Drivers/STM32F4xx_HAL_Driver/Src/stm32f4xx_ll_usb.c ****   * @brief  Returns USB core mode
1295:Drivers/STM32F4xx_HAL_Driver/Src/stm32f4xx_ll_usb.c ****   * @param  USBx  Selected device
1296:Drivers/STM32F4xx_HAL_Driver/Src/stm32f4xx_ll_usb.c ****   * @retval return core mode : Host or Device
1297:Drivers/STM32F4xx_HAL_Driver/Src/stm32f4xx_ll_usb.c ****   *          This parameter can be one of these values:
1298:Drivers/STM32F4xx_HAL_Driver/Src/stm32f4xx_ll_usb.c ****   *           0 : Host
1299:Drivers/STM32F4xx_HAL_Driver/Src/stm32f4xx_ll_usb.c ****   *           1 : Device
1300:Drivers/STM32F4xx_HAL_Driver/Src/stm32f4xx_ll_usb.c ****   */
1301:Drivers/STM32F4xx_HAL_Driver/Src/stm32f4xx_ll_usb.c **** uint32_t USB_GetMode(USB_OTG_GlobalTypeDef *USBx)
1302:Drivers/STM32F4xx_HAL_Driver/Src/stm32f4xx_ll_usb.c **** {
1303:Drivers/STM32F4xx_HAL_Driver/Src/stm32f4xx_ll_usb.c ****   return ((USBx->GINTSTS) & 0x1U);
1304:Drivers/STM32F4xx_HAL_Driver/Src/stm32f4xx_ll_usb.c **** }
1305:Drivers/STM32F4xx_HAL_Driver/Src/stm32f4xx_ll_usb.c **** 
1306:Drivers/STM32F4xx_HAL_Driver/Src/stm32f4xx_ll_usb.c **** /**
1307:Drivers/STM32F4xx_HAL_Driver/Src/stm32f4xx_ll_usb.c ****   * @brief  Activate EP0 for Setup transactions
1308:Drivers/STM32F4xx_HAL_Driver/Src/stm32f4xx_ll_usb.c ****   * @param  USBx  Selected device
1309:Drivers/STM32F4xx_HAL_Driver/Src/stm32f4xx_ll_usb.c ****   * @retval HAL status
1310:Drivers/STM32F4xx_HAL_Driver/Src/stm32f4xx_ll_usb.c ****   */
1311:Drivers/STM32F4xx_HAL_Driver/Src/stm32f4xx_ll_usb.c **** HAL_StatusTypeDef  USB_ActivateSetup(USB_OTG_GlobalTypeDef *USBx)
1312:Drivers/STM32F4xx_HAL_Driver/Src/stm32f4xx_ll_usb.c **** {
1313:Drivers/STM32F4xx_HAL_Driver/Src/stm32f4xx_ll_usb.c ****   uint32_t USBx_BASE = (uint32_t)USBx;
1314:Drivers/STM32F4xx_HAL_Driver/Src/stm32f4xx_ll_usb.c **** 
1315:Drivers/STM32F4xx_HAL_Driver/Src/stm32f4xx_ll_usb.c ****   /* Set the MPS of the IN EP0 to 64 bytes */
1316:Drivers/STM32F4xx_HAL_Driver/Src/stm32f4xx_ll_usb.c ****   USBx_INEP(0U)->DIEPCTL &= ~USB_OTG_DIEPCTL_MPSIZ;
1317:Drivers/STM32F4xx_HAL_Driver/Src/stm32f4xx_ll_usb.c **** 
1318:Drivers/STM32F4xx_HAL_Driver/Src/stm32f4xx_ll_usb.c ****   USBx_DEVICE->DCTL |= USB_OTG_DCTL_CGINAK;
1319:Drivers/STM32F4xx_HAL_Driver/Src/stm32f4xx_ll_usb.c **** 
1320:Drivers/STM32F4xx_HAL_Driver/Src/stm32f4xx_ll_usb.c ****   return HAL_OK;
1321:Drivers/STM32F4xx_HAL_Driver/Src/stm32f4xx_ll_usb.c **** }
1322:Drivers/STM32F4xx_HAL_Driver/Src/stm32f4xx_ll_usb.c **** 
1323:Drivers/STM32F4xx_HAL_Driver/Src/stm32f4xx_ll_usb.c **** /**
1324:Drivers/STM32F4xx_HAL_Driver/Src/stm32f4xx_ll_usb.c ****   * @brief  Prepare the EP0 to start the first control setup
1325:Drivers/STM32F4xx_HAL_Driver/Src/stm32f4xx_ll_usb.c ****   * @param  USBx  Selected device
1326:Drivers/STM32F4xx_HAL_Driver/Src/stm32f4xx_ll_usb.c ****   * @param  dma USB dma enabled or disabled
1327:Drivers/STM32F4xx_HAL_Driver/Src/stm32f4xx_ll_usb.c ****   *          This parameter can be one of these values:
1328:Drivers/STM32F4xx_HAL_Driver/Src/stm32f4xx_ll_usb.c ****   *           0 : DMA feature not used
1329:Drivers/STM32F4xx_HAL_Driver/Src/stm32f4xx_ll_usb.c ****   *           1 : DMA feature used
1330:Drivers/STM32F4xx_HAL_Driver/Src/stm32f4xx_ll_usb.c ****   * @param  psetup  pointer to setup packet
1331:Drivers/STM32F4xx_HAL_Driver/Src/stm32f4xx_ll_usb.c ****   * @retval HAL status
1332:Drivers/STM32F4xx_HAL_Driver/Src/stm32f4xx_ll_usb.c ****   */
1333:Drivers/STM32F4xx_HAL_Driver/Src/stm32f4xx_ll_usb.c **** HAL_StatusTypeDef USB_EP0_OutStart(USB_OTG_GlobalTypeDef *USBx, uint8_t dma, uint8_t *psetup)
1334:Drivers/STM32F4xx_HAL_Driver/Src/stm32f4xx_ll_usb.c **** {
1335:Drivers/STM32F4xx_HAL_Driver/Src/stm32f4xx_ll_usb.c ****   uint32_t USBx_BASE = (uint32_t)USBx;
1336:Drivers/STM32F4xx_HAL_Driver/Src/stm32f4xx_ll_usb.c ****   uint32_t gSNPSiD = *(__IO uint32_t *)(&USBx->CID + 0x1U);
1337:Drivers/STM32F4xx_HAL_Driver/Src/stm32f4xx_ll_usb.c **** 
1338:Drivers/STM32F4xx_HAL_Driver/Src/stm32f4xx_ll_usb.c ****   if (gSNPSiD > USB_OTG_CORE_ID_300A)
1339:Drivers/STM32F4xx_HAL_Driver/Src/stm32f4xx_ll_usb.c ****   {
1340:Drivers/STM32F4xx_HAL_Driver/Src/stm32f4xx_ll_usb.c ****     if ((USBx_OUTEP(0U)->DOEPCTL & USB_OTG_DOEPCTL_EPENA) == USB_OTG_DOEPCTL_EPENA)
ARM GAS  /tmp/ccTCOTTa.s 			page 25


1341:Drivers/STM32F4xx_HAL_Driver/Src/stm32f4xx_ll_usb.c ****     {
1342:Drivers/STM32F4xx_HAL_Driver/Src/stm32f4xx_ll_usb.c ****       return HAL_OK;
1343:Drivers/STM32F4xx_HAL_Driver/Src/stm32f4xx_ll_usb.c ****     }
1344:Drivers/STM32F4xx_HAL_Driver/Src/stm32f4xx_ll_usb.c ****   }
1345:Drivers/STM32F4xx_HAL_Driver/Src/stm32f4xx_ll_usb.c **** 
1346:Drivers/STM32F4xx_HAL_Driver/Src/stm32f4xx_ll_usb.c ****   USBx_OUTEP(0U)->DOEPTSIZ = 0U;
1347:Drivers/STM32F4xx_HAL_Driver/Src/stm32f4xx_ll_usb.c ****   USBx_OUTEP(0U)->DOEPTSIZ |= (USB_OTG_DOEPTSIZ_PKTCNT & (1U << 19));
1348:Drivers/STM32F4xx_HAL_Driver/Src/stm32f4xx_ll_usb.c ****   USBx_OUTEP(0U)->DOEPTSIZ |= (3U * 8U);
1349:Drivers/STM32F4xx_HAL_Driver/Src/stm32f4xx_ll_usb.c ****   USBx_OUTEP(0U)->DOEPTSIZ |=  USB_OTG_DOEPTSIZ_STUPCNT;
1350:Drivers/STM32F4xx_HAL_Driver/Src/stm32f4xx_ll_usb.c **** 
1351:Drivers/STM32F4xx_HAL_Driver/Src/stm32f4xx_ll_usb.c ****   if (dma == 1U)
1352:Drivers/STM32F4xx_HAL_Driver/Src/stm32f4xx_ll_usb.c ****   {
1353:Drivers/STM32F4xx_HAL_Driver/Src/stm32f4xx_ll_usb.c ****     USBx_OUTEP(0U)->DOEPDMA = (uint32_t)psetup;
1354:Drivers/STM32F4xx_HAL_Driver/Src/stm32f4xx_ll_usb.c ****     /* EP enable */
1355:Drivers/STM32F4xx_HAL_Driver/Src/stm32f4xx_ll_usb.c ****     USBx_OUTEP(0U)->DOEPCTL |= USB_OTG_DOEPCTL_EPENA | USB_OTG_DOEPCTL_USBAEP;
1356:Drivers/STM32F4xx_HAL_Driver/Src/stm32f4xx_ll_usb.c ****   }
1357:Drivers/STM32F4xx_HAL_Driver/Src/stm32f4xx_ll_usb.c **** 
1358:Drivers/STM32F4xx_HAL_Driver/Src/stm32f4xx_ll_usb.c ****   return HAL_OK;
1359:Drivers/STM32F4xx_HAL_Driver/Src/stm32f4xx_ll_usb.c **** }
1360:Drivers/STM32F4xx_HAL_Driver/Src/stm32f4xx_ll_usb.c **** 
1361:Drivers/STM32F4xx_HAL_Driver/Src/stm32f4xx_ll_usb.c **** /**
1362:Drivers/STM32F4xx_HAL_Driver/Src/stm32f4xx_ll_usb.c ****   * @brief  Reset the USB Core (needed after USB clock settings change)
1363:Drivers/STM32F4xx_HAL_Driver/Src/stm32f4xx_ll_usb.c ****   * @param  USBx  Selected device
1364:Drivers/STM32F4xx_HAL_Driver/Src/stm32f4xx_ll_usb.c ****   * @retval HAL status
1365:Drivers/STM32F4xx_HAL_Driver/Src/stm32f4xx_ll_usb.c ****   */
1366:Drivers/STM32F4xx_HAL_Driver/Src/stm32f4xx_ll_usb.c **** static HAL_StatusTypeDef USB_CoreReset(USB_OTG_GlobalTypeDef *USBx)
1367:Drivers/STM32F4xx_HAL_Driver/Src/stm32f4xx_ll_usb.c **** {
  30              		.loc 1 1367 1 view -0
  31              		.cfi_startproc
  32              		@ args = 0, pretend = 0, frame = 8
  33              		@ frame_needed = 0, uses_anonymous_args = 0
  34              		@ link register save eliminated.
1368:Drivers/STM32F4xx_HAL_Driver/Src/stm32f4xx_ll_usb.c ****   __IO uint32_t count = 0U;
  35              		.loc 1 1368 3 view .LVU1
1367:Drivers/STM32F4xx_HAL_Driver/Src/stm32f4xx_ll_usb.c ****   __IO uint32_t count = 0U;
  36              		.loc 1 1367 1 is_stmt 0 view .LVU2
  37 0000 82B0     		sub	sp, sp, #8
  38              	.LCFI0:
  39              		.cfi_def_cfa_offset 8
  40              		.loc 1 1368 17 view .LVU3
  41 0002 0023     		movs	r3, #0
1369:Drivers/STM32F4xx_HAL_Driver/Src/stm32f4xx_ll_usb.c **** 
1370:Drivers/STM32F4xx_HAL_Driver/Src/stm32f4xx_ll_usb.c ****   /* Wait for AHB master IDLE state. */
1371:Drivers/STM32F4xx_HAL_Driver/Src/stm32f4xx_ll_usb.c ****   do
1372:Drivers/STM32F4xx_HAL_Driver/Src/stm32f4xx_ll_usb.c ****   {
1373:Drivers/STM32F4xx_HAL_Driver/Src/stm32f4xx_ll_usb.c ****     if (++count > 200000U)
  42              		.loc 1 1373 8 view .LVU4
  43 0004 114A     		ldr	r2, .L14
1368:Drivers/STM32F4xx_HAL_Driver/Src/stm32f4xx_ll_usb.c **** 
  44              		.loc 1 1368 17 view .LVU5
  45 0006 0193     		str	r3, [sp, #4]
  46 0008 02E0     		b	.L3
  47              	.L11:
1374:Drivers/STM32F4xx_HAL_Driver/Src/stm32f4xx_ll_usb.c ****     {
1375:Drivers/STM32F4xx_HAL_Driver/Src/stm32f4xx_ll_usb.c ****       return HAL_TIMEOUT;
1376:Drivers/STM32F4xx_HAL_Driver/Src/stm32f4xx_ll_usb.c ****     }
1377:Drivers/STM32F4xx_HAL_Driver/Src/stm32f4xx_ll_usb.c ****   } while ((USBx->GRSTCTL & USB_OTG_GRSTCTL_AHBIDL) == 0U);
ARM GAS  /tmp/ccTCOTTa.s 			page 26


  48              		.loc 1 1377 17 view .LVU6
  49 000a 0369     		ldr	r3, [r0, #16]
  50              		.loc 1 1377 3 view .LVU7
  51 000c 002B     		cmp	r3, #0
  52 000e 07DB     		blt	.L10
  53              	.L3:
1371:Drivers/STM32F4xx_HAL_Driver/Src/stm32f4xx_ll_usb.c ****   {
  54              		.loc 1 1371 3 is_stmt 1 view .LVU8
1373:Drivers/STM32F4xx_HAL_Driver/Src/stm32f4xx_ll_usb.c ****     {
  55              		.loc 1 1373 5 view .LVU9
  56              		.loc 1 1377 11 view .LVU10
1373:Drivers/STM32F4xx_HAL_Driver/Src/stm32f4xx_ll_usb.c ****     {
  57              		.loc 1 1373 9 is_stmt 0 view .LVU11
  58 0010 019B     		ldr	r3, [sp, #4]
  59 0012 0133     		adds	r3, r3, #1
1373:Drivers/STM32F4xx_HAL_Driver/Src/stm32f4xx_ll_usb.c ****     {
  60              		.loc 1 1373 8 view .LVU12
  61 0014 9342     		cmp	r3, r2
  62 0016 0193     		str	r3, [sp, #4]
  63 0018 F7D9     		bls	.L11
  64              	.L2:
1375:Drivers/STM32F4xx_HAL_Driver/Src/stm32f4xx_ll_usb.c ****     }
  65              		.loc 1 1375 14 view .LVU13
  66 001a 0320     		movs	r0, #3
  67              	.LVL1:
1378:Drivers/STM32F4xx_HAL_Driver/Src/stm32f4xx_ll_usb.c **** 
1379:Drivers/STM32F4xx_HAL_Driver/Src/stm32f4xx_ll_usb.c ****   /* Core Soft Reset */
1380:Drivers/STM32F4xx_HAL_Driver/Src/stm32f4xx_ll_usb.c ****   count = 0U;
1381:Drivers/STM32F4xx_HAL_Driver/Src/stm32f4xx_ll_usb.c ****   USBx->GRSTCTL |= USB_OTG_GRSTCTL_CSRST;
1382:Drivers/STM32F4xx_HAL_Driver/Src/stm32f4xx_ll_usb.c **** 
1383:Drivers/STM32F4xx_HAL_Driver/Src/stm32f4xx_ll_usb.c ****   do
1384:Drivers/STM32F4xx_HAL_Driver/Src/stm32f4xx_ll_usb.c ****   {
1385:Drivers/STM32F4xx_HAL_Driver/Src/stm32f4xx_ll_usb.c ****     if (++count > 200000U)
1386:Drivers/STM32F4xx_HAL_Driver/Src/stm32f4xx_ll_usb.c ****     {
1387:Drivers/STM32F4xx_HAL_Driver/Src/stm32f4xx_ll_usb.c ****       return HAL_TIMEOUT;
1388:Drivers/STM32F4xx_HAL_Driver/Src/stm32f4xx_ll_usb.c ****     }
1389:Drivers/STM32F4xx_HAL_Driver/Src/stm32f4xx_ll_usb.c ****   } while ((USBx->GRSTCTL & USB_OTG_GRSTCTL_CSRST) == USB_OTG_GRSTCTL_CSRST);
1390:Drivers/STM32F4xx_HAL_Driver/Src/stm32f4xx_ll_usb.c **** 
1391:Drivers/STM32F4xx_HAL_Driver/Src/stm32f4xx_ll_usb.c ****   return HAL_OK;
1392:Drivers/STM32F4xx_HAL_Driver/Src/stm32f4xx_ll_usb.c **** }
  68              		.loc 1 1392 1 view .LVU14
  69 001c 02B0     		add	sp, sp, #8
  70              	.LCFI1:
  71              		.cfi_remember_state
  72              		.cfi_def_cfa_offset 0
  73              		@ sp needed
  74 001e 7047     		bx	lr
  75              	.LVL2:
  76              	.L10:
  77              	.LCFI2:
  78              		.cfi_restore_state
1380:Drivers/STM32F4xx_HAL_Driver/Src/stm32f4xx_ll_usb.c ****   USBx->GRSTCTL |= USB_OTG_GRSTCTL_CSRST;
  79              		.loc 1 1380 3 is_stmt 1 view .LVU15
1380:Drivers/STM32F4xx_HAL_Driver/Src/stm32f4xx_ll_usb.c ****   USBx->GRSTCTL |= USB_OTG_GRSTCTL_CSRST;
  80              		.loc 1 1380 9 is_stmt 0 view .LVU16
  81 0020 0023     		movs	r3, #0
  82 0022 0193     		str	r3, [sp, #4]
ARM GAS  /tmp/ccTCOTTa.s 			page 27


1381:Drivers/STM32F4xx_HAL_Driver/Src/stm32f4xx_ll_usb.c **** 
  83              		.loc 1 1381 3 is_stmt 1 view .LVU17
1381:Drivers/STM32F4xx_HAL_Driver/Src/stm32f4xx_ll_usb.c **** 
  84              		.loc 1 1381 17 is_stmt 0 view .LVU18
  85 0024 0369     		ldr	r3, [r0, #16]
1385:Drivers/STM32F4xx_HAL_Driver/Src/stm32f4xx_ll_usb.c ****     {
  86              		.loc 1 1385 8 view .LVU19
  87 0026 094A     		ldr	r2, .L14
1381:Drivers/STM32F4xx_HAL_Driver/Src/stm32f4xx_ll_usb.c **** 
  88              		.loc 1 1381 17 view .LVU20
  89 0028 43F00103 		orr	r3, r3, #1
  90 002c 0361     		str	r3, [r0, #16]
  91 002e 03E0     		b	.L4
  92              	.L13:
1389:Drivers/STM32F4xx_HAL_Driver/Src/stm32f4xx_ll_usb.c **** 
  93              		.loc 1 1389 17 view .LVU21
  94 0030 0369     		ldr	r3, [r0, #16]
1389:Drivers/STM32F4xx_HAL_Driver/Src/stm32f4xx_ll_usb.c **** 
  95              		.loc 1 1389 3 view .LVU22
  96 0032 13F00103 		ands	r3, r3, #1
  97 0036 05D0     		beq	.L12
  98              	.L4:
1383:Drivers/STM32F4xx_HAL_Driver/Src/stm32f4xx_ll_usb.c ****   {
  99              		.loc 1 1383 3 is_stmt 1 view .LVU23
1385:Drivers/STM32F4xx_HAL_Driver/Src/stm32f4xx_ll_usb.c ****     {
 100              		.loc 1 1385 5 view .LVU24
1389:Drivers/STM32F4xx_HAL_Driver/Src/stm32f4xx_ll_usb.c **** 
 101              		.loc 1 1389 11 view .LVU25
1385:Drivers/STM32F4xx_HAL_Driver/Src/stm32f4xx_ll_usb.c ****     {
 102              		.loc 1 1385 9 is_stmt 0 view .LVU26
 103 0038 019B     		ldr	r3, [sp, #4]
 104 003a 0133     		adds	r3, r3, #1
1385:Drivers/STM32F4xx_HAL_Driver/Src/stm32f4xx_ll_usb.c ****     {
 105              		.loc 1 1385 8 view .LVU27
 106 003c 9342     		cmp	r3, r2
 107 003e 0193     		str	r3, [sp, #4]
 108 0040 F6D9     		bls	.L13
 109 0042 EAE7     		b	.L2
 110              	.L12:
1391:Drivers/STM32F4xx_HAL_Driver/Src/stm32f4xx_ll_usb.c **** }
 111              		.loc 1 1391 10 view .LVU28
 112 0044 1846     		mov	r0, r3
 113              	.LVL3:
 114              		.loc 1 1392 1 view .LVU29
 115 0046 02B0     		add	sp, sp, #8
 116              	.LCFI3:
 117              		.cfi_def_cfa_offset 0
 118              		@ sp needed
 119 0048 7047     		bx	lr
 120              	.L15:
 121 004a 00BF     		.align	2
 122              	.L14:
 123 004c 400D0300 		.word	200000
 124              		.cfi_endproc
 125              	.LFE163:
 127              		.section	.text.USB_CoreInit,"ax",%progbits
 128              		.align	1
ARM GAS  /tmp/ccTCOTTa.s 			page 28


 129              		.p2align 2,,3
 130              		.global	USB_CoreInit
 131              		.syntax unified
 132              		.thumb
 133              		.thumb_func
 135              	USB_CoreInit:
 136              	.LVL4:
 137              	.LFB130:
  83:Drivers/STM32F4xx_HAL_Driver/Src/stm32f4xx_ll_usb.c ****   HAL_StatusTypeDef ret;
 138              		.loc 1 83 1 is_stmt 1 view -0
 139              		.cfi_startproc
 140              		@ args = 56, pretend = 16, frame = 0
 141              		@ frame_needed = 0, uses_anonymous_args = 0
  84:Drivers/STM32F4xx_HAL_Driver/Src/stm32f4xx_ll_usb.c **** 
 142              		.loc 1 84 3 view .LVU31
  86:Drivers/STM32F4xx_HAL_Driver/Src/stm32f4xx_ll_usb.c ****   {
 143              		.loc 1 86 3 view .LVU32
  83:Drivers/STM32F4xx_HAL_Driver/Src/stm32f4xx_ll_usb.c ****   HAL_StatusTypeDef ret;
 144              		.loc 1 83 1 is_stmt 0 view .LVU33
 145 0000 84B0     		sub	sp, sp, #16
 146              	.LCFI4:
 147              		.cfi_def_cfa_offset 16
 148 0002 10B5     		push	{r4, lr}
 149              	.LCFI5:
 150              		.cfi_def_cfa_offset 24
 151              		.cfi_offset 4, -24
 152              		.cfi_offset 14, -20
  83:Drivers/STM32F4xx_HAL_Driver/Src/stm32f4xx_ll_usb.c ****   HAL_StatusTypeDef ret;
 153              		.loc 1 83 1 view .LVU34
 154 0004 0DF10C0C 		add	ip, sp, #12
 155 0008 8CE80E00 		stm	ip, {r1, r2, r3}
  86:Drivers/STM32F4xx_HAL_Driver/Src/stm32f4xx_ll_usb.c ****   {
 156              		.loc 1 86 6 view .LVU35
 157 000c 089B     		ldr	r3, [sp, #32]
 158 000e 012B     		cmp	r3, #1
  83:Drivers/STM32F4xx_HAL_Driver/Src/stm32f4xx_ll_usb.c ****   HAL_StatusTypeDef ret;
 159              		.loc 1 83 1 view .LVU36
 160 0010 0446     		mov	r4, r0
  86:Drivers/STM32F4xx_HAL_Driver/Src/stm32f4xx_ll_usb.c ****   {
 161              		.loc 1 86 6 view .LVU37
 162 0012 22D1     		bne	.L17
  88:Drivers/STM32F4xx_HAL_Driver/Src/stm32f4xx_ll_usb.c **** 
 163              		.loc 1 88 5 is_stmt 1 view .LVU38
  88:Drivers/STM32F4xx_HAL_Driver/Src/stm32f4xx_ll_usb.c **** 
 164              		.loc 1 88 17 is_stmt 0 view .LVU39
 165 0014 836B     		ldr	r3, [r0, #56]
  95:Drivers/STM32F4xx_HAL_Driver/Src/stm32f4xx_ll_usb.c ****     {
 166              		.loc 1 95 8 view .LVU40
 167 0016 0F9A     		ldr	r2, [sp, #60]
  88:Drivers/STM32F4xx_HAL_Driver/Src/stm32f4xx_ll_usb.c **** 
 168              		.loc 1 88 17 view .LVU41
 169 0018 23F48033 		bic	r3, r3, #65536
 170 001c 8363     		str	r3, [r0, #56]
  91:Drivers/STM32F4xx_HAL_Driver/Src/stm32f4xx_ll_usb.c **** 
 171              		.loc 1 91 5 is_stmt 1 view .LVU42
  91:Drivers/STM32F4xx_HAL_Driver/Src/stm32f4xx_ll_usb.c **** 
 172              		.loc 1 91 19 is_stmt 0 view .LVU43
ARM GAS  /tmp/ccTCOTTa.s 			page 29


 173 001e C368     		ldr	r3, [r0, #12]
 174 0020 23F48403 		bic	r3, r3, #4325376
 175 0024 23F04003 		bic	r3, r3, #64
 176 0028 C360     		str	r3, [r0, #12]
  94:Drivers/STM32F4xx_HAL_Driver/Src/stm32f4xx_ll_usb.c ****     if (cfg.use_external_vbus == 1U)
 177              		.loc 1 94 5 is_stmt 1 view .LVU44
  94:Drivers/STM32F4xx_HAL_Driver/Src/stm32f4xx_ll_usb.c ****     if (cfg.use_external_vbus == 1U)
 178              		.loc 1 94 19 is_stmt 0 view .LVU45
 179 002a C368     		ldr	r3, [r0, #12]
  95:Drivers/STM32F4xx_HAL_Driver/Src/stm32f4xx_ll_usb.c ****     {
 180              		.loc 1 95 8 view .LVU46
 181 002c 012A     		cmp	r2, #1
  94:Drivers/STM32F4xx_HAL_Driver/Src/stm32f4xx_ll_usb.c ****     if (cfg.use_external_vbus == 1U)
 182              		.loc 1 94 19 view .LVU47
 183 002e 23F44013 		bic	r3, r3, #3145728
 184 0032 C360     		str	r3, [r0, #12]
  95:Drivers/STM32F4xx_HAL_Driver/Src/stm32f4xx_ll_usb.c ****     {
 185              		.loc 1 95 5 is_stmt 1 view .LVU48
  95:Drivers/STM32F4xx_HAL_Driver/Src/stm32f4xx_ll_usb.c ****     {
 186              		.loc 1 95 8 is_stmt 0 view .LVU49
 187 0034 23D0     		beq	.L23
 188              	.L18:
 101:Drivers/STM32F4xx_HAL_Driver/Src/stm32f4xx_ll_usb.c ****   }
 189              		.loc 1 101 5 is_stmt 1 view .LVU50
 101:Drivers/STM32F4xx_HAL_Driver/Src/stm32f4xx_ll_usb.c ****   }
 190              		.loc 1 101 11 is_stmt 0 view .LVU51
 191 0036 2046     		mov	r0, r4
 192              	.LVL5:
 101:Drivers/STM32F4xx_HAL_Driver/Src/stm32f4xx_ll_usb.c ****   }
 193              		.loc 1 101 11 view .LVU52
 194 0038 FFF7FEFF 		bl	USB_CoreReset
 195              	.LVL6:
 196              	.L19:
 123:Drivers/STM32F4xx_HAL_Driver/Src/stm32f4xx_ll_usb.c ****   {
 197              		.loc 1 123 3 is_stmt 1 view .LVU53
 123:Drivers/STM32F4xx_HAL_Driver/Src/stm32f4xx_ll_usb.c ****   {
 198              		.loc 1 123 6 is_stmt 0 view .LVU54
 199 003c 069B     		ldr	r3, [sp, #24]
 200 003e 012B     		cmp	r3, #1
 201 0040 07D1     		bne	.L21
 125:Drivers/STM32F4xx_HAL_Driver/Src/stm32f4xx_ll_usb.c ****     USBx->GAHBCFG |= USB_OTG_GAHBCFG_DMAEN;
 202              		.loc 1 125 5 is_stmt 1 view .LVU55
 125:Drivers/STM32F4xx_HAL_Driver/Src/stm32f4xx_ll_usb.c ****     USBx->GAHBCFG |= USB_OTG_GAHBCFG_DMAEN;
 203              		.loc 1 125 19 is_stmt 0 view .LVU56
 204 0042 A368     		ldr	r3, [r4, #8]
 205 0044 43F00603 		orr	r3, r3, #6
 206 0048 A360     		str	r3, [r4, #8]
 126:Drivers/STM32F4xx_HAL_Driver/Src/stm32f4xx_ll_usb.c ****   }
 207              		.loc 1 126 5 is_stmt 1 view .LVU57
 126:Drivers/STM32F4xx_HAL_Driver/Src/stm32f4xx_ll_usb.c ****   }
 208              		.loc 1 126 19 is_stmt 0 view .LVU58
 209 004a A368     		ldr	r3, [r4, #8]
 210 004c 43F02003 		orr	r3, r3, #32
 211 0050 A360     		str	r3, [r4, #8]
 212              	.L21:
 129:Drivers/STM32F4xx_HAL_Driver/Src/stm32f4xx_ll_usb.c **** }
 213              		.loc 1 129 3 is_stmt 1 view .LVU59
ARM GAS  /tmp/ccTCOTTa.s 			page 30


 130:Drivers/STM32F4xx_HAL_Driver/Src/stm32f4xx_ll_usb.c **** 
 214              		.loc 1 130 1 is_stmt 0 view .LVU60
 215 0052 BDE81040 		pop	{r4, lr}
 216              	.LCFI6:
 217              		.cfi_remember_state
 218              		.cfi_restore 14
 219              		.cfi_restore 4
 220              		.cfi_def_cfa_offset 16
 221              	.LVL7:
 130:Drivers/STM32F4xx_HAL_Driver/Src/stm32f4xx_ll_usb.c **** 
 222              		.loc 1 130 1 view .LVU61
 223 0056 04B0     		add	sp, sp, #16
 224              	.LCFI7:
 225              		.cfi_def_cfa_offset 0
 226 0058 7047     		bx	lr
 227              	.LVL8:
 228              	.L17:
 229              	.LCFI8:
 230              		.cfi_restore_state
 106:Drivers/STM32F4xx_HAL_Driver/Src/stm32f4xx_ll_usb.c **** 
 231              		.loc 1 106 5 is_stmt 1 view .LVU62
 106:Drivers/STM32F4xx_HAL_Driver/Src/stm32f4xx_ll_usb.c **** 
 232              		.loc 1 106 19 is_stmt 0 view .LVU63
 233 005a C368     		ldr	r3, [r0, #12]
 234 005c 43F04003 		orr	r3, r3, #64
 235 0060 C360     		str	r3, [r0, #12]
 109:Drivers/STM32F4xx_HAL_Driver/Src/stm32f4xx_ll_usb.c **** 
 236              		.loc 1 109 5 is_stmt 1 view .LVU64
 109:Drivers/STM32F4xx_HAL_Driver/Src/stm32f4xx_ll_usb.c **** 
 237              		.loc 1 109 11 is_stmt 0 view .LVU65
 238 0062 FFF7FEFF 		bl	USB_CoreReset
 239              	.LVL9:
 111:Drivers/STM32F4xx_HAL_Driver/Src/stm32f4xx_ll_usb.c ****     {
 240              		.loc 1 111 8 view .LVU66
 241 0066 0C9B     		ldr	r3, [sp, #48]
 242              	.LVL10:
 111:Drivers/STM32F4xx_HAL_Driver/Src/stm32f4xx_ll_usb.c ****     {
 243              		.loc 1 111 5 is_stmt 1 view .LVU67
 111:Drivers/STM32F4xx_HAL_Driver/Src/stm32f4xx_ll_usb.c ****     {
 244              		.loc 1 111 8 is_stmt 0 view .LVU68
 245 0068 23B9     		cbnz	r3, .L20
 114:Drivers/STM32F4xx_HAL_Driver/Src/stm32f4xx_ll_usb.c ****     }
 246              		.loc 1 114 7 is_stmt 1 view .LVU69
 114:Drivers/STM32F4xx_HAL_Driver/Src/stm32f4xx_ll_usb.c ****     }
 247              		.loc 1 114 19 is_stmt 0 view .LVU70
 248 006a A36B     		ldr	r3, [r4, #56]
 249 006c 43F48033 		orr	r3, r3, #65536
 250 0070 A363     		str	r3, [r4, #56]
 251 0072 E3E7     		b	.L19
 252              	.L20:
 119:Drivers/STM32F4xx_HAL_Driver/Src/stm32f4xx_ll_usb.c ****     }
 253              		.loc 1 119 7 is_stmt 1 view .LVU71
 119:Drivers/STM32F4xx_HAL_Driver/Src/stm32f4xx_ll_usb.c ****     }
 254              		.loc 1 119 19 is_stmt 0 view .LVU72
 255 0074 A36B     		ldr	r3, [r4, #56]
 256 0076 23F48033 		bic	r3, r3, #65536
 257 007a A363     		str	r3, [r4, #56]
ARM GAS  /tmp/ccTCOTTa.s 			page 31


 258 007c DEE7     		b	.L19
 259              	.LVL11:
 260              	.L23:
  97:Drivers/STM32F4xx_HAL_Driver/Src/stm32f4xx_ll_usb.c ****     }
 261              		.loc 1 97 7 is_stmt 1 view .LVU73
  97:Drivers/STM32F4xx_HAL_Driver/Src/stm32f4xx_ll_usb.c ****     }
 262              		.loc 1 97 21 is_stmt 0 view .LVU74
 263 007e C368     		ldr	r3, [r0, #12]
 264 0080 43F48013 		orr	r3, r3, #1048576
 265 0084 C360     		str	r3, [r0, #12]
 266 0086 D6E7     		b	.L18
 267              		.cfi_endproc
 268              	.LFE130:
 270              		.section	.text.USB_SetTurnaroundTime,"ax",%progbits
 271              		.align	1
 272              		.p2align 2,,3
 273              		.global	USB_SetTurnaroundTime
 274              		.syntax unified
 275              		.thumb
 276              		.thumb_func
 278              	USB_SetTurnaroundTime:
 279              	.LVL12:
 280              	.LFB131:
 141:Drivers/STM32F4xx_HAL_Driver/Src/stm32f4xx_ll_usb.c ****   uint32_t UsbTrd;
 281              		.loc 1 141 1 is_stmt 1 view -0
 282              		.cfi_startproc
 283              		@ args = 0, pretend = 0, frame = 0
 284              		@ frame_needed = 0, uses_anonymous_args = 0
 285              		@ link register save eliminated.
 142:Drivers/STM32F4xx_HAL_Driver/Src/stm32f4xx_ll_usb.c **** 
 286              		.loc 1 142 3 view .LVU76
 148:Drivers/STM32F4xx_HAL_Driver/Src/stm32f4xx_ll_usb.c ****   {
 287              		.loc 1 148 3 view .LVU77
 148:Drivers/STM32F4xx_HAL_Driver/Src/stm32f4xx_ll_usb.c ****   {
 288              		.loc 1 148 6 is_stmt 0 view .LVU78
 289 0000 022A     		cmp	r2, #2
 141:Drivers/STM32F4xx_HAL_Driver/Src/stm32f4xx_ll_usb.c ****   uint32_t UsbTrd;
 290              		.loc 1 141 1 view .LVU79
 291 0002 0346     		mov	r3, r0
 148:Drivers/STM32F4xx_HAL_Driver/Src/stm32f4xx_ll_usb.c ****   {
 292              		.loc 1 148 6 view .LVU80
 293 0004 0BD0     		beq	.L36
 294              	.LVL13:
 295              	.L33:
 148:Drivers/STM32F4xx_HAL_Driver/Src/stm32f4xx_ll_usb.c ****   {
 296              		.loc 1 148 6 view .LVU81
 297 0006 4FF4105C 		mov	ip, #9216
 298              	.L25:
 210:Drivers/STM32F4xx_HAL_Driver/Src/stm32f4xx_ll_usb.c ****   USBx->GUSBCFG |= (uint32_t)((UsbTrd << 10) & USB_OTG_GUSBCFG_TRDT);
 299              		.loc 1 210 3 is_stmt 1 view .LVU82
 210:Drivers/STM32F4xx_HAL_Driver/Src/stm32f4xx_ll_usb.c ****   USBx->GUSBCFG |= (uint32_t)((UsbTrd << 10) & USB_OTG_GUSBCFG_TRDT);
 300              		.loc 1 210 17 is_stmt 0 view .LVU83
 301 000a D968     		ldr	r1, [r3, #12]
 302              	.LVL14:
 210:Drivers/STM32F4xx_HAL_Driver/Src/stm32f4xx_ll_usb.c ****   USBx->GUSBCFG |= (uint32_t)((UsbTrd << 10) & USB_OTG_GUSBCFG_TRDT);
 303              		.loc 1 210 17 view .LVU84
 304 000c 21F47051 		bic	r1, r1, #15360
ARM GAS  /tmp/ccTCOTTa.s 			page 32


 305 0010 D960     		str	r1, [r3, #12]
 211:Drivers/STM32F4xx_HAL_Driver/Src/stm32f4xx_ll_usb.c **** 
 306              		.loc 1 211 3 is_stmt 1 view .LVU85
 211:Drivers/STM32F4xx_HAL_Driver/Src/stm32f4xx_ll_usb.c **** 
 307              		.loc 1 211 17 is_stmt 0 view .LVU86
 308 0012 DA68     		ldr	r2, [r3, #12]
 309 0014 42EA0C02 		orr	r2, r2, ip
 214:Drivers/STM32F4xx_HAL_Driver/Src/stm32f4xx_ll_usb.c **** 
 310              		.loc 1 214 1 view .LVU87
 311 0018 0020     		movs	r0, #0
 211:Drivers/STM32F4xx_HAL_Driver/Src/stm32f4xx_ll_usb.c **** 
 312              		.loc 1 211 17 view .LVU88
 313 001a DA60     		str	r2, [r3, #12]
 213:Drivers/STM32F4xx_HAL_Driver/Src/stm32f4xx_ll_usb.c **** }
 314              		.loc 1 213 3 is_stmt 1 view .LVU89
 214:Drivers/STM32F4xx_HAL_Driver/Src/stm32f4xx_ll_usb.c **** 
 315              		.loc 1 214 1 is_stmt 0 view .LVU90
 316 001c 7047     		bx	lr
 317              	.LVL15:
 318              	.L36:
 150:Drivers/STM32F4xx_HAL_Driver/Src/stm32f4xx_ll_usb.c ****     {
 319              		.loc 1 150 5 is_stmt 1 view .LVU91
 150:Drivers/STM32F4xx_HAL_Driver/Src/stm32f4xx_ll_usb.c ****     {
 320              		.loc 1 150 29 is_stmt 0 view .LVU92
 321 001e 264A     		ldr	r2, .L37
 322              	.LVL16:
 150:Drivers/STM32F4xx_HAL_Driver/Src/stm32f4xx_ll_usb.c ****     {
 323              		.loc 1 150 8 view .LVU93
 324 0020 2648     		ldr	r0, .L37+4
 325              	.LVL17:
 150:Drivers/STM32F4xx_HAL_Driver/Src/stm32f4xx_ll_usb.c ****     {
 326              		.loc 1 150 29 view .LVU94
 327 0022 0A44     		add	r2, r2, r1
 150:Drivers/STM32F4xx_HAL_Driver/Src/stm32f4xx_ll_usb.c ****     {
 328              		.loc 1 150 8 view .LVU95
 329 0024 8242     		cmp	r2, r0
 330 0026 32D9     		bls	.L27
 155:Drivers/STM32F4xx_HAL_Driver/Src/stm32f4xx_ll_usb.c ****     {
 331              		.loc 1 155 10 is_stmt 1 view .LVU96
 155:Drivers/STM32F4xx_HAL_Driver/Src/stm32f4xx_ll_usb.c ****     {
 332              		.loc 1 155 34 is_stmt 0 view .LVU97
 333 0028 254A     		ldr	r2, .L37+8
 155:Drivers/STM32F4xx_HAL_Driver/Src/stm32f4xx_ll_usb.c ****     {
 334              		.loc 1 155 13 view .LVU98
 335 002a 2648     		ldr	r0, .L37+12
 155:Drivers/STM32F4xx_HAL_Driver/Src/stm32f4xx_ll_usb.c ****     {
 336              		.loc 1 155 34 view .LVU99
 337 002c 0A44     		add	r2, r2, r1
 155:Drivers/STM32F4xx_HAL_Driver/Src/stm32f4xx_ll_usb.c ****     {
 338              		.loc 1 155 13 view .LVU100
 339 002e 8242     		cmp	r2, r0
 340 0030 30D9     		bls	.L28
 160:Drivers/STM32F4xx_HAL_Driver/Src/stm32f4xx_ll_usb.c ****     {
 341              		.loc 1 160 10 is_stmt 1 view .LVU101
 160:Drivers/STM32F4xx_HAL_Driver/Src/stm32f4xx_ll_usb.c ****     {
 342              		.loc 1 160 13 is_stmt 0 view .LVU102
 343 0032 2548     		ldr	r0, .L37+16
ARM GAS  /tmp/ccTCOTTa.s 			page 33


 160:Drivers/STM32F4xx_HAL_Driver/Src/stm32f4xx_ll_usb.c ****     {
 344              		.loc 1 160 34 view .LVU103
 345 0034 A1F57402 		sub	r2, r1, #15990784
 346 0038 A2F51052 		sub	r2, r2, #9216
 160:Drivers/STM32F4xx_HAL_Driver/Src/stm32f4xx_ll_usb.c ****     {
 347              		.loc 1 160 13 view .LVU104
 348 003c 8242     		cmp	r2, r0
 349 003e 2CD9     		bls	.L29
 165:Drivers/STM32F4xx_HAL_Driver/Src/stm32f4xx_ll_usb.c ****     {
 350              		.loc 1 165 10 is_stmt 1 view .LVU105
 165:Drivers/STM32F4xx_HAL_Driver/Src/stm32f4xx_ll_usb.c ****     {
 351              		.loc 1 165 13 is_stmt 0 view .LVU106
 352 0040 2248     		ldr	r0, .L37+20
 165:Drivers/STM32F4xx_HAL_Driver/Src/stm32f4xx_ll_usb.c ****     {
 353              		.loc 1 165 34 view .LVU107
 354 0042 A1F18372 		sub	r2, r1, #17170432
 355 0046 A2F5E742 		sub	r2, r2, #29568
 165:Drivers/STM32F4xx_HAL_Driver/Src/stm32f4xx_ll_usb.c ****     {
 356              		.loc 1 165 13 view .LVU108
 357 004a 8242     		cmp	r2, r0
 358 004c 28D3     		bcc	.L30
 170:Drivers/STM32F4xx_HAL_Driver/Src/stm32f4xx_ll_usb.c ****     {
 359              		.loc 1 170 10 is_stmt 1 view .LVU109
 170:Drivers/STM32F4xx_HAL_Driver/Src/stm32f4xx_ll_usb.c ****     {
 360              		.loc 1 170 34 is_stmt 0 view .LVU110
 361 004e 204A     		ldr	r2, .L37+24
 170:Drivers/STM32F4xx_HAL_Driver/Src/stm32f4xx_ll_usb.c ****     {
 362              		.loc 1 170 13 view .LVU111
 363 0050 2048     		ldr	r0, .L37+28
 170:Drivers/STM32F4xx_HAL_Driver/Src/stm32f4xx_ll_usb.c ****     {
 364              		.loc 1 170 34 view .LVU112
 365 0052 0A44     		add	r2, r2, r1
 170:Drivers/STM32F4xx_HAL_Driver/Src/stm32f4xx_ll_usb.c ****     {
 366              		.loc 1 170 13 view .LVU113
 367 0054 8242     		cmp	r2, r0
 368 0056 26D9     		bls	.L31
 175:Drivers/STM32F4xx_HAL_Driver/Src/stm32f4xx_ll_usb.c ****     {
 369              		.loc 1 175 10 is_stmt 1 view .LVU114
 175:Drivers/STM32F4xx_HAL_Driver/Src/stm32f4xx_ll_usb.c ****     {
 370              		.loc 1 175 34 is_stmt 0 view .LVU115
 371 0058 1F4A     		ldr	r2, .L37+32
 175:Drivers/STM32F4xx_HAL_Driver/Src/stm32f4xx_ll_usb.c ****     {
 372              		.loc 1 175 13 view .LVU116
 373 005a 2048     		ldr	r0, .L37+36
 175:Drivers/STM32F4xx_HAL_Driver/Src/stm32f4xx_ll_usb.c ****     {
 374              		.loc 1 175 34 view .LVU117
 375 005c 0A44     		add	r2, r2, r1
 175:Drivers/STM32F4xx_HAL_Driver/Src/stm32f4xx_ll_usb.c ****     {
 376              		.loc 1 175 13 view .LVU118
 377 005e 8242     		cmp	r2, r0
 378 0060 24D3     		bcc	.L32
 180:Drivers/STM32F4xx_HAL_Driver/Src/stm32f4xx_ll_usb.c ****     {
 379              		.loc 1 180 10 is_stmt 1 view .LVU119
 180:Drivers/STM32F4xx_HAL_Driver/Src/stm32f4xx_ll_usb.c ****     {
 380              		.loc 1 180 34 is_stmt 0 view .LVU120
 381 0062 1F4A     		ldr	r2, .L37+40
 180:Drivers/STM32F4xx_HAL_Driver/Src/stm32f4xx_ll_usb.c ****     {
ARM GAS  /tmp/ccTCOTTa.s 			page 34


 382              		.loc 1 180 13 view .LVU121
 383 0064 1F48     		ldr	r0, .L37+44
 180:Drivers/STM32F4xx_HAL_Driver/Src/stm32f4xx_ll_usb.c ****     {
 384              		.loc 1 180 34 view .LVU122
 385 0066 0A44     		add	r2, r2, r1
 180:Drivers/STM32F4xx_HAL_Driver/Src/stm32f4xx_ll_usb.c ****     {
 386              		.loc 1 180 13 view .LVU123
 387 0068 8242     		cmp	r2, r0
 388 006a CCD3     		bcc	.L33
 185:Drivers/STM32F4xx_HAL_Driver/Src/stm32f4xx_ll_usb.c ****     {
 389              		.loc 1 185 10 is_stmt 1 view .LVU124
 185:Drivers/STM32F4xx_HAL_Driver/Src/stm32f4xx_ll_usb.c ****     {
 390              		.loc 1 185 13 is_stmt 0 view .LVU125
 391 006c 1E48     		ldr	r0, .L37+48
 185:Drivers/STM32F4xx_HAL_Driver/Src/stm32f4xx_ll_usb.c ****     {
 392              		.loc 1 185 34 view .LVU126
 393 006e A1F1B772 		sub	r2, r1, #23986176
 394 0072 A2F55852 		sub	r2, r2, #13824
 185:Drivers/STM32F4xx_HAL_Driver/Src/stm32f4xx_ll_usb.c ****     {
 395              		.loc 1 185 13 view .LVU127
 396 0076 8242     		cmp	r2, r0
 397 0078 1BD3     		bcc	.L34
 190:Drivers/STM32F4xx_HAL_Driver/Src/stm32f4xx_ll_usb.c ****     {
 398              		.loc 1 190 10 is_stmt 1 view .LVU128
 190:Drivers/STM32F4xx_HAL_Driver/Src/stm32f4xx_ll_usb.c ****     {
 399              		.loc 1 190 34 is_stmt 0 view .LVU129
 400 007a 1C4A     		ldr	r2, .L37+52
 190:Drivers/STM32F4xx_HAL_Driver/Src/stm32f4xx_ll_usb.c ****     {
 401              		.loc 1 190 13 view .LVU130
 402 007c 1C48     		ldr	r0, .L37+56
 190:Drivers/STM32F4xx_HAL_Driver/Src/stm32f4xx_ll_usb.c ****     {
 403              		.loc 1 190 34 view .LVU131
 404 007e 0A44     		add	r2, r2, r1
 190:Drivers/STM32F4xx_HAL_Driver/Src/stm32f4xx_ll_usb.c ****     {
 405              		.loc 1 190 13 view .LVU132
 406 0080 8242     		cmp	r2, r0
 407 0082 34BF     		ite	cc
 408 0084 4FF4E05C 		movcc	ip, #7168
 409 0088 4FF4C05C 		movcs	ip, #6144
 410 008c BDE7     		b	.L25
 411              	.L27:
 412 008e 4FF4705C 		mov	ip, #15360
 413 0092 BAE7     		b	.L25
 414              	.L28:
 415 0094 4FF4605C 		mov	ip, #14336
 416 0098 B7E7     		b	.L25
 417              	.L29:
 418 009a 4FF4505C 		mov	ip, #13312
 419 009e B4E7     		b	.L25
 420              	.L30:
 421 00a0 4FF4405C 		mov	ip, #12288
 422 00a4 B1E7     		b	.L25
 423              	.L31:
 424 00a6 4FF4305C 		mov	ip, #11264
 425 00aa AEE7     		b	.L25
 426              	.L32:
 427 00ac 4FF4205C 		mov	ip, #10240
ARM GAS  /tmp/ccTCOTTa.s 			page 35


 428 00b0 ABE7     		b	.L25
 429              	.L34:
 430 00b2 4FF4005C 		mov	ip, #8192
 431 00b6 A8E7     		b	.L25
 432              	.L38:
 433              		.align	2
 434              	.L37:
 435 00b8 405327FF 		.word	-14200000
 436 00bc FF340C00 		.word	799999
 437 00c0 401E1BFF 		.word	-15000000
 438 00c4 3F420F00 		.word	999999
 439 00c8 7F4F1200 		.word	1199999
 440 00cc 20D61300 		.word	1300000
 441 00d0 60B6E5FE 		.word	-18500000
 442 00d4 5FE31600 		.word	1499999
 443 00d8 00D3CEFE 		.word	-20000000
 444 00dc 40771B00 		.word	1800000
 445 00e0 C05BB3FE 		.word	-21800000
 446 00e4 C0912100 		.word	2200000
 447 00e8 20753800 		.word	3700000
 448 00ec E05459FE 		.word	-27700000
 449 00f0 E09C4100 		.word	4300000
 450              		.cfi_endproc
 451              	.LFE131:
 453              		.section	.text.USB_EnableGlobalInt,"ax",%progbits
 454              		.align	1
 455              		.p2align 2,,3
 456              		.global	USB_EnableGlobalInt
 457              		.syntax unified
 458              		.thumb
 459              		.thumb_func
 461              	USB_EnableGlobalInt:
 462              	.LVL18:
 463              	.LFB132:
 223:Drivers/STM32F4xx_HAL_Driver/Src/stm32f4xx_ll_usb.c ****   USBx->GAHBCFG |= USB_OTG_GAHBCFG_GINT;
 464              		.loc 1 223 1 is_stmt 1 view -0
 465              		.cfi_startproc
 466              		@ args = 0, pretend = 0, frame = 0
 467              		@ frame_needed = 0, uses_anonymous_args = 0
 468              		@ link register save eliminated.
 224:Drivers/STM32F4xx_HAL_Driver/Src/stm32f4xx_ll_usb.c ****   return HAL_OK;
 469              		.loc 1 224 3 view .LVU134
 223:Drivers/STM32F4xx_HAL_Driver/Src/stm32f4xx_ll_usb.c ****   USBx->GAHBCFG |= USB_OTG_GAHBCFG_GINT;
 470              		.loc 1 223 1 is_stmt 0 view .LVU135
 471 0000 0346     		mov	r3, r0
 226:Drivers/STM32F4xx_HAL_Driver/Src/stm32f4xx_ll_usb.c **** 
 472              		.loc 1 226 1 view .LVU136
 473 0002 0020     		movs	r0, #0
 474              	.LVL19:
 224:Drivers/STM32F4xx_HAL_Driver/Src/stm32f4xx_ll_usb.c ****   return HAL_OK;
 475              		.loc 1 224 17 view .LVU137
 476 0004 9A68     		ldr	r2, [r3, #8]
 477 0006 42F00102 		orr	r2, r2, #1
 478 000a 9A60     		str	r2, [r3, #8]
 225:Drivers/STM32F4xx_HAL_Driver/Src/stm32f4xx_ll_usb.c **** }
 479              		.loc 1 225 3 is_stmt 1 view .LVU138
 226:Drivers/STM32F4xx_HAL_Driver/Src/stm32f4xx_ll_usb.c **** 
ARM GAS  /tmp/ccTCOTTa.s 			page 36


 480              		.loc 1 226 1 is_stmt 0 view .LVU139
 481 000c 7047     		bx	lr
 482              		.cfi_endproc
 483              	.LFE132:
 485 000e 00BF     		.section	.text.USB_DisableGlobalInt,"ax",%progbits
 486              		.align	1
 487              		.p2align 2,,3
 488              		.global	USB_DisableGlobalInt
 489              		.syntax unified
 490              		.thumb
 491              		.thumb_func
 493              	USB_DisableGlobalInt:
 494              	.LVL20:
 495              	.LFB133:
 235:Drivers/STM32F4xx_HAL_Driver/Src/stm32f4xx_ll_usb.c ****   USBx->GAHBCFG &= ~USB_OTG_GAHBCFG_GINT;
 496              		.loc 1 235 1 is_stmt 1 view -0
 497              		.cfi_startproc
 498              		@ args = 0, pretend = 0, frame = 0
 499              		@ frame_needed = 0, uses_anonymous_args = 0
 500              		@ link register save eliminated.
 236:Drivers/STM32F4xx_HAL_Driver/Src/stm32f4xx_ll_usb.c ****   return HAL_OK;
 501              		.loc 1 236 3 view .LVU141
 235:Drivers/STM32F4xx_HAL_Driver/Src/stm32f4xx_ll_usb.c ****   USBx->GAHBCFG &= ~USB_OTG_GAHBCFG_GINT;
 502              		.loc 1 235 1 is_stmt 0 view .LVU142
 503 0000 0346     		mov	r3, r0
 238:Drivers/STM32F4xx_HAL_Driver/Src/stm32f4xx_ll_usb.c **** 
 504              		.loc 1 238 1 view .LVU143
 505 0002 0020     		movs	r0, #0
 506              	.LVL21:
 236:Drivers/STM32F4xx_HAL_Driver/Src/stm32f4xx_ll_usb.c ****   return HAL_OK;
 507              		.loc 1 236 17 view .LVU144
 508 0004 9A68     		ldr	r2, [r3, #8]
 509 0006 22F00102 		bic	r2, r2, #1
 510 000a 9A60     		str	r2, [r3, #8]
 237:Drivers/STM32F4xx_HAL_Driver/Src/stm32f4xx_ll_usb.c **** }
 511              		.loc 1 237 3 is_stmt 1 view .LVU145
 238:Drivers/STM32F4xx_HAL_Driver/Src/stm32f4xx_ll_usb.c **** 
 512              		.loc 1 238 1 is_stmt 0 view .LVU146
 513 000c 7047     		bx	lr
 514              		.cfi_endproc
 515              	.LFE133:
 517 000e 00BF     		.section	.text.USB_SetCurrentMode,"ax",%progbits
 518              		.align	1
 519              		.p2align 2,,3
 520              		.global	USB_SetCurrentMode
 521              		.syntax unified
 522              		.thumb
 523              		.thumb_func
 525              	USB_SetCurrentMode:
 526              	.LVL22:
 527              	.LFB134:
 250:Drivers/STM32F4xx_HAL_Driver/Src/stm32f4xx_ll_usb.c ****   uint32_t ms = 0U;
 528              		.loc 1 250 1 is_stmt 1 view -0
 529              		.cfi_startproc
 530              		@ args = 0, pretend = 0, frame = 0
 531              		@ frame_needed = 0, uses_anonymous_args = 0
 251:Drivers/STM32F4xx_HAL_Driver/Src/stm32f4xx_ll_usb.c **** 
ARM GAS  /tmp/ccTCOTTa.s 			page 37


 532              		.loc 1 251 3 view .LVU148
 253:Drivers/STM32F4xx_HAL_Driver/Src/stm32f4xx_ll_usb.c **** 
 533              		.loc 1 253 3 view .LVU149
 250:Drivers/STM32F4xx_HAL_Driver/Src/stm32f4xx_ll_usb.c ****   uint32_t ms = 0U;
 534              		.loc 1 250 1 is_stmt 0 view .LVU150
 535 0000 38B5     		push	{r3, r4, r5, lr}
 536              	.LCFI9:
 537              		.cfi_def_cfa_offset 16
 538              		.cfi_offset 3, -16
 539              		.cfi_offset 4, -12
 540              		.cfi_offset 5, -8
 541              		.cfi_offset 14, -4
 253:Drivers/STM32F4xx_HAL_Driver/Src/stm32f4xx_ll_usb.c **** 
 542              		.loc 1 253 17 view .LVU151
 543 0002 C368     		ldr	r3, [r0, #12]
 255:Drivers/STM32F4xx_HAL_Driver/Src/stm32f4xx_ll_usb.c ****   {
 544              		.loc 1 255 6 view .LVU152
 545 0004 0129     		cmp	r1, #1
 253:Drivers/STM32F4xx_HAL_Driver/Src/stm32f4xx_ll_usb.c **** 
 546              		.loc 1 253 17 view .LVU153
 547 0006 23F0C043 		bic	r3, r3, #1610612736
 250:Drivers/STM32F4xx_HAL_Driver/Src/stm32f4xx_ll_usb.c ****   uint32_t ms = 0U;
 548              		.loc 1 250 1 view .LVU154
 549 000a 0546     		mov	r5, r0
 253:Drivers/STM32F4xx_HAL_Driver/Src/stm32f4xx_ll_usb.c **** 
 550              		.loc 1 253 17 view .LVU155
 551 000c C360     		str	r3, [r0, #12]
 255:Drivers/STM32F4xx_HAL_Driver/Src/stm32f4xx_ll_usb.c ****   {
 552              		.loc 1 255 3 is_stmt 1 view .LVU156
 255:Drivers/STM32F4xx_HAL_Driver/Src/stm32f4xx_ll_usb.c ****   {
 553              		.loc 1 255 6 is_stmt 0 view .LVU157
 554 000e 18D0     		beq	.L55
 265:Drivers/STM32F4xx_HAL_Driver/Src/stm32f4xx_ll_usb.c ****   {
 555              		.loc 1 265 8 is_stmt 1 view .LVU158
 265:Drivers/STM32F4xx_HAL_Driver/Src/stm32f4xx_ll_usb.c ****   {
 556              		.loc 1 265 11 is_stmt 0 view .LVU159
 557 0010 A9B9     		cbnz	r1, .L46
 267:Drivers/STM32F4xx_HAL_Driver/Src/stm32f4xx_ll_usb.c **** 
 558              		.loc 1 267 5 is_stmt 1 view .LVU160
 267:Drivers/STM32F4xx_HAL_Driver/Src/stm32f4xx_ll_usb.c **** 
 559              		.loc 1 267 19 is_stmt 0 view .LVU161
 560 0012 C368     		ldr	r3, [r0, #12]
 561 0014 43F08043 		orr	r3, r3, #1073741824
 251:Drivers/STM32F4xx_HAL_Driver/Src/stm32f4xx_ll_usb.c **** 
 562              		.loc 1 251 12 view .LVU162
 563 0018 0C46     		mov	r4, r1
 267:Drivers/STM32F4xx_HAL_Driver/Src/stm32f4xx_ll_usb.c **** 
 564              		.loc 1 267 19 view .LVU163
 565 001a C360     		str	r3, [r0, #12]
 566 001c 01E0     		b	.L47
 567              	.LVL23:
 568              	.L56:
 273:Drivers/STM32F4xx_HAL_Driver/Src/stm32f4xx_ll_usb.c ****   }
 569              		.loc 1 273 63 discriminator 1 view .LVU164
 570 001e 322C     		cmp	r4, #50
 571 0020 0DD0     		beq	.L46
 572              	.LVL24:
ARM GAS  /tmp/ccTCOTTa.s 			page 38


 573              	.L47:
 269:Drivers/STM32F4xx_HAL_Driver/Src/stm32f4xx_ll_usb.c ****     {
 574              		.loc 1 269 5 is_stmt 1 discriminator 2 view .LVU165
 271:Drivers/STM32F4xx_HAL_Driver/Src/stm32f4xx_ll_usb.c ****       ms++;
 575              		.loc 1 271 7 discriminator 2 view .LVU166
 576 0022 0120     		movs	r0, #1
 577 0024 FFF7FEFF 		bl	HAL_Delay
 578              	.LVL25:
 272:Drivers/STM32F4xx_HAL_Driver/Src/stm32f4xx_ll_usb.c ****     } while ((USB_GetMode(USBx) != (uint32_t)USB_DEVICE_MODE) && (ms < 50U));
 579              		.loc 1 272 7 discriminator 2 view .LVU167
 580              	.LBB28:
 581              	.LBB29:
1303:Drivers/STM32F4xx_HAL_Driver/Src/stm32f4xx_ll_usb.c **** }
 582              		.loc 1 1303 16 is_stmt 0 discriminator 2 view .LVU168
 583 0028 6B69     		ldr	r3, [r5, #20]
 584              	.LBE29:
 585              	.LBE28:
 273:Drivers/STM32F4xx_HAL_Driver/Src/stm32f4xx_ll_usb.c ****   }
 586              		.loc 1 273 5 discriminator 2 view .LVU169
 587 002a DB07     		lsls	r3, r3, #31
 272:Drivers/STM32F4xx_HAL_Driver/Src/stm32f4xx_ll_usb.c ****     } while ((USB_GetMode(USBx) != (uint32_t)USB_DEVICE_MODE) && (ms < 50U));
 588              		.loc 1 272 9 discriminator 2 view .LVU170
 589 002c 04F10104 		add	r4, r4, #1
 590              	.LVL26:
 273:Drivers/STM32F4xx_HAL_Driver/Src/stm32f4xx_ll_usb.c ****   }
 591              		.loc 1 273 13 is_stmt 1 discriminator 2 view .LVU171
 592              	.LBB31:
 593              	.LBI28:
1301:Drivers/STM32F4xx_HAL_Driver/Src/stm32f4xx_ll_usb.c **** {
 594              		.loc 1 1301 10 discriminator 2 view .LVU172
 595              	.LBB30:
1303:Drivers/STM32F4xx_HAL_Driver/Src/stm32f4xx_ll_usb.c **** }
 596              		.loc 1 1303 3 discriminator 2 view .LVU173
1303:Drivers/STM32F4xx_HAL_Driver/Src/stm32f4xx_ll_usb.c **** }
 597              		.loc 1 1303 3 is_stmt 0 discriminator 2 view .LVU174
 598              	.LBE30:
 599              	.LBE31:
 273:Drivers/STM32F4xx_HAL_Driver/Src/stm32f4xx_ll_usb.c ****   }
 600              		.loc 1 273 5 discriminator 2 view .LVU175
 601 0030 F5D4     		bmi	.L56
 280:Drivers/STM32F4xx_HAL_Driver/Src/stm32f4xx_ll_usb.c ****   {
 602              		.loc 1 280 3 is_stmt 1 view .LVU176
 277:Drivers/STM32F4xx_HAL_Driver/Src/stm32f4xx_ll_usb.c ****   }
 603              		.loc 1 277 12 is_stmt 0 view .LVU177
 604 0032 A4F13200 		sub	r0, r4, #50
 605 0036 B0FA80F0 		clz	r0, r0
 606 003a 4009     		lsrs	r0, r0, #5
 607              	.L45:
 608              	.LVL27:
 286:Drivers/STM32F4xx_HAL_Driver/Src/stm32f4xx_ll_usb.c **** 
 609              		.loc 1 286 1 view .LVU178
 610 003c 38BD     		pop	{r3, r4, r5, pc}
 611              	.LVL28:
 612              	.L46:
 282:Drivers/STM32F4xx_HAL_Driver/Src/stm32f4xx_ll_usb.c ****   }
 613              		.loc 1 282 12 view .LVU179
 614 003e 0120     		movs	r0, #1
ARM GAS  /tmp/ccTCOTTa.s 			page 39


 286:Drivers/STM32F4xx_HAL_Driver/Src/stm32f4xx_ll_usb.c **** 
 615              		.loc 1 286 1 view .LVU180
 616 0040 38BD     		pop	{r3, r4, r5, pc}
 617              	.LVL29:
 618              	.L55:
 257:Drivers/STM32F4xx_HAL_Driver/Src/stm32f4xx_ll_usb.c **** 
 619              		.loc 1 257 5 is_stmt 1 view .LVU181
 257:Drivers/STM32F4xx_HAL_Driver/Src/stm32f4xx_ll_usb.c **** 
 620              		.loc 1 257 19 is_stmt 0 view .LVU182
 621 0042 C368     		ldr	r3, [r0, #12]
 622 0044 43F00053 		orr	r3, r3, #536870912
 251:Drivers/STM32F4xx_HAL_Driver/Src/stm32f4xx_ll_usb.c **** 
 623              		.loc 1 251 12 view .LVU183
 624 0048 0024     		movs	r4, #0
 257:Drivers/STM32F4xx_HAL_Driver/Src/stm32f4xx_ll_usb.c **** 
 625              		.loc 1 257 19 view .LVU184
 626 004a C360     		str	r3, [r0, #12]
 627 004c 01E0     		b	.L44
 628              	.LVL30:
 629              	.L57:
 263:Drivers/STM32F4xx_HAL_Driver/Src/stm32f4xx_ll_usb.c ****   }
 630              		.loc 1 263 61 discriminator 1 view .LVU185
 631 004e 322C     		cmp	r4, #50
 632 0050 F5D0     		beq	.L46
 633              	.LVL31:
 634              	.L44:
 259:Drivers/STM32F4xx_HAL_Driver/Src/stm32f4xx_ll_usb.c ****     {
 635              		.loc 1 259 5 is_stmt 1 discriminator 2 view .LVU186
 261:Drivers/STM32F4xx_HAL_Driver/Src/stm32f4xx_ll_usb.c ****       ms++;
 636              		.loc 1 261 7 discriminator 2 view .LVU187
 637 0052 0120     		movs	r0, #1
 638 0054 FFF7FEFF 		bl	HAL_Delay
 639              	.LVL32:
 262:Drivers/STM32F4xx_HAL_Driver/Src/stm32f4xx_ll_usb.c ****     } while ((USB_GetMode(USBx) != (uint32_t)USB_HOST_MODE) && (ms < 50U));
 640              		.loc 1 262 7 discriminator 2 view .LVU188
 641              	.LBB32:
 642              	.LBB33:
1303:Drivers/STM32F4xx_HAL_Driver/Src/stm32f4xx_ll_usb.c **** }
 643              		.loc 1 1303 16 is_stmt 0 discriminator 2 view .LVU189
 644 0058 6B69     		ldr	r3, [r5, #20]
 645              	.LBE33:
 646              	.LBE32:
 263:Drivers/STM32F4xx_HAL_Driver/Src/stm32f4xx_ll_usb.c ****   }
 647              		.loc 1 263 5 discriminator 2 view .LVU190
 648 005a DA07     		lsls	r2, r3, #31
 262:Drivers/STM32F4xx_HAL_Driver/Src/stm32f4xx_ll_usb.c ****     } while ((USB_GetMode(USBx) != (uint32_t)USB_HOST_MODE) && (ms < 50U));
 649              		.loc 1 262 9 discriminator 2 view .LVU191
 650 005c 04F10104 		add	r4, r4, #1
 651              	.LVL33:
 263:Drivers/STM32F4xx_HAL_Driver/Src/stm32f4xx_ll_usb.c ****   }
 652              		.loc 1 263 13 is_stmt 1 discriminator 2 view .LVU192
 653              	.LBB35:
 654              	.LBI32:
1301:Drivers/STM32F4xx_HAL_Driver/Src/stm32f4xx_ll_usb.c **** {
 655              		.loc 1 1301 10 discriminator 2 view .LVU193
 656              	.LBB34:
1303:Drivers/STM32F4xx_HAL_Driver/Src/stm32f4xx_ll_usb.c **** }
ARM GAS  /tmp/ccTCOTTa.s 			page 40


 657              		.loc 1 1303 3 discriminator 2 view .LVU194
1303:Drivers/STM32F4xx_HAL_Driver/Src/stm32f4xx_ll_usb.c **** }
 658              		.loc 1 1303 3 is_stmt 0 discriminator 2 view .LVU195
 659              	.LBE34:
 660              	.LBE35:
 263:Drivers/STM32F4xx_HAL_Driver/Src/stm32f4xx_ll_usb.c ****   }
 661              		.loc 1 263 5 discriminator 2 view .LVU196
 662 0060 F5D5     		bpl	.L57
 280:Drivers/STM32F4xx_HAL_Driver/Src/stm32f4xx_ll_usb.c ****   {
 663              		.loc 1 280 3 is_stmt 1 view .LVU197
 277:Drivers/STM32F4xx_HAL_Driver/Src/stm32f4xx_ll_usb.c ****   }
 664              		.loc 1 277 12 is_stmt 0 view .LVU198
 665 0062 A4F13200 		sub	r0, r4, #50
 666 0066 B0FA80F0 		clz	r0, r0
 667 006a 4009     		lsrs	r0, r0, #5
 668 006c E6E7     		b	.L45
 669              		.cfi_endproc
 670              	.LFE134:
 672 006e 00BF     		.section	.text.USB_DevInit,"ax",%progbits
 673              		.align	1
 674              		.p2align 2,,3
 675              		.global	USB_DevInit
 676              		.syntax unified
 677              		.thumb
 678              		.thumb_func
 680              	USB_DevInit:
 681              	.LVL34:
 682              	.LFB135:
 297:Drivers/STM32F4xx_HAL_Driver/Src/stm32f4xx_ll_usb.c ****   HAL_StatusTypeDef ret = HAL_OK;
 683              		.loc 1 297 1 is_stmt 1 view -0
 684              		.cfi_startproc
 685              		@ args = 56, pretend = 16, frame = 8
 686              		@ frame_needed = 0, uses_anonymous_args = 0
 297:Drivers/STM32F4xx_HAL_Driver/Src/stm32f4xx_ll_usb.c ****   HAL_StatusTypeDef ret = HAL_OK;
 687              		.loc 1 297 1 is_stmt 0 view .LVU200
 688 0000 84B0     		sub	sp, sp, #16
 689              	.LCFI10:
 690              		.cfi_def_cfa_offset 16
 691 0002 2DE9F043 		push	{r4, r5, r6, r7, r8, r9, lr}
 692              	.LCFI11:
 693              		.cfi_def_cfa_offset 44
 694              		.cfi_offset 4, -44
 695              		.cfi_offset 5, -40
 696              		.cfi_offset 6, -36
 697              		.cfi_offset 7, -32
 698              		.cfi_offset 8, -28
 699              		.cfi_offset 9, -24
 700              		.cfi_offset 14, -20
 701 0006 83B0     		sub	sp, sp, #12
 702              	.LCFI12:
 703              		.cfi_def_cfa_offset 56
 297:Drivers/STM32F4xx_HAL_Driver/Src/stm32f4xx_ll_usb.c ****   HAL_StatusTypeDef ret = HAL_OK;
 704              		.loc 1 297 1 view .LVU201
 705 0008 0BAC     		add	r4, sp, #44
 706 000a 84E80E00 		stm	r4, {r1, r2, r3}
 302:Drivers/STM32F4xx_HAL_Driver/Src/stm32f4xx_ll_usb.c ****   {
 707              		.loc 1 302 10 view .LVU202
ARM GAS  /tmp/ccTCOTTa.s 			page 41


 708 000e 0023     		movs	r3, #0
 709 0010 159C     		ldr	r4, [sp, #84]
 710              	.LVL35:
 298:Drivers/STM32F4xx_HAL_Driver/Src/stm32f4xx_ll_usb.c ****   uint32_t USBx_BASE = (uint32_t)USBx;
 711              		.loc 1 298 3 is_stmt 1 view .LVU203
 299:Drivers/STM32F4xx_HAL_Driver/Src/stm32f4xx_ll_usb.c ****   uint32_t i;
 712              		.loc 1 299 3 view .LVU204
 300:Drivers/STM32F4xx_HAL_Driver/Src/stm32f4xx_ll_usb.c **** 
 713              		.loc 1 300 3 view .LVU205
 302:Drivers/STM32F4xx_HAL_Driver/Src/stm32f4xx_ll_usb.c ****   {
 714              		.loc 1 302 3 view .LVU206
 302:Drivers/STM32F4xx_HAL_Driver/Src/stm32f4xx_ll_usb.c ****   {
 715              		.loc 1 302 16 view .LVU207
 304:Drivers/STM32F4xx_HAL_Driver/Src/stm32f4xx_ll_usb.c ****   }
 716              		.loc 1 304 22 is_stmt 0 view .LVU208
 717 0012 1D46     		mov	r5, r3
 718              	.LVL36:
 719              	.L59:
 304:Drivers/STM32F4xx_HAL_Driver/Src/stm32f4xx_ll_usb.c ****   }
 720              		.loc 1 304 5 is_stmt 1 discriminator 3 view .LVU209
 304:Drivers/STM32F4xx_HAL_Driver/Src/stm32f4xx_ll_usb.c ****   }
 721              		.loc 1 304 22 is_stmt 0 discriminator 3 view .LVU210
 722 0014 03F14002 		add	r2, r3, #64
 723 0018 00EB8202 		add	r2, r0, r2, lsl #2
 302:Drivers/STM32F4xx_HAL_Driver/Src/stm32f4xx_ll_usb.c ****   {
 724              		.loc 1 302 26 discriminator 3 view .LVU211
 725 001c 0133     		adds	r3, r3, #1
 726              	.LVL37:
 302:Drivers/STM32F4xx_HAL_Driver/Src/stm32f4xx_ll_usb.c ****   {
 727              		.loc 1 302 3 discriminator 3 view .LVU212
 728 001e 0F2B     		cmp	r3, #15
 304:Drivers/STM32F4xx_HAL_Driver/Src/stm32f4xx_ll_usb.c ****   }
 729              		.loc 1 304 22 discriminator 3 view .LVU213
 730 0020 5560     		str	r5, [r2, #4]
 302:Drivers/STM32F4xx_HAL_Driver/Src/stm32f4xx_ll_usb.c ****   {
 731              		.loc 1 302 25 is_stmt 1 discriminator 3 view .LVU214
 732              	.LVL38:
 302:Drivers/STM32F4xx_HAL_Driver/Src/stm32f4xx_ll_usb.c ****   {
 733              		.loc 1 302 16 discriminator 3 view .LVU215
 302:Drivers/STM32F4xx_HAL_Driver/Src/stm32f4xx_ll_usb.c ****   {
 734              		.loc 1 302 3 is_stmt 0 discriminator 3 view .LVU216
 735 0022 F7D1     		bne	.L59
 327:Drivers/STM32F4xx_HAL_Driver/Src/stm32f4xx_ll_usb.c ****   {
 736              		.loc 1 327 3 is_stmt 1 view .LVU217
 327:Drivers/STM32F4xx_HAL_Driver/Src/stm32f4xx_ll_usb.c ****   {
 737              		.loc 1 327 6 is_stmt 0 view .LVU218
 738 0024 002C     		cmp	r4, #0
 739 0026 40F0B280 		bne	.L60
 333:Drivers/STM32F4xx_HAL_Driver/Src/stm32f4xx_ll_usb.c ****     USBx->GCCFG |= USB_OTG_GCCFG_NOVBUSSENS;
 740              		.loc 1 333 5 is_stmt 1 view .LVU219
 333:Drivers/STM32F4xx_HAL_Driver/Src/stm32f4xx_ll_usb.c ****     USBx->GCCFG |= USB_OTG_GCCFG_NOVBUSSENS;
 741              		.loc 1 333 23 is_stmt 0 view .LVU220
 742 002a D0F80438 		ldr	r3, [r0, #2052]
 743              	.LVL39:
 333:Drivers/STM32F4xx_HAL_Driver/Src/stm32f4xx_ll_usb.c ****     USBx->GCCFG |= USB_OTG_GCCFG_NOVBUSSENS;
 744              		.loc 1 333 23 view .LVU221
 745 002e 00F5006C 		add	ip, r0, #2048
ARM GAS  /tmp/ccTCOTTa.s 			page 42


 746 0032 43F00203 		orr	r3, r3, #2
 747 0036 CCF80430 		str	r3, [ip, #4]
 334:Drivers/STM32F4xx_HAL_Driver/Src/stm32f4xx_ll_usb.c ****     USBx->GCCFG &= ~USB_OTG_GCCFG_VBUSBSEN;
 748              		.loc 1 334 5 is_stmt 1 view .LVU222
 334:Drivers/STM32F4xx_HAL_Driver/Src/stm32f4xx_ll_usb.c ****     USBx->GCCFG &= ~USB_OTG_GCCFG_VBUSBSEN;
 749              		.loc 1 334 17 is_stmt 0 view .LVU223
 750 003a 836B     		ldr	r3, [r0, #56]
 751 003c 43F40013 		orr	r3, r3, #2097152
 752 0040 8363     		str	r3, [r0, #56]
 335:Drivers/STM32F4xx_HAL_Driver/Src/stm32f4xx_ll_usb.c ****     USBx->GCCFG &= ~USB_OTG_GCCFG_VBUSASEN;
 753              		.loc 1 335 5 is_stmt 1 view .LVU224
 335:Drivers/STM32F4xx_HAL_Driver/Src/stm32f4xx_ll_usb.c ****     USBx->GCCFG &= ~USB_OTG_GCCFG_VBUSASEN;
 754              		.loc 1 335 17 is_stmt 0 view .LVU225
 755 0042 836B     		ldr	r3, [r0, #56]
 756 0044 23F40023 		bic	r3, r3, #524288
 757 0048 8363     		str	r3, [r0, #56]
 336:Drivers/STM32F4xx_HAL_Driver/Src/stm32f4xx_ll_usb.c ****   }
 758              		.loc 1 336 5 is_stmt 1 view .LVU226
 336:Drivers/STM32F4xx_HAL_Driver/Src/stm32f4xx_ll_usb.c ****   }
 759              		.loc 1 336 17 is_stmt 0 view .LVU227
 760 004a 836B     		ldr	r3, [r0, #56]
 761 004c 23F48023 		bic	r3, r3, #262144
 762 0050 8363     		str	r3, [r0, #56]
 763              	.L61:
 347:Drivers/STM32F4xx_HAL_Driver/Src/stm32f4xx_ll_usb.c **** 
 764              		.loc 1 347 3 is_stmt 1 view .LVU228
 347:Drivers/STM32F4xx_HAL_Driver/Src/stm32f4xx_ll_usb.c **** 
 765              		.loc 1 347 16 is_stmt 0 view .LVU229
 766 0052 0023     		movs	r3, #0
 767 0054 C0F8003E 		str	r3, [r0, #3584]
 350:Drivers/STM32F4xx_HAL_Driver/Src/stm32f4xx_ll_usb.c **** 
 768              		.loc 1 350 3 is_stmt 1 view .LVU230
 350:Drivers/STM32F4xx_HAL_Driver/Src/stm32f4xx_ll_usb.c **** 
 769              		.loc 1 350 21 is_stmt 0 view .LVU231
 770 0058 DCF80030 		ldr	r3, [ip]
 771 005c CCF80030 		str	r3, [ip]
 352:Drivers/STM32F4xx_HAL_Driver/Src/stm32f4xx_ll_usb.c ****   {
 772              		.loc 1 352 3 is_stmt 1 view .LVU232
 352:Drivers/STM32F4xx_HAL_Driver/Src/stm32f4xx_ll_usb.c ****   {
 773              		.loc 1 352 6 is_stmt 0 view .LVU233
 774 0060 109B     		ldr	r3, [sp, #64]
 775 0062 012B     		cmp	r3, #1
 776 0064 00F0A080 		beq	.L94
 368:Drivers/STM32F4xx_HAL_Driver/Src/stm32f4xx_ll_usb.c ****   }
 777              		.loc 1 368 5 is_stmt 1 view .LVU234
 778              	.LVL40:
 779              	.LBB46:
 780              	.LBI46:
 522:Drivers/STM32F4xx_HAL_Driver/Src/stm32f4xx_ll_usb.c **** {
 781              		.loc 1 522 19 view .LVU235
 782              	.LBB47:
 524:Drivers/STM32F4xx_HAL_Driver/Src/stm32f4xx_ll_usb.c **** 
 783              		.loc 1 524 3 view .LVU236
 526:Drivers/STM32F4xx_HAL_Driver/Src/stm32f4xx_ll_usb.c ****   return HAL_OK;
 784              		.loc 1 526 3 view .LVU237
 526:Drivers/STM32F4xx_HAL_Driver/Src/stm32f4xx_ll_usb.c ****   return HAL_OK;
 785              		.loc 1 526 21 is_stmt 0 view .LVU238
ARM GAS  /tmp/ccTCOTTa.s 			page 43


 786 0068 DCF80030 		ldr	r3, [ip]
 787 006c 43F00303 		orr	r3, r3, #3
 788 0070 CCF80030 		str	r3, [ip]
 527:Drivers/STM32F4xx_HAL_Driver/Src/stm32f4xx_ll_usb.c **** }
 789              		.loc 1 527 3 is_stmt 1 view .LVU239
 790              	.LVL41:
 791              	.L64:
 527:Drivers/STM32F4xx_HAL_Driver/Src/stm32f4xx_ll_usb.c **** }
 792              		.loc 1 527 3 is_stmt 0 view .LVU240
 793              	.LBE47:
 794              	.LBE46:
 372:Drivers/STM32F4xx_HAL_Driver/Src/stm32f4xx_ll_usb.c ****   {
 795              		.loc 1 372 3 is_stmt 1 view .LVU241
 796              	.LBB48:
 797              	.LBI48:
 472:Drivers/STM32F4xx_HAL_Driver/Src/stm32f4xx_ll_usb.c **** {
 798              		.loc 1 472 19 view .LVU242
 799              	.LBB49:
 474:Drivers/STM32F4xx_HAL_Driver/Src/stm32f4xx_ll_usb.c **** 
 800              		.loc 1 474 3 view .LVU243
 474:Drivers/STM32F4xx_HAL_Driver/Src/stm32f4xx_ll_usb.c **** 
 801              		.loc 1 474 17 is_stmt 0 view .LVU244
 802 0074 0023     		movs	r3, #0
 803 0076 0093     		str	r3, [sp]
 476:Drivers/STM32F4xx_HAL_Driver/Src/stm32f4xx_ll_usb.c **** 
 804              		.loc 1 476 3 is_stmt 1 view .LVU245
 476:Drivers/STM32F4xx_HAL_Driver/Src/stm32f4xx_ll_usb.c **** 
 805              		.loc 1 476 17 is_stmt 0 view .LVU246
 806 0078 4FF48463 		mov	r3, #1056
 480:Drivers/STM32F4xx_HAL_Driver/Src/stm32f4xx_ll_usb.c ****     {
 807              		.loc 1 480 8 view .LVU247
 808 007c 514A     		ldr	r2, .L101
 476:Drivers/STM32F4xx_HAL_Driver/Src/stm32f4xx_ll_usb.c **** 
 809              		.loc 1 476 17 view .LVU248
 810 007e 0361     		str	r3, [r0, #16]
 811 0080 04E0     		b	.L66
 812              	.L96:
 484:Drivers/STM32F4xx_HAL_Driver/Src/stm32f4xx_ll_usb.c **** 
 813              		.loc 1 484 17 view .LVU249
 814 0082 0369     		ldr	r3, [r0, #16]
 484:Drivers/STM32F4xx_HAL_Driver/Src/stm32f4xx_ll_usb.c **** 
 815              		.loc 1 484 3 view .LVU250
 816 0084 13F02003 		ands	r3, r3, #32
 817 0088 00F08C80 		beq	.L95
 818              	.L66:
 478:Drivers/STM32F4xx_HAL_Driver/Src/stm32f4xx_ll_usb.c ****   {
 819              		.loc 1 478 3 is_stmt 1 view .LVU251
 480:Drivers/STM32F4xx_HAL_Driver/Src/stm32f4xx_ll_usb.c ****     {
 820              		.loc 1 480 5 view .LVU252
 484:Drivers/STM32F4xx_HAL_Driver/Src/stm32f4xx_ll_usb.c **** 
 821              		.loc 1 484 11 view .LVU253
 480:Drivers/STM32F4xx_HAL_Driver/Src/stm32f4xx_ll_usb.c ****     {
 822              		.loc 1 480 9 is_stmt 0 view .LVU254
 823 008c 009B     		ldr	r3, [sp]
 824 008e 0133     		adds	r3, r3, #1
 480:Drivers/STM32F4xx_HAL_Driver/Src/stm32f4xx_ll_usb.c ****     {
 825              		.loc 1 480 8 view .LVU255
ARM GAS  /tmp/ccTCOTTa.s 			page 44


 826 0090 9342     		cmp	r3, r2
 827 0092 0093     		str	r3, [sp]
 828 0094 F5D9     		bls	.L96
 829              	.LBE49:
 830              	.LBE48:
 374:Drivers/STM32F4xx_HAL_Driver/Src/stm32f4xx_ll_usb.c ****   }
 831              		.loc 1 374 9 view .LVU256
 832 0096 0122     		movs	r2, #1
 833              	.L65:
 834              	.LVL42:
 377:Drivers/STM32F4xx_HAL_Driver/Src/stm32f4xx_ll_usb.c ****   {
 835              		.loc 1 377 3 is_stmt 1 view .LVU257
 836              	.LBB51:
 837              	.LBI51:
 494:Drivers/STM32F4xx_HAL_Driver/Src/stm32f4xx_ll_usb.c **** {
 838              		.loc 1 494 19 view .LVU258
 839              	.LBB52:
 496:Drivers/STM32F4xx_HAL_Driver/Src/stm32f4xx_ll_usb.c **** 
 840              		.loc 1 496 3 view .LVU259
 496:Drivers/STM32F4xx_HAL_Driver/Src/stm32f4xx_ll_usb.c **** 
 841              		.loc 1 496 17 is_stmt 0 view .LVU260
 842 0098 0023     		movs	r3, #0
 843 009a 0193     		str	r3, [sp, #4]
 498:Drivers/STM32F4xx_HAL_Driver/Src/stm32f4xx_ll_usb.c **** 
 844              		.loc 1 498 3 is_stmt 1 view .LVU261
 498:Drivers/STM32F4xx_HAL_Driver/Src/stm32f4xx_ll_usb.c **** 
 845              		.loc 1 498 17 is_stmt 0 view .LVU262
 846 009c 1023     		movs	r3, #16
 502:Drivers/STM32F4xx_HAL_Driver/Src/stm32f4xx_ll_usb.c ****     {
 847              		.loc 1 502 8 view .LVU263
 848 009e 494D     		ldr	r5, .L101
 498:Drivers/STM32F4xx_HAL_Driver/Src/stm32f4xx_ll_usb.c **** 
 849              		.loc 1 498 17 view .LVU264
 850 00a0 0361     		str	r3, [r0, #16]
 851 00a2 02E0     		b	.L68
 852              	.L97:
 506:Drivers/STM32F4xx_HAL_Driver/Src/stm32f4xx_ll_usb.c **** 
 853              		.loc 1 506 17 view .LVU265
 854 00a4 0369     		ldr	r3, [r0, #16]
 506:Drivers/STM32F4xx_HAL_Driver/Src/stm32f4xx_ll_usb.c **** 
 855              		.loc 1 506 3 view .LVU266
 856 00a6 DB06     		lsls	r3, r3, #27
 857 00a8 05D5     		bpl	.L67
 858              	.L68:
 500:Drivers/STM32F4xx_HAL_Driver/Src/stm32f4xx_ll_usb.c ****   {
 859              		.loc 1 500 3 is_stmt 1 view .LVU267
 502:Drivers/STM32F4xx_HAL_Driver/Src/stm32f4xx_ll_usb.c ****     {
 860              		.loc 1 502 5 view .LVU268
 506:Drivers/STM32F4xx_HAL_Driver/Src/stm32f4xx_ll_usb.c **** 
 861              		.loc 1 506 11 view .LVU269
 502:Drivers/STM32F4xx_HAL_Driver/Src/stm32f4xx_ll_usb.c ****     {
 862              		.loc 1 502 9 is_stmt 0 view .LVU270
 863 00aa 019B     		ldr	r3, [sp, #4]
 864 00ac 0133     		adds	r3, r3, #1
 502:Drivers/STM32F4xx_HAL_Driver/Src/stm32f4xx_ll_usb.c ****     {
 865              		.loc 1 502 8 view .LVU271
 866 00ae AB42     		cmp	r3, r5
ARM GAS  /tmp/ccTCOTTa.s 			page 45


 867 00b0 0193     		str	r3, [sp, #4]
 868 00b2 F7D9     		bls	.L97
 869              	.LBE52:
 870              	.LBE51:
 379:Drivers/STM32F4xx_HAL_Driver/Src/stm32f4xx_ll_usb.c ****   }
 871              		.loc 1 379 9 view .LVU272
 872 00b4 0122     		movs	r2, #1
 873              	.LVL43:
 874              	.L67:
 383:Drivers/STM32F4xx_HAL_Driver/Src/stm32f4xx_ll_usb.c ****   USBx_DEVICE->DOEPMSK = 0U;
 875              		.loc 1 383 3 is_stmt 1 view .LVU273
 383:Drivers/STM32F4xx_HAL_Driver/Src/stm32f4xx_ll_usb.c ****   USBx_DEVICE->DOEPMSK = 0U;
 876              		.loc 1 383 24 is_stmt 0 view .LVU274
 877 00b6 0025     		movs	r5, #0
 878 00b8 CCF81050 		str	r5, [ip, #16]
 384:Drivers/STM32F4xx_HAL_Driver/Src/stm32f4xx_ll_usb.c ****   USBx_DEVICE->DAINTMSK = 0U;
 879              		.loc 1 384 3 is_stmt 1 view .LVU275
 384:Drivers/STM32F4xx_HAL_Driver/Src/stm32f4xx_ll_usb.c ****   USBx_DEVICE->DAINTMSK = 0U;
 880              		.loc 1 384 24 is_stmt 0 view .LVU276
 881 00bc CCF81450 		str	r5, [ip, #20]
 385:Drivers/STM32F4xx_HAL_Driver/Src/stm32f4xx_ll_usb.c **** 
 882              		.loc 1 385 3 is_stmt 1 view .LVU277
 385:Drivers/STM32F4xx_HAL_Driver/Src/stm32f4xx_ll_usb.c **** 
 883              		.loc 1 385 25 is_stmt 0 view .LVU278
 884 00c0 CCF81C50 		str	r5, [ip, #28]
 387:Drivers/STM32F4xx_HAL_Driver/Src/stm32f4xx_ll_usb.c ****   {
 885              		.loc 1 387 3 is_stmt 1 view .LVU279
 886              	.LVL44:
 387:Drivers/STM32F4xx_HAL_Driver/Src/stm32f4xx_ll_usb.c ****   {
 887              		.loc 1 387 16 view .LVU280
 387:Drivers/STM32F4xx_HAL_Driver/Src/stm32f4xx_ll_usb.c ****   {
 888              		.loc 1 387 3 is_stmt 0 view .LVU281
 889 00c4 E1B1     		cbz	r1, .L80
 890 00c6 00F51063 		add	r3, r0, #2304
 402:Drivers/STM32F4xx_HAL_Driver/Src/stm32f4xx_ll_usb.c ****     }
 891              		.loc 1 402 29 view .LVU282
 892 00ca 2F46     		mov	r7, r5
 397:Drivers/STM32F4xx_HAL_Driver/Src/stm32f4xx_ll_usb.c ****       }
 893              		.loc 1 397 31 view .LVU283
 894 00cc 4FF09048 		mov	r8, #1207959552
 393:Drivers/STM32F4xx_HAL_Driver/Src/stm32f4xx_ll_usb.c ****       }
 895              		.loc 1 393 31 view .LVU284
 896 00d0 4FF00069 		mov	r9, #134217728
 406:Drivers/STM32F4xx_HAL_Driver/Src/stm32f4xx_ll_usb.c ****   }
 897              		.loc 1 406 28 view .LVU285
 898 00d4 4FF67F3E 		movw	lr, #64383
 899 00d8 08E0     		b	.L75
 900              	.LVL45:
 901              	.L72:
 402:Drivers/STM32F4xx_HAL_Driver/Src/stm32f4xx_ll_usb.c ****     }
 902              		.loc 1 402 29 view .LVU286
 903 00da 1F60     		str	r7, [r3]
 904              	.L74:
 405:Drivers/STM32F4xx_HAL_Driver/Src/stm32f4xx_ll_usb.c ****     USBx_INEP(i)->DIEPINT  = 0xFB7FU;
 905              		.loc 1 405 5 is_stmt 1 discriminator 2 view .LVU287
 387:Drivers/STM32F4xx_HAL_Driver/Src/stm32f4xx_ll_usb.c ****   {
 906              		.loc 1 387 40 is_stmt 0 discriminator 2 view .LVU288
ARM GAS  /tmp/ccTCOTTa.s 			page 46


 907 00dc 0135     		adds	r5, r5, #1
 908              	.LVL46:
 387:Drivers/STM32F4xx_HAL_Driver/Src/stm32f4xx_ll_usb.c ****   {
 909              		.loc 1 387 3 discriminator 2 view .LVU289
 910 00de 8D42     		cmp	r5, r1
 405:Drivers/STM32F4xx_HAL_Driver/Src/stm32f4xx_ll_usb.c ****     USBx_INEP(i)->DIEPINT  = 0xFB7FU;
 911              		.loc 1 405 28 discriminator 2 view .LVU290
 912 00e0 1F61     		str	r7, [r3, #16]
 406:Drivers/STM32F4xx_HAL_Driver/Src/stm32f4xx_ll_usb.c ****   }
 913              		.loc 1 406 5 is_stmt 1 discriminator 2 view .LVU291
 406:Drivers/STM32F4xx_HAL_Driver/Src/stm32f4xx_ll_usb.c ****   }
 914              		.loc 1 406 28 is_stmt 0 discriminator 2 view .LVU292
 915 00e2 C3F808E0 		str	lr, [r3, #8]
 387:Drivers/STM32F4xx_HAL_Driver/Src/stm32f4xx_ll_usb.c ****   {
 916              		.loc 1 387 39 is_stmt 1 discriminator 2 view .LVU293
 917              	.LVL47:
 387:Drivers/STM32F4xx_HAL_Driver/Src/stm32f4xx_ll_usb.c ****   {
 918              		.loc 1 387 16 discriminator 2 view .LVU294
 387:Drivers/STM32F4xx_HAL_Driver/Src/stm32f4xx_ll_usb.c ****   {
 919              		.loc 1 387 3 is_stmt 0 discriminator 2 view .LVU295
 920 00e6 03F12003 		add	r3, r3, #32
 921 00ea 32D0     		beq	.L98
 922              	.LVL48:
 923              	.L75:
 389:Drivers/STM32F4xx_HAL_Driver/Src/stm32f4xx_ll_usb.c ****     {
 924              		.loc 1 389 5 is_stmt 1 view .LVU296
 391:Drivers/STM32F4xx_HAL_Driver/Src/stm32f4xx_ll_usb.c ****       {
 925              		.loc 1 391 7 view .LVU297
 402:Drivers/STM32F4xx_HAL_Driver/Src/stm32f4xx_ll_usb.c ****     }
 926              		.loc 1 402 7 view .LVU298
 389:Drivers/STM32F4xx_HAL_Driver/Src/stm32f4xx_ll_usb.c ****     {
 927              		.loc 1 389 22 is_stmt 0 view .LVU299
 928 00ec 1E68     		ldr	r6, [r3]
 389:Drivers/STM32F4xx_HAL_Driver/Src/stm32f4xx_ll_usb.c ****     {
 929              		.loc 1 389 8 view .LVU300
 930 00ee 002E     		cmp	r6, #0
 931 00f0 F3DA     		bge	.L72
 397:Drivers/STM32F4xx_HAL_Driver/Src/stm32f4xx_ll_usb.c ****       }
 932              		.loc 1 397 9 is_stmt 1 view .LVU301
 391:Drivers/STM32F4xx_HAL_Driver/Src/stm32f4xx_ll_usb.c ****       {
 933              		.loc 1 391 10 is_stmt 0 view .LVU302
 934 00f2 15B1     		cbz	r5, .L99
 397:Drivers/STM32F4xx_HAL_Driver/Src/stm32f4xx_ll_usb.c ****       }
 935              		.loc 1 397 31 view .LVU303
 936 00f4 C3F80080 		str	r8, [r3]
 937 00f8 F0E7     		b	.L74
 938              	.L99:
 393:Drivers/STM32F4xx_HAL_Driver/Src/stm32f4xx_ll_usb.c ****       }
 939              		.loc 1 393 9 is_stmt 1 view .LVU304
 393:Drivers/STM32F4xx_HAL_Driver/Src/stm32f4xx_ll_usb.c ****       }
 940              		.loc 1 393 31 is_stmt 0 view .LVU305
 941 00fa C3F80090 		str	r9, [r3]
 942 00fe EDE7     		b	.L74
 943              	.LVL49:
 944              	.L80:
 431:Drivers/STM32F4xx_HAL_Driver/Src/stm32f4xx_ll_usb.c **** 
 945              		.loc 1 431 3 is_stmt 1 view .LVU306
ARM GAS  /tmp/ccTCOTTa.s 			page 47


 431:Drivers/STM32F4xx_HAL_Driver/Src/stm32f4xx_ll_usb.c **** 
 946              		.loc 1 431 24 is_stmt 0 view .LVU307
 947 0100 DCF81030 		ldr	r3, [ip, #16]
 948 0104 23F48073 		bic	r3, r3, #256
 949 0108 CCF81030 		str	r3, [ip, #16]
 434:Drivers/STM32F4xx_HAL_Driver/Src/stm32f4xx_ll_usb.c **** 
 950              		.loc 1 434 3 is_stmt 1 view .LVU308
 434:Drivers/STM32F4xx_HAL_Driver/Src/stm32f4xx_ll_usb.c **** 
 951              		.loc 1 434 17 is_stmt 0 view .LVU309
 952 010c 0021     		movs	r1, #0
 953              	.LVL50:
 440:Drivers/STM32F4xx_HAL_Driver/Src/stm32f4xx_ll_usb.c ****   {
 954              		.loc 1 440 6 view .LVU310
 955 010e 0E9B     		ldr	r3, [sp, #56]
 434:Drivers/STM32F4xx_HAL_Driver/Src/stm32f4xx_ll_usb.c **** 
 956              		.loc 1 434 17 view .LVU311
 957 0110 8161     		str	r1, [r0, #24]
 437:Drivers/STM32F4xx_HAL_Driver/Src/stm32f4xx_ll_usb.c **** 
 958              		.loc 1 437 3 is_stmt 1 view .LVU312
 437:Drivers/STM32F4xx_HAL_Driver/Src/stm32f4xx_ll_usb.c **** 
 959              		.loc 1 437 17 is_stmt 0 view .LVU313
 960 0112 6FF08041 		mvn	r1, #1073741824
 961 0116 4161     		str	r1, [r0, #20]
 440:Drivers/STM32F4xx_HAL_Driver/Src/stm32f4xx_ll_usb.c ****   {
 962              		.loc 1 440 3 is_stmt 1 view .LVU314
 440:Drivers/STM32F4xx_HAL_Driver/Src/stm32f4xx_ll_usb.c ****   {
 963              		.loc 1 440 6 is_stmt 0 view .LVU315
 964 0118 1BB9     		cbnz	r3, .L71
 442:Drivers/STM32F4xx_HAL_Driver/Src/stm32f4xx_ll_usb.c ****   }
 965              		.loc 1 442 5 is_stmt 1 view .LVU316
 442:Drivers/STM32F4xx_HAL_Driver/Src/stm32f4xx_ll_usb.c ****   }
 966              		.loc 1 442 19 is_stmt 0 view .LVU317
 967 011a 8369     		ldr	r3, [r0, #24]
 968 011c 43F01003 		orr	r3, r3, #16
 969 0120 8361     		str	r3, [r0, #24]
 970              	.L71:
 446:Drivers/STM32F4xx_HAL_Driver/Src/stm32f4xx_ll_usb.c ****                    USB_OTG_GINTMSK_ENUMDNEM | USB_OTG_GINTMSK_IEPINT |
 971              		.loc 1 446 3 is_stmt 1 view .LVU318
 446:Drivers/STM32F4xx_HAL_Driver/Src/stm32f4xx_ll_usb.c ****                    USB_OTG_GINTMSK_ENUMDNEM | USB_OTG_GINTMSK_IEPINT |
 972              		.loc 1 446 17 is_stmt 0 view .LVU319
 973 0122 8169     		ldr	r1, [r0, #24]
 974 0124 284B     		ldr	r3, .L101+4
 975 0126 0B43     		orrs	r3, r3, r1
 451:Drivers/STM32F4xx_HAL_Driver/Src/stm32f4xx_ll_usb.c ****   {
 976              		.loc 1 451 6 view .LVU320
 977 0128 1199     		ldr	r1, [sp, #68]
 446:Drivers/STM32F4xx_HAL_Driver/Src/stm32f4xx_ll_usb.c ****                    USB_OTG_GINTMSK_ENUMDNEM | USB_OTG_GINTMSK_IEPINT |
 978              		.loc 1 446 17 view .LVU321
 979 012a 8361     		str	r3, [r0, #24]
 451:Drivers/STM32F4xx_HAL_Driver/Src/stm32f4xx_ll_usb.c ****   {
 980              		.loc 1 451 3 is_stmt 1 view .LVU322
 451:Drivers/STM32F4xx_HAL_Driver/Src/stm32f4xx_ll_usb.c ****   {
 981              		.loc 1 451 6 is_stmt 0 view .LVU323
 982 012c 19B1     		cbz	r1, .L81
 453:Drivers/STM32F4xx_HAL_Driver/Src/stm32f4xx_ll_usb.c ****   }
 983              		.loc 1 453 5 is_stmt 1 view .LVU324
 453:Drivers/STM32F4xx_HAL_Driver/Src/stm32f4xx_ll_usb.c ****   }
ARM GAS  /tmp/ccTCOTTa.s 			page 48


 984              		.loc 1 453 19 is_stmt 0 view .LVU325
 985 012e 8369     		ldr	r3, [r0, #24]
 986 0130 43F00803 		orr	r3, r3, #8
 987 0134 8361     		str	r3, [r0, #24]
 988              	.L81:
 456:Drivers/STM32F4xx_HAL_Driver/Src/stm32f4xx_ll_usb.c ****   {
 989              		.loc 1 456 3 is_stmt 1 view .LVU326
 456:Drivers/STM32F4xx_HAL_Driver/Src/stm32f4xx_ll_usb.c ****   {
 990              		.loc 1 456 6 is_stmt 0 view .LVU327
 991 0136 012C     		cmp	r4, #1
 992 0138 05D1     		bne	.L82
 458:Drivers/STM32F4xx_HAL_Driver/Src/stm32f4xx_ll_usb.c ****   }
 993              		.loc 1 458 5 is_stmt 1 view .LVU328
 458:Drivers/STM32F4xx_HAL_Driver/Src/stm32f4xx_ll_usb.c ****   }
 994              		.loc 1 458 19 is_stmt 0 view .LVU329
 995 013a 8369     		ldr	r3, [r0, #24]
 996 013c 43F08043 		orr	r3, r3, #1073741824
 997 0140 43F00403 		orr	r3, r3, #4
 998 0144 8361     		str	r3, [r0, #24]
 999              	.L82:
 461:Drivers/STM32F4xx_HAL_Driver/Src/stm32f4xx_ll_usb.c **** }
 1000              		.loc 1 461 3 is_stmt 1 view .LVU330
 462:Drivers/STM32F4xx_HAL_Driver/Src/stm32f4xx_ll_usb.c **** 
 1001              		.loc 1 462 1 is_stmt 0 view .LVU331
 1002 0146 1046     		mov	r0, r2
 1003              	.LVL51:
 462:Drivers/STM32F4xx_HAL_Driver/Src/stm32f4xx_ll_usb.c **** 
 1004              		.loc 1 462 1 view .LVU332
 1005 0148 03B0     		add	sp, sp, #12
 1006              	.LCFI13:
 1007              		.cfi_remember_state
 1008              		.cfi_def_cfa_offset 44
 1009              		@ sp needed
 1010 014a BDE8F043 		pop	{r4, r5, r6, r7, r8, r9, lr}
 1011              	.LCFI14:
 1012              		.cfi_restore 14
 1013              		.cfi_restore 9
 1014              		.cfi_restore 8
 1015              		.cfi_restore 7
 1016              		.cfi_restore 6
 1017              		.cfi_restore 5
 1018              		.cfi_restore 4
 1019              		.cfi_def_cfa_offset 16
 1020 014e 04B0     		add	sp, sp, #16
 1021              	.LCFI15:
 1022              		.cfi_def_cfa_offset 0
 1023 0150 7047     		bx	lr
 1024              	.LVL52:
 1025              	.L98:
 1026              	.LCFI16:
 1027              		.cfi_restore_state
 387:Drivers/STM32F4xx_HAL_Driver/Src/stm32f4xx_ll_usb.c ****   {
 1028              		.loc 1 387 3 view .LVU333
 1029 0152 0025     		movs	r5, #0
 1030              	.LVL53:
 387:Drivers/STM32F4xx_HAL_Driver/Src/stm32f4xx_ll_usb.c ****   {
 1031              		.loc 1 387 3 view .LVU334
ARM GAS  /tmp/ccTCOTTa.s 			page 49


 1032 0154 00F53063 		add	r3, r0, #2816
 424:Drivers/STM32F4xx_HAL_Driver/Src/stm32f4xx_ll_usb.c ****     }
 1033              		.loc 1 424 30 view .LVU335
 1034 0158 2F46     		mov	r7, r5
 419:Drivers/STM32F4xx_HAL_Driver/Src/stm32f4xx_ll_usb.c ****       }
 1035              		.loc 1 419 32 view .LVU336
 1036 015a 4FF09048 		mov	r8, #1207959552
 415:Drivers/STM32F4xx_HAL_Driver/Src/stm32f4xx_ll_usb.c ****       }
 1037              		.loc 1 415 32 view .LVU337
 1038 015e 4FF00069 		mov	r9, #134217728
 428:Drivers/STM32F4xx_HAL_Driver/Src/stm32f4xx_ll_usb.c ****   }
 1039              		.loc 1 428 29 view .LVU338
 1040 0162 4FF67F3E 		movw	lr, #64383
 1041 0166 08E0     		b	.L79
 1042              	.LVL54:
 1043              	.L76:
 424:Drivers/STM32F4xx_HAL_Driver/Src/stm32f4xx_ll_usb.c ****     }
 1044              		.loc 1 424 30 view .LVU339
 1045 0168 1F60     		str	r7, [r3]
 1046              	.L78:
 427:Drivers/STM32F4xx_HAL_Driver/Src/stm32f4xx_ll_usb.c ****     USBx_OUTEP(i)->DOEPINT  = 0xFB7FU;
 1047              		.loc 1 427 5 is_stmt 1 discriminator 2 view .LVU340
 409:Drivers/STM32F4xx_HAL_Driver/Src/stm32f4xx_ll_usb.c ****   {
 1048              		.loc 1 409 40 is_stmt 0 discriminator 2 view .LVU341
 1049 016a 0135     		adds	r5, r5, #1
 1050              	.LVL55:
 409:Drivers/STM32F4xx_HAL_Driver/Src/stm32f4xx_ll_usb.c ****   {
 1051              		.loc 1 409 3 discriminator 2 view .LVU342
 1052 016c 8D42     		cmp	r5, r1
 427:Drivers/STM32F4xx_HAL_Driver/Src/stm32f4xx_ll_usb.c ****     USBx_OUTEP(i)->DOEPINT  = 0xFB7FU;
 1053              		.loc 1 427 29 discriminator 2 view .LVU343
 1054 016e 1F61     		str	r7, [r3, #16]
 428:Drivers/STM32F4xx_HAL_Driver/Src/stm32f4xx_ll_usb.c ****   }
 1055              		.loc 1 428 5 is_stmt 1 discriminator 2 view .LVU344
 428:Drivers/STM32F4xx_HAL_Driver/Src/stm32f4xx_ll_usb.c ****   }
 1056              		.loc 1 428 29 is_stmt 0 discriminator 2 view .LVU345
 1057 0170 C3F808E0 		str	lr, [r3, #8]
 409:Drivers/STM32F4xx_HAL_Driver/Src/stm32f4xx_ll_usb.c ****   {
 1058              		.loc 1 409 39 is_stmt 1 discriminator 2 view .LVU346
 1059              	.LVL56:
 409:Drivers/STM32F4xx_HAL_Driver/Src/stm32f4xx_ll_usb.c ****   {
 1060              		.loc 1 409 16 discriminator 2 view .LVU347
 409:Drivers/STM32F4xx_HAL_Driver/Src/stm32f4xx_ll_usb.c ****   {
 1061              		.loc 1 409 3 is_stmt 0 discriminator 2 view .LVU348
 1062 0174 03F12003 		add	r3, r3, #32
 1063 0178 C2D0     		beq	.L80
 1064              	.LVL57:
 1065              	.L79:
 411:Drivers/STM32F4xx_HAL_Driver/Src/stm32f4xx_ll_usb.c ****     {
 1066              		.loc 1 411 5 is_stmt 1 view .LVU349
 413:Drivers/STM32F4xx_HAL_Driver/Src/stm32f4xx_ll_usb.c ****       {
 1067              		.loc 1 413 7 view .LVU350
 424:Drivers/STM32F4xx_HAL_Driver/Src/stm32f4xx_ll_usb.c ****     }
 1068              		.loc 1 424 7 view .LVU351
 411:Drivers/STM32F4xx_HAL_Driver/Src/stm32f4xx_ll_usb.c ****     {
 1069              		.loc 1 411 23 is_stmt 0 view .LVU352
 1070 017a 1E68     		ldr	r6, [r3]
ARM GAS  /tmp/ccTCOTTa.s 			page 50


 411:Drivers/STM32F4xx_HAL_Driver/Src/stm32f4xx_ll_usb.c ****     {
 1071              		.loc 1 411 8 view .LVU353
 1072 017c 002E     		cmp	r6, #0
 1073 017e F3DA     		bge	.L76
 419:Drivers/STM32F4xx_HAL_Driver/Src/stm32f4xx_ll_usb.c ****       }
 1074              		.loc 1 419 9 is_stmt 1 view .LVU354
 413:Drivers/STM32F4xx_HAL_Driver/Src/stm32f4xx_ll_usb.c ****       {
 1075              		.loc 1 413 10 is_stmt 0 view .LVU355
 1076 0180 15B1     		cbz	r5, .L100
 419:Drivers/STM32F4xx_HAL_Driver/Src/stm32f4xx_ll_usb.c ****       }
 1077              		.loc 1 419 32 view .LVU356
 1078 0182 C3F80080 		str	r8, [r3]
 1079 0186 F0E7     		b	.L78
 1080              	.L100:
 415:Drivers/STM32F4xx_HAL_Driver/Src/stm32f4xx_ll_usb.c ****       }
 1081              		.loc 1 415 9 is_stmt 1 view .LVU357
 415:Drivers/STM32F4xx_HAL_Driver/Src/stm32f4xx_ll_usb.c ****       }
 1082              		.loc 1 415 32 is_stmt 0 view .LVU358
 1083 0188 C3F80090 		str	r9, [r3]
 1084 018c EDE7     		b	.L78
 1085              	.LVL58:
 1086              	.L60:
 341:Drivers/STM32F4xx_HAL_Driver/Src/stm32f4xx_ll_usb.c ****     USBx->GCCFG |= USB_OTG_GCCFG_VBUSBSEN;
 1087              		.loc 1 341 5 is_stmt 1 view .LVU359
 341:Drivers/STM32F4xx_HAL_Driver/Src/stm32f4xx_ll_usb.c ****     USBx->GCCFG |= USB_OTG_GCCFG_VBUSBSEN;
 1088              		.loc 1 341 17 is_stmt 0 view .LVU360
 1089 018e 836B     		ldr	r3, [r0, #56]
 1090              	.LVL59:
 341:Drivers/STM32F4xx_HAL_Driver/Src/stm32f4xx_ll_usb.c ****     USBx->GCCFG |= USB_OTG_GCCFG_VBUSBSEN;
 1091              		.loc 1 341 17 view .LVU361
 1092 0190 23F40013 		bic	r3, r3, #2097152
 1093 0194 8363     		str	r3, [r0, #56]
 342:Drivers/STM32F4xx_HAL_Driver/Src/stm32f4xx_ll_usb.c ****   }
 1094              		.loc 1 342 5 is_stmt 1 view .LVU362
 342:Drivers/STM32F4xx_HAL_Driver/Src/stm32f4xx_ll_usb.c ****   }
 1095              		.loc 1 342 17 is_stmt 0 view .LVU363
 1096 0196 836B     		ldr	r3, [r0, #56]
 1097 0198 43F40023 		orr	r3, r3, #524288
 333:Drivers/STM32F4xx_HAL_Driver/Src/stm32f4xx_ll_usb.c ****     USBx->GCCFG |= USB_OTG_GCCFG_NOVBUSSENS;
 1098              		.loc 1 333 23 view .LVU364
 1099 019c 00F5006C 		add	ip, r0, #2048
 342:Drivers/STM32F4xx_HAL_Driver/Src/stm32f4xx_ll_usb.c ****   }
 1100              		.loc 1 342 17 view .LVU365
 1101 01a0 8363     		str	r3, [r0, #56]
 1102 01a2 56E7     		b	.L61
 1103              	.LVL60:
 1104              	.L95:
 298:Drivers/STM32F4xx_HAL_Driver/Src/stm32f4xx_ll_usb.c ****   uint32_t USBx_BASE = (uint32_t)USBx;
 1105              		.loc 1 298 21 view .LVU366
 1106 01a4 1A46     		mov	r2, r3
 1107              	.LBB53:
 1108              	.LBB50:
 1109 01a6 77E7     		b	.L65
 1110              	.LVL61:
 1111              	.L94:
 298:Drivers/STM32F4xx_HAL_Driver/Src/stm32f4xx_ll_usb.c ****   uint32_t USBx_BASE = (uint32_t)USBx;
 1112              		.loc 1 298 21 view .LVU367
ARM GAS  /tmp/ccTCOTTa.s 			page 51


 1113              	.LBE50:
 1114              	.LBE53:
 354:Drivers/STM32F4xx_HAL_Driver/Src/stm32f4xx_ll_usb.c ****     {
 1115              		.loc 1 354 5 is_stmt 1 view .LVU368
 354:Drivers/STM32F4xx_HAL_Driver/Src/stm32f4xx_ll_usb.c ****     {
 1116              		.loc 1 354 8 is_stmt 0 view .LVU369
 1117 01a8 0D9B     		ldr	r3, [sp, #52]
 1118 01aa 23B9     		cbnz	r3, .L63
 357:Drivers/STM32F4xx_HAL_Driver/Src/stm32f4xx_ll_usb.c ****     }
 1119              		.loc 1 357 7 is_stmt 1 view .LVU370
 1120              	.LVL62:
 1121              	.LBB54:
 1122              	.LBI54:
 522:Drivers/STM32F4xx_HAL_Driver/Src/stm32f4xx_ll_usb.c **** {
 1123              		.loc 1 522 19 view .LVU371
 1124              	.LBB55:
 524:Drivers/STM32F4xx_HAL_Driver/Src/stm32f4xx_ll_usb.c **** 
 1125              		.loc 1 524 3 view .LVU372
 526:Drivers/STM32F4xx_HAL_Driver/Src/stm32f4xx_ll_usb.c ****   return HAL_OK;
 1126              		.loc 1 526 3 view .LVU373
 526:Drivers/STM32F4xx_HAL_Driver/Src/stm32f4xx_ll_usb.c ****   return HAL_OK;
 1127              		.loc 1 526 21 is_stmt 0 view .LVU374
 1128 01ac DCF80030 		ldr	r3, [ip]
 1129 01b0 CCF80030 		str	r3, [ip]
 527:Drivers/STM32F4xx_HAL_Driver/Src/stm32f4xx_ll_usb.c **** }
 1130              		.loc 1 527 3 is_stmt 1 view .LVU375
 527:Drivers/STM32F4xx_HAL_Driver/Src/stm32f4xx_ll_usb.c **** }
 1131              		.loc 1 527 10 is_stmt 0 view .LVU376
 1132 01b4 5EE7     		b	.L64
 1133              	.LVL63:
 1134              	.L63:
 527:Drivers/STM32F4xx_HAL_Driver/Src/stm32f4xx_ll_usb.c **** }
 1135              		.loc 1 527 10 view .LVU377
 1136              	.LBE55:
 1137              	.LBE54:
 362:Drivers/STM32F4xx_HAL_Driver/Src/stm32f4xx_ll_usb.c ****     }
 1138              		.loc 1 362 7 is_stmt 1 view .LVU378
 1139              	.LBB56:
 1140              	.LBI56:
 522:Drivers/STM32F4xx_HAL_Driver/Src/stm32f4xx_ll_usb.c **** {
 1141              		.loc 1 522 19 view .LVU379
 1142              	.LBB57:
 524:Drivers/STM32F4xx_HAL_Driver/Src/stm32f4xx_ll_usb.c **** 
 1143              		.loc 1 524 3 view .LVU380
 526:Drivers/STM32F4xx_HAL_Driver/Src/stm32f4xx_ll_usb.c ****   return HAL_OK;
 1144              		.loc 1 526 3 view .LVU381
 526:Drivers/STM32F4xx_HAL_Driver/Src/stm32f4xx_ll_usb.c ****   return HAL_OK;
 1145              		.loc 1 526 21 is_stmt 0 view .LVU382
 1146 01b6 DCF80030 		ldr	r3, [ip]
 1147 01ba 43F00103 		orr	r3, r3, #1
 1148 01be CCF80030 		str	r3, [ip]
 527:Drivers/STM32F4xx_HAL_Driver/Src/stm32f4xx_ll_usb.c **** }
 1149              		.loc 1 527 3 is_stmt 1 view .LVU383
 527:Drivers/STM32F4xx_HAL_Driver/Src/stm32f4xx_ll_usb.c **** }
 1150              		.loc 1 527 10 is_stmt 0 view .LVU384
 1151 01c2 57E7     		b	.L64
 1152              	.L102:
ARM GAS  /tmp/ccTCOTTa.s 			page 52


 1153              		.align	2
 1154              	.L101:
 1155 01c4 400D0300 		.word	200000
 1156 01c8 00383C80 		.word	-2143537152
 1157              	.LBE57:
 1158              	.LBE56:
 1159              		.cfi_endproc
 1160              	.LFE135:
 1162              		.section	.text.USB_FlushTxFifo,"ax",%progbits
 1163              		.align	1
 1164              		.p2align 2,,3
 1165              		.global	USB_FlushTxFifo
 1166              		.syntax unified
 1167              		.thumb
 1168              		.thumb_func
 1170              	USB_FlushTxFifo:
 1171              	.LVL64:
 1172              	.LFB136:
 473:Drivers/STM32F4xx_HAL_Driver/Src/stm32f4xx_ll_usb.c ****   __IO uint32_t count = 0U;
 1173              		.loc 1 473 1 is_stmt 1 view -0
 1174              		.cfi_startproc
 1175              		@ args = 0, pretend = 0, frame = 8
 1176              		@ frame_needed = 0, uses_anonymous_args = 0
 1177              		@ link register save eliminated.
 474:Drivers/STM32F4xx_HAL_Driver/Src/stm32f4xx_ll_usb.c **** 
 1178              		.loc 1 474 3 view .LVU386
 473:Drivers/STM32F4xx_HAL_Driver/Src/stm32f4xx_ll_usb.c ****   __IO uint32_t count = 0U;
 1179              		.loc 1 473 1 is_stmt 0 view .LVU387
 1180 0000 82B0     		sub	sp, sp, #8
 1181              	.LCFI17:
 1182              		.cfi_def_cfa_offset 8
 476:Drivers/STM32F4xx_HAL_Driver/Src/stm32f4xx_ll_usb.c **** 
 1183              		.loc 1 476 51 view .LVU388
 1184 0002 8901     		lsls	r1, r1, #6
 1185              	.LVL65:
 474:Drivers/STM32F4xx_HAL_Driver/Src/stm32f4xx_ll_usb.c **** 
 1186              		.loc 1 474 17 view .LVU389
 1187 0004 0023     		movs	r3, #0
 476:Drivers/STM32F4xx_HAL_Driver/Src/stm32f4xx_ll_usb.c **** 
 1188              		.loc 1 476 44 view .LVU390
 1189 0006 41F02001 		orr	r1, r1, #32
 474:Drivers/STM32F4xx_HAL_Driver/Src/stm32f4xx_ll_usb.c **** 
 1190              		.loc 1 474 17 view .LVU391
 1191 000a 0193     		str	r3, [sp, #4]
 476:Drivers/STM32F4xx_HAL_Driver/Src/stm32f4xx_ll_usb.c **** 
 1192              		.loc 1 476 3 is_stmt 1 view .LVU392
 480:Drivers/STM32F4xx_HAL_Driver/Src/stm32f4xx_ll_usb.c ****     {
 1193              		.loc 1 480 8 is_stmt 0 view .LVU393
 1194 000c 084A     		ldr	r2, .L111
 476:Drivers/STM32F4xx_HAL_Driver/Src/stm32f4xx_ll_usb.c **** 
 1195              		.loc 1 476 17 view .LVU394
 1196 000e 0161     		str	r1, [r0, #16]
 1197 0010 03E0     		b	.L105
 1198              	.L110:
 484:Drivers/STM32F4xx_HAL_Driver/Src/stm32f4xx_ll_usb.c **** 
 1199              		.loc 1 484 17 view .LVU395
 1200 0012 0369     		ldr	r3, [r0, #16]
ARM GAS  /tmp/ccTCOTTa.s 			page 53


 484:Drivers/STM32F4xx_HAL_Driver/Src/stm32f4xx_ll_usb.c **** 
 1201              		.loc 1 484 3 view .LVU396
 1202 0014 13F02003 		ands	r3, r3, #32
 1203 0018 07D0     		beq	.L109
 1204              	.L105:
 478:Drivers/STM32F4xx_HAL_Driver/Src/stm32f4xx_ll_usb.c ****   {
 1205              		.loc 1 478 3 is_stmt 1 view .LVU397
 480:Drivers/STM32F4xx_HAL_Driver/Src/stm32f4xx_ll_usb.c ****     {
 1206              		.loc 1 480 5 view .LVU398
 484:Drivers/STM32F4xx_HAL_Driver/Src/stm32f4xx_ll_usb.c **** 
 1207              		.loc 1 484 11 view .LVU399
 480:Drivers/STM32F4xx_HAL_Driver/Src/stm32f4xx_ll_usb.c ****     {
 1208              		.loc 1 480 9 is_stmt 0 view .LVU400
 1209 001a 019B     		ldr	r3, [sp, #4]
 1210 001c 0133     		adds	r3, r3, #1
 480:Drivers/STM32F4xx_HAL_Driver/Src/stm32f4xx_ll_usb.c ****     {
 1211              		.loc 1 480 8 view .LVU401
 1212 001e 9342     		cmp	r3, r2
 1213 0020 0193     		str	r3, [sp, #4]
 1214 0022 F6D9     		bls	.L110
 482:Drivers/STM32F4xx_HAL_Driver/Src/stm32f4xx_ll_usb.c ****     }
 1215              		.loc 1 482 14 view .LVU402
 1216 0024 0320     		movs	r0, #3
 1217              	.LVL66:
 487:Drivers/STM32F4xx_HAL_Driver/Src/stm32f4xx_ll_usb.c **** 
 1218              		.loc 1 487 1 view .LVU403
 1219 0026 02B0     		add	sp, sp, #8
 1220              	.LCFI18:
 1221              		.cfi_remember_state
 1222              		.cfi_def_cfa_offset 0
 1223              		@ sp needed
 1224 0028 7047     		bx	lr
 1225              	.LVL67:
 1226              	.L109:
 1227              	.LCFI19:
 1228              		.cfi_restore_state
 486:Drivers/STM32F4xx_HAL_Driver/Src/stm32f4xx_ll_usb.c **** }
 1229              		.loc 1 486 10 view .LVU404
 1230 002a 1846     		mov	r0, r3
 1231              	.LVL68:
 487:Drivers/STM32F4xx_HAL_Driver/Src/stm32f4xx_ll_usb.c **** 
 1232              		.loc 1 487 1 view .LVU405
 1233 002c 02B0     		add	sp, sp, #8
 1234              	.LCFI20:
 1235              		.cfi_def_cfa_offset 0
 1236              		@ sp needed
 1237 002e 7047     		bx	lr
 1238              	.L112:
 1239              		.align	2
 1240              	.L111:
 1241 0030 400D0300 		.word	200000
 1242              		.cfi_endproc
 1243              	.LFE136:
 1245              		.section	.text.USB_FlushRxFifo,"ax",%progbits
 1246              		.align	1
 1247              		.p2align 2,,3
 1248              		.global	USB_FlushRxFifo
ARM GAS  /tmp/ccTCOTTa.s 			page 54


 1249              		.syntax unified
 1250              		.thumb
 1251              		.thumb_func
 1253              	USB_FlushRxFifo:
 1254              	.LVL69:
 1255              	.LFB137:
 495:Drivers/STM32F4xx_HAL_Driver/Src/stm32f4xx_ll_usb.c ****   __IO uint32_t count = 0U;
 1256              		.loc 1 495 1 is_stmt 1 view -0
 1257              		.cfi_startproc
 1258              		@ args = 0, pretend = 0, frame = 8
 1259              		@ frame_needed = 0, uses_anonymous_args = 0
 1260              		@ link register save eliminated.
 496:Drivers/STM32F4xx_HAL_Driver/Src/stm32f4xx_ll_usb.c **** 
 1261              		.loc 1 496 3 view .LVU407
 495:Drivers/STM32F4xx_HAL_Driver/Src/stm32f4xx_ll_usb.c ****   __IO uint32_t count = 0U;
 1262              		.loc 1 495 1 is_stmt 0 view .LVU408
 1263 0000 82B0     		sub	sp, sp, #8
 1264              	.LCFI21:
 1265              		.cfi_def_cfa_offset 8
 496:Drivers/STM32F4xx_HAL_Driver/Src/stm32f4xx_ll_usb.c **** 
 1266              		.loc 1 496 17 view .LVU409
 1267 0002 0021     		movs	r1, #0
 498:Drivers/STM32F4xx_HAL_Driver/Src/stm32f4xx_ll_usb.c **** 
 1268              		.loc 1 498 17 view .LVU410
 1269 0004 1023     		movs	r3, #16
 496:Drivers/STM32F4xx_HAL_Driver/Src/stm32f4xx_ll_usb.c **** 
 1270              		.loc 1 496 17 view .LVU411
 1271 0006 0191     		str	r1, [sp, #4]
 498:Drivers/STM32F4xx_HAL_Driver/Src/stm32f4xx_ll_usb.c **** 
 1272              		.loc 1 498 3 is_stmt 1 view .LVU412
 502:Drivers/STM32F4xx_HAL_Driver/Src/stm32f4xx_ll_usb.c ****     {
 1273              		.loc 1 502 8 is_stmt 0 view .LVU413
 1274 0008 084A     		ldr	r2, .L121
 498:Drivers/STM32F4xx_HAL_Driver/Src/stm32f4xx_ll_usb.c **** 
 1275              		.loc 1 498 17 view .LVU414
 1276 000a 0361     		str	r3, [r0, #16]
 1277 000c 03E0     		b	.L115
 1278              	.L120:
 506:Drivers/STM32F4xx_HAL_Driver/Src/stm32f4xx_ll_usb.c **** 
 1279              		.loc 1 506 17 view .LVU415
 1280 000e 0369     		ldr	r3, [r0, #16]
 506:Drivers/STM32F4xx_HAL_Driver/Src/stm32f4xx_ll_usb.c **** 
 1281              		.loc 1 506 3 view .LVU416
 1282 0010 13F01003 		ands	r3, r3, #16
 1283 0014 07D0     		beq	.L119
 1284              	.L115:
 500:Drivers/STM32F4xx_HAL_Driver/Src/stm32f4xx_ll_usb.c ****   {
 1285              		.loc 1 500 3 is_stmt 1 view .LVU417
 502:Drivers/STM32F4xx_HAL_Driver/Src/stm32f4xx_ll_usb.c ****     {
 1286              		.loc 1 502 5 view .LVU418
 506:Drivers/STM32F4xx_HAL_Driver/Src/stm32f4xx_ll_usb.c **** 
 1287              		.loc 1 506 11 view .LVU419
 502:Drivers/STM32F4xx_HAL_Driver/Src/stm32f4xx_ll_usb.c ****     {
 1288              		.loc 1 502 9 is_stmt 0 view .LVU420
 1289 0016 019B     		ldr	r3, [sp, #4]
 1290 0018 0133     		adds	r3, r3, #1
 502:Drivers/STM32F4xx_HAL_Driver/Src/stm32f4xx_ll_usb.c ****     {
ARM GAS  /tmp/ccTCOTTa.s 			page 55


 1291              		.loc 1 502 8 view .LVU421
 1292 001a 9342     		cmp	r3, r2
 1293 001c 0193     		str	r3, [sp, #4]
 1294 001e F6D9     		bls	.L120
 504:Drivers/STM32F4xx_HAL_Driver/Src/stm32f4xx_ll_usb.c ****     }
 1295              		.loc 1 504 14 view .LVU422
 1296 0020 0320     		movs	r0, #3
 1297              	.LVL70:
 509:Drivers/STM32F4xx_HAL_Driver/Src/stm32f4xx_ll_usb.c **** 
 1298              		.loc 1 509 1 view .LVU423
 1299 0022 02B0     		add	sp, sp, #8
 1300              	.LCFI22:
 1301              		.cfi_remember_state
 1302              		.cfi_def_cfa_offset 0
 1303              		@ sp needed
 1304 0024 7047     		bx	lr
 1305              	.LVL71:
 1306              	.L119:
 1307              	.LCFI23:
 1308              		.cfi_restore_state
 508:Drivers/STM32F4xx_HAL_Driver/Src/stm32f4xx_ll_usb.c **** }
 1309              		.loc 1 508 10 view .LVU424
 1310 0026 1846     		mov	r0, r3
 1311              	.LVL72:
 509:Drivers/STM32F4xx_HAL_Driver/Src/stm32f4xx_ll_usb.c **** 
 1312              		.loc 1 509 1 view .LVU425
 1313 0028 02B0     		add	sp, sp, #8
 1314              	.LCFI24:
 1315              		.cfi_def_cfa_offset 0
 1316              		@ sp needed
 1317 002a 7047     		bx	lr
 1318              	.L122:
 1319              		.align	2
 1320              	.L121:
 1321 002c 400D0300 		.word	200000
 1322              		.cfi_endproc
 1323              	.LFE137:
 1325              		.section	.text.USB_SetDevSpeed,"ax",%progbits
 1326              		.align	1
 1327              		.p2align 2,,3
 1328              		.global	USB_SetDevSpeed
 1329              		.syntax unified
 1330              		.thumb
 1331              		.thumb_func
 1333              	USB_SetDevSpeed:
 1334              	.LVL73:
 1335              	.LFB138:
 523:Drivers/STM32F4xx_HAL_Driver/Src/stm32f4xx_ll_usb.c ****   uint32_t USBx_BASE = (uint32_t)USBx;
 1336              		.loc 1 523 1 is_stmt 1 view -0
 1337              		.cfi_startproc
 1338              		@ args = 0, pretend = 0, frame = 0
 1339              		@ frame_needed = 0, uses_anonymous_args = 0
 1340              		@ link register save eliminated.
 524:Drivers/STM32F4xx_HAL_Driver/Src/stm32f4xx_ll_usb.c **** 
 1341              		.loc 1 524 3 view .LVU427
 526:Drivers/STM32F4xx_HAL_Driver/Src/stm32f4xx_ll_usb.c ****   return HAL_OK;
 1342              		.loc 1 526 21 is_stmt 0 view .LVU428
ARM GAS  /tmp/ccTCOTTa.s 			page 56


 1343 0000 D0F80028 		ldr	r2, [r0, #2048]
 523:Drivers/STM32F4xx_HAL_Driver/Src/stm32f4xx_ll_usb.c ****   uint32_t USBx_BASE = (uint32_t)USBx;
 1344              		.loc 1 523 1 view .LVU429
 1345 0004 0346     		mov	r3, r0
 1346              	.LVL74:
 526:Drivers/STM32F4xx_HAL_Driver/Src/stm32f4xx_ll_usb.c ****   return HAL_OK;
 1347              		.loc 1 526 3 is_stmt 1 view .LVU430
 526:Drivers/STM32F4xx_HAL_Driver/Src/stm32f4xx_ll_usb.c ****   return HAL_OK;
 1348              		.loc 1 526 21 is_stmt 0 view .LVU431
 1349 0006 1143     		orrs	r1, r1, r2
 1350              	.LVL75:
 528:Drivers/STM32F4xx_HAL_Driver/Src/stm32f4xx_ll_usb.c **** 
 1351              		.loc 1 528 1 view .LVU432
 1352 0008 0020     		movs	r0, #0
 1353              	.LVL76:
 526:Drivers/STM32F4xx_HAL_Driver/Src/stm32f4xx_ll_usb.c ****   return HAL_OK;
 1354              		.loc 1 526 21 view .LVU433
 1355 000a C3F80018 		str	r1, [r3, #2048]
 527:Drivers/STM32F4xx_HAL_Driver/Src/stm32f4xx_ll_usb.c **** }
 1356              		.loc 1 527 3 is_stmt 1 view .LVU434
 528:Drivers/STM32F4xx_HAL_Driver/Src/stm32f4xx_ll_usb.c **** 
 1357              		.loc 1 528 1 is_stmt 0 view .LVU435
 1358 000e 7047     		bx	lr
 1359              		.cfi_endproc
 1360              	.LFE138:
 1362              		.section	.text.USB_GetDevSpeed,"ax",%progbits
 1363              		.align	1
 1364              		.p2align 2,,3
 1365              		.global	USB_GetDevSpeed
 1366              		.syntax unified
 1367              		.thumb
 1368              		.thumb_func
 1370              	USB_GetDevSpeed:
 1371              	.LVL77:
 1372              	.LFB139:
 539:Drivers/STM32F4xx_HAL_Driver/Src/stm32f4xx_ll_usb.c ****   uint32_t USBx_BASE = (uint32_t)USBx;
 1373              		.loc 1 539 1 is_stmt 1 view -0
 1374              		.cfi_startproc
 1375              		@ args = 0, pretend = 0, frame = 0
 1376              		@ frame_needed = 0, uses_anonymous_args = 0
 1377              		@ link register save eliminated.
 540:Drivers/STM32F4xx_HAL_Driver/Src/stm32f4xx_ll_usb.c ****   uint8_t speed;
 1378              		.loc 1 540 3 view .LVU437
 541:Drivers/STM32F4xx_HAL_Driver/Src/stm32f4xx_ll_usb.c ****   uint32_t DevEnumSpeed = USBx_DEVICE->DSTS & USB_OTG_DSTS_ENUMSPD;
 1379              		.loc 1 541 3 view .LVU438
 542:Drivers/STM32F4xx_HAL_Driver/Src/stm32f4xx_ll_usb.c **** 
 1380              		.loc 1 542 3 view .LVU439
 542:Drivers/STM32F4xx_HAL_Driver/Src/stm32f4xx_ll_usb.c **** 
 1381              		.loc 1 542 38 is_stmt 0 view .LVU440
 1382 0000 D0F80838 		ldr	r3, [r0, #2056]
 1383              	.LVL78:
 544:Drivers/STM32F4xx_HAL_Driver/Src/stm32f4xx_ll_usb.c ****   {
 1384              		.loc 1 544 3 is_stmt 1 view .LVU441
 544:Drivers/STM32F4xx_HAL_Driver/Src/stm32f4xx_ll_usb.c ****   {
 1385              		.loc 1 544 6 is_stmt 0 view .LVU442
 1386 0004 13F00600 		ands	r0, r3, #6
 1387              	.LVL79:
ARM GAS  /tmp/ccTCOTTa.s 			page 57


 544:Drivers/STM32F4xx_HAL_Driver/Src/stm32f4xx_ll_usb.c ****   {
 1388              		.loc 1 544 6 view .LVU443
 1389 0008 04D0     		beq	.L125
 548:Drivers/STM32F4xx_HAL_Driver/Src/stm32f4xx_ll_usb.c ****            (DevEnumSpeed == DSTS_ENUMSPD_FS_PHY_48MHZ))
 1390              		.loc 1 548 8 is_stmt 1 view .LVU444
 555:Drivers/STM32F4xx_HAL_Driver/Src/stm32f4xx_ll_usb.c ****   }
 1391              		.loc 1 555 11 is_stmt 0 view .LVU445
 1392 000a 13F0020F 		tst	r3, #2
 1393 000e 14BF     		ite	ne
 1394 0010 0220     		movne	r0, #2
 1395              	.LVL80:
 555:Drivers/STM32F4xx_HAL_Driver/Src/stm32f4xx_ll_usb.c ****   }
 1396              		.loc 1 555 11 view .LVU446
 1397 0012 0F20     		moveq	r0, #15
 1398              	.L125:
 1399              	.LVL81:
 558:Drivers/STM32F4xx_HAL_Driver/Src/stm32f4xx_ll_usb.c **** }
 1400              		.loc 1 558 3 is_stmt 1 view .LVU447
 559:Drivers/STM32F4xx_HAL_Driver/Src/stm32f4xx_ll_usb.c **** 
 1401              		.loc 1 559 1 is_stmt 0 view .LVU448
 1402 0014 7047     		bx	lr
 1403              		.cfi_endproc
 1404              	.LFE139:
 1406 0016 00BF     		.section	.text.USB_ActivateEndpoint,"ax",%progbits
 1407              		.align	1
 1408              		.p2align 2,,3
 1409              		.global	USB_ActivateEndpoint
 1410              		.syntax unified
 1411              		.thumb
 1412              		.thumb_func
 1414              	USB_ActivateEndpoint:
 1415              	.LVL82:
 1416              	.LFB140:
 568:Drivers/STM32F4xx_HAL_Driver/Src/stm32f4xx_ll_usb.c ****   uint32_t USBx_BASE = (uint32_t)USBx;
 1417              		.loc 1 568 1 is_stmt 1 view -0
 1418              		.cfi_startproc
 1419              		@ args = 0, pretend = 0, frame = 0
 1420              		@ frame_needed = 0, uses_anonymous_args = 0
 1421              		@ link register save eliminated.
 569:Drivers/STM32F4xx_HAL_Driver/Src/stm32f4xx_ll_usb.c ****   uint32_t epnum = (uint32_t)ep->num;
 1422              		.loc 1 569 3 view .LVU450
 568:Drivers/STM32F4xx_HAL_Driver/Src/stm32f4xx_ll_usb.c ****   uint32_t USBx_BASE = (uint32_t)USBx;
 1423              		.loc 1 568 1 is_stmt 0 view .LVU451
 1424 0000 30B4     		push	{r4, r5}
 1425              	.LCFI25:
 1426              		.cfi_def_cfa_offset 8
 1427              		.cfi_offset 4, -8
 1428              		.cfi_offset 5, -4
 572:Drivers/STM32F4xx_HAL_Driver/Src/stm32f4xx_ll_usb.c ****   {
 1429              		.loc 1 572 6 view .LVU452
 1430 0002 4B78     		ldrb	r3, [r1, #1]	@ zero_extendqisi2
 570:Drivers/STM32F4xx_HAL_Driver/Src/stm32f4xx_ll_usb.c **** 
 1431              		.loc 1 570 32 view .LVU453
 1432 0004 0A78     		ldrb	r2, [r1]	@ zero_extendqisi2
 1433              	.LVL83:
 570:Drivers/STM32F4xx_HAL_Driver/Src/stm32f4xx_ll_usb.c **** 
 1434              		.loc 1 570 3 is_stmt 1 view .LVU454
ARM GAS  /tmp/ccTCOTTa.s 			page 58


 572:Drivers/STM32F4xx_HAL_Driver/Src/stm32f4xx_ll_usb.c ****   {
 1435              		.loc 1 572 3 view .LVU455
 572:Drivers/STM32F4xx_HAL_Driver/Src/stm32f4xx_ll_usb.c ****   {
 1436              		.loc 1 572 6 is_stmt 0 view .LVU456
 1437 0006 012B     		cmp	r3, #1
 1438 0008 22D0     		beq	.L134
 586:Drivers/STM32F4xx_HAL_Driver/Src/stm32f4xx_ll_usb.c **** 
 1439              		.loc 1 586 5 is_stmt 1 view .LVU457
 586:Drivers/STM32F4xx_HAL_Driver/Src/stm32f4xx_ll_usb.c **** 
 1440              		.loc 1 586 27 is_stmt 0 view .LVU458
 1441 000a D0F81C48 		ldr	r4, [r0, #2076]
 586:Drivers/STM32F4xx_HAL_Driver/Src/stm32f4xx_ll_usb.c **** 
 1442              		.loc 1 586 82 view .LVU459
 1443 000e 02F00F0C 		and	ip, r2, #15
 586:Drivers/STM32F4xx_HAL_Driver/Src/stm32f4xx_ll_usb.c **** 
 1444              		.loc 1 586 55 view .LVU460
 1445 0012 4FF48033 		mov	r3, #65536
 586:Drivers/STM32F4xx_HAL_Driver/Src/stm32f4xx_ll_usb.c **** 
 1446              		.loc 1 586 52 view .LVU461
 1447 0016 03FA0CF3 		lsl	r3, r3, ip
 586:Drivers/STM32F4xx_HAL_Driver/Src/stm32f4xx_ll_usb.c **** 
 1448              		.loc 1 586 27 view .LVU462
 1449 001a 2343     		orrs	r3, r3, r4
 588:Drivers/STM32F4xx_HAL_Driver/Src/stm32f4xx_ll_usb.c ****     {
 1450              		.loc 1 588 11 view .LVU463
 1451 001c 00EB4212 		add	r2, r0, r2, lsl #5
 1452              	.LVL84:
 586:Drivers/STM32F4xx_HAL_Driver/Src/stm32f4xx_ll_usb.c **** 
 1453              		.loc 1 586 27 view .LVU464
 1454 0020 C0F81C38 		str	r3, [r0, #2076]
 1455              	.LVL85:
 588:Drivers/STM32F4xx_HAL_Driver/Src/stm32f4xx_ll_usb.c ****     {
 1456              		.loc 1 588 5 is_stmt 1 view .LVU465
 588:Drivers/STM32F4xx_HAL_Driver/Src/stm32f4xx_ll_usb.c ****     {
 1457              		.loc 1 588 28 is_stmt 0 view .LVU466
 1458 0024 D2F8003B 		ldr	r3, [r2, #2816]
 588:Drivers/STM32F4xx_HAL_Driver/Src/stm32f4xx_ll_usb.c ****     {
 1459              		.loc 1 588 8 view .LVU467
 1460 0028 1B04     		lsls	r3, r3, #16
 1461 002a 0ED4     		bmi	.L131
 590:Drivers/STM32F4xx_HAL_Driver/Src/stm32f4xx_ll_usb.c ****                                     ((uint32_t)ep->type << 18) |
 1462              		.loc 1 590 7 is_stmt 1 view .LVU468
 590:Drivers/STM32F4xx_HAL_Driver/Src/stm32f4xx_ll_usb.c ****                                     ((uint32_t)ep->type << 18) |
 1463              		.loc 1 590 52 is_stmt 0 view .LVU469
 1464 002c 8B68     		ldr	r3, [r1, #8]
 590:Drivers/STM32F4xx_HAL_Driver/Src/stm32f4xx_ll_usb.c ****                                     ((uint32_t)ep->type << 18) |
 1465              		.loc 1 590 34 view .LVU470
 1466 002e D2F8000B 		ldr	r0, [r2, #2816]
 1467              	.LVL86:
 591:Drivers/STM32F4xx_HAL_Driver/Src/stm32f4xx_ll_usb.c ****                                     USB_OTG_DIEPCTL_SD0PID_SEVNFRM |
 1468              		.loc 1 591 38 view .LVU471
 1469 0032 C978     		ldrb	r1, [r1, #3]	@ zero_extendqisi2
 1470              	.LVL87:
 590:Drivers/STM32F4xx_HAL_Driver/Src/stm32f4xx_ll_usb.c ****                                     ((uint32_t)ep->type << 18) |
 1471              		.loc 1 590 52 view .LVU472
 1472 0034 C3F30A03 		ubfx	r3, r3, #0, #11
 590:Drivers/STM32F4xx_HAL_Driver/Src/stm32f4xx_ll_usb.c ****                                     ((uint32_t)ep->type << 18) |
ARM GAS  /tmp/ccTCOTTa.s 			page 59


 1473              		.loc 1 590 34 view .LVU473
 1474 0038 0343     		orrs	r3, r3, r0
 1475 003a 43EA8143 		orr	r3, r3, r1, lsl #18
 1476 003e 43F08053 		orr	r3, r3, #268435456
 1477 0042 43F40043 		orr	r3, r3, #32768
 1478 0046 C2F8003B 		str	r3, [r2, #2816]
 1479              	.L131:
 596:Drivers/STM32F4xx_HAL_Driver/Src/stm32f4xx_ll_usb.c **** }
 1480              		.loc 1 596 3 is_stmt 1 view .LVU474
 597:Drivers/STM32F4xx_HAL_Driver/Src/stm32f4xx_ll_usb.c **** 
 1481              		.loc 1 597 1 is_stmt 0 view .LVU475
 1482 004a 0020     		movs	r0, #0
 1483 004c 30BC     		pop	{r4, r5}
 1484              	.LCFI26:
 1485              		.cfi_remember_state
 1486              		.cfi_restore 5
 1487              		.cfi_restore 4
 1488              		.cfi_def_cfa_offset 0
 1489 004e 7047     		bx	lr
 1490              	.LVL88:
 1491              	.L134:
 1492              	.LCFI27:
 1493              		.cfi_restore_state
 574:Drivers/STM32F4xx_HAL_Driver/Src/stm32f4xx_ll_usb.c **** 
 1494              		.loc 1 574 5 is_stmt 1 view .LVU476
 574:Drivers/STM32F4xx_HAL_Driver/Src/stm32f4xx_ll_usb.c **** 
 1495              		.loc 1 574 27 is_stmt 0 view .LVU477
 1496 0050 D0F81C58 		ldr	r5, [r0, #2076]
 574:Drivers/STM32F4xx_HAL_Driver/Src/stm32f4xx_ll_usb.c **** 
 1497              		.loc 1 574 81 view .LVU478
 1498 0054 02F00F0C 		and	ip, r2, #15
 574:Drivers/STM32F4xx_HAL_Driver/Src/stm32f4xx_ll_usb.c **** 
 1499              		.loc 1 574 54 view .LVU479
 1500 0058 03FA0CF3 		lsl	r3, r3, ip
 574:Drivers/STM32F4xx_HAL_Driver/Src/stm32f4xx_ll_usb.c **** 
 1501              		.loc 1 574 27 view .LVU480
 1502 005c 00F50064 		add	r4, r0, #2048
 1503 0060 2B43     		orrs	r3, r3, r5
 576:Drivers/STM32F4xx_HAL_Driver/Src/stm32f4xx_ll_usb.c ****     {
 1504              		.loc 1 576 10 view .LVU481
 1505 0062 00EB4210 		add	r0, r0, r2, lsl #5
 1506              	.LVL89:
 574:Drivers/STM32F4xx_HAL_Driver/Src/stm32f4xx_ll_usb.c **** 
 1507              		.loc 1 574 27 view .LVU482
 1508 0066 E361     		str	r3, [r4, #28]
 576:Drivers/STM32F4xx_HAL_Driver/Src/stm32f4xx_ll_usb.c ****     {
 1509              		.loc 1 576 5 is_stmt 1 view .LVU483
 576:Drivers/STM32F4xx_HAL_Driver/Src/stm32f4xx_ll_usb.c ****     {
 1510              		.loc 1 576 26 is_stmt 0 view .LVU484
 1511 0068 D0F80039 		ldr	r3, [r0, #2304]
 576:Drivers/STM32F4xx_HAL_Driver/Src/stm32f4xx_ll_usb.c ****     {
 1512              		.loc 1 576 8 view .LVU485
 1513 006c 1C04     		lsls	r4, r3, #16
 1514              	.LVL90:
 576:Drivers/STM32F4xx_HAL_Driver/Src/stm32f4xx_ll_usb.c ****     {
 1515              		.loc 1 576 8 view .LVU486
 1516 006e ECD4     		bmi	.L131
ARM GAS  /tmp/ccTCOTTa.s 			page 60


 578:Drivers/STM32F4xx_HAL_Driver/Src/stm32f4xx_ll_usb.c ****                                    ((uint32_t)ep->type << 18) | (epnum << 22) |
 1517              		.loc 1 578 7 is_stmt 1 view .LVU487
 578:Drivers/STM32F4xx_HAL_Driver/Src/stm32f4xx_ll_usb.c ****                                    ((uint32_t)ep->type << 18) | (epnum << 22) |
 1518              		.loc 1 578 51 is_stmt 0 view .LVU488
 1519 0070 8B68     		ldr	r3, [r1, #8]
 578:Drivers/STM32F4xx_HAL_Driver/Src/stm32f4xx_ll_usb.c ****                                    ((uint32_t)ep->type << 18) | (epnum << 22) |
 1520              		.loc 1 578 33 view .LVU489
 1521 0072 D0F80049 		ldr	r4, [r0, #2304]
 579:Drivers/STM32F4xx_HAL_Driver/Src/stm32f4xx_ll_usb.c ****                                    USB_OTG_DIEPCTL_SD0PID_SEVNFRM |
 1522              		.loc 1 579 37 view .LVU490
 1523 0076 C978     		ldrb	r1, [r1, #3]	@ zero_extendqisi2
 1524              	.LVL91:
 578:Drivers/STM32F4xx_HAL_Driver/Src/stm32f4xx_ll_usb.c ****                                    ((uint32_t)ep->type << 18) | (epnum << 22) |
 1525              		.loc 1 578 51 view .LVU491
 1526 0078 C3F30A03 		ubfx	r3, r3, #0, #11
 578:Drivers/STM32F4xx_HAL_Driver/Src/stm32f4xx_ll_usb.c ****                                    ((uint32_t)ep->type << 18) | (epnum << 22) |
 1527              		.loc 1 578 33 view .LVU492
 1528 007c 2343     		orrs	r3, r3, r4
 1529 007e 43EA8143 		orr	r3, r3, r1, lsl #18
 1530 0082 43EA8252 		orr	r2, r3, r2, lsl #22
 1531              	.LVL92:
 578:Drivers/STM32F4xx_HAL_Driver/Src/stm32f4xx_ll_usb.c ****                                    ((uint32_t)ep->type << 18) | (epnum << 22) |
 1532              		.loc 1 578 33 view .LVU493
 1533 0086 42F08052 		orr	r2, r2, #268435456
 1534 008a 42F40042 		orr	r2, r2, #32768
 1535 008e C0F80029 		str	r2, [r0, #2304]
 596:Drivers/STM32F4xx_HAL_Driver/Src/stm32f4xx_ll_usb.c **** }
 1536              		.loc 1 596 3 is_stmt 1 view .LVU494
 597:Drivers/STM32F4xx_HAL_Driver/Src/stm32f4xx_ll_usb.c **** 
 1537              		.loc 1 597 1 is_stmt 0 view .LVU495
 1538 0092 30BC     		pop	{r4, r5}
 1539              	.LCFI28:
 1540              		.cfi_restore 5
 1541              		.cfi_restore 4
 1542              		.cfi_def_cfa_offset 0
 1543 0094 0020     		movs	r0, #0
 1544 0096 7047     		bx	lr
 1545              		.cfi_endproc
 1546              	.LFE140:
 1548              		.section	.text.USB_ActivateDedicatedEndpoint,"ax",%progbits
 1549              		.align	1
 1550              		.p2align 2,,3
 1551              		.global	USB_ActivateDedicatedEndpoint
 1552              		.syntax unified
 1553              		.thumb
 1554              		.thumb_func
 1556              	USB_ActivateDedicatedEndpoint:
 1557              	.LVL93:
 1558              	.LFB141:
 606:Drivers/STM32F4xx_HAL_Driver/Src/stm32f4xx_ll_usb.c ****   uint32_t USBx_BASE = (uint32_t)USBx;
 1559              		.loc 1 606 1 is_stmt 1 view -0
 1560              		.cfi_startproc
 1561              		@ args = 0, pretend = 0, frame = 0
 1562              		@ frame_needed = 0, uses_anonymous_args = 0
 1563              		@ link register save eliminated.
 607:Drivers/STM32F4xx_HAL_Driver/Src/stm32f4xx_ll_usb.c ****   uint32_t epnum = (uint32_t)ep->num;
 1564              		.loc 1 607 3 view .LVU497
ARM GAS  /tmp/ccTCOTTa.s 			page 61


 606:Drivers/STM32F4xx_HAL_Driver/Src/stm32f4xx_ll_usb.c ****   uint32_t USBx_BASE = (uint32_t)USBx;
 1565              		.loc 1 606 1 is_stmt 0 view .LVU498
 1566 0000 10B4     		push	{r4}
 1567              	.LCFI29:
 1568              		.cfi_def_cfa_offset 4
 1569              		.cfi_offset 4, -4
 611:Drivers/STM32F4xx_HAL_Driver/Src/stm32f4xx_ll_usb.c ****   {
 1570              		.loc 1 611 6 view .LVU499
 1571 0002 4A78     		ldrb	r2, [r1, #1]	@ zero_extendqisi2
 608:Drivers/STM32F4xx_HAL_Driver/Src/stm32f4xx_ll_usb.c **** 
 1572              		.loc 1 608 32 view .LVU500
 1573 0004 0B78     		ldrb	r3, [r1]	@ zero_extendqisi2
 1574              	.LVL94:
 608:Drivers/STM32F4xx_HAL_Driver/Src/stm32f4xx_ll_usb.c **** 
 1575              		.loc 1 608 3 is_stmt 1 view .LVU501
 611:Drivers/STM32F4xx_HAL_Driver/Src/stm32f4xx_ll_usb.c ****   {
 1576              		.loc 1 611 3 view .LVU502
 611:Drivers/STM32F4xx_HAL_Driver/Src/stm32f4xx_ll_usb.c ****   {
 1577              		.loc 1 611 6 is_stmt 0 view .LVU503
 1578 0006 012A     		cmp	r2, #1
 613:Drivers/STM32F4xx_HAL_Driver/Src/stm32f4xx_ll_usb.c ****     {
 1579              		.loc 1 613 11 view .LVU504
 1580 0008 00EB431C 		add	ip, r0, r3, lsl #5
 611:Drivers/STM32F4xx_HAL_Driver/Src/stm32f4xx_ll_usb.c ****   {
 1581              		.loc 1 611 6 view .LVU505
 1582 000c 22D0     		beq	.L141
 625:Drivers/STM32F4xx_HAL_Driver/Src/stm32f4xx_ll_usb.c ****     {
 1583              		.loc 1 625 5 is_stmt 1 view .LVU506
 625:Drivers/STM32F4xx_HAL_Driver/Src/stm32f4xx_ll_usb.c ****     {
 1584              		.loc 1 625 28 is_stmt 0 view .LVU507
 1585 000e DCF8002B 		ldr	r2, [ip, #2816]
 625:Drivers/STM32F4xx_HAL_Driver/Src/stm32f4xx_ll_usb.c ****     {
 1586              		.loc 1 625 8 view .LVU508
 1587 0012 1204     		lsls	r2, r2, #16
 1588 0014 0ED5     		bpl	.L142
 1589              	.LVL95:
 1590              	.L139:
 632:Drivers/STM32F4xx_HAL_Driver/Src/stm32f4xx_ll_usb.c ****   }
 1591              		.loc 1 632 5 is_stmt 1 view .LVU509
 632:Drivers/STM32F4xx_HAL_Driver/Src/stm32f4xx_ll_usb.c ****   }
 1592              		.loc 1 632 27 is_stmt 0 view .LVU510
 1593 0016 D0F83C18 		ldr	r1, [r0, #2108]
 636:Drivers/STM32F4xx_HAL_Driver/Src/stm32f4xx_ll_usb.c **** 
 1594              		.loc 1 636 1 view .LVU511
 1595 001a 5DF8044B 		ldr	r4, [sp], #4
 1596              	.LCFI30:
 1597              		.cfi_remember_state
 1598              		.cfi_restore 4
 1599              		.cfi_def_cfa_offset 0
 632:Drivers/STM32F4xx_HAL_Driver/Src/stm32f4xx_ll_usb.c ****   }
 1600              		.loc 1 632 82 view .LVU512
 1601 001e 03F00F03 		and	r3, r3, #15
 1602              	.LVL96:
 632:Drivers/STM32F4xx_HAL_Driver/Src/stm32f4xx_ll_usb.c ****   }
 1603              		.loc 1 632 55 view .LVU513
 1604 0022 4FF48032 		mov	r2, #65536
 632:Drivers/STM32F4xx_HAL_Driver/Src/stm32f4xx_ll_usb.c ****   }
ARM GAS  /tmp/ccTCOTTa.s 			page 62


 1605              		.loc 1 632 52 view .LVU514
 1606 0026 02FA03F3 		lsl	r3, r2, r3
 632:Drivers/STM32F4xx_HAL_Driver/Src/stm32f4xx_ll_usb.c ****   }
 1607              		.loc 1 632 27 view .LVU515
 1608 002a 0B43     		orrs	r3, r3, r1
 1609 002c C0F83C38 		str	r3, [r0, #2108]
 635:Drivers/STM32F4xx_HAL_Driver/Src/stm32f4xx_ll_usb.c **** }
 1610              		.loc 1 635 3 is_stmt 1 view .LVU516
 636:Drivers/STM32F4xx_HAL_Driver/Src/stm32f4xx_ll_usb.c **** 
 1611              		.loc 1 636 1 is_stmt 0 view .LVU517
 1612 0030 0020     		movs	r0, #0
 1613              	.LVL97:
 636:Drivers/STM32F4xx_HAL_Driver/Src/stm32f4xx_ll_usb.c **** 
 1614              		.loc 1 636 1 view .LVU518
 1615 0032 7047     		bx	lr
 1616              	.LVL98:
 1617              	.L142:
 1618              	.LCFI31:
 1619              		.cfi_restore_state
 627:Drivers/STM32F4xx_HAL_Driver/Src/stm32f4xx_ll_usb.c ****                                     ((uint32_t)ep->type << 18) | (epnum << 22) |
 1620              		.loc 1 627 7 is_stmt 1 view .LVU519
 627:Drivers/STM32F4xx_HAL_Driver/Src/stm32f4xx_ll_usb.c ****                                     ((uint32_t)ep->type << 18) | (epnum << 22) |
 1621              		.loc 1 627 52 is_stmt 0 view .LVU520
 1622 0034 8A68     		ldr	r2, [r1, #8]
 627:Drivers/STM32F4xx_HAL_Driver/Src/stm32f4xx_ll_usb.c ****                                     ((uint32_t)ep->type << 18) | (epnum << 22) |
 1623              		.loc 1 627 34 view .LVU521
 1624 0036 DCF8004B 		ldr	r4, [ip, #2816]
 628:Drivers/STM32F4xx_HAL_Driver/Src/stm32f4xx_ll_usb.c ****                                     USB_OTG_DOEPCTL_USBAEP;
 1625              		.loc 1 628 38 view .LVU522
 1626 003a C978     		ldrb	r1, [r1, #3]	@ zero_extendqisi2
 1627              	.LVL99:
 627:Drivers/STM32F4xx_HAL_Driver/Src/stm32f4xx_ll_usb.c ****                                     ((uint32_t)ep->type << 18) | (epnum << 22) |
 1628              		.loc 1 627 52 view .LVU523
 1629 003c C2F30A02 		ubfx	r2, r2, #0, #11
 627:Drivers/STM32F4xx_HAL_Driver/Src/stm32f4xx_ll_usb.c ****                                     ((uint32_t)ep->type << 18) | (epnum << 22) |
 1630              		.loc 1 627 34 view .LVU524
 1631 0040 2243     		orrs	r2, r2, r4
 1632 0042 42EA8142 		orr	r2, r2, r1, lsl #18
 1633 0046 42EA8352 		orr	r2, r2, r3, lsl #22
 1634 004a 42F40042 		orr	r2, r2, #32768
 1635 004e CCF8002B 		str	r2, [ip, #2816]
 1636 0052 E0E7     		b	.L139
 1637              	.LVL100:
 1638              	.L141:
 613:Drivers/STM32F4xx_HAL_Driver/Src/stm32f4xx_ll_usb.c ****     {
 1639              		.loc 1 613 5 is_stmt 1 view .LVU525
 613:Drivers/STM32F4xx_HAL_Driver/Src/stm32f4xx_ll_usb.c ****     {
 1640              		.loc 1 613 27 is_stmt 0 view .LVU526
 1641 0054 DCF80029 		ldr	r2, [ip, #2304]
 613:Drivers/STM32F4xx_HAL_Driver/Src/stm32f4xx_ll_usb.c ****     {
 1642              		.loc 1 613 8 view .LVU527
 1643 0058 1404     		lsls	r4, r2, #16
 1644 005a 10D4     		bmi	.L137
 615:Drivers/STM32F4xx_HAL_Driver/Src/stm32f4xx_ll_usb.c ****                                    ((uint32_t)ep->type << 18) | (epnum << 22) |
 1645              		.loc 1 615 7 is_stmt 1 view .LVU528
 615:Drivers/STM32F4xx_HAL_Driver/Src/stm32f4xx_ll_usb.c ****                                    ((uint32_t)ep->type << 18) | (epnum << 22) |
 1646              		.loc 1 615 51 is_stmt 0 view .LVU529
ARM GAS  /tmp/ccTCOTTa.s 			page 63


 1647 005c 8A68     		ldr	r2, [r1, #8]
 615:Drivers/STM32F4xx_HAL_Driver/Src/stm32f4xx_ll_usb.c ****                                    ((uint32_t)ep->type << 18) | (epnum << 22) |
 1648              		.loc 1 615 33 view .LVU530
 1649 005e DCF80049 		ldr	r4, [ip, #2304]
 616:Drivers/STM32F4xx_HAL_Driver/Src/stm32f4xx_ll_usb.c ****                                    USB_OTG_DIEPCTL_SD0PID_SEVNFRM |
 1650              		.loc 1 616 37 view .LVU531
 1651 0062 C978     		ldrb	r1, [r1, #3]	@ zero_extendqisi2
 1652              	.LVL101:
 615:Drivers/STM32F4xx_HAL_Driver/Src/stm32f4xx_ll_usb.c ****                                    ((uint32_t)ep->type << 18) | (epnum << 22) |
 1653              		.loc 1 615 51 view .LVU532
 1654 0064 C2F30A02 		ubfx	r2, r2, #0, #11
 615:Drivers/STM32F4xx_HAL_Driver/Src/stm32f4xx_ll_usb.c ****                                    ((uint32_t)ep->type << 18) | (epnum << 22) |
 1655              		.loc 1 615 33 view .LVU533
 1656 0068 2243     		orrs	r2, r2, r4
 1657 006a 42EA8142 		orr	r2, r2, r1, lsl #18
 1658 006e 42EA8352 		orr	r2, r2, r3, lsl #22
 1659 0072 42F08052 		orr	r2, r2, #268435456
 1660 0076 42F40042 		orr	r2, r2, #32768
 1661 007a CCF80029 		str	r2, [ip, #2304]
 1662              	.L137:
 621:Drivers/STM32F4xx_HAL_Driver/Src/stm32f4xx_ll_usb.c ****   }
 1663              		.loc 1 621 5 is_stmt 1 view .LVU534
 621:Drivers/STM32F4xx_HAL_Driver/Src/stm32f4xx_ll_usb.c ****   }
 1664              		.loc 1 621 27 is_stmt 0 view .LVU535
 1665 007e D0F83C28 		ldr	r2, [r0, #2108]
 636:Drivers/STM32F4xx_HAL_Driver/Src/stm32f4xx_ll_usb.c **** 
 1666              		.loc 1 636 1 view .LVU536
 1667 0082 5DF8044B 		ldr	r4, [sp], #4
 1668              	.LCFI32:
 1669              		.cfi_restore 4
 1670              		.cfi_def_cfa_offset 0
 621:Drivers/STM32F4xx_HAL_Driver/Src/stm32f4xx_ll_usb.c ****   }
 1671              		.loc 1 621 81 view .LVU537
 1672 0086 03F00F01 		and	r1, r3, #15
 621:Drivers/STM32F4xx_HAL_Driver/Src/stm32f4xx_ll_usb.c ****   }
 1673              		.loc 1 621 54 view .LVU538
 1674 008a 0123     		movs	r3, #1
 1675              	.LVL102:
 621:Drivers/STM32F4xx_HAL_Driver/Src/stm32f4xx_ll_usb.c ****   }
 1676              		.loc 1 621 54 view .LVU539
 1677 008c 8B40     		lsls	r3, r3, r1
 621:Drivers/STM32F4xx_HAL_Driver/Src/stm32f4xx_ll_usb.c ****   }
 1678              		.loc 1 621 27 view .LVU540
 1679 008e 1343     		orrs	r3, r3, r2
 1680 0090 C0F83C38 		str	r3, [r0, #2108]
 635:Drivers/STM32F4xx_HAL_Driver/Src/stm32f4xx_ll_usb.c **** }
 1681              		.loc 1 635 3 is_stmt 1 view .LVU541
 636:Drivers/STM32F4xx_HAL_Driver/Src/stm32f4xx_ll_usb.c **** 
 1682              		.loc 1 636 1 is_stmt 0 view .LVU542
 1683 0094 0020     		movs	r0, #0
 1684              	.LVL103:
 636:Drivers/STM32F4xx_HAL_Driver/Src/stm32f4xx_ll_usb.c **** 
 1685              		.loc 1 636 1 view .LVU543
 1686 0096 7047     		bx	lr
 1687              		.cfi_endproc
 1688              	.LFE141:
 1690              		.section	.text.USB_DeactivateEndpoint,"ax",%progbits
ARM GAS  /tmp/ccTCOTTa.s 			page 64


 1691              		.align	1
 1692              		.p2align 2,,3
 1693              		.global	USB_DeactivateEndpoint
 1694              		.syntax unified
 1695              		.thumb
 1696              		.thumb_func
 1698              	USB_DeactivateEndpoint:
 1699              	.LVL104:
 1700              	.LFB142:
 645:Drivers/STM32F4xx_HAL_Driver/Src/stm32f4xx_ll_usb.c ****   uint32_t USBx_BASE = (uint32_t)USBx;
 1701              		.loc 1 645 1 is_stmt 1 view -0
 1702              		.cfi_startproc
 1703              		@ args = 0, pretend = 0, frame = 0
 1704              		@ frame_needed = 0, uses_anonymous_args = 0
 1705              		@ link register save eliminated.
 646:Drivers/STM32F4xx_HAL_Driver/Src/stm32f4xx_ll_usb.c ****   uint32_t epnum = (uint32_t)ep->num;
 1706              		.loc 1 646 3 view .LVU545
 645:Drivers/STM32F4xx_HAL_Driver/Src/stm32f4xx_ll_usb.c ****   uint32_t USBx_BASE = (uint32_t)USBx;
 1707              		.loc 1 645 1 is_stmt 0 view .LVU546
 1708 0000 10B4     		push	{r4}
 1709              	.LCFI33:
 1710              		.cfi_def_cfa_offset 4
 1711              		.cfi_offset 4, -4
 650:Drivers/STM32F4xx_HAL_Driver/Src/stm32f4xx_ll_usb.c ****   {
 1712              		.loc 1 650 6 view .LVU547
 1713 0002 4A78     		ldrb	r2, [r1, #1]	@ zero_extendqisi2
 647:Drivers/STM32F4xx_HAL_Driver/Src/stm32f4xx_ll_usb.c **** 
 1714              		.loc 1 647 32 view .LVU548
 1715 0004 0B78     		ldrb	r3, [r1]	@ zero_extendqisi2
 1716              	.LVL105:
 647:Drivers/STM32F4xx_HAL_Driver/Src/stm32f4xx_ll_usb.c **** 
 1717              		.loc 1 647 3 is_stmt 1 view .LVU549
 650:Drivers/STM32F4xx_HAL_Driver/Src/stm32f4xx_ll_usb.c ****   {
 1718              		.loc 1 650 3 view .LVU550
 650:Drivers/STM32F4xx_HAL_Driver/Src/stm32f4xx_ll_usb.c ****   {
 1719              		.loc 1 650 6 is_stmt 0 view .LVU551
 1720 0006 012A     		cmp	r2, #1
 652:Drivers/STM32F4xx_HAL_Driver/Src/stm32f4xx_ll_usb.c ****     {
 1721              		.loc 1 652 10 view .LVU552
 1722 0008 00EB4312 		add	r2, r0, r3, lsl #5
 650:Drivers/STM32F4xx_HAL_Driver/Src/stm32f4xx_ll_usb.c ****   {
 1723              		.loc 1 650 6 view .LVU553
 1724 000c 2CD0     		beq	.L149
 668:Drivers/STM32F4xx_HAL_Driver/Src/stm32f4xx_ll_usb.c ****     {
 1725              		.loc 1 668 5 is_stmt 1 view .LVU554
 668:Drivers/STM32F4xx_HAL_Driver/Src/stm32f4xx_ll_usb.c ****     {
 1726              		.loc 1 668 27 is_stmt 0 view .LVU555
 1727 000e D2F8001B 		ldr	r1, [r2, #2816]
 1728              	.LVL106:
 668:Drivers/STM32F4xx_HAL_Driver/Src/stm32f4xx_ll_usb.c ****     {
 1729              		.loc 1 668 8 view .LVU556
 1730 0012 0029     		cmp	r1, #0
 1731 0014 1BDB     		blt	.L150
 1732              	.L147:
 674:Drivers/STM32F4xx_HAL_Driver/Src/stm32f4xx_ll_usb.c ****     USBx_DEVICE->DAINTMSK &= ~(USB_OTG_DAINTMSK_OEPM & ((uint32_t)(1UL << (ep->num & EP_ADDR_MSK)) 
 1733              		.loc 1 674 5 is_stmt 1 view .LVU557
 674:Drivers/STM32F4xx_HAL_Driver/Src/stm32f4xx_ll_usb.c ****     USBx_DEVICE->DAINTMSK &= ~(USB_OTG_DAINTMSK_OEPM & ((uint32_t)(1UL << (ep->num & EP_ADDR_MSK)) 
ARM GAS  /tmp/ccTCOTTa.s 			page 65


 1734              		.loc 1 674 27 is_stmt 0 view .LVU558
 1735 0016 D0F83C48 		ldr	r4, [r0, #2108]
 674:Drivers/STM32F4xx_HAL_Driver/Src/stm32f4xx_ll_usb.c ****     USBx_DEVICE->DAINTMSK &= ~(USB_OTG_DAINTMSK_OEPM & ((uint32_t)(1UL << (ep->num & EP_ADDR_MSK)) 
 1736              		.loc 1 674 57 view .LVU559
 1737 001a 4FF48031 		mov	r1, #65536
 674:Drivers/STM32F4xx_HAL_Driver/Src/stm32f4xx_ll_usb.c ****     USBx_DEVICE->DAINTMSK &= ~(USB_OTG_DAINTMSK_OEPM & ((uint32_t)(1UL << (ep->num & EP_ADDR_MSK)) 
 1738              		.loc 1 674 84 view .LVU560
 1739 001e 03F00F03 		and	r3, r3, #15
 1740              	.LVL107:
 674:Drivers/STM32F4xx_HAL_Driver/Src/stm32f4xx_ll_usb.c ****     USBx_DEVICE->DAINTMSK &= ~(USB_OTG_DAINTMSK_OEPM & ((uint32_t)(1UL << (ep->num & EP_ADDR_MSK)) 
 1741              		.loc 1 674 54 view .LVU561
 1742 0022 01FA03F3 		lsl	r3, r1, r3
 674:Drivers/STM32F4xx_HAL_Driver/Src/stm32f4xx_ll_usb.c ****     USBx_DEVICE->DAINTMSK &= ~(USB_OTG_DAINTMSK_OEPM & ((uint32_t)(1UL << (ep->num & EP_ADDR_MSK)) 
 1743              		.loc 1 674 27 view .LVU562
 1744 0026 24EA0304 		bic	r4, r4, r3
 1745 002a C0F83C48 		str	r4, [r0, #2108]
 675:Drivers/STM32F4xx_HAL_Driver/Src/stm32f4xx_ll_usb.c ****     USBx_OUTEP(epnum)->DOEPCTL &= ~(USB_OTG_DOEPCTL_USBAEP |
 1746              		.loc 1 675 5 is_stmt 1 view .LVU563
 675:Drivers/STM32F4xx_HAL_Driver/Src/stm32f4xx_ll_usb.c ****     USBx_OUTEP(epnum)->DOEPCTL &= ~(USB_OTG_DOEPCTL_USBAEP |
 1747              		.loc 1 675 27 is_stmt 0 view .LVU564
 1748 002e D0F81C48 		ldr	r4, [r0, #2076]
 676:Drivers/STM32F4xx_HAL_Driver/Src/stm32f4xx_ll_usb.c ****                                     USB_OTG_DOEPCTL_MPSIZ |
 1749              		.loc 1 676 32 view .LVU565
 1750 0032 2249     		ldr	r1, .L151
 675:Drivers/STM32F4xx_HAL_Driver/Src/stm32f4xx_ll_usb.c ****     USBx_OUTEP(epnum)->DOEPCTL &= ~(USB_OTG_DOEPCTL_USBAEP |
 1751              		.loc 1 675 27 view .LVU566
 1752 0034 24EA0303 		bic	r3, r4, r3
 1753 0038 C0F81C38 		str	r3, [r0, #2076]
 676:Drivers/STM32F4xx_HAL_Driver/Src/stm32f4xx_ll_usb.c ****                                     USB_OTG_DOEPCTL_MPSIZ |
 1754              		.loc 1 676 5 is_stmt 1 view .LVU567
 676:Drivers/STM32F4xx_HAL_Driver/Src/stm32f4xx_ll_usb.c ****                                     USB_OTG_DOEPCTL_MPSIZ |
 1755              		.loc 1 676 32 is_stmt 0 view .LVU568
 1756 003c D2F8003B 		ldr	r3, [r2, #2816]
 683:Drivers/STM32F4xx_HAL_Driver/Src/stm32f4xx_ll_usb.c **** 
 1757              		.loc 1 683 1 view .LVU569
 1758 0040 5DF8044B 		ldr	r4, [sp], #4
 1759              	.LCFI34:
 1760              		.cfi_remember_state
 1761              		.cfi_restore 4
 1762              		.cfi_def_cfa_offset 0
 676:Drivers/STM32F4xx_HAL_Driver/Src/stm32f4xx_ll_usb.c ****                                     USB_OTG_DOEPCTL_MPSIZ |
 1763              		.loc 1 676 32 view .LVU570
 1764 0044 1940     		ands	r1, r1, r3
 683:Drivers/STM32F4xx_HAL_Driver/Src/stm32f4xx_ll_usb.c **** 
 1765              		.loc 1 683 1 view .LVU571
 1766 0046 0020     		movs	r0, #0
 1767              	.LVL108:
 676:Drivers/STM32F4xx_HAL_Driver/Src/stm32f4xx_ll_usb.c ****                                     USB_OTG_DOEPCTL_MPSIZ |
 1768              		.loc 1 676 32 view .LVU572
 1769 0048 C2F8001B 		str	r1, [r2, #2816]
 682:Drivers/STM32F4xx_HAL_Driver/Src/stm32f4xx_ll_usb.c **** }
 1770              		.loc 1 682 3 is_stmt 1 view .LVU573
 683:Drivers/STM32F4xx_HAL_Driver/Src/stm32f4xx_ll_usb.c **** 
 1771              		.loc 1 683 1 is_stmt 0 view .LVU574
 1772 004c 7047     		bx	lr
 1773              	.LVL109:
 1774              	.L150:
ARM GAS  /tmp/ccTCOTTa.s 			page 66


 1775              	.LCFI35:
 1776              		.cfi_restore_state
 670:Drivers/STM32F4xx_HAL_Driver/Src/stm32f4xx_ll_usb.c ****       USBx_OUTEP(epnum)->DOEPCTL |= USB_OTG_DOEPCTL_EPDIS;
 1777              		.loc 1 670 7 is_stmt 1 view .LVU575
 670:Drivers/STM32F4xx_HAL_Driver/Src/stm32f4xx_ll_usb.c ****       USBx_OUTEP(epnum)->DOEPCTL |= USB_OTG_DOEPCTL_EPDIS;
 1778              		.loc 1 670 34 is_stmt 0 view .LVU576
 1779 004e D2F8001B 		ldr	r1, [r2, #2816]
 1780 0052 41F00061 		orr	r1, r1, #134217728
 1781 0056 C2F8001B 		str	r1, [r2, #2816]
 671:Drivers/STM32F4xx_HAL_Driver/Src/stm32f4xx_ll_usb.c ****     }
 1782              		.loc 1 671 7 is_stmt 1 view .LVU577
 671:Drivers/STM32F4xx_HAL_Driver/Src/stm32f4xx_ll_usb.c ****     }
 1783              		.loc 1 671 34 is_stmt 0 view .LVU578
 1784 005a D2F8001B 		ldr	r1, [r2, #2816]
 1785 005e 41F08041 		orr	r1, r1, #1073741824
 1786 0062 C2F8001B 		str	r1, [r2, #2816]
 1787 0066 D6E7     		b	.L147
 1788              	.LVL110:
 1789              	.L149:
 652:Drivers/STM32F4xx_HAL_Driver/Src/stm32f4xx_ll_usb.c ****     {
 1790              		.loc 1 652 5 is_stmt 1 view .LVU579
 652:Drivers/STM32F4xx_HAL_Driver/Src/stm32f4xx_ll_usb.c ****     {
 1791              		.loc 1 652 26 is_stmt 0 view .LVU580
 1792 0068 D2F80019 		ldr	r1, [r2, #2304]
 1793              	.LVL111:
 652:Drivers/STM32F4xx_HAL_Driver/Src/stm32f4xx_ll_usb.c ****     {
 1794              		.loc 1 652 8 view .LVU581
 1795 006c 0029     		cmp	r1, #0
 1796 006e 0BDA     		bge	.L145
 654:Drivers/STM32F4xx_HAL_Driver/Src/stm32f4xx_ll_usb.c ****       USBx_INEP(epnum)->DIEPCTL |= USB_OTG_DIEPCTL_EPDIS;
 1797              		.loc 1 654 7 is_stmt 1 view .LVU582
 654:Drivers/STM32F4xx_HAL_Driver/Src/stm32f4xx_ll_usb.c ****       USBx_INEP(epnum)->DIEPCTL |= USB_OTG_DIEPCTL_EPDIS;
 1798              		.loc 1 654 33 is_stmt 0 view .LVU583
 1799 0070 D2F80019 		ldr	r1, [r2, #2304]
 1800 0074 41F00061 		orr	r1, r1, #134217728
 1801 0078 C2F80019 		str	r1, [r2, #2304]
 655:Drivers/STM32F4xx_HAL_Driver/Src/stm32f4xx_ll_usb.c ****     }
 1802              		.loc 1 655 7 is_stmt 1 view .LVU584
 655:Drivers/STM32F4xx_HAL_Driver/Src/stm32f4xx_ll_usb.c ****     }
 1803              		.loc 1 655 33 is_stmt 0 view .LVU585
 1804 007c D2F80019 		ldr	r1, [r2, #2304]
 1805 0080 41F08041 		orr	r1, r1, #1073741824
 1806 0084 C2F80019 		str	r1, [r2, #2304]
 1807              	.L145:
 658:Drivers/STM32F4xx_HAL_Driver/Src/stm32f4xx_ll_usb.c ****     USBx_DEVICE->DAINTMSK &= ~(USB_OTG_DAINTMSK_IEPM & (uint32_t)(1UL << (ep->num & EP_ADDR_MSK)));
 1808              		.loc 1 658 5 is_stmt 1 view .LVU586
 658:Drivers/STM32F4xx_HAL_Driver/Src/stm32f4xx_ll_usb.c ****     USBx_DEVICE->DAINTMSK &= ~(USB_OTG_DAINTMSK_IEPM & (uint32_t)(1UL << (ep->num & EP_ADDR_MSK)));
 1809              		.loc 1 658 27 is_stmt 0 view .LVU587
 1810 0088 D0F83C18 		ldr	r1, [r0, #2108]
 658:Drivers/STM32F4xx_HAL_Driver/Src/stm32f4xx_ll_usb.c ****     USBx_DEVICE->DAINTMSK &= ~(USB_OTG_DAINTMSK_IEPM & (uint32_t)(1UL << (ep->num & EP_ADDR_MSK)));
 1811              		.loc 1 658 83 view .LVU588
 1812 008c 03F00F04 		and	r4, r3, #15
 658:Drivers/STM32F4xx_HAL_Driver/Src/stm32f4xx_ll_usb.c ****     USBx_DEVICE->DAINTMSK &= ~(USB_OTG_DAINTMSK_IEPM & (uint32_t)(1UL << (ep->num & EP_ADDR_MSK)));
 1813              		.loc 1 658 56 view .LVU589
 1814 0090 0123     		movs	r3, #1
 1815              	.LVL112:
 658:Drivers/STM32F4xx_HAL_Driver/Src/stm32f4xx_ll_usb.c ****     USBx_DEVICE->DAINTMSK &= ~(USB_OTG_DAINTMSK_IEPM & (uint32_t)(1UL << (ep->num & EP_ADDR_MSK)));
ARM GAS  /tmp/ccTCOTTa.s 			page 67


 1816              		.loc 1 658 56 view .LVU590
 1817 0092 A340     		lsls	r3, r3, r4
 658:Drivers/STM32F4xx_HAL_Driver/Src/stm32f4xx_ll_usb.c ****     USBx_DEVICE->DAINTMSK &= ~(USB_OTG_DAINTMSK_IEPM & (uint32_t)(1UL << (ep->num & EP_ADDR_MSK)));
 1818              		.loc 1 658 27 view .LVU591
 1819 0094 21EA0301 		bic	r1, r1, r3
 1820 0098 C0F83C18 		str	r1, [r0, #2108]
 659:Drivers/STM32F4xx_HAL_Driver/Src/stm32f4xx_ll_usb.c ****     USBx_INEP(epnum)->DIEPCTL &= ~(USB_OTG_DIEPCTL_USBAEP |
 1821              		.loc 1 659 5 is_stmt 1 view .LVU592
 659:Drivers/STM32F4xx_HAL_Driver/Src/stm32f4xx_ll_usb.c ****     USBx_INEP(epnum)->DIEPCTL &= ~(USB_OTG_DIEPCTL_USBAEP |
 1822              		.loc 1 659 27 is_stmt 0 view .LVU593
 1823 009c D0F81C48 		ldr	r4, [r0, #2076]
 660:Drivers/STM32F4xx_HAL_Driver/Src/stm32f4xx_ll_usb.c ****                                    USB_OTG_DIEPCTL_MPSIZ |
 1824              		.loc 1 660 31 view .LVU594
 1825 00a0 0749     		ldr	r1, .L151+4
 659:Drivers/STM32F4xx_HAL_Driver/Src/stm32f4xx_ll_usb.c ****     USBx_INEP(epnum)->DIEPCTL &= ~(USB_OTG_DIEPCTL_USBAEP |
 1826              		.loc 1 659 27 view .LVU595
 1827 00a2 24EA0303 		bic	r3, r4, r3
 1828 00a6 C0F81C38 		str	r3, [r0, #2076]
 660:Drivers/STM32F4xx_HAL_Driver/Src/stm32f4xx_ll_usb.c ****                                    USB_OTG_DIEPCTL_MPSIZ |
 1829              		.loc 1 660 5 is_stmt 1 view .LVU596
 660:Drivers/STM32F4xx_HAL_Driver/Src/stm32f4xx_ll_usb.c ****                                    USB_OTG_DIEPCTL_MPSIZ |
 1830              		.loc 1 660 31 is_stmt 0 view .LVU597
 1831 00aa D2F80039 		ldr	r3, [r2, #2304]
 683:Drivers/STM32F4xx_HAL_Driver/Src/stm32f4xx_ll_usb.c **** 
 1832              		.loc 1 683 1 view .LVU598
 1833 00ae 5DF8044B 		ldr	r4, [sp], #4
 1834              	.LCFI36:
 1835              		.cfi_restore 4
 1836              		.cfi_def_cfa_offset 0
 660:Drivers/STM32F4xx_HAL_Driver/Src/stm32f4xx_ll_usb.c ****                                    USB_OTG_DIEPCTL_MPSIZ |
 1837              		.loc 1 660 31 view .LVU599
 1838 00b2 1940     		ands	r1, r1, r3
 683:Drivers/STM32F4xx_HAL_Driver/Src/stm32f4xx_ll_usb.c **** 
 1839              		.loc 1 683 1 view .LVU600
 1840 00b4 0020     		movs	r0, #0
 1841              	.LVL113:
 660:Drivers/STM32F4xx_HAL_Driver/Src/stm32f4xx_ll_usb.c ****                                    USB_OTG_DIEPCTL_MPSIZ |
 1842              		.loc 1 660 31 view .LVU601
 1843 00b6 C2F80019 		str	r1, [r2, #2304]
 682:Drivers/STM32F4xx_HAL_Driver/Src/stm32f4xx_ll_usb.c **** }
 1844              		.loc 1 682 3 is_stmt 1 view .LVU602
 683:Drivers/STM32F4xx_HAL_Driver/Src/stm32f4xx_ll_usb.c **** 
 1845              		.loc 1 683 1 is_stmt 0 view .LVU603
 1846 00ba 7047     		bx	lr
 1847              	.L152:
 1848              		.align	2
 1849              	.L151:
 1850 00bc 0078F3EF 		.word	-269256704
 1851 00c0 007833EC 		.word	-332171264
 1852              		.cfi_endproc
 1853              	.LFE142:
 1855              		.section	.text.USB_DeactivateDedicatedEndpoint,"ax",%progbits
 1856              		.align	1
 1857              		.p2align 2,,3
 1858              		.global	USB_DeactivateDedicatedEndpoint
 1859              		.syntax unified
 1860              		.thumb
ARM GAS  /tmp/ccTCOTTa.s 			page 68


 1861              		.thumb_func
 1863              	USB_DeactivateDedicatedEndpoint:
 1864              	.LVL114:
 1865              	.LFB143:
 692:Drivers/STM32F4xx_HAL_Driver/Src/stm32f4xx_ll_usb.c ****   uint32_t USBx_BASE = (uint32_t)USBx;
 1866              		.loc 1 692 1 is_stmt 1 view -0
 1867              		.cfi_startproc
 1868              		@ args = 0, pretend = 0, frame = 0
 1869              		@ frame_needed = 0, uses_anonymous_args = 0
 1870              		@ link register save eliminated.
 693:Drivers/STM32F4xx_HAL_Driver/Src/stm32f4xx_ll_usb.c ****   uint32_t epnum = (uint32_t)ep->num;
 1871              		.loc 1 693 3 view .LVU605
 697:Drivers/STM32F4xx_HAL_Driver/Src/stm32f4xx_ll_usb.c ****   {
 1872              		.loc 1 697 6 is_stmt 0 view .LVU606
 1873 0000 4A78     		ldrb	r2, [r1, #1]	@ zero_extendqisi2
 694:Drivers/STM32F4xx_HAL_Driver/Src/stm32f4xx_ll_usb.c **** 
 1874              		.loc 1 694 32 view .LVU607
 1875 0002 0B78     		ldrb	r3, [r1]	@ zero_extendqisi2
 1876              	.LVL115:
 694:Drivers/STM32F4xx_HAL_Driver/Src/stm32f4xx_ll_usb.c **** 
 1877              		.loc 1 694 3 is_stmt 1 view .LVU608
 697:Drivers/STM32F4xx_HAL_Driver/Src/stm32f4xx_ll_usb.c ****   {
 1878              		.loc 1 697 3 view .LVU609
 697:Drivers/STM32F4xx_HAL_Driver/Src/stm32f4xx_ll_usb.c ****   {
 1879              		.loc 1 697 6 is_stmt 0 view .LVU610
 1880 0004 012A     		cmp	r2, #1
 699:Drivers/STM32F4xx_HAL_Driver/Src/stm32f4xx_ll_usb.c ****     {
 1881              		.loc 1 699 10 view .LVU611
 1882 0006 00EB4312 		add	r2, r0, r3, lsl #5
 697:Drivers/STM32F4xx_HAL_Driver/Src/stm32f4xx_ll_usb.c ****   {
 1883              		.loc 1 697 6 view .LVU612
 1884 000a 24D0     		beq	.L158
 710:Drivers/STM32F4xx_HAL_Driver/Src/stm32f4xx_ll_usb.c ****     {
 1885              		.loc 1 710 5 is_stmt 1 view .LVU613
 710:Drivers/STM32F4xx_HAL_Driver/Src/stm32f4xx_ll_usb.c ****     {
 1886              		.loc 1 710 27 is_stmt 0 view .LVU614
 1887 000c D2F8001B 		ldr	r1, [r2, #2816]
 1888              	.LVL116:
 710:Drivers/STM32F4xx_HAL_Driver/Src/stm32f4xx_ll_usb.c ****     {
 1889              		.loc 1 710 8 view .LVU615
 1890 0010 0029     		cmp	r1, #0
 1891 0012 13DB     		blt	.L159
 1892              	.L157:
 716:Drivers/STM32F4xx_HAL_Driver/Src/stm32f4xx_ll_usb.c ****     USBx_DEVICE->DAINTMSK &= ~(USB_OTG_DAINTMSK_OEPM & ((uint32_t)(1UL << (ep->num & EP_ADDR_MSK)) 
 1893              		.loc 1 716 5 is_stmt 1 view .LVU616
 716:Drivers/STM32F4xx_HAL_Driver/Src/stm32f4xx_ll_usb.c ****     USBx_DEVICE->DAINTMSK &= ~(USB_OTG_DAINTMSK_OEPM & ((uint32_t)(1UL << (ep->num & EP_ADDR_MSK)) 
 1894              		.loc 1 716 32 is_stmt 0 view .LVU617
 1895 0014 D2F8001B 		ldr	r1, [r2, #2816]
 1896 0018 21F40041 		bic	r1, r1, #32768
 1897 001c C2F8001B 		str	r1, [r2, #2816]
 717:Drivers/STM32F4xx_HAL_Driver/Src/stm32f4xx_ll_usb.c ****   }
 1898              		.loc 1 717 5 is_stmt 1 view .LVU618
 717:Drivers/STM32F4xx_HAL_Driver/Src/stm32f4xx_ll_usb.c ****   }
 1899              		.loc 1 717 27 is_stmt 0 view .LVU619
 1900 0020 D0F81C28 		ldr	r2, [r0, #2076]
 717:Drivers/STM32F4xx_HAL_Driver/Src/stm32f4xx_ll_usb.c ****   }
 1901              		.loc 1 717 57 view .LVU620
ARM GAS  /tmp/ccTCOTTa.s 			page 69


 1902 0024 4FF48031 		mov	r1, #65536
 717:Drivers/STM32F4xx_HAL_Driver/Src/stm32f4xx_ll_usb.c ****   }
 1903              		.loc 1 717 84 view .LVU621
 1904 0028 03F00F03 		and	r3, r3, #15
 1905              	.LVL117:
 717:Drivers/STM32F4xx_HAL_Driver/Src/stm32f4xx_ll_usb.c ****   }
 1906              		.loc 1 717 54 view .LVU622
 1907 002c 01FA03F3 		lsl	r3, r1, r3
 717:Drivers/STM32F4xx_HAL_Driver/Src/stm32f4xx_ll_usb.c ****   }
 1908              		.loc 1 717 27 view .LVU623
 1909 0030 22EA0303 		bic	r3, r2, r3
 1910 0034 C0F81C38 		str	r3, [r0, #2076]
 720:Drivers/STM32F4xx_HAL_Driver/Src/stm32f4xx_ll_usb.c **** }
 1911              		.loc 1 720 3 is_stmt 1 view .LVU624
 721:Drivers/STM32F4xx_HAL_Driver/Src/stm32f4xx_ll_usb.c **** 
 1912              		.loc 1 721 1 is_stmt 0 view .LVU625
 1913 0038 0020     		movs	r0, #0
 1914              	.LVL118:
 721:Drivers/STM32F4xx_HAL_Driver/Src/stm32f4xx_ll_usb.c **** 
 1915              		.loc 1 721 1 view .LVU626
 1916 003a 7047     		bx	lr
 1917              	.LVL119:
 1918              	.L159:
 712:Drivers/STM32F4xx_HAL_Driver/Src/stm32f4xx_ll_usb.c ****       USBx_OUTEP(epnum)->DOEPCTL  |= USB_OTG_DOEPCTL_EPDIS;
 1919              		.loc 1 712 7 is_stmt 1 view .LVU627
 712:Drivers/STM32F4xx_HAL_Driver/Src/stm32f4xx_ll_usb.c ****       USBx_OUTEP(epnum)->DOEPCTL  |= USB_OTG_DOEPCTL_EPDIS;
 1920              		.loc 1 712 35 is_stmt 0 view .LVU628
 1921 003c D2F8001B 		ldr	r1, [r2, #2816]
 1922 0040 41F00061 		orr	r1, r1, #134217728
 1923 0044 C2F8001B 		str	r1, [r2, #2816]
 713:Drivers/STM32F4xx_HAL_Driver/Src/stm32f4xx_ll_usb.c ****     }
 1924              		.loc 1 713 7 is_stmt 1 view .LVU629
 713:Drivers/STM32F4xx_HAL_Driver/Src/stm32f4xx_ll_usb.c ****     }
 1925              		.loc 1 713 35 is_stmt 0 view .LVU630
 1926 0048 D2F8001B 		ldr	r1, [r2, #2816]
 1927 004c 41F08041 		orr	r1, r1, #1073741824
 1928 0050 C2F8001B 		str	r1, [r2, #2816]
 1929 0054 DEE7     		b	.L157
 1930              	.LVL120:
 1931              	.L158:
 699:Drivers/STM32F4xx_HAL_Driver/Src/stm32f4xx_ll_usb.c ****     {
 1932              		.loc 1 699 5 is_stmt 1 view .LVU631
 699:Drivers/STM32F4xx_HAL_Driver/Src/stm32f4xx_ll_usb.c ****     {
 1933              		.loc 1 699 26 is_stmt 0 view .LVU632
 1934 0056 D2F80019 		ldr	r1, [r2, #2304]
 1935              	.LVL121:
 699:Drivers/STM32F4xx_HAL_Driver/Src/stm32f4xx_ll_usb.c ****     {
 1936              		.loc 1 699 8 view .LVU633
 1937 005a 0029     		cmp	r1, #0
 1938 005c 0BDA     		bge	.L155
 701:Drivers/STM32F4xx_HAL_Driver/Src/stm32f4xx_ll_usb.c ****       USBx_INEP(epnum)->DIEPCTL  |= USB_OTG_DIEPCTL_EPDIS;
 1939              		.loc 1 701 7 is_stmt 1 view .LVU634
 701:Drivers/STM32F4xx_HAL_Driver/Src/stm32f4xx_ll_usb.c ****       USBx_INEP(epnum)->DIEPCTL  |= USB_OTG_DIEPCTL_EPDIS;
 1940              		.loc 1 701 34 is_stmt 0 view .LVU635
 1941 005e D2F80019 		ldr	r1, [r2, #2304]
 1942 0062 41F00061 		orr	r1, r1, #134217728
 1943 0066 C2F80019 		str	r1, [r2, #2304]
ARM GAS  /tmp/ccTCOTTa.s 			page 70


 702:Drivers/STM32F4xx_HAL_Driver/Src/stm32f4xx_ll_usb.c ****     }
 1944              		.loc 1 702 7 is_stmt 1 view .LVU636
 702:Drivers/STM32F4xx_HAL_Driver/Src/stm32f4xx_ll_usb.c ****     }
 1945              		.loc 1 702 34 is_stmt 0 view .LVU637
 1946 006a D2F80019 		ldr	r1, [r2, #2304]
 1947 006e 41F08041 		orr	r1, r1, #1073741824
 1948 0072 C2F80019 		str	r1, [r2, #2304]
 1949              	.L155:
 705:Drivers/STM32F4xx_HAL_Driver/Src/stm32f4xx_ll_usb.c ****     USBx_DEVICE->DAINTMSK &= ~(USB_OTG_DAINTMSK_IEPM & (uint32_t)(1UL << (ep->num & EP_ADDR_MSK)));
 1950              		.loc 1 705 5 is_stmt 1 view .LVU638
 705:Drivers/STM32F4xx_HAL_Driver/Src/stm32f4xx_ll_usb.c ****     USBx_DEVICE->DAINTMSK &= ~(USB_OTG_DAINTMSK_IEPM & (uint32_t)(1UL << (ep->num & EP_ADDR_MSK)));
 1951              		.loc 1 705 31 is_stmt 0 view .LVU639
 1952 0076 D2F80019 		ldr	r1, [r2, #2304]
 1953 007a 21F40041 		bic	r1, r1, #32768
 1954 007e C2F80019 		str	r1, [r2, #2304]
 706:Drivers/STM32F4xx_HAL_Driver/Src/stm32f4xx_ll_usb.c ****   }
 1955              		.loc 1 706 5 is_stmt 1 view .LVU640
 706:Drivers/STM32F4xx_HAL_Driver/Src/stm32f4xx_ll_usb.c ****   }
 1956              		.loc 1 706 27 is_stmt 0 view .LVU641
 1957 0082 D0F81C28 		ldr	r2, [r0, #2076]
 706:Drivers/STM32F4xx_HAL_Driver/Src/stm32f4xx_ll_usb.c ****   }
 1958              		.loc 1 706 56 view .LVU642
 1959 0086 0121     		movs	r1, #1
 706:Drivers/STM32F4xx_HAL_Driver/Src/stm32f4xx_ll_usb.c ****   }
 1960              		.loc 1 706 83 view .LVU643
 1961 0088 03F00F03 		and	r3, r3, #15
 1962              	.LVL122:
 706:Drivers/STM32F4xx_HAL_Driver/Src/stm32f4xx_ll_usb.c ****   }
 1963              		.loc 1 706 56 view .LVU644
 1964 008c 01FA03F3 		lsl	r3, r1, r3
 706:Drivers/STM32F4xx_HAL_Driver/Src/stm32f4xx_ll_usb.c ****   }
 1965              		.loc 1 706 27 view .LVU645
 1966 0090 22EA0303 		bic	r3, r2, r3
 1967 0094 C0F81C38 		str	r3, [r0, #2076]
 720:Drivers/STM32F4xx_HAL_Driver/Src/stm32f4xx_ll_usb.c **** }
 1968              		.loc 1 720 3 is_stmt 1 view .LVU646
 721:Drivers/STM32F4xx_HAL_Driver/Src/stm32f4xx_ll_usb.c **** 
 1969              		.loc 1 721 1 is_stmt 0 view .LVU647
 1970 0098 0020     		movs	r0, #0
 1971              	.LVL123:
 721:Drivers/STM32F4xx_HAL_Driver/Src/stm32f4xx_ll_usb.c **** 
 1972              		.loc 1 721 1 view .LVU648
 1973 009a 7047     		bx	lr
 1974              		.cfi_endproc
 1975              	.LFE143:
 1977              		.section	.text.USB_EPStartXfer,"ax",%progbits
 1978              		.align	1
 1979              		.p2align 2,,3
 1980              		.global	USB_EPStartXfer
 1981              		.syntax unified
 1982              		.thumb
 1983              		.thumb_func
 1985              	USB_EPStartXfer:
 1986              	.LVL124:
 1987              	.LFB144:
 734:Drivers/STM32F4xx_HAL_Driver/Src/stm32f4xx_ll_usb.c ****   uint32_t USBx_BASE = (uint32_t)USBx;
 1988              		.loc 1 734 1 is_stmt 1 view -0
ARM GAS  /tmp/ccTCOTTa.s 			page 71


 1989              		.cfi_startproc
 1990              		@ args = 0, pretend = 0, frame = 0
 1991              		@ frame_needed = 0, uses_anonymous_args = 0
 735:Drivers/STM32F4xx_HAL_Driver/Src/stm32f4xx_ll_usb.c ****   uint32_t epnum = (uint32_t)ep->num;
 1992              		.loc 1 735 3 view .LVU650
 734:Drivers/STM32F4xx_HAL_Driver/Src/stm32f4xx_ll_usb.c ****   uint32_t USBx_BASE = (uint32_t)USBx;
 1993              		.loc 1 734 1 is_stmt 0 view .LVU651
 1994 0000 2DE9F041 		push	{r4, r5, r6, r7, r8, lr}
 1995              	.LCFI37:
 1996              		.cfi_def_cfa_offset 24
 1997              		.cfi_offset 4, -24
 1998              		.cfi_offset 5, -20
 1999              		.cfi_offset 6, -16
 2000              		.cfi_offset 7, -12
 2001              		.cfi_offset 8, -8
 2002              		.cfi_offset 14, -4
 740:Drivers/STM32F4xx_HAL_Driver/Src/stm32f4xx_ll_usb.c ****   {
 2003              		.loc 1 740 6 view .LVU652
 2004 0004 4C78     		ldrb	r4, [r1, #1]	@ zero_extendqisi2
 736:Drivers/STM32F4xx_HAL_Driver/Src/stm32f4xx_ll_usb.c ****   uint16_t pktcnt;
 2005              		.loc 1 736 32 view .LVU653
 2006 0006 91F800C0 		ldrb	ip, [r1]	@ zero_extendqisi2
 2007              	.LVL125:
 736:Drivers/STM32F4xx_HAL_Driver/Src/stm32f4xx_ll_usb.c ****   uint16_t pktcnt;
 2008              		.loc 1 736 3 is_stmt 1 view .LVU654
 737:Drivers/STM32F4xx_HAL_Driver/Src/stm32f4xx_ll_usb.c **** 
 2009              		.loc 1 737 3 view .LVU655
 740:Drivers/STM32F4xx_HAL_Driver/Src/stm32f4xx_ll_usb.c ****   {
 2010              		.loc 1 740 3 view .LVU656
 740:Drivers/STM32F4xx_HAL_Driver/Src/stm32f4xx_ll_usb.c ****   {
 2011              		.loc 1 740 6 is_stmt 0 view .LVU657
 2012 000a 012C     		cmp	r4, #1
 2013 000c 4FD0     		beq	.L205
 826:Drivers/STM32F4xx_HAL_Driver/Src/stm32f4xx_ll_usb.c ****     USBx_OUTEP(epnum)->DOEPTSIZ &= ~(USB_OTG_DOEPTSIZ_PKTCNT);
 2014              		.loc 1 826 5 is_stmt 1 view .LVU658
 826:Drivers/STM32F4xx_HAL_Driver/Src/stm32f4xx_ll_usb.c ****     USBx_OUTEP(epnum)->DOEPTSIZ &= ~(USB_OTG_DOEPTSIZ_PKTCNT);
 2015              		.loc 1 826 33 is_stmt 0 view .LVU659
 2016 000e 00EB4C1C 		add	ip, r0, ip, lsl #5
 2017              	.LVL126:
 826:Drivers/STM32F4xx_HAL_Driver/Src/stm32f4xx_ll_usb.c ****     USBx_OUTEP(epnum)->DOEPTSIZ &= ~(USB_OTG_DOEPTSIZ_PKTCNT);
 2018              		.loc 1 826 33 view .LVU660
 2019 0012 0CF53063 		add	r3, ip, #2816
 2020 0016 1C69     		ldr	r4, [r3, #16]
 2021 0018 E40C     		lsrs	r4, r4, #19
 2022 001a E404     		lsls	r4, r4, #19
 2023 001c 1C61     		str	r4, [r3, #16]
 2024              	.LVL127:
 827:Drivers/STM32F4xx_HAL_Driver/Src/stm32f4xx_ll_usb.c **** 
 2025              		.loc 1 827 5 is_stmt 1 view .LVU661
 827:Drivers/STM32F4xx_HAL_Driver/Src/stm32f4xx_ll_usb.c **** 
 2026              		.loc 1 827 33 is_stmt 0 view .LVU662
 2027 001e 1C69     		ldr	r4, [r3, #16]
 2028 0020 24F0FF54 		bic	r4, r4, #534773760
 2029 0024 24F4C014 		bic	r4, r4, #1572864
 2030 0028 1C61     		str	r4, [r3, #16]
 829:Drivers/STM32F4xx_HAL_Driver/Src/stm32f4xx_ll_usb.c ****     {
 2031              		.loc 1 829 5 is_stmt 1 view .LVU663
ARM GAS  /tmp/ccTCOTTa.s 			page 72


 829:Drivers/STM32F4xx_HAL_Driver/Src/stm32f4xx_ll_usb.c ****     {
 2032              		.loc 1 829 11 is_stmt 0 view .LVU664
 2033 002a 4C69     		ldr	r4, [r1, #20]
 829:Drivers/STM32F4xx_HAL_Driver/Src/stm32f4xx_ll_usb.c ****     {
 2034              		.loc 1 829 8 view .LVU665
 2035 002c 74B3     		cbz	r4, .L206
 836:Drivers/STM32F4xx_HAL_Driver/Src/stm32f4xx_ll_usb.c ****       USBx_OUTEP(epnum)->DOEPTSIZ |= USB_OTG_DOEPTSIZ_PKTCNT & ((uint32_t)pktcnt << 19);
 2036              		.loc 1 836 7 is_stmt 1 view .LVU666
 836:Drivers/STM32F4xx_HAL_Driver/Src/stm32f4xx_ll_usb.c ****       USBx_OUTEP(epnum)->DOEPTSIZ |= USB_OTG_DOEPTSIZ_PKTCNT & ((uint32_t)pktcnt << 19);
 2037              		.loc 1 836 45 is_stmt 0 view .LVU667
 2038 002e 8D68     		ldr	r5, [r1, #8]
 2039              	.LVL128:
 837:Drivers/STM32F4xx_HAL_Driver/Src/stm32f4xx_ll_usb.c ****       USBx_OUTEP(epnum)->DOEPTSIZ |= USB_OTG_DOEPTSIZ_XFRSIZ & (ep->maxpacket * pktcnt);
 2040              		.loc 1 837 7 is_stmt 1 view .LVU668
 837:Drivers/STM32F4xx_HAL_Driver/Src/stm32f4xx_ll_usb.c ****       USBx_OUTEP(epnum)->DOEPTSIZ |= USB_OTG_DOEPTSIZ_XFRSIZ & (ep->maxpacket * pktcnt);
 2041              		.loc 1 837 62 is_stmt 0 view .LVU669
 2042 0030 784E     		ldr	r6, .L213
 836:Drivers/STM32F4xx_HAL_Driver/Src/stm32f4xx_ll_usb.c ****       USBx_OUTEP(epnum)->DOEPTSIZ |= USB_OTG_DOEPTSIZ_PKTCNT & ((uint32_t)pktcnt << 19);
 2043              		.loc 1 836 41 view .LVU670
 2044 0032 2C44     		add	r4, r4, r5
 2045              	.LVL129:
 836:Drivers/STM32F4xx_HAL_Driver/Src/stm32f4xx_ll_usb.c ****       USBx_OUTEP(epnum)->DOEPTSIZ |= USB_OTG_DOEPTSIZ_PKTCNT & ((uint32_t)pktcnt << 19);
 2046              		.loc 1 836 57 view .LVU671
 2047 0034 013C     		subs	r4, r4, #1
 836:Drivers/STM32F4xx_HAL_Driver/Src/stm32f4xx_ll_usb.c ****       USBx_OUTEP(epnum)->DOEPTSIZ |= USB_OTG_DOEPTSIZ_PKTCNT & ((uint32_t)pktcnt << 19);
 2048              		.loc 1 836 63 view .LVU672
 2049 0036 B4FBF5F4 		udiv	r4, r4, r5
 837:Drivers/STM32F4xx_HAL_Driver/Src/stm32f4xx_ll_usb.c ****       USBx_OUTEP(epnum)->DOEPTSIZ |= USB_OTG_DOEPTSIZ_XFRSIZ & (ep->maxpacket * pktcnt);
 2050              		.loc 1 837 62 view .LVU673
 2051 003a 06EAC44E 		and	lr, r6, r4, lsl #19
 2052 003e A4B2     		uxth	r4, r4
 838:Drivers/STM32F4xx_HAL_Driver/Src/stm32f4xx_ll_usb.c ****     }
 2053              		.loc 1 838 79 view .LVU674
 2054 0040 05FB04F4 		mul	r4, r5, r4
 837:Drivers/STM32F4xx_HAL_Driver/Src/stm32f4xx_ll_usb.c ****       USBx_OUTEP(epnum)->DOEPTSIZ |= USB_OTG_DOEPTSIZ_XFRSIZ & (ep->maxpacket * pktcnt);
 2055              		.loc 1 837 35 view .LVU675
 2056 0044 1D69     		ldr	r5, [r3, #16]
 2057              	.LVL130:
 837:Drivers/STM32F4xx_HAL_Driver/Src/stm32f4xx_ll_usb.c ****       USBx_OUTEP(epnum)->DOEPTSIZ |= USB_OTG_DOEPTSIZ_XFRSIZ & (ep->maxpacket * pktcnt);
 2058              		.loc 1 837 35 view .LVU676
 2059 0046 4EEA0505 		orr	r5, lr, r5
 2060 004a 1D61     		str	r5, [r3, #16]
 838:Drivers/STM32F4xx_HAL_Driver/Src/stm32f4xx_ll_usb.c ****     }
 2061              		.loc 1 838 7 is_stmt 1 view .LVU677
 838:Drivers/STM32F4xx_HAL_Driver/Src/stm32f4xx_ll_usb.c ****     }
 2062              		.loc 1 838 35 is_stmt 0 view .LVU678
 2063 004c 1D69     		ldr	r5, [r3, #16]
 838:Drivers/STM32F4xx_HAL_Driver/Src/stm32f4xx_ll_usb.c ****     }
 2064              		.loc 1 838 62 view .LVU679
 2065 004e C4F31204 		ubfx	r4, r4, #0, #19
 838:Drivers/STM32F4xx_HAL_Driver/Src/stm32f4xx_ll_usb.c ****     }
 2066              		.loc 1 838 35 view .LVU680
 2067 0052 2C43     		orrs	r4, r4, r5
 841:Drivers/STM32F4xx_HAL_Driver/Src/stm32f4xx_ll_usb.c ****     {
 2068              		.loc 1 841 8 view .LVU681
 2069 0054 012A     		cmp	r2, #1
 838:Drivers/STM32F4xx_HAL_Driver/Src/stm32f4xx_ll_usb.c ****     }
ARM GAS  /tmp/ccTCOTTa.s 			page 73


 2070              		.loc 1 838 35 view .LVU682
 2071 0056 1C61     		str	r4, [r3, #16]
 2072              	.LVL131:
 841:Drivers/STM32F4xx_HAL_Driver/Src/stm32f4xx_ll_usb.c ****     {
 2073              		.loc 1 841 5 is_stmt 1 view .LVU683
 841:Drivers/STM32F4xx_HAL_Driver/Src/stm32f4xx_ll_usb.c ****     {
 2074              		.loc 1 841 8 is_stmt 0 view .LVU684
 2075 0058 24D0     		beq	.L207
 2076              	.LVL132:
 2077              	.L179:
 849:Drivers/STM32F4xx_HAL_Driver/Src/stm32f4xx_ll_usb.c ****     {
 2078              		.loc 1 849 5 is_stmt 1 view .LVU685
 849:Drivers/STM32F4xx_HAL_Driver/Src/stm32f4xx_ll_usb.c ****     {
 2079              		.loc 1 849 8 is_stmt 0 view .LVU686
 2080 005a CB78     		ldrb	r3, [r1, #3]	@ zero_extendqisi2
 2081 005c 012B     		cmp	r3, #1
 2082 005e 0CD1     		bne	.L180
 851:Drivers/STM32F4xx_HAL_Driver/Src/stm32f4xx_ll_usb.c ****       {
 2083              		.loc 1 851 7 is_stmt 1 view .LVU687
 851:Drivers/STM32F4xx_HAL_Driver/Src/stm32f4xx_ll_usb.c ****       {
 2084              		.loc 1 851 23 is_stmt 0 view .LVU688
 2085 0060 D0F80838 		ldr	r3, [r0, #2056]
 851:Drivers/STM32F4xx_HAL_Driver/Src/stm32f4xx_ll_usb.c ****       {
 2086              		.loc 1 851 10 view .LVU689
 2087 0064 13F4807F 		tst	r3, #256
 853:Drivers/STM32F4xx_HAL_Driver/Src/stm32f4xx_ll_usb.c ****       }
 2088              		.loc 1 853 36 view .LVU690
 2089 0068 DCF8003B 		ldr	r3, [ip, #2816]
 853:Drivers/STM32F4xx_HAL_Driver/Src/stm32f4xx_ll_usb.c ****       }
 2090              		.loc 1 853 9 is_stmt 1 view .LVU691
 853:Drivers/STM32F4xx_HAL_Driver/Src/stm32f4xx_ll_usb.c ****       }
 2091              		.loc 1 853 36 is_stmt 0 view .LVU692
 2092 006c 0CBF     		ite	eq
 2093 006e 43F00053 		orreq	r3, r3, #536870912
 857:Drivers/STM32F4xx_HAL_Driver/Src/stm32f4xx_ll_usb.c ****       }
 2094              		.loc 1 857 9 is_stmt 1 view .LVU693
 857:Drivers/STM32F4xx_HAL_Driver/Src/stm32f4xx_ll_usb.c ****       }
 2095              		.loc 1 857 36 is_stmt 0 view .LVU694
 2096 0072 43F08053 		orrne	r3, r3, #268435456
 2097 0076 CCF8003B 		str	r3, [ip, #2816]
 2098              	.L180:
 861:Drivers/STM32F4xx_HAL_Driver/Src/stm32f4xx_ll_usb.c ****   }
 2099              		.loc 1 861 5 is_stmt 1 view .LVU695
 861:Drivers/STM32F4xx_HAL_Driver/Src/stm32f4xx_ll_usb.c ****   }
 2100              		.loc 1 861 32 is_stmt 0 view .LVU696
 2101 007a DCF8003B 		ldr	r3, [ip, #2816]
 2102 007e 43F00443 		orr	r3, r3, #-2080374784
 2103 0082 CCF8003B 		str	r3, [ip, #2816]
 2104              	.LVL133:
 2105              	.L195:
 865:Drivers/STM32F4xx_HAL_Driver/Src/stm32f4xx_ll_usb.c **** 
 2106              		.loc 1 865 1 view .LVU697
 2107 0086 0020     		movs	r0, #0
 2108              	.LVL134:
 865:Drivers/STM32F4xx_HAL_Driver/Src/stm32f4xx_ll_usb.c **** 
 2109              		.loc 1 865 1 view .LVU698
 2110 0088 BDE8F081 		pop	{r4, r5, r6, r7, r8, pc}
ARM GAS  /tmp/ccTCOTTa.s 			page 74


 2111              	.LVL135:
 2112              	.L206:
 831:Drivers/STM32F4xx_HAL_Driver/Src/stm32f4xx_ll_usb.c ****       USBx_OUTEP(epnum)->DOEPTSIZ |= (USB_OTG_DOEPTSIZ_PKTCNT & (1U << 19));
 2113              		.loc 1 831 7 is_stmt 1 view .LVU699
 831:Drivers/STM32F4xx_HAL_Driver/Src/stm32f4xx_ll_usb.c ****       USBx_OUTEP(epnum)->DOEPTSIZ |= (USB_OTG_DOEPTSIZ_PKTCNT & (1U << 19));
 2114              		.loc 1 831 63 is_stmt 0 view .LVU700
 2115 008c 8C68     		ldr	r4, [r1, #8]
 831:Drivers/STM32F4xx_HAL_Driver/Src/stm32f4xx_ll_usb.c ****       USBx_OUTEP(epnum)->DOEPTSIZ |= (USB_OTG_DOEPTSIZ_PKTCNT & (1U << 19));
 2116              		.loc 1 831 35 view .LVU701
 2117 008e 1D69     		ldr	r5, [r3, #16]
 831:Drivers/STM32F4xx_HAL_Driver/Src/stm32f4xx_ll_usb.c ****       USBx_OUTEP(epnum)->DOEPTSIZ |= (USB_OTG_DOEPTSIZ_PKTCNT & (1U << 19));
 2118              		.loc 1 831 63 view .LVU702
 2119 0090 C4F31204 		ubfx	r4, r4, #0, #19
 831:Drivers/STM32F4xx_HAL_Driver/Src/stm32f4xx_ll_usb.c ****       USBx_OUTEP(epnum)->DOEPTSIZ |= (USB_OTG_DOEPTSIZ_PKTCNT & (1U << 19));
 2120              		.loc 1 831 35 view .LVU703
 2121 0094 2C43     		orrs	r4, r4, r5
 2122 0096 1C61     		str	r4, [r3, #16]
 832:Drivers/STM32F4xx_HAL_Driver/Src/stm32f4xx_ll_usb.c ****     }
 2123              		.loc 1 832 7 is_stmt 1 view .LVU704
 832:Drivers/STM32F4xx_HAL_Driver/Src/stm32f4xx_ll_usb.c ****     }
 2124              		.loc 1 832 35 is_stmt 0 view .LVU705
 2125 0098 1C69     		ldr	r4, [r3, #16]
 841:Drivers/STM32F4xx_HAL_Driver/Src/stm32f4xx_ll_usb.c ****     {
 2126              		.loc 1 841 8 view .LVU706
 2127 009a 012A     		cmp	r2, #1
 832:Drivers/STM32F4xx_HAL_Driver/Src/stm32f4xx_ll_usb.c ****     }
 2128              		.loc 1 832 35 view .LVU707
 2129 009c 44F40024 		orr	r4, r4, #524288
 2130 00a0 1C61     		str	r4, [r3, #16]
 841:Drivers/STM32F4xx_HAL_Driver/Src/stm32f4xx_ll_usb.c ****     {
 2131              		.loc 1 841 5 is_stmt 1 view .LVU708
 841:Drivers/STM32F4xx_HAL_Driver/Src/stm32f4xx_ll_usb.c ****     {
 2132              		.loc 1 841 8 is_stmt 0 view .LVU709
 2133 00a2 DAD1     		bne	.L179
 2134              	.L207:
 843:Drivers/STM32F4xx_HAL_Driver/Src/stm32f4xx_ll_usb.c ****       {
 2135              		.loc 1 843 7 is_stmt 1 view .LVU710
 843:Drivers/STM32F4xx_HAL_Driver/Src/stm32f4xx_ll_usb.c ****       {
 2136              		.loc 1 843 23 is_stmt 0 view .LVU711
 2137 00a4 CA68     		ldr	r2, [r1, #12]
 2138              	.LVL136:
 843:Drivers/STM32F4xx_HAL_Driver/Src/stm32f4xx_ll_usb.c ****       {
 2139              		.loc 1 843 10 view .LVU712
 2140 00a6 002A     		cmp	r2, #0
 2141 00a8 D7D0     		beq	.L179
 845:Drivers/STM32F4xx_HAL_Driver/Src/stm32f4xx_ll_usb.c ****       }
 2142              		.loc 1 845 9 is_stmt 1 view .LVU713
 845:Drivers/STM32F4xx_HAL_Driver/Src/stm32f4xx_ll_usb.c ****       }
 2143              		.loc 1 845 36 is_stmt 0 view .LVU714
 2144 00aa 5A61     		str	r2, [r3, #20]
 2145 00ac D5E7     		b	.L179
 2146              	.LVL137:
 2147              	.L205:
 743:Drivers/STM32F4xx_HAL_Driver/Src/stm32f4xx_ll_usb.c ****     {
 2148              		.loc 1 743 5 is_stmt 1 view .LVU715
 743:Drivers/STM32F4xx_HAL_Driver/Src/stm32f4xx_ll_usb.c ****     {
 2149              		.loc 1 743 11 is_stmt 0 view .LVU716
ARM GAS  /tmp/ccTCOTTa.s 			page 75


 2150 00ae 4E69     		ldr	r6, [r1, #20]
 745:Drivers/STM32F4xx_HAL_Driver/Src/stm32f4xx_ll_usb.c ****       USBx_INEP(epnum)->DIEPTSIZ |= (USB_OTG_DIEPTSIZ_PKTCNT & (1U << 19));
 2151              		.loc 1 745 34 view .LVU717
 2152 00b0 00EB4C15 		add	r5, r0, ip, lsl #5
 743:Drivers/STM32F4xx_HAL_Driver/Src/stm32f4xx_ll_usb.c ****     {
 2153              		.loc 1 743 8 view .LVU718
 2154 00b4 DEB3     		cbz	r6, .L208
 756:Drivers/STM32F4xx_HAL_Driver/Src/stm32f4xx_ll_usb.c ****       USBx_INEP(epnum)->DIEPTSIZ &= ~(USB_OTG_DIEPTSIZ_PKTCNT);
 2155              		.loc 1 756 7 is_stmt 1 view .LVU719
 756:Drivers/STM32F4xx_HAL_Driver/Src/stm32f4xx_ll_usb.c ****       USBx_INEP(epnum)->DIEPTSIZ &= ~(USB_OTG_DIEPTSIZ_PKTCNT);
 2156              		.loc 1 756 34 is_stmt 0 view .LVU720
 2157 00b6 D5F81039 		ldr	r3, [r5, #2320]
 759:Drivers/STM32F4xx_HAL_Driver/Src/stm32f4xx_ll_usb.c **** 
 2158              		.loc 1 759 58 view .LVU721
 2159 00ba 8F68     		ldr	r7, [r1, #8]
 756:Drivers/STM32F4xx_HAL_Driver/Src/stm32f4xx_ll_usb.c ****       USBx_INEP(epnum)->DIEPTSIZ &= ~(USB_OTG_DIEPTSIZ_PKTCNT);
 2160              		.loc 1 756 34 view .LVU722
 2161 00bc DB0C     		lsrs	r3, r3, #19
 2162 00be DB04     		lsls	r3, r3, #19
 2163 00c0 C5F81039 		str	r3, [r5, #2320]
 757:Drivers/STM32F4xx_HAL_Driver/Src/stm32f4xx_ll_usb.c ****       USBx_INEP(epnum)->DIEPTSIZ |= (USB_OTG_DIEPTSIZ_PKTCNT &
 2164              		.loc 1 757 7 is_stmt 1 view .LVU723
 757:Drivers/STM32F4xx_HAL_Driver/Src/stm32f4xx_ll_usb.c ****       USBx_INEP(epnum)->DIEPTSIZ |= (USB_OTG_DIEPTSIZ_PKTCNT &
 2165              		.loc 1 757 34 is_stmt 0 view .LVU724
 2166 00c4 D5F81039 		ldr	r3, [r5, #2320]
 2167 00c8 23F0FF53 		bic	r3, r3, #534773760
 2168 00cc 23F4C013 		bic	r3, r3, #1572864
 2169 00d0 C5F81039 		str	r3, [r5, #2320]
 758:Drivers/STM32F4xx_HAL_Driver/Src/stm32f4xx_ll_usb.c ****                                      (((ep->xfer_len + ep->maxpacket - 1U) / ep->maxpacket) << 19))
 2170              		.loc 1 758 7 is_stmt 1 view .LVU725
 758:Drivers/STM32F4xx_HAL_Driver/Src/stm32f4xx_ll_usb.c ****                                      (((ep->xfer_len + ep->maxpacket - 1U) / ep->maxpacket) << 19))
 2171              		.loc 1 758 62 is_stmt 0 view .LVU726
 2172 00d4 4F4B     		ldr	r3, .L213
 758:Drivers/STM32F4xx_HAL_Driver/Src/stm32f4xx_ll_usb.c ****                                      (((ep->xfer_len + ep->maxpacket - 1U) / ep->maxpacket) << 19))
 2173              		.loc 1 758 34 view .LVU727
 2174 00d6 D5F81089 		ldr	r8, [r5, #2320]
 759:Drivers/STM32F4xx_HAL_Driver/Src/stm32f4xx_ll_usb.c **** 
 2175              		.loc 1 759 54 view .LVU728
 2176 00da 06EB070E 		add	lr, r6, r7
 759:Drivers/STM32F4xx_HAL_Driver/Src/stm32f4xx_ll_usb.c **** 
 2177              		.loc 1 759 70 view .LVU729
 2178 00de 0EF1FF3E 		add	lr, lr, #-1
 759:Drivers/STM32F4xx_HAL_Driver/Src/stm32f4xx_ll_usb.c **** 
 2179              		.loc 1 759 76 view .LVU730
 2180 00e2 BEFBF7FE 		udiv	lr, lr, r7
 758:Drivers/STM32F4xx_HAL_Driver/Src/stm32f4xx_ll_usb.c ****                                      (((ep->xfer_len + ep->maxpacket - 1U) / ep->maxpacket) << 19))
 2181              		.loc 1 758 62 view .LVU731
 2182 00e6 03EACE43 		and	r3, r3, lr, lsl #19
 758:Drivers/STM32F4xx_HAL_Driver/Src/stm32f4xx_ll_usb.c ****                                      (((ep->xfer_len + ep->maxpacket - 1U) / ep->maxpacket) << 19))
 2183              		.loc 1 758 34 view .LVU732
 2184 00ea 43EA0803 		orr	r3, r3, r8
 2185 00ee C5F81039 		str	r3, [r5, #2320]
 761:Drivers/STM32F4xx_HAL_Driver/Src/stm32f4xx_ll_usb.c **** 
 2186              		.loc 1 761 7 is_stmt 1 view .LVU733
 761:Drivers/STM32F4xx_HAL_Driver/Src/stm32f4xx_ll_usb.c **** 
 2187              		.loc 1 761 34 is_stmt 0 view .LVU734
 2188 00f2 D5F81079 		ldr	r7, [r5, #2320]
ARM GAS  /tmp/ccTCOTTa.s 			page 76


 761:Drivers/STM32F4xx_HAL_Driver/Src/stm32f4xx_ll_usb.c **** 
 2189              		.loc 1 761 62 view .LVU735
 2190 00f6 C6F31203 		ubfx	r3, r6, #0, #19
 761:Drivers/STM32F4xx_HAL_Driver/Src/stm32f4xx_ll_usb.c **** 
 2191              		.loc 1 761 34 view .LVU736
 2192 00fa 3B43     		orrs	r3, r3, r7
 2193 00fc C5F81039 		str	r3, [r5, #2320]
 763:Drivers/STM32F4xx_HAL_Driver/Src/stm32f4xx_ll_usb.c ****       {
 2194              		.loc 1 763 7 is_stmt 1 view .LVU737
 763:Drivers/STM32F4xx_HAL_Driver/Src/stm32f4xx_ll_usb.c ****       {
 2195              		.loc 1 763 13 is_stmt 0 view .LVU738
 2196 0100 CF78     		ldrb	r7, [r1, #3]	@ zero_extendqisi2
 763:Drivers/STM32F4xx_HAL_Driver/Src/stm32f4xx_ll_usb.c ****       {
 2197              		.loc 1 763 10 view .LVU739
 2198 0102 012F     		cmp	r7, #1
 756:Drivers/STM32F4xx_HAL_Driver/Src/stm32f4xx_ll_usb.c ****       USBx_INEP(epnum)->DIEPTSIZ &= ~(USB_OTG_DIEPTSIZ_PKTCNT);
 2199              		.loc 1 756 34 view .LVU740
 2200 0104 05F51063 		add	r3, r5, #2304
 763:Drivers/STM32F4xx_HAL_Driver/Src/stm32f4xx_ll_usb.c ****       {
 2201              		.loc 1 763 10 view .LVU741
 2202 0108 53D0     		beq	.L209
 770:Drivers/STM32F4xx_HAL_Driver/Src/stm32f4xx_ll_usb.c ****     {
 2203              		.loc 1 770 5 is_stmt 1 view .LVU742
 770:Drivers/STM32F4xx_HAL_Driver/Src/stm32f4xx_ll_usb.c ****     {
 2204              		.loc 1 770 8 is_stmt 0 view .LVU743
 2205 010a 012A     		cmp	r2, #1
 2206 010c 6DD0     		beq	.L210
 795:Drivers/STM32F4xx_HAL_Driver/Src/stm32f4xx_ll_usb.c **** 
 2207              		.loc 1 795 7 is_stmt 1 view .LVU744
 795:Drivers/STM32F4xx_HAL_Driver/Src/stm32f4xx_ll_usb.c **** 
 2208              		.loc 1 795 33 is_stmt 0 view .LVU745
 2209 010e D5F80039 		ldr	r3, [r5, #2304]
 2210 0112 43F00443 		orr	r3, r3, #-2080374784
 2211 0116 C5F80039 		str	r3, [r5, #2304]
 797:Drivers/STM32F4xx_HAL_Driver/Src/stm32f4xx_ll_usb.c ****       {
 2212              		.loc 1 797 7 is_stmt 1 view .LVU746
 802:Drivers/STM32F4xx_HAL_Driver/Src/stm32f4xx_ll_usb.c ****         }
 2213              		.loc 1 802 11 view .LVU747
 802:Drivers/STM32F4xx_HAL_Driver/Src/stm32f4xx_ll_usb.c ****         }
 2214              		.loc 1 802 35 is_stmt 0 view .LVU748
 2215 011a D0F83438 		ldr	r3, [r0, #2100]
 802:Drivers/STM32F4xx_HAL_Driver/Src/stm32f4xx_ll_usb.c ****         }
 2216              		.loc 1 802 54 view .LVU749
 2217 011e 0CF00F0C 		and	ip, ip, #15
 2218              	.LVL138:
 802:Drivers/STM32F4xx_HAL_Driver/Src/stm32f4xx_ll_usb.c ****         }
 2219              		.loc 1 802 42 view .LVU750
 2220 0122 04FA0CF4 		lsl	r4, r4, ip
 802:Drivers/STM32F4xx_HAL_Driver/Src/stm32f4xx_ll_usb.c ****         }
 2221              		.loc 1 802 35 view .LVU751
 2222 0126 1C43     		orrs	r4, r4, r3
 2223 0128 C0F83448 		str	r4, [r0, #2100]
 864:Drivers/STM32F4xx_HAL_Driver/Src/stm32f4xx_ll_usb.c **** }
 2224              		.loc 1 864 3 is_stmt 1 view .LVU752
 864:Drivers/STM32F4xx_HAL_Driver/Src/stm32f4xx_ll_usb.c **** }
 2225              		.loc 1 864 10 is_stmt 0 view .LVU753
 2226 012c ABE7     		b	.L195
ARM GAS  /tmp/ccTCOTTa.s 			page 77


 2227              	.LVL139:
 2228              	.L208:
 745:Drivers/STM32F4xx_HAL_Driver/Src/stm32f4xx_ll_usb.c ****       USBx_INEP(epnum)->DIEPTSIZ |= (USB_OTG_DIEPTSIZ_PKTCNT & (1U << 19));
 2229              		.loc 1 745 7 is_stmt 1 view .LVU754
 745:Drivers/STM32F4xx_HAL_Driver/Src/stm32f4xx_ll_usb.c ****       USBx_INEP(epnum)->DIEPTSIZ |= (USB_OTG_DIEPTSIZ_PKTCNT & (1U << 19));
 2230              		.loc 1 745 34 is_stmt 0 view .LVU755
 2231 012e D5F81049 		ldr	r4, [r5, #2320]
 2232 0132 24F0FF54 		bic	r4, r4, #534773760
 2233 0136 24F4C014 		bic	r4, r4, #1572864
 2234 013a C5F81049 		str	r4, [r5, #2320]
 746:Drivers/STM32F4xx_HAL_Driver/Src/stm32f4xx_ll_usb.c ****       USBx_INEP(epnum)->DIEPTSIZ &= ~(USB_OTG_DIEPTSIZ_XFRSIZ);
 2235              		.loc 1 746 7 is_stmt 1 view .LVU756
 746:Drivers/STM32F4xx_HAL_Driver/Src/stm32f4xx_ll_usb.c ****       USBx_INEP(epnum)->DIEPTSIZ &= ~(USB_OTG_DIEPTSIZ_XFRSIZ);
 2236              		.loc 1 746 34 is_stmt 0 view .LVU757
 2237 013e D5F81049 		ldr	r4, [r5, #2320]
 2238 0142 44F40024 		orr	r4, r4, #524288
 2239 0146 C5F81049 		str	r4, [r5, #2320]
 747:Drivers/STM32F4xx_HAL_Driver/Src/stm32f4xx_ll_usb.c ****     }
 2240              		.loc 1 747 7 is_stmt 1 view .LVU758
 747:Drivers/STM32F4xx_HAL_Driver/Src/stm32f4xx_ll_usb.c ****     }
 2241              		.loc 1 747 34 is_stmt 0 view .LVU759
 2242 014a D5F81049 		ldr	r4, [r5, #2320]
 2243 014e E40C     		lsrs	r4, r4, #19
 2244 0150 E404     		lsls	r4, r4, #19
 2245 0152 C5F81049 		str	r4, [r5, #2320]
 770:Drivers/STM32F4xx_HAL_Driver/Src/stm32f4xx_ll_usb.c ****     {
 2246              		.loc 1 770 8 view .LVU760
 2247 0156 012A     		cmp	r2, #1
 745:Drivers/STM32F4xx_HAL_Driver/Src/stm32f4xx_ll_usb.c ****       USBx_INEP(epnum)->DIEPTSIZ |= (USB_OTG_DIEPTSIZ_PKTCNT & (1U << 19));
 2248              		.loc 1 745 34 view .LVU761
 2249 0158 05F51063 		add	r3, r5, #2304
 763:Drivers/STM32F4xx_HAL_Driver/Src/stm32f4xx_ll_usb.c ****       {
 2250              		.loc 1 763 13 view .LVU762
 2251 015c CF78     		ldrb	r7, [r1, #3]	@ zero_extendqisi2
 770:Drivers/STM32F4xx_HAL_Driver/Src/stm32f4xx_ll_usb.c ****     {
 2252              		.loc 1 770 5 is_stmt 1 view .LVU763
 770:Drivers/STM32F4xx_HAL_Driver/Src/stm32f4xx_ll_usb.c ****     {
 2253              		.loc 1 770 8 is_stmt 0 view .LVU764
 2254 015e 39D0     		beq	.L211
 795:Drivers/STM32F4xx_HAL_Driver/Src/stm32f4xx_ll_usb.c **** 
 2255              		.loc 1 795 7 is_stmt 1 view .LVU765
 795:Drivers/STM32F4xx_HAL_Driver/Src/stm32f4xx_ll_usb.c **** 
 2256              		.loc 1 795 33 is_stmt 0 view .LVU766
 2257 0160 D5F80049 		ldr	r4, [r5, #2304]
 797:Drivers/STM32F4xx_HAL_Driver/Src/stm32f4xx_ll_usb.c ****       {
 2258              		.loc 1 797 10 view .LVU767
 2259 0164 012F     		cmp	r7, #1
 795:Drivers/STM32F4xx_HAL_Driver/Src/stm32f4xx_ll_usb.c **** 
 2260              		.loc 1 795 33 view .LVU768
 2261 0166 44F00444 		orr	r4, r4, #-2080374784
 2262 016a C5F80049 		str	r4, [r5, #2304]
 797:Drivers/STM32F4xx_HAL_Driver/Src/stm32f4xx_ll_usb.c ****       {
 2263              		.loc 1 797 7 is_stmt 1 view .LVU769
 797:Drivers/STM32F4xx_HAL_Driver/Src/stm32f4xx_ll_usb.c ****       {
 2264              		.loc 1 797 10 is_stmt 0 view .LVU770
 2265 016e 8AD1     		bne	.L195
 2266              	.L172:
ARM GAS  /tmp/ccTCOTTa.s 			page 78


 807:Drivers/STM32F4xx_HAL_Driver/Src/stm32f4xx_ll_usb.c ****         {
 2267              		.loc 1 807 9 is_stmt 1 view .LVU771
 807:Drivers/STM32F4xx_HAL_Driver/Src/stm32f4xx_ll_usb.c ****         {
 2268              		.loc 1 807 25 is_stmt 0 view .LVU772
 2269 0170 D0F80848 		ldr	r4, [r0, #2056]
 807:Drivers/STM32F4xx_HAL_Driver/Src/stm32f4xx_ll_usb.c ****         {
 2270              		.loc 1 807 12 view .LVU773
 2271 0174 14F4807F 		tst	r4, #256
 809:Drivers/STM32F4xx_HAL_Driver/Src/stm32f4xx_ll_usb.c ****         }
 2272              		.loc 1 809 37 view .LVU774
 2273 0178 1C68     		ldr	r4, [r3]
 809:Drivers/STM32F4xx_HAL_Driver/Src/stm32f4xx_ll_usb.c ****         }
 2274              		.loc 1 809 11 is_stmt 1 view .LVU775
 809:Drivers/STM32F4xx_HAL_Driver/Src/stm32f4xx_ll_usb.c ****         }
 2275              		.loc 1 809 37 is_stmt 0 view .LVU776
 2276 017a 0CBF     		ite	eq
 2277 017c 44F00054 		orreq	r4, r4, #536870912
 813:Drivers/STM32F4xx_HAL_Driver/Src/stm32f4xx_ll_usb.c ****         }
 2278              		.loc 1 813 11 is_stmt 1 view .LVU777
 816:Drivers/STM32F4xx_HAL_Driver/Src/stm32f4xx_ll_usb.c ****       }
 2279              		.loc 1 816 9 view .LVU778
 2280              	.LVL140:
 2281              	.LBB58:
 2282              	.LBI58:
 977:Drivers/STM32F4xx_HAL_Driver/Src/stm32f4xx_ll_usb.c ****                                   uint8_t ch_ep_num, uint16_t len, uint8_t dma)
 2283              		.loc 1 977 19 view .LVU779
 2284              	.LBB59:
 980:Drivers/STM32F4xx_HAL_Driver/Src/stm32f4xx_ll_usb.c ****   uint8_t *pSrc = src;
 2285              		.loc 1 980 3 view .LVU780
 981:Drivers/STM32F4xx_HAL_Driver/Src/stm32f4xx_ll_usb.c ****   uint32_t count32b;
 2286              		.loc 1 981 3 view .LVU781
 982:Drivers/STM32F4xx_HAL_Driver/Src/stm32f4xx_ll_usb.c ****   uint32_t i;
 2287              		.loc 1 982 3 view .LVU782
 983:Drivers/STM32F4xx_HAL_Driver/Src/stm32f4xx_ll_usb.c **** 
 2288              		.loc 1 983 3 view .LVU783
 985:Drivers/STM32F4xx_HAL_Driver/Src/stm32f4xx_ll_usb.c ****   {
 2289              		.loc 1 985 3 view .LVU784
 2290              	.LBE59:
 2291              	.LBE58:
 813:Drivers/STM32F4xx_HAL_Driver/Src/stm32f4xx_ll_usb.c ****         }
 2292              		.loc 1 813 37 is_stmt 0 view .LVU785
 2293 0180 44F08054 		orrne	r4, r4, #268435456
 2294 0184 1C60     		str	r4, [r3]
 2295              	.LBB62:
 2296              	.LBB60:
 985:Drivers/STM32F4xx_HAL_Driver/Src/stm32f4xx_ll_usb.c ****   {
 2297              		.loc 1 985 6 view .LVU786
 2298 0186 002A     		cmp	r2, #0
 2299 0188 7FF47DAF 		bne	.L195
 987:Drivers/STM32F4xx_HAL_Driver/Src/stm32f4xx_ll_usb.c ****     for (i = 0U; i < count32b; i++)
 2300              		.loc 1 987 5 is_stmt 1 view .LVU787
 987:Drivers/STM32F4xx_HAL_Driver/Src/stm32f4xx_ll_usb.c ****     for (i = 0U; i < count32b; i++)
 2301              		.loc 1 987 31 is_stmt 0 view .LVU788
 2302 018c B6B2     		uxth	r6, r6
 987:Drivers/STM32F4xx_HAL_Driver/Src/stm32f4xx_ll_usb.c ****     for (i = 0U; i < count32b; i++)
 2303              		.loc 1 987 31 view .LVU789
 2304 018e 0336     		adds	r6, r6, #3
ARM GAS  /tmp/ccTCOTTa.s 			page 79


 2305              	.LVL141:
 988:Drivers/STM32F4xx_HAL_Driver/Src/stm32f4xx_ll_usb.c ****     {
 2306              		.loc 1 988 5 is_stmt 1 view .LVU790
 988:Drivers/STM32F4xx_HAL_Driver/Src/stm32f4xx_ll_usb.c ****     {
 2307              		.loc 1 988 18 view .LVU791
 988:Drivers/STM32F4xx_HAL_Driver/Src/stm32f4xx_ll_usb.c ****     {
 2308              		.loc 1 988 5 is_stmt 0 view .LVU792
 2309 0190 B608     		lsrs	r6, r6, #2
 2310              	.LVL142:
 988:Drivers/STM32F4xx_HAL_Driver/Src/stm32f4xx_ll_usb.c ****     {
 2311              		.loc 1 988 5 view .LVU793
 2312 0192 3FF478AF 		beq	.L195
 2313              	.LBE60:
 2314              	.LBE62:
 816:Drivers/STM32F4xx_HAL_Driver/Src/stm32f4xx_ll_usb.c ****       }
 2315              		.loc 1 816 15 view .LVU794
 2316 0196 CB68     		ldr	r3, [r1, #12]
 2317              	.LBB63:
 2318              	.LBB61:
 990:Drivers/STM32F4xx_HAL_Driver/Src/stm32f4xx_ll_usb.c ****       pSrc++;
 2319              		.loc 1 990 7 view .LVU795
 2320 0198 00EB0C3C 		add	ip, r0, ip, lsl #12
 2321              	.LVL143:
 990:Drivers/STM32F4xx_HAL_Driver/Src/stm32f4xx_ll_usb.c ****       pSrc++;
 2322              		.loc 1 990 7 view .LVU796
 2323 019c 0CF5805C 		add	ip, ip, #4096
 2324 01a0 03EB8601 		add	r1, r3, r6, lsl #2
 2325              	.LVL144:
 2326              	.L176:
 990:Drivers/STM32F4xx_HAL_Driver/Src/stm32f4xx_ll_usb.c ****       pSrc++;
 2327              		.loc 1 990 7 is_stmt 1 view .LVU797
 990:Drivers/STM32F4xx_HAL_Driver/Src/stm32f4xx_ll_usb.c ****       pSrc++;
 2328              		.loc 1 990 41 is_stmt 0 view .LVU798
 2329 01a4 53F8042B 		ldr	r2, [r3], #4	@ unaligned
 2330              	.LVL145:
 990:Drivers/STM32F4xx_HAL_Driver/Src/stm32f4xx_ll_usb.c ****       pSrc++;
 2331              		.loc 1 990 39 view .LVU799
 2332 01a8 CCF80020 		str	r2, [ip]
 991:Drivers/STM32F4xx_HAL_Driver/Src/stm32f4xx_ll_usb.c ****       pSrc++;
 2333              		.loc 1 991 7 is_stmt 1 view .LVU800
 2334              	.LVL146:
 992:Drivers/STM32F4xx_HAL_Driver/Src/stm32f4xx_ll_usb.c ****       pSrc++;
 2335              		.loc 1 992 7 view .LVU801
 993:Drivers/STM32F4xx_HAL_Driver/Src/stm32f4xx_ll_usb.c ****       pSrc++;
 2336              		.loc 1 993 7 view .LVU802
 994:Drivers/STM32F4xx_HAL_Driver/Src/stm32f4xx_ll_usb.c ****     }
 2337              		.loc 1 994 7 view .LVU803
 988:Drivers/STM32F4xx_HAL_Driver/Src/stm32f4xx_ll_usb.c ****     {
 2338              		.loc 1 988 32 view .LVU804
 988:Drivers/STM32F4xx_HAL_Driver/Src/stm32f4xx_ll_usb.c ****     {
 2339              		.loc 1 988 18 view .LVU805
 988:Drivers/STM32F4xx_HAL_Driver/Src/stm32f4xx_ll_usb.c ****     {
 2340              		.loc 1 988 5 is_stmt 0 view .LVU806
 2341 01ac 8B42     		cmp	r3, r1
 2342 01ae F9D1     		bne	.L176
 2343 01b0 69E7     		b	.L195
 2344              	.LVL147:
ARM GAS  /tmp/ccTCOTTa.s 			page 80


 2345              	.L209:
 988:Drivers/STM32F4xx_HAL_Driver/Src/stm32f4xx_ll_usb.c ****     {
 2346              		.loc 1 988 5 view .LVU807
 2347              	.LBE61:
 2348              	.LBE63:
 765:Drivers/STM32F4xx_HAL_Driver/Src/stm32f4xx_ll_usb.c ****         USBx_INEP(epnum)->DIEPTSIZ |= (USB_OTG_DIEPTSIZ_MULCNT & (1U << 29));
 2349              		.loc 1 765 9 is_stmt 1 view .LVU808
 765:Drivers/STM32F4xx_HAL_Driver/Src/stm32f4xx_ll_usb.c ****         USBx_INEP(epnum)->DIEPTSIZ |= (USB_OTG_DIEPTSIZ_MULCNT & (1U << 29));
 2350              		.loc 1 765 36 is_stmt 0 view .LVU809
 2351 01b2 1C69     		ldr	r4, [r3, #16]
 2352 01b4 24F0C044 		bic	r4, r4, #1610612736
 2353 01b8 1C61     		str	r4, [r3, #16]
 766:Drivers/STM32F4xx_HAL_Driver/Src/stm32f4xx_ll_usb.c ****       }
 2354              		.loc 1 766 9 is_stmt 1 view .LVU810
 766:Drivers/STM32F4xx_HAL_Driver/Src/stm32f4xx_ll_usb.c ****       }
 2355              		.loc 1 766 36 is_stmt 0 view .LVU811
 2356 01ba 1C69     		ldr	r4, [r3, #16]
 770:Drivers/STM32F4xx_HAL_Driver/Src/stm32f4xx_ll_usb.c ****     {
 2357              		.loc 1 770 8 view .LVU812
 2358 01bc 012A     		cmp	r2, #1
 766:Drivers/STM32F4xx_HAL_Driver/Src/stm32f4xx_ll_usb.c ****       }
 2359              		.loc 1 766 36 view .LVU813
 2360 01be 44F00054 		orr	r4, r4, #536870912
 2361 01c2 1C61     		str	r4, [r3, #16]
 770:Drivers/STM32F4xx_HAL_Driver/Src/stm32f4xx_ll_usb.c ****     {
 2362              		.loc 1 770 5 is_stmt 1 view .LVU814
 770:Drivers/STM32F4xx_HAL_Driver/Src/stm32f4xx_ll_usb.c ****     {
 2363              		.loc 1 770 8 is_stmt 0 view .LVU815
 2364 01c4 16D0     		beq	.L212
 795:Drivers/STM32F4xx_HAL_Driver/Src/stm32f4xx_ll_usb.c **** 
 2365              		.loc 1 795 7 is_stmt 1 view .LVU816
 795:Drivers/STM32F4xx_HAL_Driver/Src/stm32f4xx_ll_usb.c **** 
 2366              		.loc 1 795 33 is_stmt 0 view .LVU817
 2367 01c6 D5F80049 		ldr	r4, [r5, #2304]
 2368 01ca 44F00444 		orr	r4, r4, #-2080374784
 2369 01ce C5F80049 		str	r4, [r5, #2304]
 797:Drivers/STM32F4xx_HAL_Driver/Src/stm32f4xx_ll_usb.c ****       {
 2370              		.loc 1 797 7 is_stmt 1 view .LVU818
 2371 01d2 CDE7     		b	.L172
 2372              	.L211:
 772:Drivers/STM32F4xx_HAL_Driver/Src/stm32f4xx_ll_usb.c ****       {
 2373              		.loc 1 772 7 view .LVU819
 772:Drivers/STM32F4xx_HAL_Driver/Src/stm32f4xx_ll_usb.c ****       {
 2374              		.loc 1 772 23 is_stmt 0 view .LVU820
 2375 01d4 0A69     		ldr	r2, [r1, #16]
 2376              	.LVL148:
 772:Drivers/STM32F4xx_HAL_Driver/Src/stm32f4xx_ll_usb.c ****       {
 2377              		.loc 1 772 10 view .LVU821
 2378 01d6 5AB9     		cbnz	r2, .L184
 2379              	.L168:
 777:Drivers/STM32F4xx_HAL_Driver/Src/stm32f4xx_ll_usb.c ****       {
 2380              		.loc 1 777 7 is_stmt 1 view .LVU822
 777:Drivers/STM32F4xx_HAL_Driver/Src/stm32f4xx_ll_usb.c ****       {
 2381              		.loc 1 777 10 is_stmt 0 view .LVU823
 2382 01d8 012F     		cmp	r7, #1
 2383 01da 0ED0     		beq	.L185
 2384              	.L169:
ARM GAS  /tmp/ccTCOTTa.s 			page 81


 790:Drivers/STM32F4xx_HAL_Driver/Src/stm32f4xx_ll_usb.c ****     }
 2385              		.loc 1 790 7 is_stmt 1 view .LVU824
 790:Drivers/STM32F4xx_HAL_Driver/Src/stm32f4xx_ll_usb.c ****     }
 2386              		.loc 1 790 33 is_stmt 0 view .LVU825
 2387 01dc 1A68     		ldr	r2, [r3]
 2388 01de 42F00442 		orr	r2, r2, #-2080374784
 2389 01e2 1A60     		str	r2, [r3]
 865:Drivers/STM32F4xx_HAL_Driver/Src/stm32f4xx_ll_usb.c **** 
 2390              		.loc 1 865 1 view .LVU826
 2391 01e4 0020     		movs	r0, #0
 2392              	.LVL149:
 865:Drivers/STM32F4xx_HAL_Driver/Src/stm32f4xx_ll_usb.c **** 
 2393              		.loc 1 865 1 view .LVU827
 2394 01e6 BDE8F081 		pop	{r4, r5, r6, r7, r8, pc}
 2395              	.LVL150:
 2396              	.L210:
 772:Drivers/STM32F4xx_HAL_Driver/Src/stm32f4xx_ll_usb.c ****       {
 2397              		.loc 1 772 7 is_stmt 1 view .LVU828
 772:Drivers/STM32F4xx_HAL_Driver/Src/stm32f4xx_ll_usb.c ****       {
 2398              		.loc 1 772 23 is_stmt 0 view .LVU829
 2399 01ea 0A69     		ldr	r2, [r1, #16]
 2400              	.LVL151:
 772:Drivers/STM32F4xx_HAL_Driver/Src/stm32f4xx_ll_usb.c ****       {
 2401              		.loc 1 772 10 view .LVU830
 2402 01ec 002A     		cmp	r2, #0
 2403 01ee F5D0     		beq	.L169
 2404              	.L184:
 774:Drivers/STM32F4xx_HAL_Driver/Src/stm32f4xx_ll_usb.c ****       }
 2405              		.loc 1 774 9 is_stmt 1 view .LVU831
 774:Drivers/STM32F4xx_HAL_Driver/Src/stm32f4xx_ll_usb.c ****       }
 2406              		.loc 1 774 35 is_stmt 0 view .LVU832
 2407 01f0 5A61     		str	r2, [r3, #20]
 2408 01f2 F1E7     		b	.L168
 2409              	.LVL152:
 2410              	.L212:
 772:Drivers/STM32F4xx_HAL_Driver/Src/stm32f4xx_ll_usb.c ****       {
 2411              		.loc 1 772 7 is_stmt 1 view .LVU833
 772:Drivers/STM32F4xx_HAL_Driver/Src/stm32f4xx_ll_usb.c ****       {
 2412              		.loc 1 772 23 is_stmt 0 view .LVU834
 2413 01f4 0A69     		ldr	r2, [r1, #16]
 2414              	.LVL153:
 772:Drivers/STM32F4xx_HAL_Driver/Src/stm32f4xx_ll_usb.c ****       {
 2415              		.loc 1 772 10 view .LVU835
 2416 01f6 002A     		cmp	r2, #0
 2417 01f8 FAD1     		bne	.L184
 2418              	.L185:
 779:Drivers/STM32F4xx_HAL_Driver/Src/stm32f4xx_ll_usb.c ****         {
 2419              		.loc 1 779 9 is_stmt 1 view .LVU836
 779:Drivers/STM32F4xx_HAL_Driver/Src/stm32f4xx_ll_usb.c ****         {
 2420              		.loc 1 779 25 is_stmt 0 view .LVU837
 2421 01fa D0F80828 		ldr	r2, [r0, #2056]
 779:Drivers/STM32F4xx_HAL_Driver/Src/stm32f4xx_ll_usb.c ****         {
 2422              		.loc 1 779 12 view .LVU838
 2423 01fe 12F4807F 		tst	r2, #256
 781:Drivers/STM32F4xx_HAL_Driver/Src/stm32f4xx_ll_usb.c ****         }
 2424              		.loc 1 781 37 view .LVU839
 2425 0202 1A68     		ldr	r2, [r3]
ARM GAS  /tmp/ccTCOTTa.s 			page 82


 781:Drivers/STM32F4xx_HAL_Driver/Src/stm32f4xx_ll_usb.c ****         }
 2426              		.loc 1 781 11 is_stmt 1 view .LVU840
 781:Drivers/STM32F4xx_HAL_Driver/Src/stm32f4xx_ll_usb.c ****         }
 2427              		.loc 1 781 37 is_stmt 0 view .LVU841
 2428 0204 0CBF     		ite	eq
 2429 0206 42F00052 		orreq	r2, r2, #536870912
 785:Drivers/STM32F4xx_HAL_Driver/Src/stm32f4xx_ll_usb.c ****         }
 2430              		.loc 1 785 11 is_stmt 1 view .LVU842
 785:Drivers/STM32F4xx_HAL_Driver/Src/stm32f4xx_ll_usb.c ****         }
 2431              		.loc 1 785 37 is_stmt 0 view .LVU843
 2432 020a 42F08052 		orrne	r2, r2, #268435456
 2433 020e 1A60     		str	r2, [r3]
 2434 0210 E4E7     		b	.L169
 2435              	.L214:
 2436 0212 00BF     		.align	2
 2437              	.L213:
 2438 0214 0000F81F 		.word	536346624
 2439              		.cfi_endproc
 2440              	.LFE144:
 2442              		.section	.text.USB_EP0StartXfer,"ax",%progbits
 2443              		.align	1
 2444              		.p2align 2,,3
 2445              		.global	USB_EP0StartXfer
 2446              		.syntax unified
 2447              		.thumb
 2448              		.thumb_func
 2450              	USB_EP0StartXfer:
 2451              	.LVL154:
 2452              	.LFB145:
 878:Drivers/STM32F4xx_HAL_Driver/Src/stm32f4xx_ll_usb.c ****   uint32_t USBx_BASE = (uint32_t)USBx;
 2453              		.loc 1 878 1 is_stmt 1 view -0
 2454              		.cfi_startproc
 2455              		@ args = 0, pretend = 0, frame = 0
 2456              		@ frame_needed = 0, uses_anonymous_args = 0
 2457              		@ link register save eliminated.
 879:Drivers/STM32F4xx_HAL_Driver/Src/stm32f4xx_ll_usb.c ****   uint32_t epnum = (uint32_t)ep->num;
 2458              		.loc 1 879 3 view .LVU845
 878:Drivers/STM32F4xx_HAL_Driver/Src/stm32f4xx_ll_usb.c ****   uint32_t USBx_BASE = (uint32_t)USBx;
 2459              		.loc 1 878 1 is_stmt 0 view .LVU846
 2460 0000 70B4     		push	{r4, r5, r6}
 2461              	.LCFI38:
 2462              		.cfi_def_cfa_offset 12
 2463              		.cfi_offset 4, -12
 2464              		.cfi_offset 5, -8
 2465              		.cfi_offset 6, -4
 883:Drivers/STM32F4xx_HAL_Driver/Src/stm32f4xx_ll_usb.c ****   {
 2466              		.loc 1 883 6 view .LVU847
 2467 0002 4B78     		ldrb	r3, [r1, #1]	@ zero_extendqisi2
 880:Drivers/STM32F4xx_HAL_Driver/Src/stm32f4xx_ll_usb.c **** 
 2468              		.loc 1 880 32 view .LVU848
 2469 0004 0C78     		ldrb	r4, [r1]	@ zero_extendqisi2
 2470              	.LVL155:
 880:Drivers/STM32F4xx_HAL_Driver/Src/stm32f4xx_ll_usb.c **** 
 2471              		.loc 1 880 3 is_stmt 1 view .LVU849
 883:Drivers/STM32F4xx_HAL_Driver/Src/stm32f4xx_ll_usb.c ****   {
 2472              		.loc 1 883 3 view .LVU850
 883:Drivers/STM32F4xx_HAL_Driver/Src/stm32f4xx_ll_usb.c ****   {
ARM GAS  /tmp/ccTCOTTa.s 			page 83


 2473              		.loc 1 883 6 is_stmt 0 view .LVU851
 2474 0006 012B     		cmp	r3, #1
 2475 0008 27D0     		beq	.L236
 938:Drivers/STM32F4xx_HAL_Driver/Src/stm32f4xx_ll_usb.c ****     USBx_OUTEP(epnum)->DOEPTSIZ &= ~(USB_OTG_DOEPTSIZ_PKTCNT);
 2476              		.loc 1 938 5 is_stmt 1 view .LVU852
 938:Drivers/STM32F4xx_HAL_Driver/Src/stm32f4xx_ll_usb.c ****     USBx_OUTEP(epnum)->DOEPTSIZ &= ~(USB_OTG_DOEPTSIZ_PKTCNT);
 2477              		.loc 1 938 33 is_stmt 0 view .LVU853
 2478 000a 00EB4410 		add	r0, r0, r4, lsl #5
 2479              	.LVL156:
 938:Drivers/STM32F4xx_HAL_Driver/Src/stm32f4xx_ll_usb.c ****     USBx_OUTEP(epnum)->DOEPTSIZ &= ~(USB_OTG_DOEPTSIZ_PKTCNT);
 2480              		.loc 1 938 33 view .LVU854
 2481 000e 00F53063 		add	r3, r0, #2816
 2482 0012 1C69     		ldr	r4, [r3, #16]
 2483              	.LVL157:
 938:Drivers/STM32F4xx_HAL_Driver/Src/stm32f4xx_ll_usb.c ****     USBx_OUTEP(epnum)->DOEPTSIZ &= ~(USB_OTG_DOEPTSIZ_PKTCNT);
 2484              		.loc 1 938 33 view .LVU855
 2485 0014 E40C     		lsrs	r4, r4, #19
 2486 0016 E404     		lsls	r4, r4, #19
 2487 0018 1C61     		str	r4, [r3, #16]
 2488              	.LVL158:
 939:Drivers/STM32F4xx_HAL_Driver/Src/stm32f4xx_ll_usb.c **** 
 2489              		.loc 1 939 5 is_stmt 1 view .LVU856
 939:Drivers/STM32F4xx_HAL_Driver/Src/stm32f4xx_ll_usb.c **** 
 2490              		.loc 1 939 33 is_stmt 0 view .LVU857
 2491 001a 1C69     		ldr	r4, [r3, #16]
 2492 001c 24F0FF54 		bic	r4, r4, #534773760
 2493 0020 24F4C014 		bic	r4, r4, #1572864
 2494 0024 1C61     		str	r4, [r3, #16]
 941:Drivers/STM32F4xx_HAL_Driver/Src/stm32f4xx_ll_usb.c ****     {
 2495              		.loc 1 941 5 is_stmt 1 view .LVU858
 941:Drivers/STM32F4xx_HAL_Driver/Src/stm32f4xx_ll_usb.c ****     {
 2496              		.loc 1 941 8 is_stmt 0 view .LVU859
 2497 0026 4C69     		ldr	r4, [r1, #20]
 2498 0028 A4B9     		cbnz	r4, .L223
 902:Drivers/STM32F4xx_HAL_Driver/Src/stm32f4xx_ll_usb.c ****       {
 2499              		.loc 1 902 28 view .LVU860
 2500 002a 8C68     		ldr	r4, [r1, #8]
 2501              	.L224:
 946:Drivers/STM32F4xx_HAL_Driver/Src/stm32f4xx_ll_usb.c ****     USBx_OUTEP(epnum)->DOEPTSIZ |= (USB_OTG_DOEPTSIZ_XFRSIZ & (ep->maxpacket));
 2502              		.loc 1 946 5 is_stmt 1 view .LVU861
 946:Drivers/STM32F4xx_HAL_Driver/Src/stm32f4xx_ll_usb.c ****     USBx_OUTEP(epnum)->DOEPTSIZ |= (USB_OTG_DOEPTSIZ_XFRSIZ & (ep->maxpacket));
 2503              		.loc 1 946 33 is_stmt 0 view .LVU862
 2504 002c 1D69     		ldr	r5, [r3, #16]
 2505 002e 45F40025 		orr	r5, r5, #524288
 2506 0032 1D61     		str	r5, [r3, #16]
 947:Drivers/STM32F4xx_HAL_Driver/Src/stm32f4xx_ll_usb.c **** 
 2507              		.loc 1 947 5 is_stmt 1 view .LVU863
 947:Drivers/STM32F4xx_HAL_Driver/Src/stm32f4xx_ll_usb.c **** 
 2508              		.loc 1 947 33 is_stmt 0 view .LVU864
 2509 0034 1D69     		ldr	r5, [r3, #16]
 947:Drivers/STM32F4xx_HAL_Driver/Src/stm32f4xx_ll_usb.c **** 
 2510              		.loc 1 947 61 view .LVU865
 2511 0036 C4F31204 		ubfx	r4, r4, #0, #19
 947:Drivers/STM32F4xx_HAL_Driver/Src/stm32f4xx_ll_usb.c **** 
 2512              		.loc 1 947 33 view .LVU866
 2513 003a 2C43     		orrs	r4, r4, r5
 949:Drivers/STM32F4xx_HAL_Driver/Src/stm32f4xx_ll_usb.c ****     {
ARM GAS  /tmp/ccTCOTTa.s 			page 84


 2514              		.loc 1 949 8 view .LVU867
 2515 003c 012A     		cmp	r2, #1
 947:Drivers/STM32F4xx_HAL_Driver/Src/stm32f4xx_ll_usb.c **** 
 2516              		.loc 1 947 33 view .LVU868
 2517 003e 1C61     		str	r4, [r3, #16]
 949:Drivers/STM32F4xx_HAL_Driver/Src/stm32f4xx_ll_usb.c ****     {
 2518              		.loc 1 949 5 is_stmt 1 view .LVU869
 949:Drivers/STM32F4xx_HAL_Driver/Src/stm32f4xx_ll_usb.c ****     {
 2519              		.loc 1 949 8 is_stmt 0 view .LVU870
 2520 0040 3FD0     		beq	.L237
 2521              	.LVL159:
 2522              	.L225:
 958:Drivers/STM32F4xx_HAL_Driver/Src/stm32f4xx_ll_usb.c ****   }
 2523              		.loc 1 958 5 is_stmt 1 view .LVU871
 958:Drivers/STM32F4xx_HAL_Driver/Src/stm32f4xx_ll_usb.c ****   }
 2524              		.loc 1 958 32 is_stmt 0 view .LVU872
 2525 0042 D0F8003B 		ldr	r3, [r0, #2816]
 2526 0046 43F00443 		orr	r3, r3, #-2080374784
 2527 004a C0F8003B 		str	r3, [r0, #2816]
 2528              	.LVL160:
 2529              	.L222:
 961:Drivers/STM32F4xx_HAL_Driver/Src/stm32f4xx_ll_usb.c **** }
 2530              		.loc 1 961 3 is_stmt 1 view .LVU873
 962:Drivers/STM32F4xx_HAL_Driver/Src/stm32f4xx_ll_usb.c **** 
 2531              		.loc 1 962 1 is_stmt 0 view .LVU874
 2532 004e 0020     		movs	r0, #0
 2533 0050 70BC     		pop	{r4, r5, r6}
 2534              	.LCFI39:
 2535              		.cfi_remember_state
 2536              		.cfi_restore 6
 2537              		.cfi_restore 5
 2538              		.cfi_restore 4
 2539              		.cfi_def_cfa_offset 0
 2540 0052 7047     		bx	lr
 2541              	.LVL161:
 2542              	.L223:
 2543              	.LCFI40:
 2544              		.cfi_restore_state
 943:Drivers/STM32F4xx_HAL_Driver/Src/stm32f4xx_ll_usb.c ****     }
 2545              		.loc 1 943 7 is_stmt 1 view .LVU875
 943:Drivers/STM32F4xx_HAL_Driver/Src/stm32f4xx_ll_usb.c ****     }
 2546              		.loc 1 943 24 is_stmt 0 view .LVU876
 2547 0054 8C68     		ldr	r4, [r1, #8]
 943:Drivers/STM32F4xx_HAL_Driver/Src/stm32f4xx_ll_usb.c ****     }
 2548              		.loc 1 943 20 view .LVU877
 2549 0056 4C61     		str	r4, [r1, #20]
 2550 0058 E8E7     		b	.L224
 2551              	.LVL162:
 2552              	.L236:
 886:Drivers/STM32F4xx_HAL_Driver/Src/stm32f4xx_ll_usb.c ****     {
 2553              		.loc 1 886 5 is_stmt 1 view .LVU878
 886:Drivers/STM32F4xx_HAL_Driver/Src/stm32f4xx_ll_usb.c ****     {
 2554              		.loc 1 886 11 is_stmt 0 view .LVU879
 2555 005a 4D69     		ldr	r5, [r1, #20]
 888:Drivers/STM32F4xx_HAL_Driver/Src/stm32f4xx_ll_usb.c ****       USBx_INEP(epnum)->DIEPTSIZ |= (USB_OTG_DIEPTSIZ_PKTCNT & (1U << 19));
 2556              		.loc 1 888 34 view .LVU880
 2557 005c 00EB4413 		add	r3, r0, r4, lsl #5
ARM GAS  /tmp/ccTCOTTa.s 			page 85


 2558 0060 03F51063 		add	r3, r3, #2304
 886:Drivers/STM32F4xx_HAL_Driver/Src/stm32f4xx_ll_usb.c ****     {
 2559              		.loc 1 886 8 view .LVU881
 2560 0064 002D     		cmp	r5, #0
 2561 0066 31D0     		beq	.L238
 899:Drivers/STM32F4xx_HAL_Driver/Src/stm32f4xx_ll_usb.c ****       USBx_INEP(epnum)->DIEPTSIZ &= ~(USB_OTG_DIEPTSIZ_PKTCNT);
 2562              		.loc 1 899 7 is_stmt 1 view .LVU882
 899:Drivers/STM32F4xx_HAL_Driver/Src/stm32f4xx_ll_usb.c ****       USBx_INEP(epnum)->DIEPTSIZ &= ~(USB_OTG_DIEPTSIZ_PKTCNT);
 2563              		.loc 1 899 34 is_stmt 0 view .LVU883
 2564 0068 1E69     		ldr	r6, [r3, #16]
 2565 006a F60C     		lsrs	r6, r6, #19
 2566 006c F604     		lsls	r6, r6, #19
 2567 006e 1E61     		str	r6, [r3, #16]
 900:Drivers/STM32F4xx_HAL_Driver/Src/stm32f4xx_ll_usb.c **** 
 2568              		.loc 1 900 7 is_stmt 1 view .LVU884
 900:Drivers/STM32F4xx_HAL_Driver/Src/stm32f4xx_ll_usb.c **** 
 2569              		.loc 1 900 34 is_stmt 0 view .LVU885
 2570 0070 1E69     		ldr	r6, [r3, #16]
 2571 0072 26F0FF56 		bic	r6, r6, #534773760
 2572 0076 26F4C016 		bic	r6, r6, #1572864
 2573 007a 1E61     		str	r6, [r3, #16]
 902:Drivers/STM32F4xx_HAL_Driver/Src/stm32f4xx_ll_usb.c ****       {
 2574              		.loc 1 902 7 is_stmt 1 view .LVU886
 902:Drivers/STM32F4xx_HAL_Driver/Src/stm32f4xx_ll_usb.c ****       {
 2575              		.loc 1 902 28 is_stmt 0 view .LVU887
 2576 007c 8E68     		ldr	r6, [r1, #8]
 902:Drivers/STM32F4xx_HAL_Driver/Src/stm32f4xx_ll_usb.c ****       {
 2577              		.loc 1 902 10 view .LVU888
 2578 007e B542     		cmp	r5, r6
 904:Drivers/STM32F4xx_HAL_Driver/Src/stm32f4xx_ll_usb.c ****       }
 2579              		.loc 1 904 9 is_stmt 1 view .LVU889
 904:Drivers/STM32F4xx_HAL_Driver/Src/stm32f4xx_ll_usb.c ****       }
 2580              		.loc 1 904 22 is_stmt 0 view .LVU890
 2581 0080 84BF     		itt	hi
 2582 0082 4E61     		strhi	r6, [r1, #20]
 2583 0084 3546     		movhi	r5, r6
 906:Drivers/STM32F4xx_HAL_Driver/Src/stm32f4xx_ll_usb.c ****       USBx_INEP(epnum)->DIEPTSIZ |= (USB_OTG_DIEPTSIZ_XFRSIZ & ep->xfer_len);
 2584              		.loc 1 906 7 is_stmt 1 view .LVU891
 906:Drivers/STM32F4xx_HAL_Driver/Src/stm32f4xx_ll_usb.c ****       USBx_INEP(epnum)->DIEPTSIZ |= (USB_OTG_DIEPTSIZ_XFRSIZ & ep->xfer_len);
 2585              		.loc 1 906 34 is_stmt 0 view .LVU892
 2586 0086 1E69     		ldr	r6, [r3, #16]
 2587 0088 46F40026 		orr	r6, r6, #524288
 2588 008c 1E61     		str	r6, [r3, #16]
 907:Drivers/STM32F4xx_HAL_Driver/Src/stm32f4xx_ll_usb.c ****     }
 2589              		.loc 1 907 7 is_stmt 1 view .LVU893
 907:Drivers/STM32F4xx_HAL_Driver/Src/stm32f4xx_ll_usb.c ****     }
 2590              		.loc 1 907 34 is_stmt 0 view .LVU894
 2591 008e 1E69     		ldr	r6, [r3, #16]
 907:Drivers/STM32F4xx_HAL_Driver/Src/stm32f4xx_ll_usb.c ****     }
 2592              		.loc 1 907 62 view .LVU895
 2593 0090 C5F31205 		ubfx	r5, r5, #0, #19
 907:Drivers/STM32F4xx_HAL_Driver/Src/stm32f4xx_ll_usb.c ****     }
 2594              		.loc 1 907 34 view .LVU896
 2595 0094 3543     		orrs	r5, r5, r6
 910:Drivers/STM32F4xx_HAL_Driver/Src/stm32f4xx_ll_usb.c ****     {
 2596              		.loc 1 910 8 view .LVU897
 2597 0096 012A     		cmp	r2, #1
ARM GAS  /tmp/ccTCOTTa.s 			page 86


 907:Drivers/STM32F4xx_HAL_Driver/Src/stm32f4xx_ll_usb.c ****     }
 2598              		.loc 1 907 34 view .LVU898
 2599 0098 1D61     		str	r5, [r3, #16]
 910:Drivers/STM32F4xx_HAL_Driver/Src/stm32f4xx_ll_usb.c ****     {
 2600              		.loc 1 910 5 is_stmt 1 view .LVU899
 910:Drivers/STM32F4xx_HAL_Driver/Src/stm32f4xx_ll_usb.c ****     {
 2601              		.loc 1 910 8 is_stmt 0 view .LVU900
 2602 009a 27D0     		beq	.L239
 2603              	.L220:
 923:Drivers/STM32F4xx_HAL_Driver/Src/stm32f4xx_ll_usb.c **** 
 2604              		.loc 1 923 7 is_stmt 1 view .LVU901
 923:Drivers/STM32F4xx_HAL_Driver/Src/stm32f4xx_ll_usb.c **** 
 2605              		.loc 1 923 33 is_stmt 0 view .LVU902
 2606 009c 1A68     		ldr	r2, [r3]
 2607              	.LVL163:
 926:Drivers/STM32F4xx_HAL_Driver/Src/stm32f4xx_ll_usb.c ****       {
 2608              		.loc 1 926 10 view .LVU903
 2609 009e 4969     		ldr	r1, [r1, #20]
 2610              	.LVL164:
 923:Drivers/STM32F4xx_HAL_Driver/Src/stm32f4xx_ll_usb.c **** 
 2611              		.loc 1 923 33 view .LVU904
 2612 00a0 42F00442 		orr	r2, r2, #-2080374784
 2613 00a4 1A60     		str	r2, [r3]
 926:Drivers/STM32F4xx_HAL_Driver/Src/stm32f4xx_ll_usb.c ****       {
 2614              		.loc 1 926 7 is_stmt 1 view .LVU905
 926:Drivers/STM32F4xx_HAL_Driver/Src/stm32f4xx_ll_usb.c ****       {
 2615              		.loc 1 926 10 is_stmt 0 view .LVU906
 2616 00a6 0029     		cmp	r1, #0
 2617 00a8 D1D0     		beq	.L222
 928:Drivers/STM32F4xx_HAL_Driver/Src/stm32f4xx_ll_usb.c ****       }
 2618              		.loc 1 928 9 is_stmt 1 view .LVU907
 928:Drivers/STM32F4xx_HAL_Driver/Src/stm32f4xx_ll_usb.c ****       }
 2619              		.loc 1 928 33 is_stmt 0 view .LVU908
 2620 00aa D0F83438 		ldr	r3, [r0, #2100]
 928:Drivers/STM32F4xx_HAL_Driver/Src/stm32f4xx_ll_usb.c ****       }
 2621              		.loc 1 928 52 view .LVU909
 2622 00ae 04F00F02 		and	r2, r4, #15
 928:Drivers/STM32F4xx_HAL_Driver/Src/stm32f4xx_ll_usb.c ****       }
 2623              		.loc 1 928 40 view .LVU910
 2624 00b2 0124     		movs	r4, #1
 2625              	.LVL165:
 928:Drivers/STM32F4xx_HAL_Driver/Src/stm32f4xx_ll_usb.c ****       }
 2626              		.loc 1 928 40 view .LVU911
 2627 00b4 9440     		lsls	r4, r4, r2
 928:Drivers/STM32F4xx_HAL_Driver/Src/stm32f4xx_ll_usb.c ****       }
 2628              		.loc 1 928 33 view .LVU912
 2629 00b6 1C43     		orrs	r4, r4, r3
 2630 00b8 C0F83448 		str	r4, [r0, #2100]
 961:Drivers/STM32F4xx_HAL_Driver/Src/stm32f4xx_ll_usb.c **** }
 2631              		.loc 1 961 3 is_stmt 1 view .LVU913
 962:Drivers/STM32F4xx_HAL_Driver/Src/stm32f4xx_ll_usb.c **** 
 2632              		.loc 1 962 1 is_stmt 0 view .LVU914
 2633 00bc 0020     		movs	r0, #0
 2634              	.LVL166:
 962:Drivers/STM32F4xx_HAL_Driver/Src/stm32f4xx_ll_usb.c **** 
 2635              		.loc 1 962 1 view .LVU915
 2636 00be 70BC     		pop	{r4, r5, r6}
ARM GAS  /tmp/ccTCOTTa.s 			page 87


 2637              	.LCFI41:
 2638              		.cfi_remember_state
 2639              		.cfi_restore 6
 2640              		.cfi_restore 5
 2641              		.cfi_restore 4
 2642              		.cfi_def_cfa_offset 0
 2643 00c0 7047     		bx	lr
 2644              	.LVL167:
 2645              	.L237:
 2646              	.LCFI42:
 2647              		.cfi_restore_state
 951:Drivers/STM32F4xx_HAL_Driver/Src/stm32f4xx_ll_usb.c ****       {
 2648              		.loc 1 951 7 is_stmt 1 view .LVU916
 951:Drivers/STM32F4xx_HAL_Driver/Src/stm32f4xx_ll_usb.c ****       {
 2649              		.loc 1 951 23 is_stmt 0 view .LVU917
 2650 00c2 CA68     		ldr	r2, [r1, #12]
 2651              	.LVL168:
 951:Drivers/STM32F4xx_HAL_Driver/Src/stm32f4xx_ll_usb.c ****       {
 2652              		.loc 1 951 10 view .LVU918
 2653 00c4 002A     		cmp	r2, #0
 2654 00c6 BCD0     		beq	.L225
 953:Drivers/STM32F4xx_HAL_Driver/Src/stm32f4xx_ll_usb.c ****       }
 2655              		.loc 1 953 9 is_stmt 1 view .LVU919
 953:Drivers/STM32F4xx_HAL_Driver/Src/stm32f4xx_ll_usb.c ****       }
 2656              		.loc 1 953 36 is_stmt 0 view .LVU920
 2657 00c8 5A61     		str	r2, [r3, #20]
 2658 00ca BAE7     		b	.L225
 2659              	.LVL169:
 2660              	.L238:
 888:Drivers/STM32F4xx_HAL_Driver/Src/stm32f4xx_ll_usb.c ****       USBx_INEP(epnum)->DIEPTSIZ |= (USB_OTG_DIEPTSIZ_PKTCNT & (1U << 19));
 2661              		.loc 1 888 7 is_stmt 1 view .LVU921
 888:Drivers/STM32F4xx_HAL_Driver/Src/stm32f4xx_ll_usb.c ****       USBx_INEP(epnum)->DIEPTSIZ |= (USB_OTG_DIEPTSIZ_PKTCNT & (1U << 19));
 2662              		.loc 1 888 34 is_stmt 0 view .LVU922
 2663 00cc 1D69     		ldr	r5, [r3, #16]
 2664 00ce 25F0FF55 		bic	r5, r5, #534773760
 2665 00d2 25F4C015 		bic	r5, r5, #1572864
 2666 00d6 1D61     		str	r5, [r3, #16]
 889:Drivers/STM32F4xx_HAL_Driver/Src/stm32f4xx_ll_usb.c ****       USBx_INEP(epnum)->DIEPTSIZ &= ~(USB_OTG_DIEPTSIZ_XFRSIZ);
 2667              		.loc 1 889 7 is_stmt 1 view .LVU923
 889:Drivers/STM32F4xx_HAL_Driver/Src/stm32f4xx_ll_usb.c ****       USBx_INEP(epnum)->DIEPTSIZ &= ~(USB_OTG_DIEPTSIZ_XFRSIZ);
 2668              		.loc 1 889 34 is_stmt 0 view .LVU924
 2669 00d8 1D69     		ldr	r5, [r3, #16]
 2670 00da 45F40025 		orr	r5, r5, #524288
 2671 00de 1D61     		str	r5, [r3, #16]
 890:Drivers/STM32F4xx_HAL_Driver/Src/stm32f4xx_ll_usb.c ****     }
 2672              		.loc 1 890 7 is_stmt 1 view .LVU925
 890:Drivers/STM32F4xx_HAL_Driver/Src/stm32f4xx_ll_usb.c ****     }
 2673              		.loc 1 890 34 is_stmt 0 view .LVU926
 2674 00e0 1D69     		ldr	r5, [r3, #16]
 2675 00e2 ED0C     		lsrs	r5, r5, #19
 2676 00e4 ED04     		lsls	r5, r5, #19
 910:Drivers/STM32F4xx_HAL_Driver/Src/stm32f4xx_ll_usb.c ****     {
 2677              		.loc 1 910 8 view .LVU927
 2678 00e6 012A     		cmp	r2, #1
 890:Drivers/STM32F4xx_HAL_Driver/Src/stm32f4xx_ll_usb.c ****     }
 2679              		.loc 1 890 34 view .LVU928
 2680 00e8 1D61     		str	r5, [r3, #16]
ARM GAS  /tmp/ccTCOTTa.s 			page 88


 910:Drivers/STM32F4xx_HAL_Driver/Src/stm32f4xx_ll_usb.c ****     {
 2681              		.loc 1 910 5 is_stmt 1 view .LVU929
 910:Drivers/STM32F4xx_HAL_Driver/Src/stm32f4xx_ll_usb.c ****     {
 2682              		.loc 1 910 8 is_stmt 0 view .LVU930
 2683 00ea D7D1     		bne	.L220
 2684              	.L239:
 912:Drivers/STM32F4xx_HAL_Driver/Src/stm32f4xx_ll_usb.c ****       {
 2685              		.loc 1 912 7 is_stmt 1 view .LVU931
 912:Drivers/STM32F4xx_HAL_Driver/Src/stm32f4xx_ll_usb.c ****       {
 2686              		.loc 1 912 23 is_stmt 0 view .LVU932
 2687 00ec 0A69     		ldr	r2, [r1, #16]
 2688              	.LVL170:
 912:Drivers/STM32F4xx_HAL_Driver/Src/stm32f4xx_ll_usb.c ****       {
 2689              		.loc 1 912 10 view .LVU933
 2690 00ee 02B1     		cbz	r2, .L221
 914:Drivers/STM32F4xx_HAL_Driver/Src/stm32f4xx_ll_usb.c ****       }
 2691              		.loc 1 914 9 is_stmt 1 view .LVU934
 914:Drivers/STM32F4xx_HAL_Driver/Src/stm32f4xx_ll_usb.c ****       }
 2692              		.loc 1 914 35 is_stmt 0 view .LVU935
 2693 00f0 5A61     		str	r2, [r3, #20]
 2694              	.L221:
 918:Drivers/STM32F4xx_HAL_Driver/Src/stm32f4xx_ll_usb.c ****     }
 2695              		.loc 1 918 7 is_stmt 1 view .LVU936
 918:Drivers/STM32F4xx_HAL_Driver/Src/stm32f4xx_ll_usb.c ****     }
 2696              		.loc 1 918 33 is_stmt 0 view .LVU937
 2697 00f2 1A68     		ldr	r2, [r3]
 2698 00f4 42F00442 		orr	r2, r2, #-2080374784
 962:Drivers/STM32F4xx_HAL_Driver/Src/stm32f4xx_ll_usb.c **** 
 2699              		.loc 1 962 1 view .LVU938
 2700 00f8 0020     		movs	r0, #0
 2701              	.LVL171:
 962:Drivers/STM32F4xx_HAL_Driver/Src/stm32f4xx_ll_usb.c **** 
 2702              		.loc 1 962 1 view .LVU939
 2703 00fa 70BC     		pop	{r4, r5, r6}
 2704              	.LCFI43:
 2705              		.cfi_restore 6
 2706              		.cfi_restore 5
 2707              		.cfi_restore 4
 2708              		.cfi_def_cfa_offset 0
 2709              	.LVL172:
 918:Drivers/STM32F4xx_HAL_Driver/Src/stm32f4xx_ll_usb.c ****     }
 2710              		.loc 1 918 33 view .LVU940
 2711 00fc 1A60     		str	r2, [r3]
 961:Drivers/STM32F4xx_HAL_Driver/Src/stm32f4xx_ll_usb.c **** }
 2712              		.loc 1 961 3 is_stmt 1 view .LVU941
 962:Drivers/STM32F4xx_HAL_Driver/Src/stm32f4xx_ll_usb.c **** 
 2713              		.loc 1 962 1 is_stmt 0 view .LVU942
 2714 00fe 7047     		bx	lr
 2715              		.cfi_endproc
 2716              	.LFE145:
 2718              		.section	.text.USB_WritePacket,"ax",%progbits
 2719              		.align	1
 2720              		.p2align 2,,3
 2721              		.global	USB_WritePacket
 2722              		.syntax unified
 2723              		.thumb
 2724              		.thumb_func
ARM GAS  /tmp/ccTCOTTa.s 			page 89


 2726              	USB_WritePacket:
 2727              	.LVL173:
 2728              	.LFB146:
 979:Drivers/STM32F4xx_HAL_Driver/Src/stm32f4xx_ll_usb.c ****   uint32_t USBx_BASE = (uint32_t)USBx;
 2729              		.loc 1 979 1 is_stmt 1 view -0
 2730              		.cfi_startproc
 2731              		@ args = 4, pretend = 0, frame = 0
 2732              		@ frame_needed = 0, uses_anonymous_args = 0
 2733              		@ link register save eliminated.
 980:Drivers/STM32F4xx_HAL_Driver/Src/stm32f4xx_ll_usb.c ****   uint8_t *pSrc = src;
 2734              		.loc 1 980 3 view .LVU944
 979:Drivers/STM32F4xx_HAL_Driver/Src/stm32f4xx_ll_usb.c ****   uint32_t USBx_BASE = (uint32_t)USBx;
 2735              		.loc 1 979 1 is_stmt 0 view .LVU945
 2736 0000 10B4     		push	{r4}
 2737              	.LCFI44:
 2738              		.cfi_def_cfa_offset 4
 2739              		.cfi_offset 4, -4
 979:Drivers/STM32F4xx_HAL_Driver/Src/stm32f4xx_ll_usb.c ****   uint32_t USBx_BASE = (uint32_t)USBx;
 2740              		.loc 1 979 1 view .LVU946
 2741 0002 9DF80440 		ldrb	r4, [sp, #4]	@ zero_extendqisi2
 2742              	.LVL174:
 981:Drivers/STM32F4xx_HAL_Driver/Src/stm32f4xx_ll_usb.c ****   uint32_t count32b;
 2743              		.loc 1 981 3 is_stmt 1 view .LVU947
 982:Drivers/STM32F4xx_HAL_Driver/Src/stm32f4xx_ll_usb.c ****   uint32_t i;
 2744              		.loc 1 982 3 view .LVU948
 983:Drivers/STM32F4xx_HAL_Driver/Src/stm32f4xx_ll_usb.c **** 
 2745              		.loc 1 983 3 view .LVU949
 985:Drivers/STM32F4xx_HAL_Driver/Src/stm32f4xx_ll_usb.c ****   {
 2746              		.loc 1 985 3 view .LVU950
 985:Drivers/STM32F4xx_HAL_Driver/Src/stm32f4xx_ll_usb.c ****   {
 2747              		.loc 1 985 6 is_stmt 0 view .LVU951
 2748 0006 64B9     		cbnz	r4, .L241
 987:Drivers/STM32F4xx_HAL_Driver/Src/stm32f4xx_ll_usb.c ****     for (i = 0U; i < count32b; i++)
 2749              		.loc 1 987 5 is_stmt 1 view .LVU952
 987:Drivers/STM32F4xx_HAL_Driver/Src/stm32f4xx_ll_usb.c ****     for (i = 0U; i < count32b; i++)
 2750              		.loc 1 987 31 is_stmt 0 view .LVU953
 2751 0008 0333     		adds	r3, r3, #3
 2752              	.LVL175:
 988:Drivers/STM32F4xx_HAL_Driver/Src/stm32f4xx_ll_usb.c ****     {
 2753              		.loc 1 988 5 is_stmt 1 view .LVU954
 988:Drivers/STM32F4xx_HAL_Driver/Src/stm32f4xx_ll_usb.c ****     {
 2754              		.loc 1 988 18 view .LVU955
 988:Drivers/STM32F4xx_HAL_Driver/Src/stm32f4xx_ll_usb.c ****     {
 2755              		.loc 1 988 5 is_stmt 0 view .LVU956
 2756 000a 9B08     		lsrs	r3, r3, #2
 2757              	.LVL176:
 988:Drivers/STM32F4xx_HAL_Driver/Src/stm32f4xx_ll_usb.c ****     {
 2758              		.loc 1 988 5 view .LVU957
 2759 000c 09D0     		beq	.L241
 990:Drivers/STM32F4xx_HAL_Driver/Src/stm32f4xx_ll_usb.c ****       pSrc++;
 2760              		.loc 1 990 7 view .LVU958
 2761 000e 0132     		adds	r2, r2, #1
 2762              	.LVL177:
 990:Drivers/STM32F4xx_HAL_Driver/Src/stm32f4xx_ll_usb.c ****       pSrc++;
 2763              		.loc 1 990 7 view .LVU959
 2764 0010 00EB0230 		add	r0, r0, r2, lsl #12
 2765              	.LVL178:
ARM GAS  /tmp/ccTCOTTa.s 			page 90


 990:Drivers/STM32F4xx_HAL_Driver/Src/stm32f4xx_ll_usb.c ****       pSrc++;
 2766              		.loc 1 990 7 view .LVU960
 2767 0014 01EB8303 		add	r3, r1, r3, lsl #2
 2768              	.LVL179:
 2769              	.L242:
 990:Drivers/STM32F4xx_HAL_Driver/Src/stm32f4xx_ll_usb.c ****       pSrc++;
 2770              		.loc 1 990 7 is_stmt 1 discriminator 3 view .LVU961
 990:Drivers/STM32F4xx_HAL_Driver/Src/stm32f4xx_ll_usb.c ****       pSrc++;
 2771              		.loc 1 990 41 is_stmt 0 discriminator 3 view .LVU962
 2772 0018 51F8042B 		ldr	r2, [r1], #4	@ unaligned
 2773              	.LVL180:
 990:Drivers/STM32F4xx_HAL_Driver/Src/stm32f4xx_ll_usb.c ****       pSrc++;
 2774              		.loc 1 990 39 discriminator 3 view .LVU963
 2775 001c 0260     		str	r2, [r0]
 991:Drivers/STM32F4xx_HAL_Driver/Src/stm32f4xx_ll_usb.c ****       pSrc++;
 2776              		.loc 1 991 7 is_stmt 1 discriminator 3 view .LVU964
 2777              	.LVL181:
 992:Drivers/STM32F4xx_HAL_Driver/Src/stm32f4xx_ll_usb.c ****       pSrc++;
 2778              		.loc 1 992 7 discriminator 3 view .LVU965
 993:Drivers/STM32F4xx_HAL_Driver/Src/stm32f4xx_ll_usb.c ****       pSrc++;
 2779              		.loc 1 993 7 discriminator 3 view .LVU966
 994:Drivers/STM32F4xx_HAL_Driver/Src/stm32f4xx_ll_usb.c ****     }
 2780              		.loc 1 994 7 discriminator 3 view .LVU967
 988:Drivers/STM32F4xx_HAL_Driver/Src/stm32f4xx_ll_usb.c ****     {
 2781              		.loc 1 988 32 discriminator 3 view .LVU968
 988:Drivers/STM32F4xx_HAL_Driver/Src/stm32f4xx_ll_usb.c ****     {
 2782              		.loc 1 988 18 discriminator 3 view .LVU969
 988:Drivers/STM32F4xx_HAL_Driver/Src/stm32f4xx_ll_usb.c ****     {
 2783              		.loc 1 988 5 is_stmt 0 discriminator 3 view .LVU970
 2784 001e 8B42     		cmp	r3, r1
 2785 0020 FAD1     		bne	.L242
 2786              	.L241:
 998:Drivers/STM32F4xx_HAL_Driver/Src/stm32f4xx_ll_usb.c **** }
 2787              		.loc 1 998 3 is_stmt 1 view .LVU971
 999:Drivers/STM32F4xx_HAL_Driver/Src/stm32f4xx_ll_usb.c **** 
 2788              		.loc 1 999 1 is_stmt 0 view .LVU972
 2789 0022 0020     		movs	r0, #0
 2790 0024 5DF8044B 		ldr	r4, [sp], #4
 2791              	.LCFI45:
 2792              		.cfi_restore 4
 2793              		.cfi_def_cfa_offset 0
 2794              	.LVL182:
 999:Drivers/STM32F4xx_HAL_Driver/Src/stm32f4xx_ll_usb.c **** 
 2795              		.loc 1 999 1 view .LVU973
 2796 0028 7047     		bx	lr
 2797              		.cfi_endproc
 2798              	.LFE146:
 2800 002a 00BF     		.section	.text.USB_ReadPacket,"ax",%progbits
 2801              		.align	1
 2802              		.p2align 2,,3
 2803              		.global	USB_ReadPacket
 2804              		.syntax unified
 2805              		.thumb
 2806              		.thumb_func
 2808              	USB_ReadPacket:
 2809              	.LVL183:
 2810              	.LFB147:
ARM GAS  /tmp/ccTCOTTa.s 			page 91


1009:Drivers/STM32F4xx_HAL_Driver/Src/stm32f4xx_ll_usb.c ****   uint32_t USBx_BASE = (uint32_t)USBx;
 2811              		.loc 1 1009 1 is_stmt 1 view -0
 2812              		.cfi_startproc
 2813              		@ args = 0, pretend = 0, frame = 0
 2814              		@ frame_needed = 0, uses_anonymous_args = 0
1010:Drivers/STM32F4xx_HAL_Driver/Src/stm32f4xx_ll_usb.c ****   uint8_t *pDest = dest;
 2815              		.loc 1 1010 3 view .LVU975
1017:Drivers/STM32F4xx_HAL_Driver/Src/stm32f4xx_ll_usb.c ****   {
 2816              		.loc 1 1017 3 is_stmt 0 view .LVU976
 2817 0000 5FEA920C 		lsrs	ip, r2, #2
1009:Drivers/STM32F4xx_HAL_Driver/Src/stm32f4xx_ll_usb.c ****   uint32_t USBx_BASE = (uint32_t)USBx;
 2818              		.loc 1 1009 1 view .LVU977
 2819 0004 70B5     		push	{r4, r5, r6, lr}
 2820              	.LCFI46:
 2821              		.cfi_def_cfa_offset 16
 2822              		.cfi_offset 4, -16
 2823              		.cfi_offset 5, -12
 2824              		.cfi_offset 6, -8
 2825              		.cfi_offset 14, -4
1009:Drivers/STM32F4xx_HAL_Driver/Src/stm32f4xx_ll_usb.c ****   uint32_t USBx_BASE = (uint32_t)USBx;
 2826              		.loc 1 1009 1 view .LVU978
 2827 0006 0546     		mov	r5, r0
 2828              	.LVL184:
1011:Drivers/STM32F4xx_HAL_Driver/Src/stm32f4xx_ll_usb.c ****   uint32_t pData;
 2829              		.loc 1 1011 3 is_stmt 1 view .LVU979
1012:Drivers/STM32F4xx_HAL_Driver/Src/stm32f4xx_ll_usb.c ****   uint32_t i;
 2830              		.loc 1 1012 3 view .LVU980
1013:Drivers/STM32F4xx_HAL_Driver/Src/stm32f4xx_ll_usb.c ****   uint32_t count32b = (uint32_t)len >> 2U;
 2831              		.loc 1 1013 3 view .LVU981
1014:Drivers/STM32F4xx_HAL_Driver/Src/stm32f4xx_ll_usb.c ****   uint16_t remaining_bytes = len % 4U;
 2832              		.loc 1 1014 3 view .LVU982
1015:Drivers/STM32F4xx_HAL_Driver/Src/stm32f4xx_ll_usb.c **** 
 2833              		.loc 1 1015 3 view .LVU983
1015:Drivers/STM32F4xx_HAL_Driver/Src/stm32f4xx_ll_usb.c **** 
 2834              		.loc 1 1015 12 is_stmt 0 view .LVU984
 2835 0008 02F00306 		and	r6, r2, #3
 2836              	.LVL185:
1017:Drivers/STM32F4xx_HAL_Driver/Src/stm32f4xx_ll_usb.c ****   {
 2837              		.loc 1 1017 3 is_stmt 1 view .LVU985
1017:Drivers/STM32F4xx_HAL_Driver/Src/stm32f4xx_ll_usb.c ****   {
 2838              		.loc 1 1017 16 view .LVU986
1017:Drivers/STM32F4xx_HAL_Driver/Src/stm32f4xx_ll_usb.c ****   {
 2839              		.loc 1 1017 3 is_stmt 0 view .LVU987
 2840 000c 1BD0     		beq	.L253
1030:Drivers/STM32F4xx_HAL_Driver/Src/stm32f4xx_ll_usb.c **** 
 2841              		.loc 1 1030 5 view .LVU988
 2842 000e 00F5805E 		add	lr, r0, #4096
1011:Drivers/STM32F4xx_HAL_Driver/Src/stm32f4xx_ll_usb.c ****   uint32_t pData;
 2843              		.loc 1 1011 12 view .LVU989
 2844 0012 0A46     		mov	r2, r1
 2845              	.LVL186:
1017:Drivers/STM32F4xx_HAL_Driver/Src/stm32f4xx_ll_usb.c ****   {
 2846              		.loc 1 1017 10 view .LVU990
 2847 0014 0023     		movs	r3, #0
 2848              	.LVL187:
 2849              	.L250:
1019:Drivers/STM32F4xx_HAL_Driver/Src/stm32f4xx_ll_usb.c ****     pDest++;
ARM GAS  /tmp/ccTCOTTa.s 			page 92


 2850              		.loc 1 1019 5 is_stmt 1 discriminator 3 view .LVU991
1017:Drivers/STM32F4xx_HAL_Driver/Src/stm32f4xx_ll_usb.c ****   {
 2851              		.loc 1 1017 31 is_stmt 0 discriminator 3 view .LVU992
 2852 0016 0133     		adds	r3, r3, #1
 2853              	.LVL188:
1019:Drivers/STM32F4xx_HAL_Driver/Src/stm32f4xx_ll_usb.c ****     pDest++;
 2854              		.loc 1 1019 5 discriminator 3 view .LVU993
 2855 0018 DEF80040 		ldr	r4, [lr]
 2856 001c 42F8044B 		str	r4, [r2], #4	@ unaligned
 2857              	.LVL189:
1020:Drivers/STM32F4xx_HAL_Driver/Src/stm32f4xx_ll_usb.c ****     pDest++;
 2858              		.loc 1 1020 5 is_stmt 1 discriminator 3 view .LVU994
1021:Drivers/STM32F4xx_HAL_Driver/Src/stm32f4xx_ll_usb.c ****     pDest++;
 2859              		.loc 1 1021 5 discriminator 3 view .LVU995
1022:Drivers/STM32F4xx_HAL_Driver/Src/stm32f4xx_ll_usb.c ****     pDest++;
 2860              		.loc 1 1022 5 discriminator 3 view .LVU996
1023:Drivers/STM32F4xx_HAL_Driver/Src/stm32f4xx_ll_usb.c ****   }
 2861              		.loc 1 1023 5 discriminator 3 view .LVU997
1017:Drivers/STM32F4xx_HAL_Driver/Src/stm32f4xx_ll_usb.c ****   {
 2862              		.loc 1 1017 30 discriminator 3 view .LVU998
1017:Drivers/STM32F4xx_HAL_Driver/Src/stm32f4xx_ll_usb.c ****   {
 2863              		.loc 1 1017 16 discriminator 3 view .LVU999
1017:Drivers/STM32F4xx_HAL_Driver/Src/stm32f4xx_ll_usb.c ****   {
 2864              		.loc 1 1017 3 is_stmt 0 discriminator 3 view .LVU1000
 2865 0020 9C45     		cmp	ip, r3
 2866 0022 F8D1     		bne	.L250
1023:Drivers/STM32F4xx_HAL_Driver/Src/stm32f4xx_ll_usb.c ****   }
 2867              		.loc 1 1023 10 view .LVU1001
 2868 0024 01EB8C00 		add	r0, r1, ip, lsl #2
 2869              	.LVL190:
 2870              	.L249:
1027:Drivers/STM32F4xx_HAL_Driver/Src/stm32f4xx_ll_usb.c ****   {
 2871              		.loc 1 1027 3 is_stmt 1 view .LVU1002
1027:Drivers/STM32F4xx_HAL_Driver/Src/stm32f4xx_ll_usb.c ****   {
 2872              		.loc 1 1027 6 is_stmt 0 view .LVU1003
 2873 0028 66B1     		cbz	r6, .L248
1029:Drivers/STM32F4xx_HAL_Driver/Src/stm32f4xx_ll_usb.c ****     __UNALIGNED_UINT32_WRITE(&pData, USBx_DFIFO(0U));
 2874              		.loc 1 1029 5 is_stmt 1 view .LVU1004
 2875              	.LVL191:
1030:Drivers/STM32F4xx_HAL_Driver/Src/stm32f4xx_ll_usb.c **** 
 2876              		.loc 1 1030 5 view .LVU1005
 2877 002a 05F58055 		add	r5, r5, #4096
 2878              	.LVL192:
1030:Drivers/STM32F4xx_HAL_Driver/Src/stm32f4xx_ll_usb.c **** 
 2879              		.loc 1 1030 5 is_stmt 0 view .LVU1006
 2880 002e 0644     		add	r6, r6, r0
 2881              	.LVL193:
1030:Drivers/STM32F4xx_HAL_Driver/Src/stm32f4xx_ll_usb.c **** 
 2882              		.loc 1 1030 5 view .LVU1007
 2883 0030 2968     		ldr	r1, [r5]
 2884              	.LVL194:
1030:Drivers/STM32F4xx_HAL_Driver/Src/stm32f4xx_ll_usb.c **** 
 2885              		.loc 1 1030 5 view .LVU1008
 2886 0032 0023     		movs	r3, #0
 2887              	.LVL195:
 2888              	.L252:
1032:Drivers/STM32F4xx_HAL_Driver/Src/stm32f4xx_ll_usb.c ****     {
ARM GAS  /tmp/ccTCOTTa.s 			page 93


 2889              		.loc 1 1032 5 is_stmt 1 discriminator 1 view .LVU1009
1034:Drivers/STM32F4xx_HAL_Driver/Src/stm32f4xx_ll_usb.c ****       i++;
 2890              		.loc 1 1034 7 discriminator 1 view .LVU1010
1034:Drivers/STM32F4xx_HAL_Driver/Src/stm32f4xx_ll_usb.c ****       i++;
 2891              		.loc 1 1034 43 is_stmt 0 discriminator 1 view .LVU1011
 2892 0034 21FA03F2 		lsr	r2, r1, r3
1034:Drivers/STM32F4xx_HAL_Driver/Src/stm32f4xx_ll_usb.c ****       i++;
 2893              		.loc 1 1034 27 discriminator 1 view .LVU1012
 2894 0038 00F8012B 		strb	r2, [r0], #1
 2895              	.LVL196:
1035:Drivers/STM32F4xx_HAL_Driver/Src/stm32f4xx_ll_usb.c ****       pDest++;
 2896              		.loc 1 1035 7 is_stmt 1 discriminator 1 view .LVU1013
1036:Drivers/STM32F4xx_HAL_Driver/Src/stm32f4xx_ll_usb.c ****       remaining_bytes--;
 2897              		.loc 1 1036 7 discriminator 1 view .LVU1014
1037:Drivers/STM32F4xx_HAL_Driver/Src/stm32f4xx_ll_usb.c ****     } while (remaining_bytes != 0U);
 2898              		.loc 1 1037 7 discriminator 1 view .LVU1015
1038:Drivers/STM32F4xx_HAL_Driver/Src/stm32f4xx_ll_usb.c ****   }
 2899              		.loc 1 1038 13 discriminator 1 view .LVU1016
1038:Drivers/STM32F4xx_HAL_Driver/Src/stm32f4xx_ll_usb.c ****   }
 2900              		.loc 1 1038 5 is_stmt 0 discriminator 1 view .LVU1017
 2901 003c B042     		cmp	r0, r6
 2902 003e 03F10803 		add	r3, r3, #8
 2903 0042 F7D1     		bne	.L252
 2904              	.LVL197:
 2905              	.L248:
1042:Drivers/STM32F4xx_HAL_Driver/Src/stm32f4xx_ll_usb.c **** 
 2906              		.loc 1 1042 1 view .LVU1018
 2907 0044 70BD     		pop	{r4, r5, r6, pc}
 2908              	.LVL198:
 2909              	.L253:
1011:Drivers/STM32F4xx_HAL_Driver/Src/stm32f4xx_ll_usb.c ****   uint32_t pData;
 2910              		.loc 1 1011 12 view .LVU1019
 2911 0046 0846     		mov	r0, r1
 2912              	.LVL199:
1011:Drivers/STM32F4xx_HAL_Driver/Src/stm32f4xx_ll_usb.c ****   uint32_t pData;
 2913              		.loc 1 1011 12 view .LVU1020
 2914 0048 EEE7     		b	.L249
 2915              		.cfi_endproc
 2916              	.LFE147:
 2918 004a 00BF     		.section	.text.USB_EPSetStall,"ax",%progbits
 2919              		.align	1
 2920              		.p2align 2,,3
 2921              		.global	USB_EPSetStall
 2922              		.syntax unified
 2923              		.thumb
 2924              		.thumb_func
 2926              	USB_EPSetStall:
 2927              	.LVL200:
 2928              	.LFB148:
1051:Drivers/STM32F4xx_HAL_Driver/Src/stm32f4xx_ll_usb.c ****   uint32_t USBx_BASE = (uint32_t)USBx;
 2929              		.loc 1 1051 1 is_stmt 1 view -0
 2930              		.cfi_startproc
 2931              		@ args = 0, pretend = 0, frame = 0
 2932              		@ frame_needed = 0, uses_anonymous_args = 0
 2933              		@ link register save eliminated.
1052:Drivers/STM32F4xx_HAL_Driver/Src/stm32f4xx_ll_usb.c ****   uint32_t epnum = (uint32_t)ep->num;
 2934              		.loc 1 1052 3 view .LVU1022
ARM GAS  /tmp/ccTCOTTa.s 			page 94


1055:Drivers/STM32F4xx_HAL_Driver/Src/stm32f4xx_ll_usb.c ****   {
 2935              		.loc 1 1055 6 is_stmt 0 view .LVU1023
 2936 0000 4A78     		ldrb	r2, [r1, #1]	@ zero_extendqisi2
1053:Drivers/STM32F4xx_HAL_Driver/Src/stm32f4xx_ll_usb.c **** 
 2937              		.loc 1 1053 32 view .LVU1024
 2938 0002 0B78     		ldrb	r3, [r1]	@ zero_extendqisi2
 2939              	.LVL201:
1053:Drivers/STM32F4xx_HAL_Driver/Src/stm32f4xx_ll_usb.c **** 
 2940              		.loc 1 1053 3 is_stmt 1 view .LVU1025
1055:Drivers/STM32F4xx_HAL_Driver/Src/stm32f4xx_ll_usb.c ****   {
 2941              		.loc 1 1055 3 view .LVU1026
1055:Drivers/STM32F4xx_HAL_Driver/Src/stm32f4xx_ll_usb.c ****   {
 2942              		.loc 1 1055 6 is_stmt 0 view .LVU1027
 2943 0004 012A     		cmp	r2, #1
1057:Drivers/STM32F4xx_HAL_Driver/Src/stm32f4xx_ll_usb.c ****     {
 2944              		.loc 1 1057 11 view .LVU1028
 2945 0006 00EB4310 		add	r0, r0, r3, lsl #5
 2946              	.LVL202:
1055:Drivers/STM32F4xx_HAL_Driver/Src/stm32f4xx_ll_usb.c ****   {
 2947              		.loc 1 1055 6 view .LVU1029
 2948 000a 0CD0     		beq	.L271
1065:Drivers/STM32F4xx_HAL_Driver/Src/stm32f4xx_ll_usb.c ****     {
 2949              		.loc 1 1065 5 is_stmt 1 view .LVU1030
1065:Drivers/STM32F4xx_HAL_Driver/Src/stm32f4xx_ll_usb.c ****     {
 2950              		.loc 1 1065 28 is_stmt 0 view .LVU1031
 2951 000c D0F8002B 		ldr	r2, [r0, #2816]
1065:Drivers/STM32F4xx_HAL_Driver/Src/stm32f4xx_ll_usb.c ****     {
 2952              		.loc 1 1065 8 view .LVU1032
 2953 0010 002A     		cmp	r2, #0
 2954 0012 00DB     		blt	.L264
1065:Drivers/STM32F4xx_HAL_Driver/Src/stm32f4xx_ll_usb.c ****     {
 2955              		.loc 1 1065 70 discriminator 1 view .LVU1033
 2956 0014 D3B9     		cbnz	r3, .L272
 2957              	.LVL203:
 2958              	.L264:
1069:Drivers/STM32F4xx_HAL_Driver/Src/stm32f4xx_ll_usb.c ****   }
 2959              		.loc 1 1069 5 is_stmt 1 view .LVU1034
1069:Drivers/STM32F4xx_HAL_Driver/Src/stm32f4xx_ll_usb.c ****   }
 2960              		.loc 1 1069 32 is_stmt 0 view .LVU1035
 2961 0016 D0F8003B 		ldr	r3, [r0, #2816]
 2962 001a 43F40013 		orr	r3, r3, #2097152
 2963 001e C0F8003B 		str	r3, [r0, #2816]
1072:Drivers/STM32F4xx_HAL_Driver/Src/stm32f4xx_ll_usb.c **** }
 2964              		.loc 1 1072 3 is_stmt 1 view .LVU1036
1073:Drivers/STM32F4xx_HAL_Driver/Src/stm32f4xx_ll_usb.c **** 
 2965              		.loc 1 1073 1 is_stmt 0 view .LVU1037
 2966 0022 0020     		movs	r0, #0
 2967 0024 7047     		bx	lr
 2968              	.LVL204:
 2969              	.L271:
1057:Drivers/STM32F4xx_HAL_Driver/Src/stm32f4xx_ll_usb.c ****     {
 2970              		.loc 1 1057 5 is_stmt 1 view .LVU1038
1057:Drivers/STM32F4xx_HAL_Driver/Src/stm32f4xx_ll_usb.c ****     {
 2971              		.loc 1 1057 27 is_stmt 0 view .LVU1039
 2972 0026 D0F80029 		ldr	r2, [r0, #2304]
1057:Drivers/STM32F4xx_HAL_Driver/Src/stm32f4xx_ll_usb.c ****     {
 2973              		.loc 1 1057 8 view .LVU1040
ARM GAS  /tmp/ccTCOTTa.s 			page 95


 2974 002a 002A     		cmp	r2, #0
 2975 002c 06DB     		blt	.L262
1057:Drivers/STM32F4xx_HAL_Driver/Src/stm32f4xx_ll_usb.c ****     {
 2976              		.loc 1 1057 69 discriminator 1 view .LVU1041
 2977 002e 2BB1     		cbz	r3, .L262
1059:Drivers/STM32F4xx_HAL_Driver/Src/stm32f4xx_ll_usb.c ****     }
 2978              		.loc 1 1059 7 is_stmt 1 view .LVU1042
1059:Drivers/STM32F4xx_HAL_Driver/Src/stm32f4xx_ll_usb.c ****     }
 2979              		.loc 1 1059 33 is_stmt 0 view .LVU1043
 2980 0030 D0F80039 		ldr	r3, [r0, #2304]
 2981              	.LVL205:
1059:Drivers/STM32F4xx_HAL_Driver/Src/stm32f4xx_ll_usb.c ****     }
 2982              		.loc 1 1059 33 view .LVU1044
 2983 0034 23F08043 		bic	r3, r3, #1073741824
 2984 0038 C0F80039 		str	r3, [r0, #2304]
 2985              	.LVL206:
 2986              	.L262:
1061:Drivers/STM32F4xx_HAL_Driver/Src/stm32f4xx_ll_usb.c ****   }
 2987              		.loc 1 1061 5 is_stmt 1 view .LVU1045
1061:Drivers/STM32F4xx_HAL_Driver/Src/stm32f4xx_ll_usb.c ****   }
 2988              		.loc 1 1061 31 is_stmt 0 view .LVU1046
 2989 003c D0F80039 		ldr	r3, [r0, #2304]
 2990 0040 43F40013 		orr	r3, r3, #2097152
 2991 0044 C0F80039 		str	r3, [r0, #2304]
1072:Drivers/STM32F4xx_HAL_Driver/Src/stm32f4xx_ll_usb.c **** }
 2992              		.loc 1 1072 3 is_stmt 1 view .LVU1047
1073:Drivers/STM32F4xx_HAL_Driver/Src/stm32f4xx_ll_usb.c **** 
 2993              		.loc 1 1073 1 is_stmt 0 view .LVU1048
 2994 0048 0020     		movs	r0, #0
 2995 004a 7047     		bx	lr
 2996              	.LVL207:
 2997              	.L272:
1067:Drivers/STM32F4xx_HAL_Driver/Src/stm32f4xx_ll_usb.c ****     }
 2998              		.loc 1 1067 7 is_stmt 1 view .LVU1049
1067:Drivers/STM32F4xx_HAL_Driver/Src/stm32f4xx_ll_usb.c ****     }
 2999              		.loc 1 1067 34 is_stmt 0 view .LVU1050
 3000 004c D0F8003B 		ldr	r3, [r0, #2816]
 3001              	.LVL208:
1067:Drivers/STM32F4xx_HAL_Driver/Src/stm32f4xx_ll_usb.c ****     }
 3002              		.loc 1 1067 34 view .LVU1051
 3003 0050 23F08043 		bic	r3, r3, #1073741824
 3004 0054 C0F8003B 		str	r3, [r0, #2816]
 3005              	.LVL209:
1067:Drivers/STM32F4xx_HAL_Driver/Src/stm32f4xx_ll_usb.c ****     }
 3006              		.loc 1 1067 34 view .LVU1052
 3007 0058 DDE7     		b	.L264
 3008              		.cfi_endproc
 3009              	.LFE148:
 3011 005a 00BF     		.section	.text.USB_EPClearStall,"ax",%progbits
 3012              		.align	1
 3013              		.p2align 2,,3
 3014              		.global	USB_EPClearStall
 3015              		.syntax unified
 3016              		.thumb
 3017              		.thumb_func
 3019              	USB_EPClearStall:
 3020              	.LVL210:
ARM GAS  /tmp/ccTCOTTa.s 			page 96


 3021              	.LFB149:
1082:Drivers/STM32F4xx_HAL_Driver/Src/stm32f4xx_ll_usb.c ****   uint32_t USBx_BASE = (uint32_t)USBx;
 3022              		.loc 1 1082 1 is_stmt 1 view -0
 3023              		.cfi_startproc
 3024              		@ args = 0, pretend = 0, frame = 0
 3025              		@ frame_needed = 0, uses_anonymous_args = 0
 3026              		@ link register save eliminated.
1083:Drivers/STM32F4xx_HAL_Driver/Src/stm32f4xx_ll_usb.c ****   uint32_t epnum = (uint32_t)ep->num;
 3027              		.loc 1 1083 3 view .LVU1054
1086:Drivers/STM32F4xx_HAL_Driver/Src/stm32f4xx_ll_usb.c ****   {
 3028              		.loc 1 1086 6 is_stmt 0 view .LVU1055
 3029 0000 4A78     		ldrb	r2, [r1, #1]	@ zero_extendqisi2
1084:Drivers/STM32F4xx_HAL_Driver/Src/stm32f4xx_ll_usb.c **** 
 3030              		.loc 1 1084 32 view .LVU1056
 3031 0002 0B78     		ldrb	r3, [r1]	@ zero_extendqisi2
 3032              	.LVL211:
1084:Drivers/STM32F4xx_HAL_Driver/Src/stm32f4xx_ll_usb.c **** 
 3033              		.loc 1 1084 3 is_stmt 1 view .LVU1057
1086:Drivers/STM32F4xx_HAL_Driver/Src/stm32f4xx_ll_usb.c ****   {
 3034              		.loc 1 1086 3 view .LVU1058
1086:Drivers/STM32F4xx_HAL_Driver/Src/stm32f4xx_ll_usb.c ****   {
 3035              		.loc 1 1086 6 is_stmt 0 view .LVU1059
 3036 0004 012A     		cmp	r2, #1
1088:Drivers/STM32F4xx_HAL_Driver/Src/stm32f4xx_ll_usb.c ****     if ((ep->type == EP_TYPE_INTR) || (ep->type == EP_TYPE_BULK))
 3037              		.loc 1 1088 31 view .LVU1060
 3038 0006 00EB4310 		add	r0, r0, r3, lsl #5
 3039              	.LVL212:
1086:Drivers/STM32F4xx_HAL_Driver/Src/stm32f4xx_ll_usb.c ****   {
 3040              		.loc 1 1086 6 view .LVU1061
 3041 000a 13D0     		beq	.L278
1096:Drivers/STM32F4xx_HAL_Driver/Src/stm32f4xx_ll_usb.c ****     if ((ep->type == EP_TYPE_INTR) || (ep->type == EP_TYPE_BULK))
 3042              		.loc 1 1096 5 is_stmt 1 view .LVU1062
1096:Drivers/STM32F4xx_HAL_Driver/Src/stm32f4xx_ll_usb.c ****     if ((ep->type == EP_TYPE_INTR) || (ep->type == EP_TYPE_BULK))
 3043              		.loc 1 1096 32 is_stmt 0 view .LVU1063
 3044 000c D0F8003B 		ldr	r3, [r0, #2816]
 3045              	.LVL213:
1096:Drivers/STM32F4xx_HAL_Driver/Src/stm32f4xx_ll_usb.c ****     if ((ep->type == EP_TYPE_INTR) || (ep->type == EP_TYPE_BULK))
 3046              		.loc 1 1096 32 view .LVU1064
 3047 0010 23F40013 		bic	r3, r3, #2097152
 3048 0014 C0F8003B 		str	r3, [r0, #2816]
 3049              	.LVL214:
1097:Drivers/STM32F4xx_HAL_Driver/Src/stm32f4xx_ll_usb.c ****     {
 3050              		.loc 1 1097 5 is_stmt 1 view .LVU1065
1097:Drivers/STM32F4xx_HAL_Driver/Src/stm32f4xx_ll_usb.c ****     {
 3051              		.loc 1 1097 36 is_stmt 0 view .LVU1066
 3052 0018 CB78     		ldrb	r3, [r1, #3]	@ zero_extendqisi2
1097:Drivers/STM32F4xx_HAL_Driver/Src/stm32f4xx_ll_usb.c ****     {
 3053              		.loc 1 1097 8 view .LVU1067
 3054 001a 023B     		subs	r3, r3, #2
 3055 001c 012B     		cmp	r3, #1
 3056 001e 01D9     		bls	.L279
 3057              	.L276:
1102:Drivers/STM32F4xx_HAL_Driver/Src/stm32f4xx_ll_usb.c **** }
 3058              		.loc 1 1102 3 is_stmt 1 view .LVU1068
1103:Drivers/STM32F4xx_HAL_Driver/Src/stm32f4xx_ll_usb.c **** 
 3059              		.loc 1 1103 1 is_stmt 0 view .LVU1069
 3060 0020 0020     		movs	r0, #0
ARM GAS  /tmp/ccTCOTTa.s 			page 97


 3061 0022 7047     		bx	lr
 3062              	.L279:
1099:Drivers/STM32F4xx_HAL_Driver/Src/stm32f4xx_ll_usb.c ****     }
 3063              		.loc 1 1099 7 is_stmt 1 view .LVU1070
1099:Drivers/STM32F4xx_HAL_Driver/Src/stm32f4xx_ll_usb.c ****     }
 3064              		.loc 1 1099 34 is_stmt 0 view .LVU1071
 3065 0024 D0F8003B 		ldr	r3, [r0, #2816]
 3066 0028 43F08053 		orr	r3, r3, #268435456
 3067 002c C0F8003B 		str	r3, [r0, #2816]
1102:Drivers/STM32F4xx_HAL_Driver/Src/stm32f4xx_ll_usb.c **** }
 3068              		.loc 1 1102 3 is_stmt 1 view .LVU1072
1103:Drivers/STM32F4xx_HAL_Driver/Src/stm32f4xx_ll_usb.c **** 
 3069              		.loc 1 1103 1 is_stmt 0 view .LVU1073
 3070 0030 0020     		movs	r0, #0
 3071 0032 7047     		bx	lr
 3072              	.LVL215:
 3073              	.L278:
1088:Drivers/STM32F4xx_HAL_Driver/Src/stm32f4xx_ll_usb.c ****     if ((ep->type == EP_TYPE_INTR) || (ep->type == EP_TYPE_BULK))
 3074              		.loc 1 1088 5 is_stmt 1 view .LVU1074
1088:Drivers/STM32F4xx_HAL_Driver/Src/stm32f4xx_ll_usb.c ****     if ((ep->type == EP_TYPE_INTR) || (ep->type == EP_TYPE_BULK))
 3075              		.loc 1 1088 31 is_stmt 0 view .LVU1075
 3076 0034 D0F80039 		ldr	r3, [r0, #2304]
 3077              	.LVL216:
1088:Drivers/STM32F4xx_HAL_Driver/Src/stm32f4xx_ll_usb.c ****     if ((ep->type == EP_TYPE_INTR) || (ep->type == EP_TYPE_BULK))
 3078              		.loc 1 1088 31 view .LVU1076
 3079 0038 23F40013 		bic	r3, r3, #2097152
 3080 003c C0F80039 		str	r3, [r0, #2304]
 3081              	.LVL217:
1089:Drivers/STM32F4xx_HAL_Driver/Src/stm32f4xx_ll_usb.c ****     {
 3082              		.loc 1 1089 5 is_stmt 1 view .LVU1077
1089:Drivers/STM32F4xx_HAL_Driver/Src/stm32f4xx_ll_usb.c ****     {
 3083              		.loc 1 1089 36 is_stmt 0 view .LVU1078
 3084 0040 CB78     		ldrb	r3, [r1, #3]	@ zero_extendqisi2
1089:Drivers/STM32F4xx_HAL_Driver/Src/stm32f4xx_ll_usb.c ****     {
 3085              		.loc 1 1089 8 view .LVU1079
 3086 0042 023B     		subs	r3, r3, #2
 3087 0044 012B     		cmp	r3, #1
 3088 0046 EBD8     		bhi	.L276
1091:Drivers/STM32F4xx_HAL_Driver/Src/stm32f4xx_ll_usb.c ****     }
 3089              		.loc 1 1091 7 is_stmt 1 view .LVU1080
1091:Drivers/STM32F4xx_HAL_Driver/Src/stm32f4xx_ll_usb.c ****     }
 3090              		.loc 1 1091 33 is_stmt 0 view .LVU1081
 3091 0048 D0F80039 		ldr	r3, [r0, #2304]
 3092 004c 43F08053 		orr	r3, r3, #268435456
 3093 0050 C0F80039 		str	r3, [r0, #2304]
1102:Drivers/STM32F4xx_HAL_Driver/Src/stm32f4xx_ll_usb.c **** }
 3094              		.loc 1 1102 3 is_stmt 1 view .LVU1082
1103:Drivers/STM32F4xx_HAL_Driver/Src/stm32f4xx_ll_usb.c **** 
 3095              		.loc 1 1103 1 is_stmt 0 view .LVU1083
 3096 0054 0020     		movs	r0, #0
 3097 0056 7047     		bx	lr
 3098              		.cfi_endproc
 3099              	.LFE149:
 3101              		.section	.text.USB_StopDevice,"ax",%progbits
 3102              		.align	1
 3103              		.p2align 2,,3
 3104              		.global	USB_StopDevice
ARM GAS  /tmp/ccTCOTTa.s 			page 98


 3105              		.syntax unified
 3106              		.thumb
 3107              		.thumb_func
 3109              	USB_StopDevice:
 3110              	.LVL218:
 3111              	.LFB150:
1111:Drivers/STM32F4xx_HAL_Driver/Src/stm32f4xx_ll_usb.c ****   HAL_StatusTypeDef ret;
 3112              		.loc 1 1111 1 is_stmt 1 view -0
 3113              		.cfi_startproc
 3114              		@ args = 0, pretend = 0, frame = 8
 3115              		@ frame_needed = 0, uses_anonymous_args = 0
 3116              		@ link register save eliminated.
1112:Drivers/STM32F4xx_HAL_Driver/Src/stm32f4xx_ll_usb.c ****   uint32_t USBx_BASE = (uint32_t)USBx;
 3117              		.loc 1 1112 3 view .LVU1085
1113:Drivers/STM32F4xx_HAL_Driver/Src/stm32f4xx_ll_usb.c ****   uint32_t i;
 3118              		.loc 1 1113 3 view .LVU1086
1114:Drivers/STM32F4xx_HAL_Driver/Src/stm32f4xx_ll_usb.c **** 
 3119              		.loc 1 1114 3 view .LVU1087
1117:Drivers/STM32F4xx_HAL_Driver/Src/stm32f4xx_ll_usb.c ****   {
 3120              		.loc 1 1117 3 view .LVU1088
1117:Drivers/STM32F4xx_HAL_Driver/Src/stm32f4xx_ll_usb.c ****   {
 3121              		.loc 1 1117 16 view .LVU1089
1111:Drivers/STM32F4xx_HAL_Driver/Src/stm32f4xx_ll_usb.c ****   HAL_StatusTypeDef ret;
 3122              		.loc 1 1111 1 is_stmt 0 view .LVU1090
 3123 0000 10B4     		push	{r4}
 3124              	.LCFI47:
 3125              		.cfi_def_cfa_offset 4
 3126              		.cfi_offset 4, -4
 3127 0002 00F51063 		add	r3, r0, #2304
 3128 0006 83B0     		sub	sp, sp, #12
 3129              	.LCFI48:
 3130              		.cfi_def_cfa_offset 16
 3131 0008 00F52E6C 		add	ip, r0, #2784
1119:Drivers/STM32F4xx_HAL_Driver/Src/stm32f4xx_ll_usb.c ****     USBx_OUTEP(i)->DOEPINT = 0xFB7FU;
 3132              		.loc 1 1119 27 view .LVU1091
 3133 000c 4FF67F32 		movw	r2, #64383
 3134              	.LVL219:
 3135              	.L281:
1119:Drivers/STM32F4xx_HAL_Driver/Src/stm32f4xx_ll_usb.c ****     USBx_OUTEP(i)->DOEPINT = 0xFB7FU;
 3136              		.loc 1 1119 5 is_stmt 1 discriminator 3 view .LVU1092
1119:Drivers/STM32F4xx_HAL_Driver/Src/stm32f4xx_ll_usb.c ****     USBx_OUTEP(i)->DOEPINT = 0xFB7FU;
 3137              		.loc 1 1119 27 is_stmt 0 discriminator 3 view .LVU1093
 3138 0010 9A60     		str	r2, [r3, #8]
1120:Drivers/STM32F4xx_HAL_Driver/Src/stm32f4xx_ll_usb.c ****   }
 3139              		.loc 1 1120 5 is_stmt 1 discriminator 3 view .LVU1094
 3140 0012 03F50071 		add	r1, r3, #512
1117:Drivers/STM32F4xx_HAL_Driver/Src/stm32f4xx_ll_usb.c ****   {
 3141              		.loc 1 1117 3 is_stmt 0 discriminator 3 view .LVU1095
 3142 0016 2033     		adds	r3, r3, #32
 3143 0018 9C45     		cmp	ip, r3
1120:Drivers/STM32F4xx_HAL_Driver/Src/stm32f4xx_ll_usb.c ****   }
 3144              		.loc 1 1120 28 discriminator 3 view .LVU1096
 3145 001a 8A60     		str	r2, [r1, #8]
1117:Drivers/STM32F4xx_HAL_Driver/Src/stm32f4xx_ll_usb.c ****   {
 3146              		.loc 1 1117 25 is_stmt 1 discriminator 3 view .LVU1097
1117:Drivers/STM32F4xx_HAL_Driver/Src/stm32f4xx_ll_usb.c ****   {
 3147              		.loc 1 1117 16 discriminator 3 view .LVU1098
ARM GAS  /tmp/ccTCOTTa.s 			page 99


1117:Drivers/STM32F4xx_HAL_Driver/Src/stm32f4xx_ll_usb.c ****   {
 3148              		.loc 1 1117 3 is_stmt 0 discriminator 3 view .LVU1099
 3149 001c F8D1     		bne	.L281
1124:Drivers/STM32F4xx_HAL_Driver/Src/stm32f4xx_ll_usb.c ****   USBx_DEVICE->DOEPMSK  = 0U;
 3150              		.loc 1 1124 3 is_stmt 1 view .LVU1100
1124:Drivers/STM32F4xx_HAL_Driver/Src/stm32f4xx_ll_usb.c ****   USBx_DEVICE->DOEPMSK  = 0U;
 3151              		.loc 1 1124 25 is_stmt 0 view .LVU1101
 3152 001e 0021     		movs	r1, #0
 3153              	.LBB68:
 3154              	.LBB69:
 498:Drivers/STM32F4xx_HAL_Driver/Src/stm32f4xx_ll_usb.c **** 
 3155              		.loc 1 498 17 view .LVU1102
 3156 0020 1024     		movs	r4, #16
 3157              	.LBE69:
 3158              	.LBE68:
1124:Drivers/STM32F4xx_HAL_Driver/Src/stm32f4xx_ll_usb.c ****   USBx_DEVICE->DOEPMSK  = 0U;
 3159              		.loc 1 1124 25 view .LVU1103
 3160 0022 C0F81018 		str	r1, [r0, #2064]
1125:Drivers/STM32F4xx_HAL_Driver/Src/stm32f4xx_ll_usb.c ****   USBx_DEVICE->DAINTMSK = 0U;
 3161              		.loc 1 1125 3 is_stmt 1 view .LVU1104
 3162              	.LBB72:
 3163              	.LBB70:
 502:Drivers/STM32F4xx_HAL_Driver/Src/stm32f4xx_ll_usb.c ****     {
 3164              		.loc 1 502 8 is_stmt 0 view .LVU1105
 3165 0026 154A     		ldr	r2, .L297
 3166              	.LBE70:
 3167              	.LBE72:
1125:Drivers/STM32F4xx_HAL_Driver/Src/stm32f4xx_ll_usb.c ****   USBx_DEVICE->DAINTMSK = 0U;
 3168              		.loc 1 1125 25 view .LVU1106
 3169 0028 C0F81418 		str	r1, [r0, #2068]
1126:Drivers/STM32F4xx_HAL_Driver/Src/stm32f4xx_ll_usb.c **** 
 3170              		.loc 1 1126 3 is_stmt 1 view .LVU1107
1126:Drivers/STM32F4xx_HAL_Driver/Src/stm32f4xx_ll_usb.c **** 
 3171              		.loc 1 1126 25 is_stmt 0 view .LVU1108
 3172 002c C0F81C18 		str	r1, [r0, #2076]
1129:Drivers/STM32F4xx_HAL_Driver/Src/stm32f4xx_ll_usb.c ****   if (ret != HAL_OK)
 3173              		.loc 1 1129 3 is_stmt 1 view .LVU1109
 3174              	.LVL220:
 3175              	.LBB73:
 3176              	.LBI68:
 494:Drivers/STM32F4xx_HAL_Driver/Src/stm32f4xx_ll_usb.c **** {
 3177              		.loc 1 494 19 view .LVU1110
 3178              	.LBB71:
 496:Drivers/STM32F4xx_HAL_Driver/Src/stm32f4xx_ll_usb.c **** 
 3179              		.loc 1 496 3 view .LVU1111
 496:Drivers/STM32F4xx_HAL_Driver/Src/stm32f4xx_ll_usb.c **** 
 3180              		.loc 1 496 17 is_stmt 0 view .LVU1112
 3181 0030 0191     		str	r1, [sp, #4]
 498:Drivers/STM32F4xx_HAL_Driver/Src/stm32f4xx_ll_usb.c **** 
 3182              		.loc 1 498 3 is_stmt 1 view .LVU1113
 498:Drivers/STM32F4xx_HAL_Driver/Src/stm32f4xx_ll_usb.c **** 
 3183              		.loc 1 498 17 is_stmt 0 view .LVU1114
 3184 0032 0461     		str	r4, [r0, #16]
 3185 0034 03E0     		b	.L284
 3186              	.L282:
 506:Drivers/STM32F4xx_HAL_Driver/Src/stm32f4xx_ll_usb.c **** 
 3187              		.loc 1 506 17 view .LVU1115
ARM GAS  /tmp/ccTCOTTa.s 			page 100


 3188 0036 0369     		ldr	r3, [r0, #16]
 506:Drivers/STM32F4xx_HAL_Driver/Src/stm32f4xx_ll_usb.c **** 
 3189              		.loc 1 506 3 view .LVU1116
 3190 0038 13F01003 		ands	r3, r3, #16
 3191 003c 09D0     		beq	.L294
 3192              	.L284:
 500:Drivers/STM32F4xx_HAL_Driver/Src/stm32f4xx_ll_usb.c ****   {
 3193              		.loc 1 500 3 is_stmt 1 view .LVU1117
 502:Drivers/STM32F4xx_HAL_Driver/Src/stm32f4xx_ll_usb.c ****     {
 3194              		.loc 1 502 5 view .LVU1118
 506:Drivers/STM32F4xx_HAL_Driver/Src/stm32f4xx_ll_usb.c **** 
 3195              		.loc 1 506 11 view .LVU1119
 502:Drivers/STM32F4xx_HAL_Driver/Src/stm32f4xx_ll_usb.c ****     {
 3196              		.loc 1 502 9 is_stmt 0 view .LVU1120
 3197 003e 019B     		ldr	r3, [sp, #4]
 3198 0040 0133     		adds	r3, r3, #1
 502:Drivers/STM32F4xx_HAL_Driver/Src/stm32f4xx_ll_usb.c ****     {
 3199              		.loc 1 502 8 view .LVU1121
 3200 0042 9342     		cmp	r3, r2
 3201 0044 0193     		str	r3, [sp, #4]
 3202 0046 F6D9     		bls	.L282
 3203              	.LVL221:
 3204              	.L286:
 504:Drivers/STM32F4xx_HAL_Driver/Src/stm32f4xx_ll_usb.c ****     }
 3205              		.loc 1 504 14 view .LVU1122
 3206 0048 0320     		movs	r0, #3
 3207              	.LVL222:
 504:Drivers/STM32F4xx_HAL_Driver/Src/stm32f4xx_ll_usb.c ****     }
 3208              		.loc 1 504 14 view .LVU1123
 3209              	.LBE71:
 3210              	.LBE73:
1142:Drivers/STM32F4xx_HAL_Driver/Src/stm32f4xx_ll_usb.c **** 
 3211              		.loc 1 1142 1 view .LVU1124
 3212 004a 03B0     		add	sp, sp, #12
 3213              	.LCFI49:
 3214              		.cfi_remember_state
 3215              		.cfi_def_cfa_offset 4
 3216              		@ sp needed
 3217 004c 5DF8044B 		ldr	r4, [sp], #4
 3218              	.LCFI50:
 3219              		.cfi_restore 4
 3220              		.cfi_def_cfa_offset 0
 3221 0050 7047     		bx	lr
 3222              	.LVL223:
 3223              	.L294:
 3224              	.LCFI51:
 3225              		.cfi_restore_state
1130:Drivers/STM32F4xx_HAL_Driver/Src/stm32f4xx_ll_usb.c ****   {
 3226              		.loc 1 1130 3 is_stmt 1 view .LVU1125
1135:Drivers/STM32F4xx_HAL_Driver/Src/stm32f4xx_ll_usb.c ****   if (ret != HAL_OK)
 3227              		.loc 1 1135 3 view .LVU1126
 3228              	.LBB74:
 3229              	.LBI74:
 472:Drivers/STM32F4xx_HAL_Driver/Src/stm32f4xx_ll_usb.c **** {
 3230              		.loc 1 472 19 view .LVU1127
 3231              	.LBB75:
 474:Drivers/STM32F4xx_HAL_Driver/Src/stm32f4xx_ll_usb.c **** 
ARM GAS  /tmp/ccTCOTTa.s 			page 101


 3232              		.loc 1 474 3 view .LVU1128
 476:Drivers/STM32F4xx_HAL_Driver/Src/stm32f4xx_ll_usb.c **** 
 3233              		.loc 1 476 17 is_stmt 0 view .LVU1129
 3234 0052 4FF48461 		mov	r1, #1056
 474:Drivers/STM32F4xx_HAL_Driver/Src/stm32f4xx_ll_usb.c **** 
 3235              		.loc 1 474 17 view .LVU1130
 3236 0056 0093     		str	r3, [sp]
 476:Drivers/STM32F4xx_HAL_Driver/Src/stm32f4xx_ll_usb.c **** 
 3237              		.loc 1 476 3 is_stmt 1 view .LVU1131
 480:Drivers/STM32F4xx_HAL_Driver/Src/stm32f4xx_ll_usb.c ****     {
 3238              		.loc 1 480 8 is_stmt 0 view .LVU1132
 3239 0058 084A     		ldr	r2, .L297
 476:Drivers/STM32F4xx_HAL_Driver/Src/stm32f4xx_ll_usb.c **** 
 3240              		.loc 1 476 17 view .LVU1133
 3241 005a 0161     		str	r1, [r0, #16]
 3242 005c 03E0     		b	.L287
 3243              	.L296:
 484:Drivers/STM32F4xx_HAL_Driver/Src/stm32f4xx_ll_usb.c **** 
 3244              		.loc 1 484 17 view .LVU1134
 3245 005e 0369     		ldr	r3, [r0, #16]
 484:Drivers/STM32F4xx_HAL_Driver/Src/stm32f4xx_ll_usb.c **** 
 3246              		.loc 1 484 3 view .LVU1135
 3247 0060 13F02003 		ands	r3, r3, #32
 3248 0064 05D0     		beq	.L295
 3249              	.L287:
 478:Drivers/STM32F4xx_HAL_Driver/Src/stm32f4xx_ll_usb.c ****   {
 3250              		.loc 1 478 3 is_stmt 1 view .LVU1136
 480:Drivers/STM32F4xx_HAL_Driver/Src/stm32f4xx_ll_usb.c ****     {
 3251              		.loc 1 480 5 view .LVU1137
 484:Drivers/STM32F4xx_HAL_Driver/Src/stm32f4xx_ll_usb.c **** 
 3252              		.loc 1 484 11 view .LVU1138
 480:Drivers/STM32F4xx_HAL_Driver/Src/stm32f4xx_ll_usb.c ****     {
 3253              		.loc 1 480 9 is_stmt 0 view .LVU1139
 3254 0066 009B     		ldr	r3, [sp]
 3255 0068 0133     		adds	r3, r3, #1
 480:Drivers/STM32F4xx_HAL_Driver/Src/stm32f4xx_ll_usb.c ****     {
 3256              		.loc 1 480 8 view .LVU1140
 3257 006a 9342     		cmp	r3, r2
 3258 006c 0093     		str	r3, [sp]
 3259 006e F6D9     		bls	.L296
 3260 0070 EAE7     		b	.L286
 3261              	.L295:
 486:Drivers/STM32F4xx_HAL_Driver/Src/stm32f4xx_ll_usb.c **** }
 3262              		.loc 1 486 10 view .LVU1141
 3263 0072 1846     		mov	r0, r3
 3264              	.LVL224:
 486:Drivers/STM32F4xx_HAL_Driver/Src/stm32f4xx_ll_usb.c **** }
 3265              		.loc 1 486 10 view .LVU1142
 3266              	.LBE75:
 3267              	.LBE74:
1142:Drivers/STM32F4xx_HAL_Driver/Src/stm32f4xx_ll_usb.c **** 
 3268              		.loc 1 1142 1 view .LVU1143
 3269 0074 03B0     		add	sp, sp, #12
 3270              	.LCFI52:
 3271              		.cfi_def_cfa_offset 4
 3272              		@ sp needed
 3273 0076 5DF8044B 		ldr	r4, [sp], #4
ARM GAS  /tmp/ccTCOTTa.s 			page 102


 3274              	.LCFI53:
 3275              		.cfi_restore 4
 3276              		.cfi_def_cfa_offset 0
 3277 007a 7047     		bx	lr
 3278              	.L298:
 3279              		.align	2
 3280              	.L297:
 3281 007c 400D0300 		.word	200000
 3282              		.cfi_endproc
 3283              	.LFE150:
 3285              		.section	.text.USB_SetDevAddress,"ax",%progbits
 3286              		.align	1
 3287              		.p2align 2,,3
 3288              		.global	USB_SetDevAddress
 3289              		.syntax unified
 3290              		.thumb
 3291              		.thumb_func
 3293              	USB_SetDevAddress:
 3294              	.LVL225:
 3295              	.LFB151:
1152:Drivers/STM32F4xx_HAL_Driver/Src/stm32f4xx_ll_usb.c ****   uint32_t USBx_BASE = (uint32_t)USBx;
 3296              		.loc 1 1152 1 is_stmt 1 view -0
 3297              		.cfi_startproc
 3298              		@ args = 0, pretend = 0, frame = 0
 3299              		@ frame_needed = 0, uses_anonymous_args = 0
 3300              		@ link register save eliminated.
1153:Drivers/STM32F4xx_HAL_Driver/Src/stm32f4xx_ll_usb.c **** 
 3301              		.loc 1 1153 3 view .LVU1145
1155:Drivers/STM32F4xx_HAL_Driver/Src/stm32f4xx_ll_usb.c ****   USBx_DEVICE->DCFG |= ((uint32_t)address << 4) & USB_OTG_DCFG_DAD;
 3302              		.loc 1 1155 3 view .LVU1146
1155:Drivers/STM32F4xx_HAL_Driver/Src/stm32f4xx_ll_usb.c ****   USBx_DEVICE->DCFG |= ((uint32_t)address << 4) & USB_OTG_DCFG_DAD;
 3303              		.loc 1 1155 21 is_stmt 0 view .LVU1147
 3304 0000 D0F80038 		ldr	r3, [r0, #2048]
 3305 0004 23F4FE63 		bic	r3, r3, #2032
 3306 0008 C0F80038 		str	r3, [r0, #2048]
1156:Drivers/STM32F4xx_HAL_Driver/Src/stm32f4xx_ll_usb.c **** 
 3307              		.loc 1 1156 3 is_stmt 1 view .LVU1148
1156:Drivers/STM32F4xx_HAL_Driver/Src/stm32f4xx_ll_usb.c **** 
 3308              		.loc 1 1156 21 is_stmt 0 view .LVU1149
 3309 000c D0F80038 		ldr	r3, [r0, #2048]
1156:Drivers/STM32F4xx_HAL_Driver/Src/stm32f4xx_ll_usb.c **** 
 3310              		.loc 1 1156 43 view .LVU1150
 3311 0010 0901     		lsls	r1, r1, #4
 3312              	.LVL226:
1156:Drivers/STM32F4xx_HAL_Driver/Src/stm32f4xx_ll_usb.c **** 
 3313              		.loc 1 1156 49 view .LVU1151
 3314 0012 01F4FE61 		and	r1, r1, #2032
1156:Drivers/STM32F4xx_HAL_Driver/Src/stm32f4xx_ll_usb.c **** 
 3315              		.loc 1 1156 21 view .LVU1152
 3316 0016 1943     		orrs	r1, r1, r3
 3317 0018 C0F80018 		str	r1, [r0, #2048]
1158:Drivers/STM32F4xx_HAL_Driver/Src/stm32f4xx_ll_usb.c **** }
 3318              		.loc 1 1158 3 is_stmt 1 view .LVU1153
1159:Drivers/STM32F4xx_HAL_Driver/Src/stm32f4xx_ll_usb.c **** 
 3319              		.loc 1 1159 1 is_stmt 0 view .LVU1154
 3320 001c 0020     		movs	r0, #0
 3321              	.LVL227:
ARM GAS  /tmp/ccTCOTTa.s 			page 103


1159:Drivers/STM32F4xx_HAL_Driver/Src/stm32f4xx_ll_usb.c **** 
 3322              		.loc 1 1159 1 view .LVU1155
 3323 001e 7047     		bx	lr
 3324              		.cfi_endproc
 3325              	.LFE151:
 3327              		.section	.text.USB_DevConnect,"ax",%progbits
 3328              		.align	1
 3329              		.p2align 2,,3
 3330              		.global	USB_DevConnect
 3331              		.syntax unified
 3332              		.thumb
 3333              		.thumb_func
 3335              	USB_DevConnect:
 3336              	.LVL228:
 3337              	.LFB152:
1167:Drivers/STM32F4xx_HAL_Driver/Src/stm32f4xx_ll_usb.c ****   uint32_t USBx_BASE = (uint32_t)USBx;
 3338              		.loc 1 1167 1 is_stmt 1 view -0
 3339              		.cfi_startproc
 3340              		@ args = 0, pretend = 0, frame = 0
 3341              		@ frame_needed = 0, uses_anonymous_args = 0
 3342              		@ link register save eliminated.
1168:Drivers/STM32F4xx_HAL_Driver/Src/stm32f4xx_ll_usb.c **** 
 3343              		.loc 1 1168 3 view .LVU1157
1171:Drivers/STM32F4xx_HAL_Driver/Src/stm32f4xx_ll_usb.c **** 
 3344              		.loc 1 1171 16 is_stmt 0 view .LVU1158
 3345 0000 D0F8002E 		ldr	r2, [r0, #3584]
1167:Drivers/STM32F4xx_HAL_Driver/Src/stm32f4xx_ll_usb.c ****   uint32_t USBx_BASE = (uint32_t)USBx;
 3346              		.loc 1 1167 1 view .LVU1159
 3347 0004 0346     		mov	r3, r0
 3348              	.LVL229:
1171:Drivers/STM32F4xx_HAL_Driver/Src/stm32f4xx_ll_usb.c **** 
 3349              		.loc 1 1171 3 is_stmt 1 view .LVU1160
1171:Drivers/STM32F4xx_HAL_Driver/Src/stm32f4xx_ll_usb.c **** 
 3350              		.loc 1 1171 16 is_stmt 0 view .LVU1161
 3351 0006 22F00302 		bic	r2, r2, #3
 3352 000a C3F8002E 		str	r2, [r3, #3584]
1173:Drivers/STM32F4xx_HAL_Driver/Src/stm32f4xx_ll_usb.c **** 
 3353              		.loc 1 1173 3 is_stmt 1 view .LVU1162
1173:Drivers/STM32F4xx_HAL_Driver/Src/stm32f4xx_ll_usb.c **** 
 3354              		.loc 1 1173 21 is_stmt 0 view .LVU1163
 3355 000e D3F80438 		ldr	r3, [r3, #2052]
 3356 0012 00F50061 		add	r1, r0, #2048
 3357 0016 23F00203 		bic	r3, r3, #2
1176:Drivers/STM32F4xx_HAL_Driver/Src/stm32f4xx_ll_usb.c **** 
 3358              		.loc 1 1176 1 view .LVU1164
 3359 001a 0020     		movs	r0, #0
 3360              	.LVL230:
1173:Drivers/STM32F4xx_HAL_Driver/Src/stm32f4xx_ll_usb.c **** 
 3361              		.loc 1 1173 21 view .LVU1165
 3362 001c 4B60     		str	r3, [r1, #4]
1175:Drivers/STM32F4xx_HAL_Driver/Src/stm32f4xx_ll_usb.c **** }
 3363              		.loc 1 1175 3 is_stmt 1 view .LVU1166
1176:Drivers/STM32F4xx_HAL_Driver/Src/stm32f4xx_ll_usb.c **** 
 3364              		.loc 1 1176 1 is_stmt 0 view .LVU1167
 3365 001e 7047     		bx	lr
 3366              		.cfi_endproc
 3367              	.LFE152:
ARM GAS  /tmp/ccTCOTTa.s 			page 104


 3369              		.section	.text.USB_DevDisconnect,"ax",%progbits
 3370              		.align	1
 3371              		.p2align 2,,3
 3372              		.global	USB_DevDisconnect
 3373              		.syntax unified
 3374              		.thumb
 3375              		.thumb_func
 3377              	USB_DevDisconnect:
 3378              	.LVL231:
 3379              	.LFB153:
1184:Drivers/STM32F4xx_HAL_Driver/Src/stm32f4xx_ll_usb.c ****   uint32_t USBx_BASE = (uint32_t)USBx;
 3380              		.loc 1 1184 1 is_stmt 1 view -0
 3381              		.cfi_startproc
 3382              		@ args = 0, pretend = 0, frame = 0
 3383              		@ frame_needed = 0, uses_anonymous_args = 0
 3384              		@ link register save eliminated.
1185:Drivers/STM32F4xx_HAL_Driver/Src/stm32f4xx_ll_usb.c **** 
 3385              		.loc 1 1185 3 view .LVU1169
1188:Drivers/STM32F4xx_HAL_Driver/Src/stm32f4xx_ll_usb.c **** 
 3386              		.loc 1 1188 16 is_stmt 0 view .LVU1170
 3387 0000 D0F8002E 		ldr	r2, [r0, #3584]
1184:Drivers/STM32F4xx_HAL_Driver/Src/stm32f4xx_ll_usb.c ****   uint32_t USBx_BASE = (uint32_t)USBx;
 3388              		.loc 1 1184 1 view .LVU1171
 3389 0004 0346     		mov	r3, r0
 3390              	.LVL232:
1188:Drivers/STM32F4xx_HAL_Driver/Src/stm32f4xx_ll_usb.c **** 
 3391              		.loc 1 1188 3 is_stmt 1 view .LVU1172
1188:Drivers/STM32F4xx_HAL_Driver/Src/stm32f4xx_ll_usb.c **** 
 3392              		.loc 1 1188 16 is_stmt 0 view .LVU1173
 3393 0006 22F00302 		bic	r2, r2, #3
 3394 000a C3F8002E 		str	r2, [r3, #3584]
1190:Drivers/STM32F4xx_HAL_Driver/Src/stm32f4xx_ll_usb.c **** 
 3395              		.loc 1 1190 3 is_stmt 1 view .LVU1174
1190:Drivers/STM32F4xx_HAL_Driver/Src/stm32f4xx_ll_usb.c **** 
 3396              		.loc 1 1190 21 is_stmt 0 view .LVU1175
 3397 000e D3F80438 		ldr	r3, [r3, #2052]
 3398 0012 00F50061 		add	r1, r0, #2048
 3399 0016 43F00203 		orr	r3, r3, #2
1193:Drivers/STM32F4xx_HAL_Driver/Src/stm32f4xx_ll_usb.c **** 
 3400              		.loc 1 1193 1 view .LVU1176
 3401 001a 0020     		movs	r0, #0
 3402              	.LVL233:
1190:Drivers/STM32F4xx_HAL_Driver/Src/stm32f4xx_ll_usb.c **** 
 3403              		.loc 1 1190 21 view .LVU1177
 3404 001c 4B60     		str	r3, [r1, #4]
1192:Drivers/STM32F4xx_HAL_Driver/Src/stm32f4xx_ll_usb.c **** }
 3405              		.loc 1 1192 3 is_stmt 1 view .LVU1178
1193:Drivers/STM32F4xx_HAL_Driver/Src/stm32f4xx_ll_usb.c **** 
 3406              		.loc 1 1193 1 is_stmt 0 view .LVU1179
 3407 001e 7047     		bx	lr
 3408              		.cfi_endproc
 3409              	.LFE153:
 3411              		.section	.text.USB_ReadInterrupts,"ax",%progbits
 3412              		.align	1
 3413              		.p2align 2,,3
 3414              		.global	USB_ReadInterrupts
 3415              		.syntax unified
ARM GAS  /tmp/ccTCOTTa.s 			page 105


 3416              		.thumb
 3417              		.thumb_func
 3419              	USB_ReadInterrupts:
 3420              	.LVL234:
 3421              	.LFB154:
1201:Drivers/STM32F4xx_HAL_Driver/Src/stm32f4xx_ll_usb.c ****   uint32_t tmpreg;
 3422              		.loc 1 1201 1 is_stmt 1 view -0
 3423              		.cfi_startproc
 3424              		@ args = 0, pretend = 0, frame = 0
 3425              		@ frame_needed = 0, uses_anonymous_args = 0
 3426              		@ link register save eliminated.
1202:Drivers/STM32F4xx_HAL_Driver/Src/stm32f4xx_ll_usb.c **** 
 3427              		.loc 1 1202 3 view .LVU1181
1204:Drivers/STM32F4xx_HAL_Driver/Src/stm32f4xx_ll_usb.c ****   tmpreg &= USBx->GINTMSK;
 3428              		.loc 1 1204 3 view .LVU1182
1204:Drivers/STM32F4xx_HAL_Driver/Src/stm32f4xx_ll_usb.c ****   tmpreg &= USBx->GINTMSK;
 3429              		.loc 1 1204 10 is_stmt 0 view .LVU1183
 3430 0000 4269     		ldr	r2, [r0, #20]
 3431              	.LVL235:
1205:Drivers/STM32F4xx_HAL_Driver/Src/stm32f4xx_ll_usb.c **** 
 3432              		.loc 1 1205 3 is_stmt 1 view .LVU1184
1205:Drivers/STM32F4xx_HAL_Driver/Src/stm32f4xx_ll_usb.c **** 
 3433              		.loc 1 1205 17 is_stmt 0 view .LVU1185
 3434 0002 8069     		ldr	r0, [r0, #24]
 3435              	.LVL236:
1207:Drivers/STM32F4xx_HAL_Driver/Src/stm32f4xx_ll_usb.c **** }
 3436              		.loc 1 1207 3 is_stmt 1 view .LVU1186
1208:Drivers/STM32F4xx_HAL_Driver/Src/stm32f4xx_ll_usb.c **** 
 3437              		.loc 1 1208 1 is_stmt 0 view .LVU1187
 3438 0004 1040     		ands	r0, r0, r2
 3439              	.LVL237:
1208:Drivers/STM32F4xx_HAL_Driver/Src/stm32f4xx_ll_usb.c **** 
 3440              		.loc 1 1208 1 view .LVU1188
 3441 0006 7047     		bx	lr
 3442              		.cfi_endproc
 3443              	.LFE154:
 3445              		.section	.text.USB_ReadDevAllOutEpInterrupt,"ax",%progbits
 3446              		.align	1
 3447              		.p2align 2,,3
 3448              		.global	USB_ReadDevAllOutEpInterrupt
 3449              		.syntax unified
 3450              		.thumb
 3451              		.thumb_func
 3453              	USB_ReadDevAllOutEpInterrupt:
 3454              	.LVL238:
 3455              	.LFB155:
1216:Drivers/STM32F4xx_HAL_Driver/Src/stm32f4xx_ll_usb.c ****   uint32_t USBx_BASE = (uint32_t)USBx;
 3456              		.loc 1 1216 1 is_stmt 1 view -0
 3457              		.cfi_startproc
 3458              		@ args = 0, pretend = 0, frame = 0
 3459              		@ frame_needed = 0, uses_anonymous_args = 0
 3460              		@ link register save eliminated.
1217:Drivers/STM32F4xx_HAL_Driver/Src/stm32f4xx_ll_usb.c ****   uint32_t tmpreg;
 3461              		.loc 1 1217 3 view .LVU1190
1218:Drivers/STM32F4xx_HAL_Driver/Src/stm32f4xx_ll_usb.c **** 
 3462              		.loc 1 1218 3 view .LVU1191
1220:Drivers/STM32F4xx_HAL_Driver/Src/stm32f4xx_ll_usb.c ****   tmpreg &= USBx_DEVICE->DAINTMSK;
ARM GAS  /tmp/ccTCOTTa.s 			page 106


 3463              		.loc 1 1220 3 view .LVU1192
1220:Drivers/STM32F4xx_HAL_Driver/Src/stm32f4xx_ll_usb.c ****   tmpreg &= USBx_DEVICE->DAINTMSK;
 3464              		.loc 1 1220 11 is_stmt 0 view .LVU1193
 3465 0000 D0F81838 		ldr	r3, [r0, #2072]
1220:Drivers/STM32F4xx_HAL_Driver/Src/stm32f4xx_ll_usb.c ****   tmpreg &= USBx_DEVICE->DAINTMSK;
 3466              		.loc 1 1220 13 view .LVU1194
 3467 0004 00F50060 		add	r0, r0, #2048
 3468              	.LVL239:
1221:Drivers/STM32F4xx_HAL_Driver/Src/stm32f4xx_ll_usb.c **** 
 3469              		.loc 1 1221 3 is_stmt 1 view .LVU1195
1221:Drivers/STM32F4xx_HAL_Driver/Src/stm32f4xx_ll_usb.c **** 
 3470              		.loc 1 1221 24 is_stmt 0 view .LVU1196
 3471 0008 C069     		ldr	r0, [r0, #28]
 3472              	.LVL240:
1223:Drivers/STM32F4xx_HAL_Driver/Src/stm32f4xx_ll_usb.c **** }
 3473              		.loc 1 1223 3 is_stmt 1 view .LVU1197
1221:Drivers/STM32F4xx_HAL_Driver/Src/stm32f4xx_ll_usb.c **** 
 3474              		.loc 1 1221 10 is_stmt 0 view .LVU1198
 3475 000a 1840     		ands	r0, r0, r3
 3476              	.LVL241:
1224:Drivers/STM32F4xx_HAL_Driver/Src/stm32f4xx_ll_usb.c **** 
 3477              		.loc 1 1224 1 view .LVU1199
 3478 000c 000C     		lsrs	r0, r0, #16
 3479              	.LVL242:
1224:Drivers/STM32F4xx_HAL_Driver/Src/stm32f4xx_ll_usb.c **** 
 3480              		.loc 1 1224 1 view .LVU1200
 3481 000e 7047     		bx	lr
 3482              		.cfi_endproc
 3483              	.LFE155:
 3485              		.section	.text.USB_ReadDevAllInEpInterrupt,"ax",%progbits
 3486              		.align	1
 3487              		.p2align 2,,3
 3488              		.global	USB_ReadDevAllInEpInterrupt
 3489              		.syntax unified
 3490              		.thumb
 3491              		.thumb_func
 3493              	USB_ReadDevAllInEpInterrupt:
 3494              	.LVL243:
 3495              	.LFB156:
1232:Drivers/STM32F4xx_HAL_Driver/Src/stm32f4xx_ll_usb.c ****   uint32_t USBx_BASE = (uint32_t)USBx;
 3496              		.loc 1 1232 1 is_stmt 1 view -0
 3497              		.cfi_startproc
 3498              		@ args = 0, pretend = 0, frame = 0
 3499              		@ frame_needed = 0, uses_anonymous_args = 0
 3500              		@ link register save eliminated.
1233:Drivers/STM32F4xx_HAL_Driver/Src/stm32f4xx_ll_usb.c ****   uint32_t tmpreg;
 3501              		.loc 1 1233 3 view .LVU1202
1234:Drivers/STM32F4xx_HAL_Driver/Src/stm32f4xx_ll_usb.c **** 
 3502              		.loc 1 1234 3 view .LVU1203
1236:Drivers/STM32F4xx_HAL_Driver/Src/stm32f4xx_ll_usb.c ****   tmpreg &= USBx_DEVICE->DAINTMSK;
 3503              		.loc 1 1236 3 view .LVU1204
1236:Drivers/STM32F4xx_HAL_Driver/Src/stm32f4xx_ll_usb.c ****   tmpreg &= USBx_DEVICE->DAINTMSK;
 3504              		.loc 1 1236 11 is_stmt 0 view .LVU1205
 3505 0000 D0F81838 		ldr	r3, [r0, #2072]
1236:Drivers/STM32F4xx_HAL_Driver/Src/stm32f4xx_ll_usb.c ****   tmpreg &= USBx_DEVICE->DAINTMSK;
 3506              		.loc 1 1236 13 view .LVU1206
 3507 0004 00F50060 		add	r0, r0, #2048
ARM GAS  /tmp/ccTCOTTa.s 			page 107


 3508              	.LVL244:
1237:Drivers/STM32F4xx_HAL_Driver/Src/stm32f4xx_ll_usb.c **** 
 3509              		.loc 1 1237 3 is_stmt 1 view .LVU1207
1237:Drivers/STM32F4xx_HAL_Driver/Src/stm32f4xx_ll_usb.c **** 
 3510              		.loc 1 1237 24 is_stmt 0 view .LVU1208
 3511 0008 C069     		ldr	r0, [r0, #28]
 3512              	.LVL245:
1239:Drivers/STM32F4xx_HAL_Driver/Src/stm32f4xx_ll_usb.c **** }
 3513              		.loc 1 1239 3 is_stmt 1 view .LVU1209
1237:Drivers/STM32F4xx_HAL_Driver/Src/stm32f4xx_ll_usb.c **** 
 3514              		.loc 1 1237 10 is_stmt 0 view .LVU1210
 3515 000a 1840     		ands	r0, r0, r3
 3516              	.LVL246:
1240:Drivers/STM32F4xx_HAL_Driver/Src/stm32f4xx_ll_usb.c **** 
 3517              		.loc 1 1240 1 view .LVU1211
 3518 000c 80B2     		uxth	r0, r0
 3519              	.LVL247:
1240:Drivers/STM32F4xx_HAL_Driver/Src/stm32f4xx_ll_usb.c **** 
 3520              		.loc 1 1240 1 view .LVU1212
 3521 000e 7047     		bx	lr
 3522              		.cfi_endproc
 3523              	.LFE156:
 3525              		.section	.text.USB_ReadDevOutEPInterrupt,"ax",%progbits
 3526              		.align	1
 3527              		.p2align 2,,3
 3528              		.global	USB_ReadDevOutEPInterrupt
 3529              		.syntax unified
 3530              		.thumb
 3531              		.thumb_func
 3533              	USB_ReadDevOutEPInterrupt:
 3534              	.LVL248:
 3535              	.LFB157:
1250:Drivers/STM32F4xx_HAL_Driver/Src/stm32f4xx_ll_usb.c ****   uint32_t USBx_BASE = (uint32_t)USBx;
 3536              		.loc 1 1250 1 is_stmt 1 view -0
 3537              		.cfi_startproc
 3538              		@ args = 0, pretend = 0, frame = 0
 3539              		@ frame_needed = 0, uses_anonymous_args = 0
 3540              		@ link register save eliminated.
1251:Drivers/STM32F4xx_HAL_Driver/Src/stm32f4xx_ll_usb.c ****   uint32_t tmpreg;
 3541              		.loc 1 1251 3 view .LVU1214
1252:Drivers/STM32F4xx_HAL_Driver/Src/stm32f4xx_ll_usb.c **** 
 3542              		.loc 1 1252 3 view .LVU1215
1254:Drivers/STM32F4xx_HAL_Driver/Src/stm32f4xx_ll_usb.c ****   tmpreg &= USBx_DEVICE->DOEPMSK;
 3543              		.loc 1 1254 3 view .LVU1216
1254:Drivers/STM32F4xx_HAL_Driver/Src/stm32f4xx_ll_usb.c ****   tmpreg &= USBx_DEVICE->DOEPMSK;
 3544              		.loc 1 1254 13 is_stmt 0 view .LVU1217
 3545 0000 00EB4111 		add	r1, r0, r1, lsl #5
 3546              	.LVL249:
1255:Drivers/STM32F4xx_HAL_Driver/Src/stm32f4xx_ll_usb.c **** 
 3547              		.loc 1 1255 13 view .LVU1218
 3548 0004 00F50060 		add	r0, r0, #2048
 3549              	.LVL250:
1254:Drivers/STM32F4xx_HAL_Driver/Src/stm32f4xx_ll_usb.c ****   tmpreg &= USBx_DEVICE->DOEPMSK;
 3550              		.loc 1 1254 11 view .LVU1219
 3551 0008 D1F8082B 		ldr	r2, [r1, #2824]
 3552              	.LVL251:
1255:Drivers/STM32F4xx_HAL_Driver/Src/stm32f4xx_ll_usb.c **** 
ARM GAS  /tmp/ccTCOTTa.s 			page 108


 3553              		.loc 1 1255 3 is_stmt 1 view .LVU1220
1255:Drivers/STM32F4xx_HAL_Driver/Src/stm32f4xx_ll_usb.c **** 
 3554              		.loc 1 1255 24 is_stmt 0 view .LVU1221
 3555 000c 4069     		ldr	r0, [r0, #20]
 3556              	.LVL252:
1257:Drivers/STM32F4xx_HAL_Driver/Src/stm32f4xx_ll_usb.c **** }
 3557              		.loc 1 1257 3 is_stmt 1 view .LVU1222
1258:Drivers/STM32F4xx_HAL_Driver/Src/stm32f4xx_ll_usb.c **** 
 3558              		.loc 1 1258 1 is_stmt 0 view .LVU1223
 3559 000e 1040     		ands	r0, r0, r2
 3560              	.LVL253:
1258:Drivers/STM32F4xx_HAL_Driver/Src/stm32f4xx_ll_usb.c **** 
 3561              		.loc 1 1258 1 view .LVU1224
 3562 0010 7047     		bx	lr
 3563              		.cfi_endproc
 3564              	.LFE157:
 3566 0012 00BF     		.section	.text.USB_ReadDevInEPInterrupt,"ax",%progbits
 3567              		.align	1
 3568              		.p2align 2,,3
 3569              		.global	USB_ReadDevInEPInterrupt
 3570              		.syntax unified
 3571              		.thumb
 3572              		.thumb_func
 3574              	USB_ReadDevInEPInterrupt:
 3575              	.LVL254:
 3576              	.LFB158:
1268:Drivers/STM32F4xx_HAL_Driver/Src/stm32f4xx_ll_usb.c ****   uint32_t USBx_BASE = (uint32_t)USBx;
 3577              		.loc 1 1268 1 is_stmt 1 view -0
 3578              		.cfi_startproc
 3579              		@ args = 0, pretend = 0, frame = 0
 3580              		@ frame_needed = 0, uses_anonymous_args = 0
 3581              		@ link register save eliminated.
1269:Drivers/STM32F4xx_HAL_Driver/Src/stm32f4xx_ll_usb.c ****   uint32_t tmpreg;
 3582              		.loc 1 1269 3 view .LVU1226
1270:Drivers/STM32F4xx_HAL_Driver/Src/stm32f4xx_ll_usb.c ****   uint32_t msk;
 3583              		.loc 1 1270 3 view .LVU1227
1271:Drivers/STM32F4xx_HAL_Driver/Src/stm32f4xx_ll_usb.c ****   uint32_t emp;
 3584              		.loc 1 1271 3 view .LVU1228
1272:Drivers/STM32F4xx_HAL_Driver/Src/stm32f4xx_ll_usb.c **** 
 3585              		.loc 1 1272 3 view .LVU1229
1274:Drivers/STM32F4xx_HAL_Driver/Src/stm32f4xx_ll_usb.c ****   emp = USBx_DEVICE->DIEPEMPMSK;
 3586              		.loc 1 1274 3 view .LVU1230
1274:Drivers/STM32F4xx_HAL_Driver/Src/stm32f4xx_ll_usb.c ****   emp = USBx_DEVICE->DIEPEMPMSK;
 3587              		.loc 1 1274 7 is_stmt 0 view .LVU1231
 3588 0000 D0F81028 		ldr	r2, [r0, #2064]
 3589              	.LVL255:
1275:Drivers/STM32F4xx_HAL_Driver/Src/stm32f4xx_ll_usb.c ****   msk |= ((emp >> (epnum & EP_ADDR_MSK)) & 0x1U) << 7;
 3590              		.loc 1 1275 3 is_stmt 1 view .LVU1232
1275:Drivers/STM32F4xx_HAL_Driver/Src/stm32f4xx_ll_usb.c ****   msk |= ((emp >> (epnum & EP_ADDR_MSK)) & 0x1U) << 7;
 3591              		.loc 1 1275 7 is_stmt 0 view .LVU1233
 3592 0004 D0F83438 		ldr	r3, [r0, #2100]
 3593              	.LVL256:
1276:Drivers/STM32F4xx_HAL_Driver/Src/stm32f4xx_ll_usb.c ****   tmpreg = USBx_INEP((uint32_t)epnum)->DIEPINT & msk;
 3594              		.loc 1 1276 3 is_stmt 1 view .LVU1234
1277:Drivers/STM32F4xx_HAL_Driver/Src/stm32f4xx_ll_usb.c **** 
 3595              		.loc 1 1277 3 view .LVU1235
1277:Drivers/STM32F4xx_HAL_Driver/Src/stm32f4xx_ll_usb.c **** 
ARM GAS  /tmp/ccTCOTTa.s 			page 109


 3596              		.loc 1 1277 12 is_stmt 0 view .LVU1236
 3597 0008 00EB4110 		add	r0, r0, r1, lsl #5
 3598              	.LVL257:
1276:Drivers/STM32F4xx_HAL_Driver/Src/stm32f4xx_ll_usb.c ****   tmpreg = USBx_INEP((uint32_t)epnum)->DIEPINT & msk;
 3599              		.loc 1 1276 26 view .LVU1237
 3600 000c 01F00F01 		and	r1, r1, #15
 3601              	.LVL258:
1276:Drivers/STM32F4xx_HAL_Driver/Src/stm32f4xx_ll_usb.c ****   tmpreg = USBx_INEP((uint32_t)epnum)->DIEPINT & msk;
 3602              		.loc 1 1276 16 view .LVU1238
 3603 0010 CB40     		lsrs	r3, r3, r1
 3604              	.LVL259:
1276:Drivers/STM32F4xx_HAL_Driver/Src/stm32f4xx_ll_usb.c ****   tmpreg = USBx_INEP((uint32_t)epnum)->DIEPINT & msk;
 3605              		.loc 1 1276 50 view .LVU1239
 3606 0012 DB01     		lsls	r3, r3, #7
1277:Drivers/STM32F4xx_HAL_Driver/Src/stm32f4xx_ll_usb.c **** 
 3607              		.loc 1 1277 38 view .LVU1240
 3608 0014 D0F80809 		ldr	r0, [r0, #2312]
 3609              	.LVL260:
1279:Drivers/STM32F4xx_HAL_Driver/Src/stm32f4xx_ll_usb.c **** }
 3610              		.loc 1 1279 3 is_stmt 1 view .LVU1241
1276:Drivers/STM32F4xx_HAL_Driver/Src/stm32f4xx_ll_usb.c ****   tmpreg = USBx_INEP((uint32_t)epnum)->DIEPINT & msk;
 3611              		.loc 1 1276 50 is_stmt 0 view .LVU1242
 3612 0018 DBB2     		uxtb	r3, r3
1276:Drivers/STM32F4xx_HAL_Driver/Src/stm32f4xx_ll_usb.c ****   tmpreg = USBx_INEP((uint32_t)epnum)->DIEPINT & msk;
 3613              		.loc 1 1276 7 view .LVU1243
 3614 001a 1343     		orrs	r3, r3, r2
1280:Drivers/STM32F4xx_HAL_Driver/Src/stm32f4xx_ll_usb.c **** 
 3615              		.loc 1 1280 1 view .LVU1244
 3616 001c 1840     		ands	r0, r0, r3
 3617 001e 7047     		bx	lr
 3618              		.cfi_endproc
 3619              	.LFE158:
 3621              		.section	.text.USB_ClearInterrupts,"ax",%progbits
 3622              		.align	1
 3623              		.p2align 2,,3
 3624              		.global	USB_ClearInterrupts
 3625              		.syntax unified
 3626              		.thumb
 3627              		.thumb_func
 3629              	USB_ClearInterrupts:
 3630              	.LVL261:
 3631              	.LFB159:
1289:Drivers/STM32F4xx_HAL_Driver/Src/stm32f4xx_ll_usb.c ****   USBx->GINTSTS |= interrupt;
 3632              		.loc 1 1289 1 is_stmt 1 view -0
 3633              		.cfi_startproc
 3634              		@ args = 0, pretend = 0, frame = 0
 3635              		@ frame_needed = 0, uses_anonymous_args = 0
 3636              		@ link register save eliminated.
1290:Drivers/STM32F4xx_HAL_Driver/Src/stm32f4xx_ll_usb.c **** }
 3637              		.loc 1 1290 3 view .LVU1246
1290:Drivers/STM32F4xx_HAL_Driver/Src/stm32f4xx_ll_usb.c **** }
 3638              		.loc 1 1290 17 is_stmt 0 view .LVU1247
 3639 0000 4369     		ldr	r3, [r0, #20]
 3640 0002 1943     		orrs	r1, r1, r3
 3641              	.LVL262:
1290:Drivers/STM32F4xx_HAL_Driver/Src/stm32f4xx_ll_usb.c **** }
 3642              		.loc 1 1290 17 view .LVU1248
ARM GAS  /tmp/ccTCOTTa.s 			page 110


 3643 0004 4161     		str	r1, [r0, #20]
1291:Drivers/STM32F4xx_HAL_Driver/Src/stm32f4xx_ll_usb.c **** 
 3644              		.loc 1 1291 1 view .LVU1249
 3645 0006 7047     		bx	lr
 3646              		.cfi_endproc
 3647              	.LFE159:
 3649              		.section	.text.USB_GetMode,"ax",%progbits
 3650              		.align	1
 3651              		.p2align 2,,3
 3652              		.global	USB_GetMode
 3653              		.syntax unified
 3654              		.thumb
 3655              		.thumb_func
 3657              	USB_GetMode:
 3658              	.LVL263:
 3659              	.LFB160:
1302:Drivers/STM32F4xx_HAL_Driver/Src/stm32f4xx_ll_usb.c ****   return ((USBx->GINTSTS) & 0x1U);
 3660              		.loc 1 1302 1 is_stmt 1 view -0
 3661              		.cfi_startproc
 3662              		@ args = 0, pretend = 0, frame = 0
 3663              		@ frame_needed = 0, uses_anonymous_args = 0
 3664              		@ link register save eliminated.
1303:Drivers/STM32F4xx_HAL_Driver/Src/stm32f4xx_ll_usb.c **** }
 3665              		.loc 1 1303 3 view .LVU1251
1303:Drivers/STM32F4xx_HAL_Driver/Src/stm32f4xx_ll_usb.c **** }
 3666              		.loc 1 1303 16 is_stmt 0 view .LVU1252
 3667 0000 4069     		ldr	r0, [r0, #20]
 3668              	.LVL264:
1304:Drivers/STM32F4xx_HAL_Driver/Src/stm32f4xx_ll_usb.c **** 
 3669              		.loc 1 1304 1 view .LVU1253
 3670 0002 00F00100 		and	r0, r0, #1
 3671 0006 7047     		bx	lr
 3672              		.cfi_endproc
 3673              	.LFE160:
 3675              		.section	.text.USB_ActivateSetup,"ax",%progbits
 3676              		.align	1
 3677              		.p2align 2,,3
 3678              		.global	USB_ActivateSetup
 3679              		.syntax unified
 3680              		.thumb
 3681              		.thumb_func
 3683              	USB_ActivateSetup:
 3684              	.LVL265:
 3685              	.LFB161:
1312:Drivers/STM32F4xx_HAL_Driver/Src/stm32f4xx_ll_usb.c ****   uint32_t USBx_BASE = (uint32_t)USBx;
 3686              		.loc 1 1312 1 is_stmt 1 view -0
 3687              		.cfi_startproc
 3688              		@ args = 0, pretend = 0, frame = 0
 3689              		@ frame_needed = 0, uses_anonymous_args = 0
 3690              		@ link register save eliminated.
1313:Drivers/STM32F4xx_HAL_Driver/Src/stm32f4xx_ll_usb.c **** 
 3691              		.loc 1 1313 3 view .LVU1255
1316:Drivers/STM32F4xx_HAL_Driver/Src/stm32f4xx_ll_usb.c **** 
 3692              		.loc 1 1316 26 is_stmt 0 view .LVU1256
 3693 0000 D0F80029 		ldr	r2, [r0, #2304]
1312:Drivers/STM32F4xx_HAL_Driver/Src/stm32f4xx_ll_usb.c ****   uint32_t USBx_BASE = (uint32_t)USBx;
 3694              		.loc 1 1312 1 view .LVU1257
ARM GAS  /tmp/ccTCOTTa.s 			page 111


 3695 0004 0346     		mov	r3, r0
 3696              	.LVL266:
1316:Drivers/STM32F4xx_HAL_Driver/Src/stm32f4xx_ll_usb.c **** 
 3697              		.loc 1 1316 3 is_stmt 1 view .LVU1258
1316:Drivers/STM32F4xx_HAL_Driver/Src/stm32f4xx_ll_usb.c **** 
 3698              		.loc 1 1316 26 is_stmt 0 view .LVU1259
 3699 0006 22F4FF62 		bic	r2, r2, #2040
 3700 000a 22F00702 		bic	r2, r2, #7
 3701 000e C3F80029 		str	r2, [r3, #2304]
1318:Drivers/STM32F4xx_HAL_Driver/Src/stm32f4xx_ll_usb.c **** 
 3702              		.loc 1 1318 3 is_stmt 1 view .LVU1260
1318:Drivers/STM32F4xx_HAL_Driver/Src/stm32f4xx_ll_usb.c **** 
 3703              		.loc 1 1318 21 is_stmt 0 view .LVU1261
 3704 0012 D3F80438 		ldr	r3, [r3, #2052]
 3705 0016 00F50061 		add	r1, r0, #2048
 3706 001a 43F48073 		orr	r3, r3, #256
1321:Drivers/STM32F4xx_HAL_Driver/Src/stm32f4xx_ll_usb.c **** 
 3707              		.loc 1 1321 1 view .LVU1262
 3708 001e 0020     		movs	r0, #0
 3709              	.LVL267:
1318:Drivers/STM32F4xx_HAL_Driver/Src/stm32f4xx_ll_usb.c **** 
 3710              		.loc 1 1318 21 view .LVU1263
 3711 0020 4B60     		str	r3, [r1, #4]
1320:Drivers/STM32F4xx_HAL_Driver/Src/stm32f4xx_ll_usb.c **** }
 3712              		.loc 1 1320 3 is_stmt 1 view .LVU1264
1321:Drivers/STM32F4xx_HAL_Driver/Src/stm32f4xx_ll_usb.c **** 
 3713              		.loc 1 1321 1 is_stmt 0 view .LVU1265
 3714 0022 7047     		bx	lr
 3715              		.cfi_endproc
 3716              	.LFE161:
 3718              		.section	.text.USB_EP0_OutStart,"ax",%progbits
 3719              		.align	1
 3720              		.p2align 2,,3
 3721              		.global	USB_EP0_OutStart
 3722              		.syntax unified
 3723              		.thumb
 3724              		.thumb_func
 3726              	USB_EP0_OutStart:
 3727              	.LVL268:
 3728              	.LFB162:
1334:Drivers/STM32F4xx_HAL_Driver/Src/stm32f4xx_ll_usb.c ****   uint32_t USBx_BASE = (uint32_t)USBx;
 3729              		.loc 1 1334 1 is_stmt 1 view -0
 3730              		.cfi_startproc
 3731              		@ args = 0, pretend = 0, frame = 0
 3732              		@ frame_needed = 0, uses_anonymous_args = 0
 3733              		@ link register save eliminated.
1335:Drivers/STM32F4xx_HAL_Driver/Src/stm32f4xx_ll_usb.c ****   uint32_t gSNPSiD = *(__IO uint32_t *)(&USBx->CID + 0x1U);
 3734              		.loc 1 1335 3 view .LVU1267
1336:Drivers/STM32F4xx_HAL_Driver/Src/stm32f4xx_ll_usb.c **** 
 3735              		.loc 1 1336 3 view .LVU1268
1334:Drivers/STM32F4xx_HAL_Driver/Src/stm32f4xx_ll_usb.c ****   uint32_t USBx_BASE = (uint32_t)USBx;
 3736              		.loc 1 1334 1 is_stmt 0 view .LVU1269
 3737 0000 10B4     		push	{r4}
 3738              	.LCFI54:
 3739              		.cfi_def_cfa_offset 4
 3740              		.cfi_offset 4, -4
1338:Drivers/STM32F4xx_HAL_Driver/Src/stm32f4xx_ll_usb.c ****   {
ARM GAS  /tmp/ccTCOTTa.s 			page 112


 3741              		.loc 1 1338 6 view .LVU1270
 3742 0002 144B     		ldr	r3, .L317
1336:Drivers/STM32F4xx_HAL_Driver/Src/stm32f4xx_ll_usb.c **** 
 3743              		.loc 1 1336 12 view .LVU1271
 3744 0004 046C     		ldr	r4, [r0, #64]
 3745              	.LVL269:
1338:Drivers/STM32F4xx_HAL_Driver/Src/stm32f4xx_ll_usb.c ****   {
 3746              		.loc 1 1338 3 is_stmt 1 view .LVU1272
1338:Drivers/STM32F4xx_HAL_Driver/Src/stm32f4xx_ll_usb.c ****   {
 3747              		.loc 1 1338 6 is_stmt 0 view .LVU1273
 3748 0006 9C42     		cmp	r4, r3
 3749 0008 1AD8     		bhi	.L311
1340:Drivers/STM32F4xx_HAL_Driver/Src/stm32f4xx_ll_usb.c ****     {
 3750              		.loc 1 1340 10 view .LVU1274
 3751 000a 00F53060 		add	r0, r0, #2816
 3752              	.LVL270:
 3753              	.L312:
1346:Drivers/STM32F4xx_HAL_Driver/Src/stm32f4xx_ll_usb.c ****   USBx_OUTEP(0U)->DOEPTSIZ |= (USB_OTG_DOEPTSIZ_PKTCNT & (1U << 19));
 3754              		.loc 1 1346 3 is_stmt 1 view .LVU1275
1346:Drivers/STM32F4xx_HAL_Driver/Src/stm32f4xx_ll_usb.c ****   USBx_OUTEP(0U)->DOEPTSIZ |= (USB_OTG_DOEPTSIZ_PKTCNT & (1U << 19));
 3755              		.loc 1 1346 28 is_stmt 0 view .LVU1276
 3756 000e 0023     		movs	r3, #0
 3757 0010 0361     		str	r3, [r0, #16]
1347:Drivers/STM32F4xx_HAL_Driver/Src/stm32f4xx_ll_usb.c ****   USBx_OUTEP(0U)->DOEPTSIZ |= (3U * 8U);
 3758              		.loc 1 1347 3 is_stmt 1 view .LVU1277
1347:Drivers/STM32F4xx_HAL_Driver/Src/stm32f4xx_ll_usb.c ****   USBx_OUTEP(0U)->DOEPTSIZ |= (3U * 8U);
 3759              		.loc 1 1347 28 is_stmt 0 view .LVU1278
 3760 0012 0369     		ldr	r3, [r0, #16]
 3761 0014 43F40023 		orr	r3, r3, #524288
 3762 0018 0361     		str	r3, [r0, #16]
1348:Drivers/STM32F4xx_HAL_Driver/Src/stm32f4xx_ll_usb.c ****   USBx_OUTEP(0U)->DOEPTSIZ |=  USB_OTG_DOEPTSIZ_STUPCNT;
 3763              		.loc 1 1348 3 is_stmt 1 view .LVU1279
1348:Drivers/STM32F4xx_HAL_Driver/Src/stm32f4xx_ll_usb.c ****   USBx_OUTEP(0U)->DOEPTSIZ |=  USB_OTG_DOEPTSIZ_STUPCNT;
 3764              		.loc 1 1348 28 is_stmt 0 view .LVU1280
 3765 001a 0369     		ldr	r3, [r0, #16]
 3766 001c 43F01803 		orr	r3, r3, #24
 3767 0020 0361     		str	r3, [r0, #16]
1349:Drivers/STM32F4xx_HAL_Driver/Src/stm32f4xx_ll_usb.c **** 
 3768              		.loc 1 1349 3 is_stmt 1 view .LVU1281
1349:Drivers/STM32F4xx_HAL_Driver/Src/stm32f4xx_ll_usb.c **** 
 3769              		.loc 1 1349 28 is_stmt 0 view .LVU1282
 3770 0022 0369     		ldr	r3, [r0, #16]
1351:Drivers/STM32F4xx_HAL_Driver/Src/stm32f4xx_ll_usb.c ****   {
 3771              		.loc 1 1351 6 view .LVU1283
 3772 0024 0129     		cmp	r1, #1
1349:Drivers/STM32F4xx_HAL_Driver/Src/stm32f4xx_ll_usb.c **** 
 3773              		.loc 1 1349 28 view .LVU1284
 3774 0026 43F0C043 		orr	r3, r3, #1610612736
 3775 002a 0361     		str	r3, [r0, #16]
1351:Drivers/STM32F4xx_HAL_Driver/Src/stm32f4xx_ll_usb.c ****   {
 3776              		.loc 1 1351 3 is_stmt 1 view .LVU1285
1351:Drivers/STM32F4xx_HAL_Driver/Src/stm32f4xx_ll_usb.c ****   {
 3777              		.loc 1 1351 6 is_stmt 0 view .LVU1286
 3778 002c 04D1     		bne	.L313
1353:Drivers/STM32F4xx_HAL_Driver/Src/stm32f4xx_ll_usb.c ****     /* EP enable */
 3779              		.loc 1 1353 5 is_stmt 1 view .LVU1287
1353:Drivers/STM32F4xx_HAL_Driver/Src/stm32f4xx_ll_usb.c ****     /* EP enable */
ARM GAS  /tmp/ccTCOTTa.s 			page 113


 3780              		.loc 1 1353 29 is_stmt 0 view .LVU1288
 3781 002e 4261     		str	r2, [r0, #20]
1355:Drivers/STM32F4xx_HAL_Driver/Src/stm32f4xx_ll_usb.c ****   }
 3782              		.loc 1 1355 5 is_stmt 1 view .LVU1289
1355:Drivers/STM32F4xx_HAL_Driver/Src/stm32f4xx_ll_usb.c ****   }
 3783              		.loc 1 1355 29 is_stmt 0 view .LVU1290
 3784 0030 0368     		ldr	r3, [r0]
 3785 0032 43F08023 		orr	r3, r3, #-2147450880
 3786 0036 0360     		str	r3, [r0]
 3787              	.L313:
1359:Drivers/STM32F4xx_HAL_Driver/Src/stm32f4xx_ll_usb.c **** 
 3788              		.loc 1 1359 1 view .LVU1291
 3789 0038 0020     		movs	r0, #0
 3790 003a 5DF8044B 		ldr	r4, [sp], #4
 3791              	.LCFI55:
 3792              		.cfi_remember_state
 3793              		.cfi_restore 4
 3794              		.cfi_def_cfa_offset 0
 3795              	.LVL271:
1359:Drivers/STM32F4xx_HAL_Driver/Src/stm32f4xx_ll_usb.c **** 
 3796              		.loc 1 1359 1 view .LVU1292
 3797 003e 7047     		bx	lr
 3798              	.LVL272:
 3799              	.L311:
 3800              	.LCFI56:
 3801              		.cfi_restore_state
1340:Drivers/STM32F4xx_HAL_Driver/Src/stm32f4xx_ll_usb.c ****     {
 3802              		.loc 1 1340 5 is_stmt 1 view .LVU1293
1340:Drivers/STM32F4xx_HAL_Driver/Src/stm32f4xx_ll_usb.c ****     {
 3803              		.loc 1 1340 24 is_stmt 0 view .LVU1294
 3804 0040 D0F8003B 		ldr	r3, [r0, #2816]
1340:Drivers/STM32F4xx_HAL_Driver/Src/stm32f4xx_ll_usb.c ****     {
 3805              		.loc 1 1340 8 view .LVU1295
 3806 0044 002B     		cmp	r3, #0
1340:Drivers/STM32F4xx_HAL_Driver/Src/stm32f4xx_ll_usb.c ****     {
 3807              		.loc 1 1340 10 view .LVU1296
 3808 0046 00F53060 		add	r0, r0, #2816
 3809              	.LVL273:
1340:Drivers/STM32F4xx_HAL_Driver/Src/stm32f4xx_ll_usb.c ****     {
 3810              		.loc 1 1340 8 view .LVU1297
 3811 004a E0DA     		bge	.L312
1359:Drivers/STM32F4xx_HAL_Driver/Src/stm32f4xx_ll_usb.c **** 
 3812              		.loc 1 1359 1 view .LVU1298
 3813 004c 0020     		movs	r0, #0
 3814              	.LVL274:
1359:Drivers/STM32F4xx_HAL_Driver/Src/stm32f4xx_ll_usb.c **** 
 3815              		.loc 1 1359 1 view .LVU1299
 3816 004e 5DF8044B 		ldr	r4, [sp], #4
 3817              	.LCFI57:
 3818              		.cfi_restore 4
 3819              		.cfi_def_cfa_offset 0
 3820              	.LVL275:
1359:Drivers/STM32F4xx_HAL_Driver/Src/stm32f4xx_ll_usb.c **** 
 3821              		.loc 1 1359 1 view .LVU1300
 3822 0052 7047     		bx	lr
 3823              	.L318:
 3824              		.align	2
ARM GAS  /tmp/ccTCOTTa.s 			page 114


 3825              	.L317:
 3826 0054 0A30544F 		.word	1330917386
 3827              		.cfi_endproc
 3828              	.LFE162:
 3830              		.section	.text.USB_HostInit,"ax",%progbits
 3831              		.align	1
 3832              		.p2align 2,,3
 3833              		.global	USB_HostInit
 3834              		.syntax unified
 3835              		.thumb
 3836              		.thumb_func
 3838              	USB_HostInit:
 3839              	.LVL276:
 3840              	.LFB164:
1393:Drivers/STM32F4xx_HAL_Driver/Src/stm32f4xx_ll_usb.c **** 
1394:Drivers/STM32F4xx_HAL_Driver/Src/stm32f4xx_ll_usb.c **** /**
1395:Drivers/STM32F4xx_HAL_Driver/Src/stm32f4xx_ll_usb.c ****   * @brief  USB_HostInit : Initializes the USB OTG controller registers
1396:Drivers/STM32F4xx_HAL_Driver/Src/stm32f4xx_ll_usb.c ****   *         for Host mode
1397:Drivers/STM32F4xx_HAL_Driver/Src/stm32f4xx_ll_usb.c ****   * @param  USBx  Selected device
1398:Drivers/STM32F4xx_HAL_Driver/Src/stm32f4xx_ll_usb.c ****   * @param  cfg   pointer to a USB_OTG_CfgTypeDef structure that contains
1399:Drivers/STM32F4xx_HAL_Driver/Src/stm32f4xx_ll_usb.c ****   *         the configuration information for the specified USBx peripheral.
1400:Drivers/STM32F4xx_HAL_Driver/Src/stm32f4xx_ll_usb.c ****   * @retval HAL status
1401:Drivers/STM32F4xx_HAL_Driver/Src/stm32f4xx_ll_usb.c ****   */
1402:Drivers/STM32F4xx_HAL_Driver/Src/stm32f4xx_ll_usb.c **** HAL_StatusTypeDef USB_HostInit(USB_OTG_GlobalTypeDef *USBx, USB_OTG_CfgTypeDef cfg)
1403:Drivers/STM32F4xx_HAL_Driver/Src/stm32f4xx_ll_usb.c **** {
 3841              		.loc 1 1403 1 is_stmt 1 view -0
 3842              		.cfi_startproc
 3843              		@ args = 56, pretend = 16, frame = 8
 3844              		@ frame_needed = 0, uses_anonymous_args = 0
 3845              		@ link register save eliminated.
 3846              		.loc 1 1403 1 is_stmt 0 view .LVU1302
 3847 0000 84B0     		sub	sp, sp, #16
 3848              	.LCFI58:
 3849              		.cfi_def_cfa_offset 16
 3850 0002 10B4     		push	{r4}
 3851              	.LCFI59:
 3852              		.cfi_def_cfa_offset 20
 3853              		.cfi_offset 4, -20
 3854 0004 83B0     		sub	sp, sp, #12
 3855              	.LCFI60:
 3856              		.cfi_def_cfa_offset 32
 3857              		.loc 1 1403 1 view .LVU1303
 3858 0006 8446     		mov	ip, r0
 3859 0008 05A8     		add	r0, sp, #20
 3860 000a 80E80E00 		stm	r0, {r1, r2, r3}
1404:Drivers/STM32F4xx_HAL_Driver/Src/stm32f4xx_ll_usb.c ****   uint32_t USBx_BASE = (uint32_t)USBx;
1405:Drivers/STM32F4xx_HAL_Driver/Src/stm32f4xx_ll_usb.c ****   uint32_t i;
1406:Drivers/STM32F4xx_HAL_Driver/Src/stm32f4xx_ll_usb.c **** 
1407:Drivers/STM32F4xx_HAL_Driver/Src/stm32f4xx_ll_usb.c ****   /* Restart the Phy Clock */
1408:Drivers/STM32F4xx_HAL_Driver/Src/stm32f4xx_ll_usb.c ****   USBx_PCGCCTL = 0U;
 3861              		.loc 1 1408 16 view .LVU1304
 3862 000e 0023     		movs	r3, #0
 3863 0010 CCF8003E 		str	r3, [ip, #3584]
1409:Drivers/STM32F4xx_HAL_Driver/Src/stm32f4xx_ll_usb.c **** 
1410:Drivers/STM32F4xx_HAL_Driver/Src/stm32f4xx_ll_usb.c **** #if defined(STM32F446xx) || defined(STM32F469xx) || defined(STM32F479xx) || defined(STM32F412Zx) ||
1411:Drivers/STM32F4xx_HAL_Driver/Src/stm32f4xx_ll_usb.c ****   /* Disable HW VBUS sensing */
1412:Drivers/STM32F4xx_HAL_Driver/Src/stm32f4xx_ll_usb.c ****   USBx->GCCFG &= ~(USB_OTG_GCCFG_VBDEN);
ARM GAS  /tmp/ccTCOTTa.s 			page 115


1413:Drivers/STM32F4xx_HAL_Driver/Src/stm32f4xx_ll_usb.c **** #else
1414:Drivers/STM32F4xx_HAL_Driver/Src/stm32f4xx_ll_usb.c ****   /*
1415:Drivers/STM32F4xx_HAL_Driver/Src/stm32f4xx_ll_usb.c ****   * Disable HW VBUS sensing. VBUS is internally considered to be always
1416:Drivers/STM32F4xx_HAL_Driver/Src/stm32f4xx_ll_usb.c ****   * at VBUS-Valid level (5V).
1417:Drivers/STM32F4xx_HAL_Driver/Src/stm32f4xx_ll_usb.c ****   */
1418:Drivers/STM32F4xx_HAL_Driver/Src/stm32f4xx_ll_usb.c ****   USBx->GCCFG |= USB_OTG_GCCFG_NOVBUSSENS;
 3864              		.loc 1 1418 15 view .LVU1305
 3865 0014 DCF83830 		ldr	r3, [ip, #56]
 3866 0018 43F40013 		orr	r3, r3, #2097152
 3867 001c CCF83830 		str	r3, [ip, #56]
1419:Drivers/STM32F4xx_HAL_Driver/Src/stm32f4xx_ll_usb.c ****   USBx->GCCFG &= ~USB_OTG_GCCFG_VBUSBSEN;
 3868              		.loc 1 1419 15 view .LVU1306
 3869 0020 DCF83830 		ldr	r3, [ip, #56]
 3870 0024 23F40023 		bic	r3, r3, #524288
 3871 0028 CCF83830 		str	r3, [ip, #56]
1420:Drivers/STM32F4xx_HAL_Driver/Src/stm32f4xx_ll_usb.c ****   USBx->GCCFG &= ~USB_OTG_GCCFG_VBUSASEN;
 3872              		.loc 1 1420 15 view .LVU1307
 3873 002c DCF83830 		ldr	r3, [ip, #56]
 3874 0030 23F48023 		bic	r3, r3, #262144
 3875 0034 CCF83830 		str	r3, [ip, #56]
1421:Drivers/STM32F4xx_HAL_Driver/Src/stm32f4xx_ll_usb.c **** #endif /* defined(STM32F446xx) || defined(STM32F469xx) || defined(STM32F479xx) || defined(STM32F412
1422:Drivers/STM32F4xx_HAL_Driver/Src/stm32f4xx_ll_usb.c **** #if defined(STM32F412Zx) || defined(STM32F412Vx) || defined(STM32F412Rx) || defined(STM32F412Cx) ||
1423:Drivers/STM32F4xx_HAL_Driver/Src/stm32f4xx_ll_usb.c ****   /* Disable Battery chargin detector */
1424:Drivers/STM32F4xx_HAL_Driver/Src/stm32f4xx_ll_usb.c ****   USBx->GCCFG &= ~(USB_OTG_GCCFG_BCDEN);
1425:Drivers/STM32F4xx_HAL_Driver/Src/stm32f4xx_ll_usb.c **** #endif /* defined(STM32F412Zx) || defined(STM32F412Vx) || defined(STM32F412Rx) || defined(STM32F412
1426:Drivers/STM32F4xx_HAL_Driver/Src/stm32f4xx_ll_usb.c **** 
1427:Drivers/STM32F4xx_HAL_Driver/Src/stm32f4xx_ll_usb.c ****   if ((USBx->CID & (0x1U << 8)) != 0U)
 3876              		.loc 1 1427 12 view .LVU1308
 3877 0038 DCF83C30 		ldr	r3, [ip, #60]
 3878              		.loc 1 1427 6 view .LVU1309
 3879 003c DB05     		lsls	r3, r3, #23
 3880 003e 1146     		mov	r1, r2
 3881              	.LVL277:
1404:Drivers/STM32F4xx_HAL_Driver/Src/stm32f4xx_ll_usb.c ****   uint32_t i;
 3882              		.loc 1 1404 3 is_stmt 1 view .LVU1310
1405:Drivers/STM32F4xx_HAL_Driver/Src/stm32f4xx_ll_usb.c **** 
 3883              		.loc 1 1405 3 view .LVU1311
1408:Drivers/STM32F4xx_HAL_Driver/Src/stm32f4xx_ll_usb.c **** 
 3884              		.loc 1 1408 3 view .LVU1312
1418:Drivers/STM32F4xx_HAL_Driver/Src/stm32f4xx_ll_usb.c ****   USBx->GCCFG &= ~USB_OTG_GCCFG_VBUSBSEN;
 3885              		.loc 1 1418 3 view .LVU1313
1419:Drivers/STM32F4xx_HAL_Driver/Src/stm32f4xx_ll_usb.c ****   USBx->GCCFG &= ~USB_OTG_GCCFG_VBUSASEN;
 3886              		.loc 1 1419 3 view .LVU1314
1420:Drivers/STM32F4xx_HAL_Driver/Src/stm32f4xx_ll_usb.c **** #endif /* defined(STM32F446xx) || defined(STM32F469xx) || defined(STM32F479xx) || defined(STM32F412
 3887              		.loc 1 1420 3 view .LVU1315
 3888              		.loc 1 1427 3 view .LVU1316
 3889              		.loc 1 1427 6 is_stmt 0 view .LVU1317
 3890 0040 6AD5     		bpl	.L320
1428:Drivers/STM32F4xx_HAL_Driver/Src/stm32f4xx_ll_usb.c ****   {
1429:Drivers/STM32F4xx_HAL_Driver/Src/stm32f4xx_ll_usb.c ****     if (cfg.speed == USBH_FSLS_SPEED)
 3891              		.loc 1 1429 5 is_stmt 1 view .LVU1318
 3892              		.loc 1 1429 8 is_stmt 0 view .LVU1319
 3893 0042 079B     		ldr	r3, [sp, #28]
 3894 0044 012B     		cmp	r3, #1
1430:Drivers/STM32F4xx_HAL_Driver/Src/stm32f4xx_ll_usb.c ****     {
1431:Drivers/STM32F4xx_HAL_Driver/Src/stm32f4xx_ll_usb.c ****       /* Force Device Enumeration to FS/LS mode only */
1432:Drivers/STM32F4xx_HAL_Driver/Src/stm32f4xx_ll_usb.c ****       USBx_HOST->HCFG |= USB_OTG_HCFG_FSLSS;
ARM GAS  /tmp/ccTCOTTa.s 			page 116


 3895              		.loc 1 1432 23 view .LVU1320
 3896 0046 DCF80034 		ldr	r3, [ip, #1024]
1429:Drivers/STM32F4xx_HAL_Driver/Src/stm32f4xx_ll_usb.c ****     {
 3897              		.loc 1 1429 8 view .LVU1321
 3898 004a 68D0     		beq	.L340
 3899              	.L339:
1433:Drivers/STM32F4xx_HAL_Driver/Src/stm32f4xx_ll_usb.c ****     }
1434:Drivers/STM32F4xx_HAL_Driver/Src/stm32f4xx_ll_usb.c ****     else
1435:Drivers/STM32F4xx_HAL_Driver/Src/stm32f4xx_ll_usb.c ****     {
1436:Drivers/STM32F4xx_HAL_Driver/Src/stm32f4xx_ll_usb.c ****       /* Set default Max speed support */
1437:Drivers/STM32F4xx_HAL_Driver/Src/stm32f4xx_ll_usb.c ****       USBx_HOST->HCFG &= ~(USB_OTG_HCFG_FSLSS);
1438:Drivers/STM32F4xx_HAL_Driver/Src/stm32f4xx_ll_usb.c ****     }
1439:Drivers/STM32F4xx_HAL_Driver/Src/stm32f4xx_ll_usb.c ****   }
1440:Drivers/STM32F4xx_HAL_Driver/Src/stm32f4xx_ll_usb.c ****   else
1441:Drivers/STM32F4xx_HAL_Driver/Src/stm32f4xx_ll_usb.c ****   {
1442:Drivers/STM32F4xx_HAL_Driver/Src/stm32f4xx_ll_usb.c ****     /* Set default Max speed support */
1443:Drivers/STM32F4xx_HAL_Driver/Src/stm32f4xx_ll_usb.c ****     USBx_HOST->HCFG &= ~(USB_OTG_HCFG_FSLSS);
 3900              		.loc 1 1443 21 view .LVU1322
 3901 004c 23F00403 		bic	r3, r3, #4
 3902 0050 CCF80034 		str	r3, [ip, #1024]
 3903              	.L322:
1444:Drivers/STM32F4xx_HAL_Driver/Src/stm32f4xx_ll_usb.c ****   }
1445:Drivers/STM32F4xx_HAL_Driver/Src/stm32f4xx_ll_usb.c **** 
1446:Drivers/STM32F4xx_HAL_Driver/Src/stm32f4xx_ll_usb.c ****   /* Make sure the FIFOs are flushed. */
1447:Drivers/STM32F4xx_HAL_Driver/Src/stm32f4xx_ll_usb.c ****   (void)USB_FlushTxFifo(USBx, 0x10U); /* all Tx FIFOs */
 3904              		.loc 1 1447 3 is_stmt 1 view .LVU1323
 3905              	.LVL278:
 3906              	.LBB80:
 3907              	.LBI80:
 472:Drivers/STM32F4xx_HAL_Driver/Src/stm32f4xx_ll_usb.c **** {
 3908              		.loc 1 472 19 view .LVU1324
 3909              	.LBB81:
 474:Drivers/STM32F4xx_HAL_Driver/Src/stm32f4xx_ll_usb.c **** 
 3910              		.loc 1 474 3 view .LVU1325
 474:Drivers/STM32F4xx_HAL_Driver/Src/stm32f4xx_ll_usb.c **** 
 3911              		.loc 1 474 17 is_stmt 0 view .LVU1326
 3912 0054 0020     		movs	r0, #0
 3913              	.LVL279:
 476:Drivers/STM32F4xx_HAL_Driver/Src/stm32f4xx_ll_usb.c **** 
 3914              		.loc 1 476 17 view .LVU1327
 3915 0056 4FF48463 		mov	r3, #1056
 474:Drivers/STM32F4xx_HAL_Driver/Src/stm32f4xx_ll_usb.c **** 
 3916              		.loc 1 474 17 view .LVU1328
 3917 005a 0190     		str	r0, [sp, #4]
 476:Drivers/STM32F4xx_HAL_Driver/Src/stm32f4xx_ll_usb.c **** 
 3918              		.loc 1 476 3 is_stmt 1 view .LVU1329
 480:Drivers/STM32F4xx_HAL_Driver/Src/stm32f4xx_ll_usb.c ****     {
 3919              		.loc 1 480 8 is_stmt 0 view .LVU1330
 3920 005c 324A     		ldr	r2, .L344
 476:Drivers/STM32F4xx_HAL_Driver/Src/stm32f4xx_ll_usb.c **** 
 3921              		.loc 1 476 17 view .LVU1331
 3922 005e CCF81030 		str	r3, [ip, #16]
 3923 0062 03E0     		b	.L324
 3924              	.L341:
 484:Drivers/STM32F4xx_HAL_Driver/Src/stm32f4xx_ll_usb.c **** 
 3925              		.loc 1 484 17 view .LVU1332
 3926 0064 DCF81030 		ldr	r3, [ip, #16]
ARM GAS  /tmp/ccTCOTTa.s 			page 117


 484:Drivers/STM32F4xx_HAL_Driver/Src/stm32f4xx_ll_usb.c **** 
 3927              		.loc 1 484 3 view .LVU1333
 3928 0068 9C06     		lsls	r4, r3, #26
 3929 006a 04D5     		bpl	.L323
 3930              	.L324:
 478:Drivers/STM32F4xx_HAL_Driver/Src/stm32f4xx_ll_usb.c ****   {
 3931              		.loc 1 478 3 is_stmt 1 view .LVU1334
 480:Drivers/STM32F4xx_HAL_Driver/Src/stm32f4xx_ll_usb.c ****     {
 3932              		.loc 1 480 5 view .LVU1335
 484:Drivers/STM32F4xx_HAL_Driver/Src/stm32f4xx_ll_usb.c **** 
 3933              		.loc 1 484 11 view .LVU1336
 480:Drivers/STM32F4xx_HAL_Driver/Src/stm32f4xx_ll_usb.c ****     {
 3934              		.loc 1 480 9 is_stmt 0 view .LVU1337
 3935 006c 019B     		ldr	r3, [sp, #4]
 3936 006e 0133     		adds	r3, r3, #1
 480:Drivers/STM32F4xx_HAL_Driver/Src/stm32f4xx_ll_usb.c ****     {
 3937              		.loc 1 480 8 view .LVU1338
 3938 0070 9342     		cmp	r3, r2
 3939 0072 0193     		str	r3, [sp, #4]
 3940 0074 F6D9     		bls	.L341
 3941              	.L323:
 3942              	.LVL280:
 480:Drivers/STM32F4xx_HAL_Driver/Src/stm32f4xx_ll_usb.c ****     {
 3943              		.loc 1 480 8 view .LVU1339
 3944              	.LBE81:
 3945              	.LBE80:
1448:Drivers/STM32F4xx_HAL_Driver/Src/stm32f4xx_ll_usb.c ****   (void)USB_FlushRxFifo(USBx);
 3946              		.loc 1 1448 3 is_stmt 1 view .LVU1340
 3947              	.LBB82:
 3948              	.LBI82:
 494:Drivers/STM32F4xx_HAL_Driver/Src/stm32f4xx_ll_usb.c **** {
 3949              		.loc 1 494 19 view .LVU1341
 3950              	.LBB83:
 496:Drivers/STM32F4xx_HAL_Driver/Src/stm32f4xx_ll_usb.c **** 
 3951              		.loc 1 496 3 view .LVU1342
 496:Drivers/STM32F4xx_HAL_Driver/Src/stm32f4xx_ll_usb.c **** 
 3952              		.loc 1 496 17 is_stmt 0 view .LVU1343
 3953 0076 0020     		movs	r0, #0
 498:Drivers/STM32F4xx_HAL_Driver/Src/stm32f4xx_ll_usb.c **** 
 3954              		.loc 1 498 17 view .LVU1344
 3955 0078 1023     		movs	r3, #16
 496:Drivers/STM32F4xx_HAL_Driver/Src/stm32f4xx_ll_usb.c **** 
 3956              		.loc 1 496 17 view .LVU1345
 3957 007a 0090     		str	r0, [sp]
 498:Drivers/STM32F4xx_HAL_Driver/Src/stm32f4xx_ll_usb.c **** 
 3958              		.loc 1 498 3 is_stmt 1 view .LVU1346
 502:Drivers/STM32F4xx_HAL_Driver/Src/stm32f4xx_ll_usb.c ****     {
 3959              		.loc 1 502 8 is_stmt 0 view .LVU1347
 3960 007c 2A4A     		ldr	r2, .L344
 498:Drivers/STM32F4xx_HAL_Driver/Src/stm32f4xx_ll_usb.c **** 
 3961              		.loc 1 498 17 view .LVU1348
 3962 007e CCF81030 		str	r3, [ip, #16]
 3963 0082 03E0     		b	.L326
 3964              	.L342:
 506:Drivers/STM32F4xx_HAL_Driver/Src/stm32f4xx_ll_usb.c **** 
 3965              		.loc 1 506 17 view .LVU1349
 3966 0084 DCF81030 		ldr	r3, [ip, #16]
ARM GAS  /tmp/ccTCOTTa.s 			page 118


 506:Drivers/STM32F4xx_HAL_Driver/Src/stm32f4xx_ll_usb.c **** 
 3967              		.loc 1 506 3 view .LVU1350
 3968 0088 D806     		lsls	r0, r3, #27
 3969 008a 04D5     		bpl	.L325
 3970              	.L326:
 500:Drivers/STM32F4xx_HAL_Driver/Src/stm32f4xx_ll_usb.c ****   {
 3971              		.loc 1 500 3 is_stmt 1 view .LVU1351
 502:Drivers/STM32F4xx_HAL_Driver/Src/stm32f4xx_ll_usb.c ****     {
 3972              		.loc 1 502 5 view .LVU1352
 506:Drivers/STM32F4xx_HAL_Driver/Src/stm32f4xx_ll_usb.c **** 
 3973              		.loc 1 506 11 view .LVU1353
 502:Drivers/STM32F4xx_HAL_Driver/Src/stm32f4xx_ll_usb.c ****     {
 3974              		.loc 1 502 9 is_stmt 0 view .LVU1354
 3975 008c 009B     		ldr	r3, [sp]
 3976 008e 0133     		adds	r3, r3, #1
 502:Drivers/STM32F4xx_HAL_Driver/Src/stm32f4xx_ll_usb.c ****     {
 3977              		.loc 1 502 8 view .LVU1355
 3978 0090 9342     		cmp	r3, r2
 3979 0092 0093     		str	r3, [sp]
 3980 0094 F6D9     		bls	.L342
 3981              	.L325:
 3982              	.LVL281:
 502:Drivers/STM32F4xx_HAL_Driver/Src/stm32f4xx_ll_usb.c ****     {
 3983              		.loc 1 502 8 view .LVU1356
 3984              	.LBE83:
 3985              	.LBE82:
1449:Drivers/STM32F4xx_HAL_Driver/Src/stm32f4xx_ll_usb.c **** 
1450:Drivers/STM32F4xx_HAL_Driver/Src/stm32f4xx_ll_usb.c ****   /* Clear all pending HC Interrupts */
1451:Drivers/STM32F4xx_HAL_Driver/Src/stm32f4xx_ll_usb.c ****   for (i = 0U; i < cfg.Host_channels; i++)
 3986              		.loc 1 1451 16 is_stmt 1 discriminator 1 view .LVU1357
 3987              		.loc 1 1451 3 is_stmt 0 discriminator 1 view .LVU1358
 3988 0096 61B1     		cbz	r1, .L331
 3989              		.loc 1 1451 3 view .LVU1359
 3990 0098 0022     		movs	r2, #0
 3991 009a 0CF5A063 		add	r3, ip, #1280
1452:Drivers/STM32F4xx_HAL_Driver/Src/stm32f4xx_ll_usb.c ****   {
1453:Drivers/STM32F4xx_HAL_Driver/Src/stm32f4xx_ll_usb.c ****     USBx_HC(i)->HCINT = 0xFFFFFFFFU;
 3992              		.loc 1 1453 23 view .LVU1360
 3993 009e 4FF0FF34 		mov	r4, #-1
1454:Drivers/STM32F4xx_HAL_Driver/Src/stm32f4xx_ll_usb.c ****     USBx_HC(i)->HCINTMSK = 0U;
 3994              		.loc 1 1454 26 view .LVU1361
 3995 00a2 1046     		mov	r0, r2
 3996              	.LVL282:
 3997              	.L330:
1453:Drivers/STM32F4xx_HAL_Driver/Src/stm32f4xx_ll_usb.c ****     USBx_HC(i)->HCINTMSK = 0U;
 3998              		.loc 1 1453 5 is_stmt 1 discriminator 3 view .LVU1362
1451:Drivers/STM32F4xx_HAL_Driver/Src/stm32f4xx_ll_usb.c ****   {
 3999              		.loc 1 1451 40 is_stmt 0 discriminator 3 view .LVU1363
 4000 00a4 0132     		adds	r2, r2, #1
 4001              	.LVL283:
1451:Drivers/STM32F4xx_HAL_Driver/Src/stm32f4xx_ll_usb.c ****   {
 4002              		.loc 1 1451 3 discriminator 3 view .LVU1364
 4003 00a6 8A42     		cmp	r2, r1
1453:Drivers/STM32F4xx_HAL_Driver/Src/stm32f4xx_ll_usb.c ****     USBx_HC(i)->HCINTMSK = 0U;
 4004              		.loc 1 1453 23 discriminator 3 view .LVU1365
 4005 00a8 9C60     		str	r4, [r3, #8]
 4006              		.loc 1 1454 5 is_stmt 1 discriminator 3 view .LVU1366
ARM GAS  /tmp/ccTCOTTa.s 			page 119


 4007              		.loc 1 1454 26 is_stmt 0 discriminator 3 view .LVU1367
 4008 00aa D860     		str	r0, [r3, #12]
1451:Drivers/STM32F4xx_HAL_Driver/Src/stm32f4xx_ll_usb.c ****   {
 4009              		.loc 1 1451 39 is_stmt 1 discriminator 3 view .LVU1368
 4010              	.LVL284:
1451:Drivers/STM32F4xx_HAL_Driver/Src/stm32f4xx_ll_usb.c ****   {
 4011              		.loc 1 1451 16 discriminator 3 view .LVU1369
1451:Drivers/STM32F4xx_HAL_Driver/Src/stm32f4xx_ll_usb.c ****   {
 4012              		.loc 1 1451 3 is_stmt 0 discriminator 3 view .LVU1370
 4013 00ac 03F12003 		add	r3, r3, #32
 4014 00b0 F8D1     		bne	.L330
 4015              	.LVL285:
 4016              	.L331:
1455:Drivers/STM32F4xx_HAL_Driver/Src/stm32f4xx_ll_usb.c ****   }
1456:Drivers/STM32F4xx_HAL_Driver/Src/stm32f4xx_ll_usb.c **** 
1457:Drivers/STM32F4xx_HAL_Driver/Src/stm32f4xx_ll_usb.c ****   /* Disable all interrupts. */
1458:Drivers/STM32F4xx_HAL_Driver/Src/stm32f4xx_ll_usb.c ****   USBx->GINTMSK = 0U;
 4017              		.loc 1 1458 3 is_stmt 1 view .LVU1371
1459:Drivers/STM32F4xx_HAL_Driver/Src/stm32f4xx_ll_usb.c **** 
1460:Drivers/STM32F4xx_HAL_Driver/Src/stm32f4xx_ll_usb.c ****   /* Clear any pending interrupts */
1461:Drivers/STM32F4xx_HAL_Driver/Src/stm32f4xx_ll_usb.c ****   USBx->GINTSTS = 0xFFFFFFFFU;
 4018              		.loc 1 1461 17 is_stmt 0 view .LVU1372
 4019 00b2 4FF0FF33 		mov	r3, #-1
1458:Drivers/STM32F4xx_HAL_Driver/Src/stm32f4xx_ll_usb.c **** 
 4020              		.loc 1 1458 17 view .LVU1373
 4021 00b6 0022     		movs	r2, #0
 4022 00b8 CCF81820 		str	r2, [ip, #24]
 4023              		.loc 1 1461 3 is_stmt 1 view .LVU1374
 4024              		.loc 1 1461 17 is_stmt 0 view .LVU1375
 4025 00bc CCF81430 		str	r3, [ip, #20]
1462:Drivers/STM32F4xx_HAL_Driver/Src/stm32f4xx_ll_usb.c **** 
1463:Drivers/STM32F4xx_HAL_Driver/Src/stm32f4xx_ll_usb.c ****   if ((USBx->CID & (0x1U << 8)) != 0U)
 4026              		.loc 1 1463 3 is_stmt 1 view .LVU1376
 4027              		.loc 1 1463 12 is_stmt 0 view .LVU1377
 4028 00c0 DCF83C30 		ldr	r3, [ip, #60]
 4029              		.loc 1 1463 6 view .LVU1378
 4030 00c4 DB05     		lsls	r3, r3, #23
 4031 00c6 1DD5     		bpl	.L343
1464:Drivers/STM32F4xx_HAL_Driver/Src/stm32f4xx_ll_usb.c ****   {
1465:Drivers/STM32F4xx_HAL_Driver/Src/stm32f4xx_ll_usb.c ****     /* set Rx FIFO size */
1466:Drivers/STM32F4xx_HAL_Driver/Src/stm32f4xx_ll_usb.c ****     USBx->GRXFSIZ  = 0x200U;
 4032              		.loc 1 1466 5 is_stmt 1 view .LVU1379
1467:Drivers/STM32F4xx_HAL_Driver/Src/stm32f4xx_ll_usb.c ****     USBx->DIEPTXF0_HNPTXFSIZ = (uint32_t)(((0x100U << 16) & USB_OTG_NPTXFD) | 0x200U);
 4033              		.loc 1 1467 30 is_stmt 0 view .LVU1380
 4034 00c8 184A     		ldr	r2, .L344+4
1468:Drivers/STM32F4xx_HAL_Driver/Src/stm32f4xx_ll_usb.c ****     USBx->HPTXFSIZ = (uint32_t)(((0xE0U << 16) & USB_OTG_HPTXFSIZ_PTXFD) | 0x300U);
 4035              		.loc 1 1468 20 view .LVU1381
 4036 00ca 194B     		ldr	r3, .L344+8
1466:Drivers/STM32F4xx_HAL_Driver/Src/stm32f4xx_ll_usb.c ****     USBx->DIEPTXF0_HNPTXFSIZ = (uint32_t)(((0x100U << 16) & USB_OTG_NPTXFD) | 0x200U);
 4037              		.loc 1 1466 20 view .LVU1382
 4038 00cc 4FF40071 		mov	r1, #512
 4039              	.LVL286:
1466:Drivers/STM32F4xx_HAL_Driver/Src/stm32f4xx_ll_usb.c ****     USBx->DIEPTXF0_HNPTXFSIZ = (uint32_t)(((0x100U << 16) & USB_OTG_NPTXFD) | 0x200U);
 4040              		.loc 1 1466 20 view .LVU1383
 4041 00d0 CCF82410 		str	r1, [ip, #36]
1467:Drivers/STM32F4xx_HAL_Driver/Src/stm32f4xx_ll_usb.c ****     USBx->DIEPTXF0_HNPTXFSIZ = (uint32_t)(((0x100U << 16) & USB_OTG_NPTXFD) | 0x200U);
 4042              		.loc 1 1467 5 is_stmt 1 view .LVU1384
ARM GAS  /tmp/ccTCOTTa.s 			page 120


1467:Drivers/STM32F4xx_HAL_Driver/Src/stm32f4xx_ll_usb.c ****     USBx->DIEPTXF0_HNPTXFSIZ = (uint32_t)(((0x100U << 16) & USB_OTG_NPTXFD) | 0x200U);
 4043              		.loc 1 1467 30 is_stmt 0 view .LVU1385
 4044 00d4 CCF82820 		str	r2, [ip, #40]
 4045              		.loc 1 1468 5 is_stmt 1 view .LVU1386
 4046              		.loc 1 1468 20 is_stmt 0 view .LVU1387
 4047 00d8 CCF80031 		str	r3, [ip, #256]
 4048              	.L332:
1469:Drivers/STM32F4xx_HAL_Driver/Src/stm32f4xx_ll_usb.c ****   }
1470:Drivers/STM32F4xx_HAL_Driver/Src/stm32f4xx_ll_usb.c ****   else
1471:Drivers/STM32F4xx_HAL_Driver/Src/stm32f4xx_ll_usb.c ****   {
1472:Drivers/STM32F4xx_HAL_Driver/Src/stm32f4xx_ll_usb.c ****     /* set Rx FIFO size */
1473:Drivers/STM32F4xx_HAL_Driver/Src/stm32f4xx_ll_usb.c ****     USBx->GRXFSIZ  = 0x80U;
1474:Drivers/STM32F4xx_HAL_Driver/Src/stm32f4xx_ll_usb.c ****     USBx->DIEPTXF0_HNPTXFSIZ = (uint32_t)(((0x60U << 16) & USB_OTG_NPTXFD) | 0x80U);
1475:Drivers/STM32F4xx_HAL_Driver/Src/stm32f4xx_ll_usb.c ****     USBx->HPTXFSIZ = (uint32_t)(((0x40U << 16)& USB_OTG_HPTXFSIZ_PTXFD) | 0xE0U);
1476:Drivers/STM32F4xx_HAL_Driver/Src/stm32f4xx_ll_usb.c ****   }
1477:Drivers/STM32F4xx_HAL_Driver/Src/stm32f4xx_ll_usb.c **** 
1478:Drivers/STM32F4xx_HAL_Driver/Src/stm32f4xx_ll_usb.c ****   /* Enable the common interrupts */
1479:Drivers/STM32F4xx_HAL_Driver/Src/stm32f4xx_ll_usb.c ****   if (cfg.dma_enable == 0U)
 4049              		.loc 1 1479 3 is_stmt 1 view .LVU1388
 4050              		.loc 1 1479 6 is_stmt 0 view .LVU1389
 4051 00dc 089B     		ldr	r3, [sp, #32]
 4052 00de 2BB9     		cbnz	r3, .L333
1480:Drivers/STM32F4xx_HAL_Driver/Src/stm32f4xx_ll_usb.c ****   {
1481:Drivers/STM32F4xx_HAL_Driver/Src/stm32f4xx_ll_usb.c ****     USBx->GINTMSK |= USB_OTG_GINTMSK_RXFLVLM;
 4053              		.loc 1 1481 5 is_stmt 1 view .LVU1390
 4054              		.loc 1 1481 19 is_stmt 0 view .LVU1391
 4055 00e0 DCF81830 		ldr	r3, [ip, #24]
 4056 00e4 43F01003 		orr	r3, r3, #16
 4057 00e8 CCF81830 		str	r3, [ip, #24]
 4058              	.L333:
1482:Drivers/STM32F4xx_HAL_Driver/Src/stm32f4xx_ll_usb.c ****   }
1483:Drivers/STM32F4xx_HAL_Driver/Src/stm32f4xx_ll_usb.c **** 
1484:Drivers/STM32F4xx_HAL_Driver/Src/stm32f4xx_ll_usb.c ****   /* Enable interrupts matching to the Host mode ONLY */
1485:Drivers/STM32F4xx_HAL_Driver/Src/stm32f4xx_ll_usb.c ****   USBx->GINTMSK |= (USB_OTG_GINTMSK_PRTIM            | USB_OTG_GINTMSK_HCIM | \
 4059              		.loc 1 1485 3 is_stmt 1 view .LVU1392
 4060              		.loc 1 1485 17 is_stmt 0 view .LVU1393
 4061 00ec DCF81820 		ldr	r2, [ip, #24]
 4062 00f0 104B     		ldr	r3, .L344+12
1486:Drivers/STM32F4xx_HAL_Driver/Src/stm32f4xx_ll_usb.c ****                     USB_OTG_GINTMSK_SOFM             | USB_OTG_GINTSTS_DISCINT | \
1487:Drivers/STM32F4xx_HAL_Driver/Src/stm32f4xx_ll_usb.c ****                     USB_OTG_GINTMSK_PXFRM_IISOOXFRM  | USB_OTG_GINTMSK_WUIM);
1488:Drivers/STM32F4xx_HAL_Driver/Src/stm32f4xx_ll_usb.c **** 
1489:Drivers/STM32F4xx_HAL_Driver/Src/stm32f4xx_ll_usb.c ****   return HAL_OK;
1490:Drivers/STM32F4xx_HAL_Driver/Src/stm32f4xx_ll_usb.c **** }
 4063              		.loc 1 1490 1 view .LVU1394
 4064 00f2 0020     		movs	r0, #0
1485:Drivers/STM32F4xx_HAL_Driver/Src/stm32f4xx_ll_usb.c ****                     USB_OTG_GINTMSK_SOFM             | USB_OTG_GINTSTS_DISCINT | \
 4065              		.loc 1 1485 17 view .LVU1395
 4066 00f4 1343     		orrs	r3, r3, r2
 4067 00f6 CCF81830 		str	r3, [ip, #24]
1489:Drivers/STM32F4xx_HAL_Driver/Src/stm32f4xx_ll_usb.c **** }
 4068              		.loc 1 1489 3 is_stmt 1 view .LVU1396
 4069              		.loc 1 1490 1 is_stmt 0 view .LVU1397
 4070 00fa 03B0     		add	sp, sp, #12
 4071              	.LCFI61:
 4072              		.cfi_remember_state
 4073              		.cfi_def_cfa_offset 20
 4074              		@ sp needed
ARM GAS  /tmp/ccTCOTTa.s 			page 121


 4075 00fc 5DF8044B 		ldr	r4, [sp], #4
 4076              	.LCFI62:
 4077              		.cfi_restore 4
 4078              		.cfi_def_cfa_offset 16
 4079 0100 04B0     		add	sp, sp, #16
 4080              	.LCFI63:
 4081              		.cfi_def_cfa_offset 0
 4082 0102 7047     		bx	lr
 4083              	.LVL287:
 4084              	.L343:
 4085              	.LCFI64:
 4086              		.cfi_restore_state
1473:Drivers/STM32F4xx_HAL_Driver/Src/stm32f4xx_ll_usb.c ****     USBx->DIEPTXF0_HNPTXFSIZ = (uint32_t)(((0x60U << 16) & USB_OTG_NPTXFD) | 0x80U);
 4087              		.loc 1 1473 5 is_stmt 1 view .LVU1398
1474:Drivers/STM32F4xx_HAL_Driver/Src/stm32f4xx_ll_usb.c ****     USBx->HPTXFSIZ = (uint32_t)(((0x40U << 16)& USB_OTG_HPTXFSIZ_PTXFD) | 0xE0U);
 4088              		.loc 1 1474 30 is_stmt 0 view .LVU1399
 4089 0104 0C4A     		ldr	r2, .L344+16
1475:Drivers/STM32F4xx_HAL_Driver/Src/stm32f4xx_ll_usb.c ****   }
 4090              		.loc 1 1475 20 view .LVU1400
 4091 0106 0D4B     		ldr	r3, .L344+20
1473:Drivers/STM32F4xx_HAL_Driver/Src/stm32f4xx_ll_usb.c ****     USBx->DIEPTXF0_HNPTXFSIZ = (uint32_t)(((0x60U << 16) & USB_OTG_NPTXFD) | 0x80U);
 4092              		.loc 1 1473 20 view .LVU1401
 4093 0108 8021     		movs	r1, #128
 4094              	.LVL288:
1473:Drivers/STM32F4xx_HAL_Driver/Src/stm32f4xx_ll_usb.c ****     USBx->DIEPTXF0_HNPTXFSIZ = (uint32_t)(((0x60U << 16) & USB_OTG_NPTXFD) | 0x80U);
 4095              		.loc 1 1473 20 view .LVU1402
 4096 010a CCF82410 		str	r1, [ip, #36]
1474:Drivers/STM32F4xx_HAL_Driver/Src/stm32f4xx_ll_usb.c ****     USBx->HPTXFSIZ = (uint32_t)(((0x40U << 16)& USB_OTG_HPTXFSIZ_PTXFD) | 0xE0U);
 4097              		.loc 1 1474 5 is_stmt 1 view .LVU1403
1474:Drivers/STM32F4xx_HAL_Driver/Src/stm32f4xx_ll_usb.c ****     USBx->HPTXFSIZ = (uint32_t)(((0x40U << 16)& USB_OTG_HPTXFSIZ_PTXFD) | 0xE0U);
 4098              		.loc 1 1474 30 is_stmt 0 view .LVU1404
 4099 010e CCF82820 		str	r2, [ip, #40]
1475:Drivers/STM32F4xx_HAL_Driver/Src/stm32f4xx_ll_usb.c ****   }
 4100              		.loc 1 1475 5 is_stmt 1 view .LVU1405
1475:Drivers/STM32F4xx_HAL_Driver/Src/stm32f4xx_ll_usb.c ****   }
 4101              		.loc 1 1475 20 is_stmt 0 view .LVU1406
 4102 0112 CCF80031 		str	r3, [ip, #256]
 4103 0116 E1E7     		b	.L332
 4104              	.LVL289:
 4105              	.L320:
1443:Drivers/STM32F4xx_HAL_Driver/Src/stm32f4xx_ll_usb.c ****   }
 4106              		.loc 1 1443 5 is_stmt 1 view .LVU1407
1443:Drivers/STM32F4xx_HAL_Driver/Src/stm32f4xx_ll_usb.c ****   }
 4107              		.loc 1 1443 21 is_stmt 0 view .LVU1408
 4108 0118 DCF80034 		ldr	r3, [ip, #1024]
 4109 011c 96E7     		b	.L339
 4110              	.L340:
1432:Drivers/STM32F4xx_HAL_Driver/Src/stm32f4xx_ll_usb.c ****     }
 4111              		.loc 1 1432 7 is_stmt 1 view .LVU1409
1432:Drivers/STM32F4xx_HAL_Driver/Src/stm32f4xx_ll_usb.c ****     }
 4112              		.loc 1 1432 23 is_stmt 0 view .LVU1410
 4113 011e 43F00403 		orr	r3, r3, #4
 4114 0122 CCF80034 		str	r3, [ip, #1024]
 4115 0126 95E7     		b	.L322
 4116              	.L345:
 4117              		.align	2
 4118              	.L344:
ARM GAS  /tmp/ccTCOTTa.s 			page 122


 4119 0128 400D0300 		.word	200000
 4120 012c 00020001 		.word	16777728
 4121 0130 0003E000 		.word	14680832
 4122 0134 080020A3 		.word	-1558183928
 4123 0138 80006000 		.word	6291584
 4124 013c E0004000 		.word	4194528
 4125              		.cfi_endproc
 4126              	.LFE164:
 4128              		.section	.text.USB_InitFSLSPClkSel,"ax",%progbits
 4129              		.align	1
 4130              		.p2align 2,,3
 4131              		.global	USB_InitFSLSPClkSel
 4132              		.syntax unified
 4133              		.thumb
 4134              		.thumb_func
 4136              	USB_InitFSLSPClkSel:
 4137              	.LVL290:
 4138              	.LFB165:
1491:Drivers/STM32F4xx_HAL_Driver/Src/stm32f4xx_ll_usb.c **** 
1492:Drivers/STM32F4xx_HAL_Driver/Src/stm32f4xx_ll_usb.c **** /**
1493:Drivers/STM32F4xx_HAL_Driver/Src/stm32f4xx_ll_usb.c ****   * @brief  USB_InitFSLSPClkSel : Initializes the FSLSPClkSel field of the
1494:Drivers/STM32F4xx_HAL_Driver/Src/stm32f4xx_ll_usb.c ****   *         HCFG register on the PHY type and set the right frame interval
1495:Drivers/STM32F4xx_HAL_Driver/Src/stm32f4xx_ll_usb.c ****   * @param  USBx  Selected device
1496:Drivers/STM32F4xx_HAL_Driver/Src/stm32f4xx_ll_usb.c ****   * @param  freq  clock frequency
1497:Drivers/STM32F4xx_HAL_Driver/Src/stm32f4xx_ll_usb.c ****   *          This parameter can be one of these values:
1498:Drivers/STM32F4xx_HAL_Driver/Src/stm32f4xx_ll_usb.c ****   *           HCFG_48_MHZ : Full Speed 48 MHz Clock
1499:Drivers/STM32F4xx_HAL_Driver/Src/stm32f4xx_ll_usb.c ****   *           HCFG_6_MHZ : Low Speed 6 MHz Clock
1500:Drivers/STM32F4xx_HAL_Driver/Src/stm32f4xx_ll_usb.c ****   * @retval HAL status
1501:Drivers/STM32F4xx_HAL_Driver/Src/stm32f4xx_ll_usb.c ****   */
1502:Drivers/STM32F4xx_HAL_Driver/Src/stm32f4xx_ll_usb.c **** HAL_StatusTypeDef USB_InitFSLSPClkSel(USB_OTG_GlobalTypeDef *USBx, uint8_t freq)
1503:Drivers/STM32F4xx_HAL_Driver/Src/stm32f4xx_ll_usb.c **** {
 4139              		.loc 1 1503 1 is_stmt 1 view -0
 4140              		.cfi_startproc
 4141              		@ args = 0, pretend = 0, frame = 0
 4142              		@ frame_needed = 0, uses_anonymous_args = 0
 4143              		@ link register save eliminated.
1504:Drivers/STM32F4xx_HAL_Driver/Src/stm32f4xx_ll_usb.c ****   uint32_t USBx_BASE = (uint32_t)USBx;
 4144              		.loc 1 1504 3 view .LVU1412
1505:Drivers/STM32F4xx_HAL_Driver/Src/stm32f4xx_ll_usb.c **** 
1506:Drivers/STM32F4xx_HAL_Driver/Src/stm32f4xx_ll_usb.c ****   USBx_HOST->HCFG &= ~(USB_OTG_HCFG_FSLSPCS);
 4145              		.loc 1 1506 3 view .LVU1413
 4146              		.loc 1 1506 19 is_stmt 0 view .LVU1414
 4147 0000 D0F80034 		ldr	r3, [r0, #1024]
 4148 0004 23F00303 		bic	r3, r3, #3
 4149 0008 C0F80034 		str	r3, [r0, #1024]
1507:Drivers/STM32F4xx_HAL_Driver/Src/stm32f4xx_ll_usb.c ****   USBx_HOST->HCFG |= (uint32_t)freq & USB_OTG_HCFG_FSLSPCS;
 4150              		.loc 1 1507 3 is_stmt 1 view .LVU1415
 4151              		.loc 1 1507 19 is_stmt 0 view .LVU1416
 4152 000c D0F80024 		ldr	r2, [r0, #1024]
 4153              		.loc 1 1507 37 view .LVU1417
 4154 0010 01F00303 		and	r3, r1, #3
 4155              		.loc 1 1507 19 view .LVU1418
 4156 0014 1343     		orrs	r3, r3, r2
1508:Drivers/STM32F4xx_HAL_Driver/Src/stm32f4xx_ll_usb.c **** 
1509:Drivers/STM32F4xx_HAL_Driver/Src/stm32f4xx_ll_usb.c ****   if (freq == HCFG_48_MHZ)
 4157              		.loc 1 1509 6 view .LVU1419
 4158 0016 0129     		cmp	r1, #1
ARM GAS  /tmp/ccTCOTTa.s 			page 123


1507:Drivers/STM32F4xx_HAL_Driver/Src/stm32f4xx_ll_usb.c ****   USBx_HOST->HCFG |= (uint32_t)freq & USB_OTG_HCFG_FSLSPCS;
 4159              		.loc 1 1507 19 view .LVU1420
 4160 0018 C0F80034 		str	r3, [r0, #1024]
 4161              		.loc 1 1509 3 is_stmt 1 view .LVU1421
1506:Drivers/STM32F4xx_HAL_Driver/Src/stm32f4xx_ll_usb.c ****   USBx_HOST->HCFG |= (uint32_t)freq & USB_OTG_HCFG_FSLSPCS;
 4162              		.loc 1 1506 19 is_stmt 0 view .LVU1422
 4163 001c 00F58060 		add	r0, r0, #1024
 4164              	.LVL291:
 4165              		.loc 1 1509 6 view .LVU1423
 4166 0020 06D0     		beq	.L349
1510:Drivers/STM32F4xx_HAL_Driver/Src/stm32f4xx_ll_usb.c ****   {
1511:Drivers/STM32F4xx_HAL_Driver/Src/stm32f4xx_ll_usb.c ****     USBx_HOST->HFIR = 48000U;
1512:Drivers/STM32F4xx_HAL_Driver/Src/stm32f4xx_ll_usb.c ****   }
1513:Drivers/STM32F4xx_HAL_Driver/Src/stm32f4xx_ll_usb.c ****   else if (freq == HCFG_6_MHZ)
 4167              		.loc 1 1513 8 is_stmt 1 view .LVU1424
 4168              		.loc 1 1513 11 is_stmt 0 view .LVU1425
 4169 0022 0229     		cmp	r1, #2
1514:Drivers/STM32F4xx_HAL_Driver/Src/stm32f4xx_ll_usb.c ****   {
1515:Drivers/STM32F4xx_HAL_Driver/Src/stm32f4xx_ll_usb.c ****     USBx_HOST->HFIR = 6000U;
 4170              		.loc 1 1515 5 is_stmt 1 view .LVU1426
 4171              		.loc 1 1515 21 is_stmt 0 view .LVU1427
 4172 0024 04BF     		itt	eq
 4173 0026 41F27073 		movweq	r3, #6000
 4174 002a 4360     		streq	r3, [r0, #4]
1516:Drivers/STM32F4xx_HAL_Driver/Src/stm32f4xx_ll_usb.c ****   }
1517:Drivers/STM32F4xx_HAL_Driver/Src/stm32f4xx_ll_usb.c ****   else
1518:Drivers/STM32F4xx_HAL_Driver/Src/stm32f4xx_ll_usb.c ****   {
1519:Drivers/STM32F4xx_HAL_Driver/Src/stm32f4xx_ll_usb.c ****     /* ... */
1520:Drivers/STM32F4xx_HAL_Driver/Src/stm32f4xx_ll_usb.c ****   }
 4175              		.loc 1 1520 3 is_stmt 1 view .LVU1428
1521:Drivers/STM32F4xx_HAL_Driver/Src/stm32f4xx_ll_usb.c **** 
1522:Drivers/STM32F4xx_HAL_Driver/Src/stm32f4xx_ll_usb.c ****   return HAL_OK;
 4176              		.loc 1 1522 3 view .LVU1429
1523:Drivers/STM32F4xx_HAL_Driver/Src/stm32f4xx_ll_usb.c **** }
 4177              		.loc 1 1523 1 is_stmt 0 view .LVU1430
 4178 002c 0020     		movs	r0, #0
 4179              	.LVL292:
 4180              		.loc 1 1523 1 view .LVU1431
 4181 002e 7047     		bx	lr
 4182              	.L349:
1511:Drivers/STM32F4xx_HAL_Driver/Src/stm32f4xx_ll_usb.c ****   }
 4183              		.loc 1 1511 5 is_stmt 1 view .LVU1432
1511:Drivers/STM32F4xx_HAL_Driver/Src/stm32f4xx_ll_usb.c ****   }
 4184              		.loc 1 1511 21 is_stmt 0 view .LVU1433
 4185 0030 4BF68033 		movw	r3, #48000
 4186 0034 4360     		str	r3, [r0, #4]
1520:Drivers/STM32F4xx_HAL_Driver/Src/stm32f4xx_ll_usb.c **** 
 4187              		.loc 1 1520 3 is_stmt 1 view .LVU1434
1522:Drivers/STM32F4xx_HAL_Driver/Src/stm32f4xx_ll_usb.c **** }
 4188              		.loc 1 1522 3 view .LVU1435
 4189              		.loc 1 1523 1 is_stmt 0 view .LVU1436
 4190 0036 0020     		movs	r0, #0
 4191 0038 7047     		bx	lr
 4192              		.cfi_endproc
 4193              	.LFE165:
 4195 003a 00BF     		.section	.text.USB_ResetPort,"ax",%progbits
 4196              		.align	1
ARM GAS  /tmp/ccTCOTTa.s 			page 124


 4197              		.p2align 2,,3
 4198              		.global	USB_ResetPort
 4199              		.syntax unified
 4200              		.thumb
 4201              		.thumb_func
 4203              	USB_ResetPort:
 4204              	.LVL293:
 4205              	.LFB166:
1524:Drivers/STM32F4xx_HAL_Driver/Src/stm32f4xx_ll_usb.c **** 
1525:Drivers/STM32F4xx_HAL_Driver/Src/stm32f4xx_ll_usb.c **** /**
1526:Drivers/STM32F4xx_HAL_Driver/Src/stm32f4xx_ll_usb.c ****   * @brief  USB_OTG_ResetPort : Reset Host Port
1527:Drivers/STM32F4xx_HAL_Driver/Src/stm32f4xx_ll_usb.c ****   * @param  USBx  Selected device
1528:Drivers/STM32F4xx_HAL_Driver/Src/stm32f4xx_ll_usb.c ****   * @retval HAL status
1529:Drivers/STM32F4xx_HAL_Driver/Src/stm32f4xx_ll_usb.c ****   * @note (1)The application must wait at least 10 ms
1530:Drivers/STM32F4xx_HAL_Driver/Src/stm32f4xx_ll_usb.c ****   *   before clearing the reset bit.
1531:Drivers/STM32F4xx_HAL_Driver/Src/stm32f4xx_ll_usb.c ****   */
1532:Drivers/STM32F4xx_HAL_Driver/Src/stm32f4xx_ll_usb.c **** HAL_StatusTypeDef USB_ResetPort(USB_OTG_GlobalTypeDef *USBx)
1533:Drivers/STM32F4xx_HAL_Driver/Src/stm32f4xx_ll_usb.c **** {
 4206              		.loc 1 1533 1 is_stmt 1 view -0
 4207              		.cfi_startproc
 4208              		@ args = 0, pretend = 0, frame = 8
 4209              		@ frame_needed = 0, uses_anonymous_args = 0
1534:Drivers/STM32F4xx_HAL_Driver/Src/stm32f4xx_ll_usb.c ****   uint32_t USBx_BASE = (uint32_t)USBx;
 4210              		.loc 1 1534 3 view .LVU1438
1533:Drivers/STM32F4xx_HAL_Driver/Src/stm32f4xx_ll_usb.c ****   uint32_t USBx_BASE = (uint32_t)USBx;
 4211              		.loc 1 1533 1 is_stmt 0 view .LVU1439
 4212 0000 30B5     		push	{r4, r5, lr}
 4213              	.LCFI65:
 4214              		.cfi_def_cfa_offset 12
 4215              		.cfi_offset 4, -12
 4216              		.cfi_offset 5, -8
 4217              		.cfi_offset 14, -4
 4218 0002 83B0     		sub	sp, sp, #12
 4219              	.LCFI66:
 4220              		.cfi_def_cfa_offset 24
1535:Drivers/STM32F4xx_HAL_Driver/Src/stm32f4xx_ll_usb.c **** 
1536:Drivers/STM32F4xx_HAL_Driver/Src/stm32f4xx_ll_usb.c ****   __IO uint32_t hprt0 = 0U;
 4221              		.loc 1 1536 17 view .LVU1440
 4222 0004 0025     		movs	r5, #0
 4223 0006 0195     		str	r5, [sp, #4]
1537:Drivers/STM32F4xx_HAL_Driver/Src/stm32f4xx_ll_usb.c **** 
1538:Drivers/STM32F4xx_HAL_Driver/Src/stm32f4xx_ll_usb.c ****   hprt0 = USBx_HPRT0;
 4224              		.loc 1 1538 11 view .LVU1441
 4225 0008 D0F84034 		ldr	r3, [r0, #1088]
 4226              		.loc 1 1538 9 view .LVU1442
 4227 000c 0193     		str	r3, [sp, #4]
1539:Drivers/STM32F4xx_HAL_Driver/Src/stm32f4xx_ll_usb.c **** 
1540:Drivers/STM32F4xx_HAL_Driver/Src/stm32f4xx_ll_usb.c ****   hprt0 &= ~(USB_OTG_HPRT_PENA | USB_OTG_HPRT_PCDET |
 4228              		.loc 1 1540 9 view .LVU1443
 4229 000e 019B     		ldr	r3, [sp, #4]
 4230 0010 23F02E03 		bic	r3, r3, #46
 4231 0014 0193     		str	r3, [sp, #4]
1541:Drivers/STM32F4xx_HAL_Driver/Src/stm32f4xx_ll_usb.c ****              USB_OTG_HPRT_PENCHNG | USB_OTG_HPRT_POCCHNG);
1542:Drivers/STM32F4xx_HAL_Driver/Src/stm32f4xx_ll_usb.c **** 
1543:Drivers/STM32F4xx_HAL_Driver/Src/stm32f4xx_ll_usb.c ****   USBx_HPRT0 = (USB_OTG_HPRT_PRST | hprt0);
 4232              		.loc 1 1543 35 view .LVU1444
 4233 0016 019B     		ldr	r3, [sp, #4]
ARM GAS  /tmp/ccTCOTTa.s 			page 125


1533:Drivers/STM32F4xx_HAL_Driver/Src/stm32f4xx_ll_usb.c ****   uint32_t USBx_BASE = (uint32_t)USBx;
 4234              		.loc 1 1533 1 view .LVU1445
 4235 0018 0446     		mov	r4, r0
 4236              	.LVL294:
1536:Drivers/STM32F4xx_HAL_Driver/Src/stm32f4xx_ll_usb.c **** 
 4237              		.loc 1 1536 3 is_stmt 1 view .LVU1446
1538:Drivers/STM32F4xx_HAL_Driver/Src/stm32f4xx_ll_usb.c **** 
 4238              		.loc 1 1538 3 view .LVU1447
1540:Drivers/STM32F4xx_HAL_Driver/Src/stm32f4xx_ll_usb.c ****              USB_OTG_HPRT_PENCHNG | USB_OTG_HPRT_POCCHNG);
 4239              		.loc 1 1540 3 view .LVU1448
 4240              		.loc 1 1543 3 view .LVU1449
 4241              		.loc 1 1543 35 is_stmt 0 view .LVU1450
 4242 001a 43F48073 		orr	r3, r3, #256
 4243              		.loc 1 1543 14 view .LVU1451
 4244 001e C4F84034 		str	r3, [r4, #1088]
1544:Drivers/STM32F4xx_HAL_Driver/Src/stm32f4xx_ll_usb.c ****   HAL_Delay(100U);                                 /* See Note #1 */
 4245              		.loc 1 1544 3 is_stmt 1 view .LVU1452
 4246 0022 6420     		movs	r0, #100
 4247              	.LVL295:
 4248              		.loc 1 1544 3 is_stmt 0 view .LVU1453
 4249 0024 FFF7FEFF 		bl	HAL_Delay
 4250              	.LVL296:
1545:Drivers/STM32F4xx_HAL_Driver/Src/stm32f4xx_ll_usb.c ****   USBx_HPRT0 = ((~USB_OTG_HPRT_PRST) & hprt0);
 4251              		.loc 1 1545 3 is_stmt 1 view .LVU1454
 4252              		.loc 1 1545 38 is_stmt 0 view .LVU1455
 4253 0028 019B     		ldr	r3, [sp, #4]
 4254 002a 23F48073 		bic	r3, r3, #256
1546:Drivers/STM32F4xx_HAL_Driver/Src/stm32f4xx_ll_usb.c ****   HAL_Delay(10U);
 4255              		.loc 1 1546 3 view .LVU1456
 4256 002e 0A20     		movs	r0, #10
1545:Drivers/STM32F4xx_HAL_Driver/Src/stm32f4xx_ll_usb.c ****   USBx_HPRT0 = ((~USB_OTG_HPRT_PRST) & hprt0);
 4257              		.loc 1 1545 14 view .LVU1457
 4258 0030 C4F84034 		str	r3, [r4, #1088]
 4259              		.loc 1 1546 3 is_stmt 1 view .LVU1458
 4260 0034 FFF7FEFF 		bl	HAL_Delay
 4261              	.LVL297:
1547:Drivers/STM32F4xx_HAL_Driver/Src/stm32f4xx_ll_usb.c **** 
1548:Drivers/STM32F4xx_HAL_Driver/Src/stm32f4xx_ll_usb.c ****   return HAL_OK;
 4262              		.loc 1 1548 3 view .LVU1459
1549:Drivers/STM32F4xx_HAL_Driver/Src/stm32f4xx_ll_usb.c **** }
 4263              		.loc 1 1549 1 is_stmt 0 view .LVU1460
 4264 0038 2846     		mov	r0, r5
 4265 003a 03B0     		add	sp, sp, #12
 4266              	.LCFI67:
 4267              		.cfi_def_cfa_offset 12
 4268              		@ sp needed
 4269 003c 30BD     		pop	{r4, r5, pc}
 4270              		.loc 1 1549 1 view .LVU1461
 4271              		.cfi_endproc
 4272              	.LFE166:
 4274 003e 00BF     		.section	.text.USB_DriveVbus,"ax",%progbits
 4275              		.align	1
 4276              		.p2align 2,,3
 4277              		.global	USB_DriveVbus
 4278              		.syntax unified
 4279              		.thumb
 4280              		.thumb_func
ARM GAS  /tmp/ccTCOTTa.s 			page 126


 4282              	USB_DriveVbus:
 4283              	.LVL298:
 4284              	.LFB167:
1550:Drivers/STM32F4xx_HAL_Driver/Src/stm32f4xx_ll_usb.c **** 
1551:Drivers/STM32F4xx_HAL_Driver/Src/stm32f4xx_ll_usb.c **** /**
1552:Drivers/STM32F4xx_HAL_Driver/Src/stm32f4xx_ll_usb.c ****   * @brief  USB_DriveVbus : activate or de-activate vbus
1553:Drivers/STM32F4xx_HAL_Driver/Src/stm32f4xx_ll_usb.c ****   * @param  state  VBUS state
1554:Drivers/STM32F4xx_HAL_Driver/Src/stm32f4xx_ll_usb.c ****   *          This parameter can be one of these values:
1555:Drivers/STM32F4xx_HAL_Driver/Src/stm32f4xx_ll_usb.c ****   *           0 : Deactivate VBUS
1556:Drivers/STM32F4xx_HAL_Driver/Src/stm32f4xx_ll_usb.c ****   *           1 : Activate VBUS
1557:Drivers/STM32F4xx_HAL_Driver/Src/stm32f4xx_ll_usb.c ****   * @retval HAL status
1558:Drivers/STM32F4xx_HAL_Driver/Src/stm32f4xx_ll_usb.c ****   */
1559:Drivers/STM32F4xx_HAL_Driver/Src/stm32f4xx_ll_usb.c **** HAL_StatusTypeDef USB_DriveVbus(USB_OTG_GlobalTypeDef *USBx, uint8_t state)
1560:Drivers/STM32F4xx_HAL_Driver/Src/stm32f4xx_ll_usb.c **** {
 4285              		.loc 1 1560 1 is_stmt 1 view -0
 4286              		.cfi_startproc
 4287              		@ args = 0, pretend = 0, frame = 8
 4288              		@ frame_needed = 0, uses_anonymous_args = 0
 4289              		@ link register save eliminated.
1561:Drivers/STM32F4xx_HAL_Driver/Src/stm32f4xx_ll_usb.c ****   uint32_t USBx_BASE = (uint32_t)USBx;
 4290              		.loc 1 1561 3 view .LVU1463
1562:Drivers/STM32F4xx_HAL_Driver/Src/stm32f4xx_ll_usb.c ****   __IO uint32_t hprt0 = 0U;
 4291              		.loc 1 1562 3 view .LVU1464
1560:Drivers/STM32F4xx_HAL_Driver/Src/stm32f4xx_ll_usb.c ****   uint32_t USBx_BASE = (uint32_t)USBx;
 4292              		.loc 1 1560 1 is_stmt 0 view .LVU1465
 4293 0000 82B0     		sub	sp, sp, #8
 4294              	.LCFI68:
 4295              		.cfi_def_cfa_offset 8
 4296              		.loc 1 1562 17 view .LVU1466
 4297 0002 0023     		movs	r3, #0
 4298 0004 0193     		str	r3, [sp, #4]
1563:Drivers/STM32F4xx_HAL_Driver/Src/stm32f4xx_ll_usb.c **** 
1564:Drivers/STM32F4xx_HAL_Driver/Src/stm32f4xx_ll_usb.c ****   hprt0 = USBx_HPRT0;
 4299              		.loc 1 1564 3 is_stmt 1 view .LVU1467
 4300              		.loc 1 1564 11 is_stmt 0 view .LVU1468
 4301 0006 D0F84034 		ldr	r3, [r0, #1088]
 4302              		.loc 1 1564 9 view .LVU1469
 4303 000a 0193     		str	r3, [sp, #4]
1565:Drivers/STM32F4xx_HAL_Driver/Src/stm32f4xx_ll_usb.c **** 
1566:Drivers/STM32F4xx_HAL_Driver/Src/stm32f4xx_ll_usb.c ****   hprt0 &= ~(USB_OTG_HPRT_PENA | USB_OTG_HPRT_PCDET |
 4304              		.loc 1 1566 3 is_stmt 1 view .LVU1470
 4305              		.loc 1 1566 9 is_stmt 0 view .LVU1471
 4306 000c 019B     		ldr	r3, [sp, #4]
 4307 000e 23F02E03 		bic	r3, r3, #46
 4308 0012 0193     		str	r3, [sp, #4]
1567:Drivers/STM32F4xx_HAL_Driver/Src/stm32f4xx_ll_usb.c ****              USB_OTG_HPRT_PENCHNG | USB_OTG_HPRT_POCCHNG);
1568:Drivers/STM32F4xx_HAL_Driver/Src/stm32f4xx_ll_usb.c **** 
1569:Drivers/STM32F4xx_HAL_Driver/Src/stm32f4xx_ll_usb.c ****   if (((hprt0 & USB_OTG_HPRT_PPWR) == 0U) && (state == 1U))
 4309              		.loc 1 1569 3 is_stmt 1 view .LVU1472
 4310              		.loc 1 1569 15 is_stmt 0 view .LVU1473
 4311 0014 019B     		ldr	r3, [sp, #4]
 4312              		.loc 1 1569 6 view .LVU1474
 4313 0016 13F4805F 		tst	r3, #4096
1570:Drivers/STM32F4xx_HAL_Driver/Src/stm32f4xx_ll_usb.c ****   {
1571:Drivers/STM32F4xx_HAL_Driver/Src/stm32f4xx_ll_usb.c ****     USBx_HPRT0 = (USB_OTG_HPRT_PPWR | hprt0);
 4314              		.loc 1 1571 37 view .LVU1475
 4315 001a 019B     		ldr	r3, [sp, #4]
ARM GAS  /tmp/ccTCOTTa.s 			page 127


1569:Drivers/STM32F4xx_HAL_Driver/Src/stm32f4xx_ll_usb.c ****   {
 4316              		.loc 1 1569 6 view .LVU1476
 4317 001c 01D1     		bne	.L353
1569:Drivers/STM32F4xx_HAL_Driver/Src/stm32f4xx_ll_usb.c ****   {
 4318              		.loc 1 1569 43 discriminator 1 view .LVU1477
 4319 001e 0129     		cmp	r1, #1
 4320 0020 0AD0     		beq	.L359
 4321              	.L353:
1572:Drivers/STM32F4xx_HAL_Driver/Src/stm32f4xx_ll_usb.c ****   }
1573:Drivers/STM32F4xx_HAL_Driver/Src/stm32f4xx_ll_usb.c ****   if (((hprt0 & USB_OTG_HPRT_PPWR) == USB_OTG_HPRT_PPWR) && (state == 0U))
 4322              		.loc 1 1573 3 is_stmt 1 view .LVU1478
 4323              		.loc 1 1573 6 is_stmt 0 view .LVU1479
 4324 0022 DB04     		lsls	r3, r3, #19
 4325 0024 05D5     		bpl	.L354
 4326              		.loc 1 1573 58 discriminator 1 view .LVU1480
 4327 0026 21B9     		cbnz	r1, .L354
1574:Drivers/STM32F4xx_HAL_Driver/Src/stm32f4xx_ll_usb.c ****   {
1575:Drivers/STM32F4xx_HAL_Driver/Src/stm32f4xx_ll_usb.c ****     USBx_HPRT0 = ((~USB_OTG_HPRT_PPWR) & hprt0);
 4328              		.loc 1 1575 5 is_stmt 1 view .LVU1481
 4329              		.loc 1 1575 40 is_stmt 0 view .LVU1482
 4330 0028 019B     		ldr	r3, [sp, #4]
 4331 002a 23F48053 		bic	r3, r3, #4096
 4332              		.loc 1 1575 16 view .LVU1483
 4333 002e C0F84034 		str	r3, [r0, #1088]
 4334              	.L354:
1576:Drivers/STM32F4xx_HAL_Driver/Src/stm32f4xx_ll_usb.c ****   }
1577:Drivers/STM32F4xx_HAL_Driver/Src/stm32f4xx_ll_usb.c ****   return HAL_OK;
 4335              		.loc 1 1577 3 is_stmt 1 view .LVU1484
1578:Drivers/STM32F4xx_HAL_Driver/Src/stm32f4xx_ll_usb.c **** }
 4336              		.loc 1 1578 1 is_stmt 0 view .LVU1485
 4337 0032 0020     		movs	r0, #0
 4338              	.LVL299:
 4339              		.loc 1 1578 1 view .LVU1486
 4340 0034 02B0     		add	sp, sp, #8
 4341              	.LCFI69:
 4342              		.cfi_remember_state
 4343              		.cfi_def_cfa_offset 0
 4344              		@ sp needed
 4345 0036 7047     		bx	lr
 4346              	.LVL300:
 4347              	.L359:
 4348              	.LCFI70:
 4349              		.cfi_restore_state
1571:Drivers/STM32F4xx_HAL_Driver/Src/stm32f4xx_ll_usb.c ****   }
 4350              		.loc 1 1571 5 is_stmt 1 view .LVU1487
1571:Drivers/STM32F4xx_HAL_Driver/Src/stm32f4xx_ll_usb.c ****   }
 4351              		.loc 1 1571 37 is_stmt 0 view .LVU1488
 4352 0038 43F48053 		orr	r3, r3, #4096
1571:Drivers/STM32F4xx_HAL_Driver/Src/stm32f4xx_ll_usb.c ****   }
 4353              		.loc 1 1571 16 view .LVU1489
 4354 003c C0F84034 		str	r3, [r0, #1088]
1573:Drivers/STM32F4xx_HAL_Driver/Src/stm32f4xx_ll_usb.c ****   {
 4355              		.loc 1 1573 3 is_stmt 1 view .LVU1490
1573:Drivers/STM32F4xx_HAL_Driver/Src/stm32f4xx_ll_usb.c ****   {
 4356              		.loc 1 1573 15 is_stmt 0 view .LVU1491
 4357 0040 019B     		ldr	r3, [sp, #4]
1577:Drivers/STM32F4xx_HAL_Driver/Src/stm32f4xx_ll_usb.c **** }
ARM GAS  /tmp/ccTCOTTa.s 			page 128


 4358              		.loc 1 1577 3 is_stmt 1 view .LVU1492
 4359              		.loc 1 1578 1 is_stmt 0 view .LVU1493
 4360 0042 0020     		movs	r0, #0
 4361              	.LVL301:
 4362              		.loc 1 1578 1 view .LVU1494
 4363 0044 02B0     		add	sp, sp, #8
 4364              	.LCFI71:
 4365              		.cfi_def_cfa_offset 0
 4366              		@ sp needed
 4367 0046 7047     		bx	lr
 4368              		.cfi_endproc
 4369              	.LFE167:
 4371              		.section	.text.USB_GetHostSpeed,"ax",%progbits
 4372              		.align	1
 4373              		.p2align 2,,3
 4374              		.global	USB_GetHostSpeed
 4375              		.syntax unified
 4376              		.thumb
 4377              		.thumb_func
 4379              	USB_GetHostSpeed:
 4380              	.LVL302:
 4381              	.LFB168:
1579:Drivers/STM32F4xx_HAL_Driver/Src/stm32f4xx_ll_usb.c **** 
1580:Drivers/STM32F4xx_HAL_Driver/Src/stm32f4xx_ll_usb.c **** /**
1581:Drivers/STM32F4xx_HAL_Driver/Src/stm32f4xx_ll_usb.c ****   * @brief  Return Host Core speed
1582:Drivers/STM32F4xx_HAL_Driver/Src/stm32f4xx_ll_usb.c ****   * @param  USBx  Selected device
1583:Drivers/STM32F4xx_HAL_Driver/Src/stm32f4xx_ll_usb.c ****   * @retval speed : Host speed
1584:Drivers/STM32F4xx_HAL_Driver/Src/stm32f4xx_ll_usb.c ****   *          This parameter can be one of these values:
1585:Drivers/STM32F4xx_HAL_Driver/Src/stm32f4xx_ll_usb.c ****   *            @arg HCD_SPEED_HIGH: High speed mode
1586:Drivers/STM32F4xx_HAL_Driver/Src/stm32f4xx_ll_usb.c ****   *            @arg HCD_SPEED_FULL: Full speed mode
1587:Drivers/STM32F4xx_HAL_Driver/Src/stm32f4xx_ll_usb.c ****   *            @arg HCD_SPEED_LOW: Low speed mode
1588:Drivers/STM32F4xx_HAL_Driver/Src/stm32f4xx_ll_usb.c ****   */
1589:Drivers/STM32F4xx_HAL_Driver/Src/stm32f4xx_ll_usb.c **** uint32_t USB_GetHostSpeed(USB_OTG_GlobalTypeDef *USBx)
1590:Drivers/STM32F4xx_HAL_Driver/Src/stm32f4xx_ll_usb.c **** {
 4382              		.loc 1 1590 1 is_stmt 1 view -0
 4383              		.cfi_startproc
 4384              		@ args = 0, pretend = 0, frame = 8
 4385              		@ frame_needed = 0, uses_anonymous_args = 0
 4386              		@ link register save eliminated.
1591:Drivers/STM32F4xx_HAL_Driver/Src/stm32f4xx_ll_usb.c ****   uint32_t USBx_BASE = (uint32_t)USBx;
 4387              		.loc 1 1591 3 view .LVU1496
1592:Drivers/STM32F4xx_HAL_Driver/Src/stm32f4xx_ll_usb.c ****   __IO uint32_t hprt0 = 0U;
 4388              		.loc 1 1592 3 view .LVU1497
1590:Drivers/STM32F4xx_HAL_Driver/Src/stm32f4xx_ll_usb.c ****   uint32_t USBx_BASE = (uint32_t)USBx;
 4389              		.loc 1 1590 1 is_stmt 0 view .LVU1498
 4390 0000 82B0     		sub	sp, sp, #8
 4391              	.LCFI72:
 4392              		.cfi_def_cfa_offset 8
 4393              		.loc 1 1592 17 view .LVU1499
 4394 0002 0023     		movs	r3, #0
 4395 0004 0193     		str	r3, [sp, #4]
1593:Drivers/STM32F4xx_HAL_Driver/Src/stm32f4xx_ll_usb.c **** 
1594:Drivers/STM32F4xx_HAL_Driver/Src/stm32f4xx_ll_usb.c ****   hprt0 = USBx_HPRT0;
 4396              		.loc 1 1594 3 is_stmt 1 view .LVU1500
 4397              		.loc 1 1594 11 is_stmt 0 view .LVU1501
 4398 0006 D0F84034 		ldr	r3, [r0, #1088]
 4399              		.loc 1 1594 9 view .LVU1502
ARM GAS  /tmp/ccTCOTTa.s 			page 129


 4400 000a 0193     		str	r3, [sp, #4]
1595:Drivers/STM32F4xx_HAL_Driver/Src/stm32f4xx_ll_usb.c ****   return ((hprt0 & USB_OTG_HPRT_PSPD) >> 17);
 4401              		.loc 1 1595 3 is_stmt 1 view .LVU1503
 4402              		.loc 1 1595 39 is_stmt 0 view .LVU1504
 4403 000c 0198     		ldr	r0, [sp, #4]
 4404              	.LVL303:
1596:Drivers/STM32F4xx_HAL_Driver/Src/stm32f4xx_ll_usb.c **** }
 4405              		.loc 1 1596 1 view .LVU1505
 4406 000e C0F34140 		ubfx	r0, r0, #17, #2
 4407 0012 02B0     		add	sp, sp, #8
 4408              	.LCFI73:
 4409              		.cfi_def_cfa_offset 0
 4410              		@ sp needed
 4411 0014 7047     		bx	lr
 4412              		.cfi_endproc
 4413              	.LFE168:
 4415 0016 00BF     		.section	.text.USB_GetCurrentFrame,"ax",%progbits
 4416              		.align	1
 4417              		.p2align 2,,3
 4418              		.global	USB_GetCurrentFrame
 4419              		.syntax unified
 4420              		.thumb
 4421              		.thumb_func
 4423              	USB_GetCurrentFrame:
 4424              	.LVL304:
 4425              	.LFB169:
1597:Drivers/STM32F4xx_HAL_Driver/Src/stm32f4xx_ll_usb.c **** 
1598:Drivers/STM32F4xx_HAL_Driver/Src/stm32f4xx_ll_usb.c **** /**
1599:Drivers/STM32F4xx_HAL_Driver/Src/stm32f4xx_ll_usb.c ****   * @brief  Return Host Current Frame number
1600:Drivers/STM32F4xx_HAL_Driver/Src/stm32f4xx_ll_usb.c ****   * @param  USBx  Selected device
1601:Drivers/STM32F4xx_HAL_Driver/Src/stm32f4xx_ll_usb.c ****   * @retval current frame number
1602:Drivers/STM32F4xx_HAL_Driver/Src/stm32f4xx_ll_usb.c ****   */
1603:Drivers/STM32F4xx_HAL_Driver/Src/stm32f4xx_ll_usb.c **** uint32_t USB_GetCurrentFrame(USB_OTG_GlobalTypeDef *USBx)
1604:Drivers/STM32F4xx_HAL_Driver/Src/stm32f4xx_ll_usb.c **** {
 4426              		.loc 1 1604 1 is_stmt 1 view -0
 4427              		.cfi_startproc
 4428              		@ args = 0, pretend = 0, frame = 0
 4429              		@ frame_needed = 0, uses_anonymous_args = 0
 4430              		@ link register save eliminated.
1605:Drivers/STM32F4xx_HAL_Driver/Src/stm32f4xx_ll_usb.c ****   uint32_t USBx_BASE = (uint32_t)USBx;
 4431              		.loc 1 1605 3 view .LVU1507
1606:Drivers/STM32F4xx_HAL_Driver/Src/stm32f4xx_ll_usb.c **** 
1607:Drivers/STM32F4xx_HAL_Driver/Src/stm32f4xx_ll_usb.c ****   return (USBx_HOST->HFNUM & USB_OTG_HFNUM_FRNUM);
 4432              		.loc 1 1607 3 view .LVU1508
 4433              		.loc 1 1607 11 is_stmt 0 view .LVU1509
 4434 0000 00F58060 		add	r0, r0, #1024
 4435              	.LVL305:
 4436              		.loc 1 1607 20 view .LVU1510
 4437 0004 8068     		ldr	r0, [r0, #8]
 4438              	.LVL306:
1608:Drivers/STM32F4xx_HAL_Driver/Src/stm32f4xx_ll_usb.c **** }
 4439              		.loc 1 1608 1 view .LVU1511
 4440 0006 80B2     		uxth	r0, r0
 4441 0008 7047     		bx	lr
 4442              		.cfi_endproc
 4443              	.LFE169:
 4445 000a 00BF     		.section	.text.USB_HC_Init,"ax",%progbits
ARM GAS  /tmp/ccTCOTTa.s 			page 130


 4446              		.align	1
 4447              		.p2align 2,,3
 4448              		.global	USB_HC_Init
 4449              		.syntax unified
 4450              		.thumb
 4451              		.thumb_func
 4453              	USB_HC_Init:
 4454              	.LVL307:
 4455              	.LFB170:
1609:Drivers/STM32F4xx_HAL_Driver/Src/stm32f4xx_ll_usb.c **** 
1610:Drivers/STM32F4xx_HAL_Driver/Src/stm32f4xx_ll_usb.c **** /**
1611:Drivers/STM32F4xx_HAL_Driver/Src/stm32f4xx_ll_usb.c ****   * @brief  Initialize a host channel
1612:Drivers/STM32F4xx_HAL_Driver/Src/stm32f4xx_ll_usb.c ****   * @param  USBx  Selected device
1613:Drivers/STM32F4xx_HAL_Driver/Src/stm32f4xx_ll_usb.c ****   * @param  ch_num  Channel number
1614:Drivers/STM32F4xx_HAL_Driver/Src/stm32f4xx_ll_usb.c ****   *         This parameter can be a value from 1 to 15
1615:Drivers/STM32F4xx_HAL_Driver/Src/stm32f4xx_ll_usb.c ****   * @param  epnum  Endpoint number
1616:Drivers/STM32F4xx_HAL_Driver/Src/stm32f4xx_ll_usb.c ****   *          This parameter can be a value from 1 to 15
1617:Drivers/STM32F4xx_HAL_Driver/Src/stm32f4xx_ll_usb.c ****   * @param  dev_address  Current device address
1618:Drivers/STM32F4xx_HAL_Driver/Src/stm32f4xx_ll_usb.c ****   *          This parameter can be a value from 0 to 255
1619:Drivers/STM32F4xx_HAL_Driver/Src/stm32f4xx_ll_usb.c ****   * @param  speed  Current device speed
1620:Drivers/STM32F4xx_HAL_Driver/Src/stm32f4xx_ll_usb.c ****   *          This parameter can be one of these values:
1621:Drivers/STM32F4xx_HAL_Driver/Src/stm32f4xx_ll_usb.c ****   *            @arg USB_OTG_SPEED_HIGH: High speed mode
1622:Drivers/STM32F4xx_HAL_Driver/Src/stm32f4xx_ll_usb.c ****   *            @arg USB_OTG_SPEED_FULL: Full speed mode
1623:Drivers/STM32F4xx_HAL_Driver/Src/stm32f4xx_ll_usb.c ****   *            @arg USB_OTG_SPEED_LOW: Low speed mode
1624:Drivers/STM32F4xx_HAL_Driver/Src/stm32f4xx_ll_usb.c ****   * @param  ep_type  Endpoint Type
1625:Drivers/STM32F4xx_HAL_Driver/Src/stm32f4xx_ll_usb.c ****   *          This parameter can be one of these values:
1626:Drivers/STM32F4xx_HAL_Driver/Src/stm32f4xx_ll_usb.c ****   *            @arg EP_TYPE_CTRL: Control type
1627:Drivers/STM32F4xx_HAL_Driver/Src/stm32f4xx_ll_usb.c ****   *            @arg EP_TYPE_ISOC: Isochronous type
1628:Drivers/STM32F4xx_HAL_Driver/Src/stm32f4xx_ll_usb.c ****   *            @arg EP_TYPE_BULK: Bulk type
1629:Drivers/STM32F4xx_HAL_Driver/Src/stm32f4xx_ll_usb.c ****   *            @arg EP_TYPE_INTR: Interrupt type
1630:Drivers/STM32F4xx_HAL_Driver/Src/stm32f4xx_ll_usb.c ****   * @param  mps  Max Packet Size
1631:Drivers/STM32F4xx_HAL_Driver/Src/stm32f4xx_ll_usb.c ****   *          This parameter can be a value from 0 to 32K
1632:Drivers/STM32F4xx_HAL_Driver/Src/stm32f4xx_ll_usb.c ****   * @retval HAL state
1633:Drivers/STM32F4xx_HAL_Driver/Src/stm32f4xx_ll_usb.c ****   */
1634:Drivers/STM32F4xx_HAL_Driver/Src/stm32f4xx_ll_usb.c **** HAL_StatusTypeDef USB_HC_Init(USB_OTG_GlobalTypeDef *USBx, uint8_t ch_num,
1635:Drivers/STM32F4xx_HAL_Driver/Src/stm32f4xx_ll_usb.c ****                               uint8_t epnum, uint8_t dev_address, uint8_t speed,
1636:Drivers/STM32F4xx_HAL_Driver/Src/stm32f4xx_ll_usb.c ****                               uint8_t ep_type, uint16_t mps)
1637:Drivers/STM32F4xx_HAL_Driver/Src/stm32f4xx_ll_usb.c **** {
 4456              		.loc 1 1637 1 is_stmt 1 view -0
 4457              		.cfi_startproc
 4458              		@ args = 12, pretend = 0, frame = 8
 4459              		@ frame_needed = 0, uses_anonymous_args = 0
1638:Drivers/STM32F4xx_HAL_Driver/Src/stm32f4xx_ll_usb.c ****   HAL_StatusTypeDef ret = HAL_OK;
 4460              		.loc 1 1638 3 view .LVU1513
1639:Drivers/STM32F4xx_HAL_Driver/Src/stm32f4xx_ll_usb.c ****   uint32_t USBx_BASE = (uint32_t)USBx;
 4461              		.loc 1 1639 3 view .LVU1514
1640:Drivers/STM32F4xx_HAL_Driver/Src/stm32f4xx_ll_usb.c ****   uint32_t HCcharEpDir;
 4462              		.loc 1 1640 3 view .LVU1515
1641:Drivers/STM32F4xx_HAL_Driver/Src/stm32f4xx_ll_usb.c ****   uint32_t HCcharLowSpeed;
 4463              		.loc 1 1641 3 view .LVU1516
1642:Drivers/STM32F4xx_HAL_Driver/Src/stm32f4xx_ll_usb.c ****   uint32_t HostCoreSpeed;
 4464              		.loc 1 1642 3 view .LVU1517
1643:Drivers/STM32F4xx_HAL_Driver/Src/stm32f4xx_ll_usb.c **** 
1644:Drivers/STM32F4xx_HAL_Driver/Src/stm32f4xx_ll_usb.c ****   /* Clear old interrupt conditions for this host channel. */
1645:Drivers/STM32F4xx_HAL_Driver/Src/stm32f4xx_ll_usb.c ****   USBx_HC((uint32_t)ch_num)->HCINT = 0xFFFFFFFFU;
 4465              		.loc 1 1645 3 view .LVU1518
1637:Drivers/STM32F4xx_HAL_Driver/Src/stm32f4xx_ll_usb.c ****   HAL_StatusTypeDef ret = HAL_OK;
ARM GAS  /tmp/ccTCOTTa.s 			page 131


 4466              		.loc 1 1637 1 is_stmt 0 view .LVU1519
 4467 0000 F0B5     		push	{r4, r5, r6, r7, lr}
 4468              	.LCFI74:
 4469              		.cfi_def_cfa_offset 20
 4470              		.cfi_offset 4, -20
 4471              		.cfi_offset 5, -16
 4472              		.cfi_offset 6, -12
 4473              		.cfi_offset 7, -8
 4474              		.cfi_offset 14, -4
 4475 0002 83B0     		sub	sp, sp, #12
 4476              	.LCFI75:
 4477              		.cfi_def_cfa_offset 32
 4478              		.loc 1 1645 3 view .LVU1520
 4479 0004 00EB411E 		add	lr, r0, r1, lsl #5
 4480 0008 0EF5A064 		add	r4, lr, #1280
1637:Drivers/STM32F4xx_HAL_Driver/Src/stm32f4xx_ll_usb.c ****   HAL_StatusTypeDef ret = HAL_OK;
 4481              		.loc 1 1637 1 view .LVU1521
 4482 000c 9DF824C0 		ldrb	ip, [sp, #36]	@ zero_extendqisi2
 4483 0010 9DF82070 		ldrb	r7, [sp, #32]	@ zero_extendqisi2
 4484 0014 BDF82860 		ldrh	r6, [sp, #40]
 4485              		.loc 1 1645 36 view .LVU1522
 4486 0018 4FF0FF35 		mov	r5, #-1
 4487 001c A560     		str	r5, [r4, #8]
1646:Drivers/STM32F4xx_HAL_Driver/Src/stm32f4xx_ll_usb.c **** 
1647:Drivers/STM32F4xx_HAL_Driver/Src/stm32f4xx_ll_usb.c ****   /* Enable channel interrupts required for this transfer. */
1648:Drivers/STM32F4xx_HAL_Driver/Src/stm32f4xx_ll_usb.c ****   switch (ep_type)
 4488              		.loc 1 1648 3 is_stmt 1 view .LVU1523
 4489 001e BCF1030F 		cmp	ip, #3
 4490 0022 70D8     		bhi	.L364
 4491 0024 DFE80CF0 		tbb	[pc, ip]
 4492              	.L366:
 4493 0028 02       		.byte	(.L367-.L366)/2
 4494 0029 65       		.byte	(.L368-.L366)/2
 4495 002a 02       		.byte	(.L367-.L366)/2
 4496 002b 4B       		.byte	(.L365-.L366)/2
 4497              		.p2align 1
 4498              	.L367:
1649:Drivers/STM32F4xx_HAL_Driver/Src/stm32f4xx_ll_usb.c ****   {
1650:Drivers/STM32F4xx_HAL_Driver/Src/stm32f4xx_ll_usb.c ****     case EP_TYPE_CTRL:
1651:Drivers/STM32F4xx_HAL_Driver/Src/stm32f4xx_ll_usb.c ****     case EP_TYPE_BULK:
1652:Drivers/STM32F4xx_HAL_Driver/Src/stm32f4xx_ll_usb.c ****       USBx_HC((uint32_t)ch_num)->HCINTMSK = USB_OTG_HCINTMSK_XFRCM  |
 4499              		.loc 1 1652 7 view .LVU1524
 4500              		.loc 1 1652 43 is_stmt 0 view .LVU1525
 4501 002c 40F29D45 		movw	r5, #1181
 4502 0030 E560     		str	r5, [r4, #12]
1653:Drivers/STM32F4xx_HAL_Driver/Src/stm32f4xx_ll_usb.c ****                                             USB_OTG_HCINTMSK_STALLM |
1654:Drivers/STM32F4xx_HAL_Driver/Src/stm32f4xx_ll_usb.c ****                                             USB_OTG_HCINTMSK_TXERRM |
1655:Drivers/STM32F4xx_HAL_Driver/Src/stm32f4xx_ll_usb.c ****                                             USB_OTG_HCINTMSK_DTERRM |
1656:Drivers/STM32F4xx_HAL_Driver/Src/stm32f4xx_ll_usb.c ****                                             USB_OTG_HCINTMSK_AHBERR |
1657:Drivers/STM32F4xx_HAL_Driver/Src/stm32f4xx_ll_usb.c ****                                             USB_OTG_HCINTMSK_NAKM;
1658:Drivers/STM32F4xx_HAL_Driver/Src/stm32f4xx_ll_usb.c **** 
1659:Drivers/STM32F4xx_HAL_Driver/Src/stm32f4xx_ll_usb.c ****       if ((epnum & 0x80U) == 0x80U)
 4503              		.loc 1 1659 7 is_stmt 1 view .LVU1526
 4504              		.loc 1 1659 10 is_stmt 0 view .LVU1527
 4505 0032 1506     		lsls	r5, r2, #24
 4506 0034 48D4     		bmi	.L384
1660:Drivers/STM32F4xx_HAL_Driver/Src/stm32f4xx_ll_usb.c ****       {
ARM GAS  /tmp/ccTCOTTa.s 			page 132


1661:Drivers/STM32F4xx_HAL_Driver/Src/stm32f4xx_ll_usb.c ****         USBx_HC((uint32_t)ch_num)->HCINTMSK |= USB_OTG_HCINTMSK_BBERRM;
1662:Drivers/STM32F4xx_HAL_Driver/Src/stm32f4xx_ll_usb.c ****       }
1663:Drivers/STM32F4xx_HAL_Driver/Src/stm32f4xx_ll_usb.c ****       else
1664:Drivers/STM32F4xx_HAL_Driver/Src/stm32f4xx_ll_usb.c ****       {
1665:Drivers/STM32F4xx_HAL_Driver/Src/stm32f4xx_ll_usb.c ****         if ((USBx->CID & (0x1U << 8)) != 0U)
 4507              		.loc 1 1665 9 is_stmt 1 view .LVU1528
 4508              		.loc 1 1665 18 is_stmt 0 view .LVU1529
 4509 0036 C56B     		ldr	r5, [r0, #60]
 4510              		.loc 1 1665 12 view .LVU1530
 4511 0038 ED05     		lsls	r5, r5, #23
 4512 003a 03D5     		bpl	.L372
1666:Drivers/STM32F4xx_HAL_Driver/Src/stm32f4xx_ll_usb.c ****         {
1667:Drivers/STM32F4xx_HAL_Driver/Src/stm32f4xx_ll_usb.c ****           USBx_HC((uint32_t)ch_num)->HCINTMSK |= USB_OTG_HCINTMSK_NYET |
 4513              		.loc 1 1667 11 is_stmt 1 view .LVU1531
 4514              		.loc 1 1667 47 is_stmt 0 view .LVU1532
 4515 003c E568     		ldr	r5, [r4, #12]
 4516 003e 45F06005 		orr	r5, r5, #96
 4517 0042 E560     		str	r5, [r4, #12]
 4518              	.L372:
1668:Drivers/STM32F4xx_HAL_Driver/Src/stm32f4xx_ll_usb.c ****                                                  USB_OTG_HCINTMSK_ACKM;
1669:Drivers/STM32F4xx_HAL_Driver/Src/stm32f4xx_ll_usb.c ****         }
1670:Drivers/STM32F4xx_HAL_Driver/Src/stm32f4xx_ll_usb.c ****       }
1671:Drivers/STM32F4xx_HAL_Driver/Src/stm32f4xx_ll_usb.c ****       break;
1672:Drivers/STM32F4xx_HAL_Driver/Src/stm32f4xx_ll_usb.c **** 
1673:Drivers/STM32F4xx_HAL_Driver/Src/stm32f4xx_ll_usb.c ****     case EP_TYPE_INTR:
1674:Drivers/STM32F4xx_HAL_Driver/Src/stm32f4xx_ll_usb.c ****       USBx_HC((uint32_t)ch_num)->HCINTMSK = USB_OTG_HCINTMSK_XFRCM  |
1675:Drivers/STM32F4xx_HAL_Driver/Src/stm32f4xx_ll_usb.c ****                                             USB_OTG_HCINTMSK_STALLM |
1676:Drivers/STM32F4xx_HAL_Driver/Src/stm32f4xx_ll_usb.c ****                                             USB_OTG_HCINTMSK_TXERRM |
1677:Drivers/STM32F4xx_HAL_Driver/Src/stm32f4xx_ll_usb.c ****                                             USB_OTG_HCINTMSK_DTERRM |
1678:Drivers/STM32F4xx_HAL_Driver/Src/stm32f4xx_ll_usb.c ****                                             USB_OTG_HCINTMSK_NAKM   |
1679:Drivers/STM32F4xx_HAL_Driver/Src/stm32f4xx_ll_usb.c ****                                             USB_OTG_HCINTMSK_AHBERR |
1680:Drivers/STM32F4xx_HAL_Driver/Src/stm32f4xx_ll_usb.c ****                                             USB_OTG_HCINTMSK_FRMORM;
1681:Drivers/STM32F4xx_HAL_Driver/Src/stm32f4xx_ll_usb.c **** 
1682:Drivers/STM32F4xx_HAL_Driver/Src/stm32f4xx_ll_usb.c ****       if ((epnum & 0x80U) == 0x80U)
1683:Drivers/STM32F4xx_HAL_Driver/Src/stm32f4xx_ll_usb.c ****       {
1684:Drivers/STM32F4xx_HAL_Driver/Src/stm32f4xx_ll_usb.c ****         USBx_HC((uint32_t)ch_num)->HCINTMSK |= USB_OTG_HCINTMSK_BBERRM;
1685:Drivers/STM32F4xx_HAL_Driver/Src/stm32f4xx_ll_usb.c ****       }
1686:Drivers/STM32F4xx_HAL_Driver/Src/stm32f4xx_ll_usb.c **** 
1687:Drivers/STM32F4xx_HAL_Driver/Src/stm32f4xx_ll_usb.c ****       break;
1688:Drivers/STM32F4xx_HAL_Driver/Src/stm32f4xx_ll_usb.c **** 
1689:Drivers/STM32F4xx_HAL_Driver/Src/stm32f4xx_ll_usb.c ****     case EP_TYPE_ISOC:
1690:Drivers/STM32F4xx_HAL_Driver/Src/stm32f4xx_ll_usb.c ****       USBx_HC((uint32_t)ch_num)->HCINTMSK = USB_OTG_HCINTMSK_XFRCM  |
1691:Drivers/STM32F4xx_HAL_Driver/Src/stm32f4xx_ll_usb.c ****                                             USB_OTG_HCINTMSK_ACKM   |
1692:Drivers/STM32F4xx_HAL_Driver/Src/stm32f4xx_ll_usb.c ****                                             USB_OTG_HCINTMSK_AHBERR |
1693:Drivers/STM32F4xx_HAL_Driver/Src/stm32f4xx_ll_usb.c ****                                             USB_OTG_HCINTMSK_FRMORM;
1694:Drivers/STM32F4xx_HAL_Driver/Src/stm32f4xx_ll_usb.c **** 
1695:Drivers/STM32F4xx_HAL_Driver/Src/stm32f4xx_ll_usb.c ****       if ((epnum & 0x80U) == 0x80U)
1696:Drivers/STM32F4xx_HAL_Driver/Src/stm32f4xx_ll_usb.c ****       {
1697:Drivers/STM32F4xx_HAL_Driver/Src/stm32f4xx_ll_usb.c ****         USBx_HC((uint32_t)ch_num)->HCINTMSK |= (USB_OTG_HCINTMSK_TXERRM | USB_OTG_HCINTMSK_BBERRM);
1698:Drivers/STM32F4xx_HAL_Driver/Src/stm32f4xx_ll_usb.c ****       }
1699:Drivers/STM32F4xx_HAL_Driver/Src/stm32f4xx_ll_usb.c ****       break;
1700:Drivers/STM32F4xx_HAL_Driver/Src/stm32f4xx_ll_usb.c **** 
1701:Drivers/STM32F4xx_HAL_Driver/Src/stm32f4xx_ll_usb.c ****     default:
1702:Drivers/STM32F4xx_HAL_Driver/Src/stm32f4xx_ll_usb.c ****       ret = HAL_ERROR;
1703:Drivers/STM32F4xx_HAL_Driver/Src/stm32f4xx_ll_usb.c ****       break;
1704:Drivers/STM32F4xx_HAL_Driver/Src/stm32f4xx_ll_usb.c ****   }
1705:Drivers/STM32F4xx_HAL_Driver/Src/stm32f4xx_ll_usb.c **** 
ARM GAS  /tmp/ccTCOTTa.s 			page 133


1706:Drivers/STM32F4xx_HAL_Driver/Src/stm32f4xx_ll_usb.c ****   /* Enable the top level host channel interrupt. */
1707:Drivers/STM32F4xx_HAL_Driver/Src/stm32f4xx_ll_usb.c ****   USBx_HOST->HAINTMSK |= 1UL << (ch_num & 0xFU);
 4519              		.loc 1 1707 3 is_stmt 1 view .LVU1533
 4520              		.loc 1 1707 23 is_stmt 0 view .LVU1534
 4521 0044 D0F81854 		ldr	r5, [r0, #1048]
 4522              		.loc 1 1707 30 view .LVU1535
 4523 0048 0124     		movs	r4, #1
 4524              		.loc 1 1707 41 view .LVU1536
 4525 004a 01F00F01 		and	r1, r1, #15
 4526              	.LVL308:
 4527              		.loc 1 1707 30 view .LVU1537
 4528 004e 04FA01F1 		lsl	r1, r4, r1
 4529              		.loc 1 1707 23 view .LVU1538
 4530 0052 2943     		orrs	r1, r1, r5
 4531 0054 C0F81814 		str	r1, [r0, #1048]
1708:Drivers/STM32F4xx_HAL_Driver/Src/stm32f4xx_ll_usb.c **** 
1709:Drivers/STM32F4xx_HAL_Driver/Src/stm32f4xx_ll_usb.c ****   /* Make sure host channel interrupts are enabled. */
1710:Drivers/STM32F4xx_HAL_Driver/Src/stm32f4xx_ll_usb.c ****   USBx->GINTMSK |= USB_OTG_GINTMSK_HCIM;
 4532              		.loc 1 1710 3 is_stmt 1 view .LVU1539
 4533              		.loc 1 1710 17 is_stmt 0 view .LVU1540
 4534 0058 8169     		ldr	r1, [r0, #24]
 4535 005a 0024     		movs	r4, #0
 4536 005c 41F00071 		orr	r1, r1, #33554432
 4537 0060 8161     		str	r1, [r0, #24]
1711:Drivers/STM32F4xx_HAL_Driver/Src/stm32f4xx_ll_usb.c **** 
1712:Drivers/STM32F4xx_HAL_Driver/Src/stm32f4xx_ll_usb.c ****   /* Program the HCCHAR register */
1713:Drivers/STM32F4xx_HAL_Driver/Src/stm32f4xx_ll_usb.c ****   if ((epnum & 0x80U) == 0x80U)
 4538              		.loc 1 1713 3 is_stmt 1 view .LVU1541
1714:Drivers/STM32F4xx_HAL_Driver/Src/stm32f4xx_ll_usb.c ****   {
1715:Drivers/STM32F4xx_HAL_Driver/Src/stm32f4xx_ll_usb.c ****     HCcharEpDir = (0x1U << 15) & USB_OTG_HCCHAR_EPDIR;
1716:Drivers/STM32F4xx_HAL_Driver/Src/stm32f4xx_ll_usb.c ****   }
1717:Drivers/STM32F4xx_HAL_Driver/Src/stm32f4xx_ll_usb.c ****   else
1718:Drivers/STM32F4xx_HAL_Driver/Src/stm32f4xx_ll_usb.c ****   {
1719:Drivers/STM32F4xx_HAL_Driver/Src/stm32f4xx_ll_usb.c ****     HCcharEpDir = 0U;
 4539              		.loc 1 1719 17 is_stmt 0 view .LVU1542
 4540 0062 2546     		mov	r5, r4
 4541              	.LVL309:
 4542              	.L373:
1720:Drivers/STM32F4xx_HAL_Driver/Src/stm32f4xx_ll_usb.c ****   }
1721:Drivers/STM32F4xx_HAL_Driver/Src/stm32f4xx_ll_usb.c **** 
1722:Drivers/STM32F4xx_HAL_Driver/Src/stm32f4xx_ll_usb.c ****   HostCoreSpeed = USB_GetHostSpeed(USBx);
 4543              		.loc 1 1722 3 is_stmt 1 view .LVU1543
 4544              	.LBB84:
 4545              	.LBI84:
1589:Drivers/STM32F4xx_HAL_Driver/Src/stm32f4xx_ll_usb.c **** {
 4546              		.loc 1 1589 10 view .LVU1544
 4547              	.LBB85:
1591:Drivers/STM32F4xx_HAL_Driver/Src/stm32f4xx_ll_usb.c ****   __IO uint32_t hprt0 = 0U;
 4548              		.loc 1 1591 3 view .LVU1545
1592:Drivers/STM32F4xx_HAL_Driver/Src/stm32f4xx_ll_usb.c **** 
 4549              		.loc 1 1592 3 view .LVU1546
1592:Drivers/STM32F4xx_HAL_Driver/Src/stm32f4xx_ll_usb.c **** 
 4550              		.loc 1 1592 17 is_stmt 0 view .LVU1547
 4551 0064 0021     		movs	r1, #0
 4552 0066 0191     		str	r1, [sp, #4]
1594:Drivers/STM32F4xx_HAL_Driver/Src/stm32f4xx_ll_usb.c ****   return ((hprt0 & USB_OTG_HPRT_PSPD) >> 17);
 4553              		.loc 1 1594 3 is_stmt 1 view .LVU1548
ARM GAS  /tmp/ccTCOTTa.s 			page 134


1594:Drivers/STM32F4xx_HAL_Driver/Src/stm32f4xx_ll_usb.c ****   return ((hprt0 & USB_OTG_HPRT_PSPD) >> 17);
 4554              		.loc 1 1594 11 is_stmt 0 view .LVU1549
 4555 0068 D0F84004 		ldr	r0, [r0, #1088]
 4556              	.LVL310:
1594:Drivers/STM32F4xx_HAL_Driver/Src/stm32f4xx_ll_usb.c ****   return ((hprt0 & USB_OTG_HPRT_PSPD) >> 17);
 4557              		.loc 1 1594 9 view .LVU1550
 4558 006c 0190     		str	r0, [sp, #4]
1595:Drivers/STM32F4xx_HAL_Driver/Src/stm32f4xx_ll_usb.c **** }
 4559              		.loc 1 1595 3 is_stmt 1 view .LVU1551
 4560              	.LBE85:
 4561              	.LBE84:
1723:Drivers/STM32F4xx_HAL_Driver/Src/stm32f4xx_ll_usb.c **** 
1724:Drivers/STM32F4xx_HAL_Driver/Src/stm32f4xx_ll_usb.c ****   /* LS device plugged to HUB */
1725:Drivers/STM32F4xx_HAL_Driver/Src/stm32f4xx_ll_usb.c ****   if ((speed == HPRT0_PRTSPD_LOW_SPEED) && (HostCoreSpeed != HPRT0_PRTSPD_LOW_SPEED))
 4562              		.loc 1 1725 6 is_stmt 0 view .LVU1552
 4563 006e 022F     		cmp	r7, #2
 4564              	.LBB88:
 4565              	.LBB86:
1595:Drivers/STM32F4xx_HAL_Driver/Src/stm32f4xx_ll_usb.c **** }
 4566              		.loc 1 1595 39 view .LVU1553
 4567 0070 0198     		ldr	r0, [sp, #4]
 4568              	.LVL311:
1595:Drivers/STM32F4xx_HAL_Driver/Src/stm32f4xx_ll_usb.c **** }
 4569              		.loc 1 1595 39 view .LVU1554
 4570              	.LBE86:
 4571              	.LBE88:
 4572              		.loc 1 1725 3 is_stmt 1 view .LVU1555
 4573              		.loc 1 1725 6 is_stmt 0 view .LVU1556
 4574 0072 05D1     		bne	.L374
 4575              	.LBB89:
 4576              	.LBB87:
1595:Drivers/STM32F4xx_HAL_Driver/Src/stm32f4xx_ll_usb.c **** }
 4577              		.loc 1 1595 39 discriminator 1 view .LVU1557
 4578 0074 C0F34140 		ubfx	r0, r0, #17, #2
 4579              	.LVL312:
1595:Drivers/STM32F4xx_HAL_Driver/Src/stm32f4xx_ll_usb.c **** }
 4580              		.loc 1 1595 39 discriminator 1 view .LVU1558
 4581              	.LBE87:
 4582              	.LBE89:
1726:Drivers/STM32F4xx_HAL_Driver/Src/stm32f4xx_ll_usb.c ****   {
1727:Drivers/STM32F4xx_HAL_Driver/Src/stm32f4xx_ll_usb.c ****     HCcharLowSpeed = (0x1U << 17) & USB_OTG_HCCHAR_LSDEV;
 4583              		.loc 1 1727 20 discriminator 1 view .LVU1559
 4584 0078 0228     		cmp	r0, #2
 4585 007a 18BF     		it	ne
 4586 007c 4FF40031 		movne	r1, #131072
 4587              	.L374:
 4588              	.LVL313:
1728:Drivers/STM32F4xx_HAL_Driver/Src/stm32f4xx_ll_usb.c ****   }
1729:Drivers/STM32F4xx_HAL_Driver/Src/stm32f4xx_ll_usb.c ****   else
1730:Drivers/STM32F4xx_HAL_Driver/Src/stm32f4xx_ll_usb.c ****   {
1731:Drivers/STM32F4xx_HAL_Driver/Src/stm32f4xx_ll_usb.c ****     HCcharLowSpeed = 0U;
1732:Drivers/STM32F4xx_HAL_Driver/Src/stm32f4xx_ll_usb.c ****   }
1733:Drivers/STM32F4xx_HAL_Driver/Src/stm32f4xx_ll_usb.c **** 
1734:Drivers/STM32F4xx_HAL_Driver/Src/stm32f4xx_ll_usb.c ****   USBx_HC((uint32_t)ch_num)->HCCHAR = (((uint32_t)dev_address << 22) & USB_OTG_HCCHAR_DAD) |
 4589              		.loc 1 1734 3 is_stmt 1 view .LVU1560
 4590              		.loc 1 1734 63 is_stmt 0 view .LVU1561
 4591 0080 9B05     		lsls	r3, r3, #22
ARM GAS  /tmp/ccTCOTTa.s 			page 135


 4592              	.LVL314:
 4593              		.loc 1 1734 70 view .LVU1562
 4594 0082 03F0FE53 		and	r3, r3, #532676608
1735:Drivers/STM32F4xx_HAL_Driver/Src/stm32f4xx_ll_usb.c ****                                       ((((uint32_t)epnum & 0x7FU) << 11) & USB_OTG_HCCHAR_EPNUM) |
1736:Drivers/STM32F4xx_HAL_Driver/Src/stm32f4xx_ll_usb.c ****                                       (((uint32_t)ep_type << 18) & USB_OTG_HCCHAR_EPTYP) |
1737:Drivers/STM32F4xx_HAL_Driver/Src/stm32f4xx_ll_usb.c ****                                       ((uint32_t)mps & USB_OTG_HCCHAR_MPSIZ) | HCcharEpDir | HCchar
 4595              		.loc 1 1737 54 view .LVU1563
 4596 0086 C6F30A06 		ubfx	r6, r6, #0, #11
1735:Drivers/STM32F4xx_HAL_Driver/Src/stm32f4xx_ll_usb.c ****                                       ((((uint32_t)epnum & 0x7FU) << 11) & USB_OTG_HCCHAR_EPNUM) |
 4597              		.loc 1 1735 67 view .LVU1564
 4598 008a D202     		lsls	r2, r2, #11
 4599              	.LVL315:
1735:Drivers/STM32F4xx_HAL_Driver/Src/stm32f4xx_ll_usb.c ****                                       ((((uint32_t)epnum & 0x7FU) << 11) & USB_OTG_HCCHAR_EPNUM) |
 4600              		.loc 1 1735 74 view .LVU1565
 4601 008c 02F4F042 		and	r2, r2, #30720
1736:Drivers/STM32F4xx_HAL_Driver/Src/stm32f4xx_ll_usb.c ****                                       ((uint32_t)mps & USB_OTG_HCCHAR_MPSIZ) | HCcharEpDir | HCchar
 4602              		.loc 1 1736 90 view .LVU1566
 4603 0090 3343     		orrs	r3, r3, r6
 4604 0092 1343     		orrs	r3, r3, r2
1736:Drivers/STM32F4xx_HAL_Driver/Src/stm32f4xx_ll_usb.c ****                                       ((uint32_t)mps & USB_OTG_HCCHAR_MPSIZ) | HCcharEpDir | HCchar
 4605              		.loc 1 1736 59 view .LVU1567
 4606 0094 4FEA8C42 		lsl	r2, ip, #18
1736:Drivers/STM32F4xx_HAL_Driver/Src/stm32f4xx_ll_usb.c ****                                       ((uint32_t)mps & USB_OTG_HCCHAR_MPSIZ) | HCcharEpDir | HCchar
 4607              		.loc 1 1736 66 view .LVU1568
 4608 0098 02F44022 		and	r2, r2, #786432
1736:Drivers/STM32F4xx_HAL_Driver/Src/stm32f4xx_ll_usb.c ****                                       ((uint32_t)mps & USB_OTG_HCCHAR_MPSIZ) | HCcharEpDir | HCchar
 4609              		.loc 1 1736 90 view .LVU1569
 4610 009c 1343     		orrs	r3, r3, r2
 4611              		.loc 1 1737 78 view .LVU1570
 4612 009e 2B43     		orrs	r3, r3, r5
 4613              		.loc 1 1737 92 view .LVU1571
 4614 00a0 0B43     		orrs	r3, r3, r1
1738:Drivers/STM32F4xx_HAL_Driver/Src/stm32f4xx_ll_usb.c **** 
1739:Drivers/STM32F4xx_HAL_Driver/Src/stm32f4xx_ll_usb.c ****   if (ep_type == EP_TYPE_INTR)
 4615              		.loc 1 1739 6 view .LVU1572
 4616 00a2 BCF1030F 		cmp	ip, #3
1734:Drivers/STM32F4xx_HAL_Driver/Src/stm32f4xx_ll_usb.c ****                                       ((((uint32_t)epnum & 0x7FU) << 11) & USB_OTG_HCCHAR_EPNUM) |
 4617              		.loc 1 1734 37 view .LVU1573
 4618 00a6 CEF80035 		str	r3, [lr, #1280]
 4619              		.loc 1 1739 3 is_stmt 1 view .LVU1574
 4620              		.loc 1 1739 6 is_stmt 0 view .LVU1575
 4621 00aa 05D1     		bne	.L379
1740:Drivers/STM32F4xx_HAL_Driver/Src/stm32f4xx_ll_usb.c ****   {
1741:Drivers/STM32F4xx_HAL_Driver/Src/stm32f4xx_ll_usb.c ****     USBx_HC((uint32_t)ch_num)->HCCHAR |= USB_OTG_HCCHAR_ODDFRM ;
 4622              		.loc 1 1741 5 is_stmt 1 view .LVU1576
 4623              		.loc 1 1741 39 is_stmt 0 view .LVU1577
 4624 00ac DEF80035 		ldr	r3, [lr, #1280]
 4625 00b0 43F00053 		orr	r3, r3, #536870912
 4626 00b4 CEF80035 		str	r3, [lr, #1280]
1742:Drivers/STM32F4xx_HAL_Driver/Src/stm32f4xx_ll_usb.c ****   }
1743:Drivers/STM32F4xx_HAL_Driver/Src/stm32f4xx_ll_usb.c **** 
1744:Drivers/STM32F4xx_HAL_Driver/Src/stm32f4xx_ll_usb.c ****   return ret;
 4627              		.loc 1 1744 3 is_stmt 1 view .LVU1578
 4628              	.L379:
1745:Drivers/STM32F4xx_HAL_Driver/Src/stm32f4xx_ll_usb.c **** }
 4629              		.loc 1 1745 1 is_stmt 0 view .LVU1579
 4630 00b8 2046     		mov	r0, r4
ARM GAS  /tmp/ccTCOTTa.s 			page 136


 4631 00ba 03B0     		add	sp, sp, #12
 4632              	.LCFI76:
 4633              		.cfi_remember_state
 4634              		.cfi_def_cfa_offset 20
 4635              		@ sp needed
 4636 00bc F0BD     		pop	{r4, r5, r6, r7, pc}
 4637              	.LVL316:
 4638              	.L365:
 4639              	.LCFI77:
 4640              		.cfi_restore_state
1674:Drivers/STM32F4xx_HAL_Driver/Src/stm32f4xx_ll_usb.c ****                                             USB_OTG_HCINTMSK_STALLM |
 4641              		.loc 1 1674 7 is_stmt 1 view .LVU1580
1674:Drivers/STM32F4xx_HAL_Driver/Src/stm32f4xx_ll_usb.c ****                                             USB_OTG_HCINTMSK_STALLM |
 4642              		.loc 1 1674 43 is_stmt 0 view .LVU1581
 4643 00be 40F29D65 		movw	r5, #1693
 4644 00c2 E560     		str	r5, [r4, #12]
1682:Drivers/STM32F4xx_HAL_Driver/Src/stm32f4xx_ll_usb.c ****       {
 4645              		.loc 1 1682 7 is_stmt 1 view .LVU1582
1682:Drivers/STM32F4xx_HAL_Driver/Src/stm32f4xx_ll_usb.c ****       {
 4646              		.loc 1 1682 10 is_stmt 0 view .LVU1583
 4647 00c4 1506     		lsls	r5, r2, #24
 4648 00c6 BDD5     		bpl	.L372
 4649              	.L384:
1684:Drivers/STM32F4xx_HAL_Driver/Src/stm32f4xx_ll_usb.c ****       }
 4650              		.loc 1 1684 9 is_stmt 1 view .LVU1584
1684:Drivers/STM32F4xx_HAL_Driver/Src/stm32f4xx_ll_usb.c ****       }
 4651              		.loc 1 1684 45 is_stmt 0 view .LVU1585
 4652 00c8 E568     		ldr	r5, [r4, #12]
 4653 00ca 45F48075 		orr	r5, r5, #256
 4654 00ce E560     		str	r5, [r4, #12]
 4655              	.LVL317:
 4656              	.L370:
1707:Drivers/STM32F4xx_HAL_Driver/Src/stm32f4xx_ll_usb.c **** 
 4657              		.loc 1 1707 3 is_stmt 1 view .LVU1586
1707:Drivers/STM32F4xx_HAL_Driver/Src/stm32f4xx_ll_usb.c **** 
 4658              		.loc 1 1707 23 is_stmt 0 view .LVU1587
 4659 00d0 D0F81844 		ldr	r4, [r0, #1048]
1707:Drivers/STM32F4xx_HAL_Driver/Src/stm32f4xx_ll_usb.c **** 
 4660              		.loc 1 1707 41 view .LVU1588
 4661 00d4 01F00F05 		and	r5, r1, #15
1707:Drivers/STM32F4xx_HAL_Driver/Src/stm32f4xx_ll_usb.c **** 
 4662              		.loc 1 1707 30 view .LVU1589
 4663 00d8 0121     		movs	r1, #1
 4664              	.LVL318:
1707:Drivers/STM32F4xx_HAL_Driver/Src/stm32f4xx_ll_usb.c **** 
 4665              		.loc 1 1707 30 view .LVU1590
 4666 00da A940     		lsls	r1, r1, r5
1707:Drivers/STM32F4xx_HAL_Driver/Src/stm32f4xx_ll_usb.c **** 
 4667              		.loc 1 1707 23 view .LVU1591
 4668 00dc 2143     		orrs	r1, r1, r4
 4669 00de C0F81814 		str	r1, [r0, #1048]
1710:Drivers/STM32F4xx_HAL_Driver/Src/stm32f4xx_ll_usb.c **** 
 4670              		.loc 1 1710 3 is_stmt 1 view .LVU1592
1710:Drivers/STM32F4xx_HAL_Driver/Src/stm32f4xx_ll_usb.c **** 
 4671              		.loc 1 1710 17 is_stmt 0 view .LVU1593
 4672 00e2 8169     		ldr	r1, [r0, #24]
 4673 00e4 41F00071 		orr	r1, r1, #33554432
ARM GAS  /tmp/ccTCOTTa.s 			page 137


 4674 00e8 8161     		str	r1, [r0, #24]
1713:Drivers/STM32F4xx_HAL_Driver/Src/stm32f4xx_ll_usb.c ****   {
 4675              		.loc 1 1713 3 is_stmt 1 view .LVU1594
1710:Drivers/STM32F4xx_HAL_Driver/Src/stm32f4xx_ll_usb.c **** 
 4676              		.loc 1 1710 17 is_stmt 0 view .LVU1595
 4677 00ea 0024     		movs	r4, #0
1715:Drivers/STM32F4xx_HAL_Driver/Src/stm32f4xx_ll_usb.c ****   }
 4678              		.loc 1 1715 17 view .LVU1596
 4679 00ec 4FF40045 		mov	r5, #32768
 4680 00f0 B8E7     		b	.L373
 4681              	.LVL319:
 4682              	.L368:
1690:Drivers/STM32F4xx_HAL_Driver/Src/stm32f4xx_ll_usb.c ****                                             USB_OTG_HCINTMSK_ACKM   |
 4683              		.loc 1 1690 7 is_stmt 1 view .LVU1597
1690:Drivers/STM32F4xx_HAL_Driver/Src/stm32f4xx_ll_usb.c ****                                             USB_OTG_HCINTMSK_ACKM   |
 4684              		.loc 1 1690 43 is_stmt 0 view .LVU1598
 4685 00f2 40F22525 		movw	r5, #549
 4686 00f6 E560     		str	r5, [r4, #12]
1695:Drivers/STM32F4xx_HAL_Driver/Src/stm32f4xx_ll_usb.c ****       {
 4687              		.loc 1 1695 7 is_stmt 1 view .LVU1599
1695:Drivers/STM32F4xx_HAL_Driver/Src/stm32f4xx_ll_usb.c ****       {
 4688              		.loc 1 1695 10 is_stmt 0 view .LVU1600
 4689 00f8 1506     		lsls	r5, r2, #24
 4690 00fa A3D5     		bpl	.L372
1697:Drivers/STM32F4xx_HAL_Driver/Src/stm32f4xx_ll_usb.c ****       }
 4691              		.loc 1 1697 9 is_stmt 1 view .LVU1601
1697:Drivers/STM32F4xx_HAL_Driver/Src/stm32f4xx_ll_usb.c ****       }
 4692              		.loc 1 1697 45 is_stmt 0 view .LVU1602
 4693 00fc E568     		ldr	r5, [r4, #12]
 4694 00fe 45F4C075 		orr	r5, r5, #384
 4695 0102 E560     		str	r5, [r4, #12]
 4696              	.LVL320:
1697:Drivers/STM32F4xx_HAL_Driver/Src/stm32f4xx_ll_usb.c ****       }
 4697              		.loc 1 1697 45 view .LVU1603
 4698 0104 E4E7     		b	.L370
 4699              	.LVL321:
 4700              	.L364:
1707:Drivers/STM32F4xx_HAL_Driver/Src/stm32f4xx_ll_usb.c **** 
 4701              		.loc 1 1707 3 is_stmt 1 view .LVU1604
1707:Drivers/STM32F4xx_HAL_Driver/Src/stm32f4xx_ll_usb.c **** 
 4702              		.loc 1 1707 23 is_stmt 0 view .LVU1605
 4703 0106 D0F81854 		ldr	r5, [r0, #1048]
1707:Drivers/STM32F4xx_HAL_Driver/Src/stm32f4xx_ll_usb.c **** 
 4704              		.loc 1 1707 41 view .LVU1606
 4705 010a 01F00F01 		and	r1, r1, #15
 4706              	.LVL322:
1707:Drivers/STM32F4xx_HAL_Driver/Src/stm32f4xx_ll_usb.c **** 
 4707              		.loc 1 1707 30 view .LVU1607
 4708 010e 0124     		movs	r4, #1
 4709 0110 04FA01F1 		lsl	r1, r4, r1
1707:Drivers/STM32F4xx_HAL_Driver/Src/stm32f4xx_ll_usb.c **** 
 4710              		.loc 1 1707 23 view .LVU1608
 4711 0114 2943     		orrs	r1, r1, r5
 4712 0116 C0F81814 		str	r1, [r0, #1048]
1710:Drivers/STM32F4xx_HAL_Driver/Src/stm32f4xx_ll_usb.c **** 
 4713              		.loc 1 1710 3 is_stmt 1 view .LVU1609
1710:Drivers/STM32F4xx_HAL_Driver/Src/stm32f4xx_ll_usb.c **** 
ARM GAS  /tmp/ccTCOTTa.s 			page 138


 4714              		.loc 1 1710 17 is_stmt 0 view .LVU1610
 4715 011a 8169     		ldr	r1, [r0, #24]
1702:Drivers/STM32F4xx_HAL_Driver/Src/stm32f4xx_ll_usb.c ****       break;
 4716              		.loc 1 1702 11 view .LVU1611
 4717 011c 12F0800F 		tst	r2, #128
1710:Drivers/STM32F4xx_HAL_Driver/Src/stm32f4xx_ll_usb.c **** 
 4718              		.loc 1 1710 17 view .LVU1612
 4719 0120 41F00071 		orr	r1, r1, #33554432
 4720 0124 8161     		str	r1, [r0, #24]
1713:Drivers/STM32F4xx_HAL_Driver/Src/stm32f4xx_ll_usb.c ****   {
 4721              		.loc 1 1713 3 is_stmt 1 view .LVU1613
1702:Drivers/STM32F4xx_HAL_Driver/Src/stm32f4xx_ll_usb.c ****       break;
 4722              		.loc 1 1702 11 is_stmt 0 view .LVU1614
 4723 0126 14BF     		ite	ne
 4724 0128 4FF40045 		movne	r5, #32768
 4725 012c 0025     		moveq	r5, #0
 4726 012e 99E7     		b	.L373
 4727              		.cfi_endproc
 4728              	.LFE170:
 4730              		.section	.text.USB_HC_StartXfer,"ax",%progbits
 4731              		.align	1
 4732              		.p2align 2,,3
 4733              		.global	USB_HC_StartXfer
 4734              		.syntax unified
 4735              		.thumb
 4736              		.thumb_func
 4738              	USB_HC_StartXfer:
 4739              	.LVL323:
 4740              	.LFB171:
1746:Drivers/STM32F4xx_HAL_Driver/Src/stm32f4xx_ll_usb.c **** 
1747:Drivers/STM32F4xx_HAL_Driver/Src/stm32f4xx_ll_usb.c **** /**
1748:Drivers/STM32F4xx_HAL_Driver/Src/stm32f4xx_ll_usb.c ****   * @brief  Start a transfer over a host channel
1749:Drivers/STM32F4xx_HAL_Driver/Src/stm32f4xx_ll_usb.c ****   * @param  USBx  Selected device
1750:Drivers/STM32F4xx_HAL_Driver/Src/stm32f4xx_ll_usb.c ****   * @param  hc  pointer to host channel structure
1751:Drivers/STM32F4xx_HAL_Driver/Src/stm32f4xx_ll_usb.c ****   * @param  dma USB dma enabled or disabled
1752:Drivers/STM32F4xx_HAL_Driver/Src/stm32f4xx_ll_usb.c ****   *          This parameter can be one of these values:
1753:Drivers/STM32F4xx_HAL_Driver/Src/stm32f4xx_ll_usb.c ****   *           0 : DMA feature not used
1754:Drivers/STM32F4xx_HAL_Driver/Src/stm32f4xx_ll_usb.c ****   *           1 : DMA feature used
1755:Drivers/STM32F4xx_HAL_Driver/Src/stm32f4xx_ll_usb.c ****   * @retval HAL state
1756:Drivers/STM32F4xx_HAL_Driver/Src/stm32f4xx_ll_usb.c ****   */
1757:Drivers/STM32F4xx_HAL_Driver/Src/stm32f4xx_ll_usb.c **** HAL_StatusTypeDef USB_HC_StartXfer(USB_OTG_GlobalTypeDef *USBx, USB_OTG_HCTypeDef *hc, uint8_t dma)
1758:Drivers/STM32F4xx_HAL_Driver/Src/stm32f4xx_ll_usb.c **** {
 4741              		.loc 1 1758 1 is_stmt 1 view -0
 4742              		.cfi_startproc
 4743              		@ args = 0, pretend = 0, frame = 8
 4744              		@ frame_needed = 0, uses_anonymous_args = 0
1759:Drivers/STM32F4xx_HAL_Driver/Src/stm32f4xx_ll_usb.c ****   uint32_t USBx_BASE = (uint32_t)USBx;
 4745              		.loc 1 1759 3 view .LVU1616
1760:Drivers/STM32F4xx_HAL_Driver/Src/stm32f4xx_ll_usb.c ****   uint32_t ch_num = (uint32_t)hc->ch_num;
 4746              		.loc 1 1760 3 view .LVU1617
1758:Drivers/STM32F4xx_HAL_Driver/Src/stm32f4xx_ll_usb.c ****   uint32_t USBx_BASE = (uint32_t)USBx;
 4747              		.loc 1 1758 1 is_stmt 0 view .LVU1618
 4748 0000 F0B5     		push	{r4, r5, r6, r7, lr}
 4749              	.LCFI78:
 4750              		.cfi_def_cfa_offset 20
 4751              		.cfi_offset 4, -20
 4752              		.cfi_offset 5, -16
ARM GAS  /tmp/ccTCOTTa.s 			page 139


 4753              		.cfi_offset 6, -12
 4754              		.cfi_offset 7, -8
 4755              		.cfi_offset 14, -4
1761:Drivers/STM32F4xx_HAL_Driver/Src/stm32f4xx_ll_usb.c ****   __IO uint32_t tmpreg;
1762:Drivers/STM32F4xx_HAL_Driver/Src/stm32f4xx_ll_usb.c ****   uint8_t  is_oddframe;
1763:Drivers/STM32F4xx_HAL_Driver/Src/stm32f4xx_ll_usb.c ****   uint16_t len_words;
1764:Drivers/STM32F4xx_HAL_Driver/Src/stm32f4xx_ll_usb.c ****   uint16_t num_packets;
1765:Drivers/STM32F4xx_HAL_Driver/Src/stm32f4xx_ll_usb.c ****   uint16_t max_hc_pkt_count = 256U;
1766:Drivers/STM32F4xx_HAL_Driver/Src/stm32f4xx_ll_usb.c **** 
1767:Drivers/STM32F4xx_HAL_Driver/Src/stm32f4xx_ll_usb.c ****   if (((USBx->CID & (0x1U << 8)) != 0U) && (hc->speed == USBH_HS_SPEED))
 4756              		.loc 1 1767 13 view .LVU1619
 4757 0002 C36B     		ldr	r3, [r0, #60]
1760:Drivers/STM32F4xx_HAL_Driver/Src/stm32f4xx_ll_usb.c ****   __IO uint32_t tmpreg;
 4758              		.loc 1 1760 33 view .LVU1620
 4759 0004 91F801C0 		ldrb	ip, [r1, #1]	@ zero_extendqisi2
 4760              	.LVL324:
1761:Drivers/STM32F4xx_HAL_Driver/Src/stm32f4xx_ll_usb.c ****   __IO uint32_t tmpreg;
 4761              		.loc 1 1761 3 is_stmt 1 view .LVU1621
1762:Drivers/STM32F4xx_HAL_Driver/Src/stm32f4xx_ll_usb.c ****   uint16_t len_words;
 4762              		.loc 1 1762 3 view .LVU1622
1763:Drivers/STM32F4xx_HAL_Driver/Src/stm32f4xx_ll_usb.c ****   uint16_t num_packets;
 4763              		.loc 1 1763 3 view .LVU1623
1764:Drivers/STM32F4xx_HAL_Driver/Src/stm32f4xx_ll_usb.c ****   uint16_t max_hc_pkt_count = 256U;
 4764              		.loc 1 1764 3 view .LVU1624
1765:Drivers/STM32F4xx_HAL_Driver/Src/stm32f4xx_ll_usb.c **** 
 4765              		.loc 1 1765 3 view .LVU1625
 4766              		.loc 1 1767 3 view .LVU1626
 4767              		.loc 1 1767 6 is_stmt 0 view .LVU1627
 4768 0008 DB05     		lsls	r3, r3, #23
1758:Drivers/STM32F4xx_HAL_Driver/Src/stm32f4xx_ll_usb.c ****   uint32_t USBx_BASE = (uint32_t)USBx;
 4769              		.loc 1 1758 1 view .LVU1628
 4770 000a 83B0     		sub	sp, sp, #12
 4771              	.LCFI79:
 4772              		.cfi_def_cfa_offset 32
 4773              		.loc 1 1767 6 view .LVU1629
 4774 000c 02D5     		bpl	.L386
 4775              		.loc 1 1767 41 discriminator 1 view .LVU1630
 4776 000e 0B79     		ldrb	r3, [r1, #4]	@ zero_extendqisi2
 4777 0010 002B     		cmp	r3, #0
 4778 0012 54D0     		beq	.L387
 4779              	.L386:
1768:Drivers/STM32F4xx_HAL_Driver/Src/stm32f4xx_ll_usb.c ****   {
1769:Drivers/STM32F4xx_HAL_Driver/Src/stm32f4xx_ll_usb.c ****     /* in DMA mode host Core automatically issues ping  in case of NYET/NAK */
1770:Drivers/STM32F4xx_HAL_Driver/Src/stm32f4xx_ll_usb.c ****     if ((dma == 1U) && ((hc->ep_type == EP_TYPE_CTRL) || (hc->ep_type == EP_TYPE_BULK)))
1771:Drivers/STM32F4xx_HAL_Driver/Src/stm32f4xx_ll_usb.c ****     {
1772:Drivers/STM32F4xx_HAL_Driver/Src/stm32f4xx_ll_usb.c ****       USBx_HC((uint32_t)ch_num)->HCINTMSK &= ~(USB_OTG_HCINTMSK_NYET |
 4780              		.loc 1 1772 43 view .LVU1631
 4781 0014 00EB4C13 		add	r3, r0, ip, lsl #5
 4782 0018 03F5A063 		add	r3, r3, #1280
 4783              	.L388:
1773:Drivers/STM32F4xx_HAL_Driver/Src/stm32f4xx_ll_usb.c ****                                                USB_OTG_HCINTMSK_ACKM |
1774:Drivers/STM32F4xx_HAL_Driver/Src/stm32f4xx_ll_usb.c ****                                                USB_OTG_HCINTMSK_NAKM);
1775:Drivers/STM32F4xx_HAL_Driver/Src/stm32f4xx_ll_usb.c ****     }
1776:Drivers/STM32F4xx_HAL_Driver/Src/stm32f4xx_ll_usb.c **** 
1777:Drivers/STM32F4xx_HAL_Driver/Src/stm32f4xx_ll_usb.c ****     if ((dma == 0U) && (hc->do_ping == 1U))
1778:Drivers/STM32F4xx_HAL_Driver/Src/stm32f4xx_ll_usb.c ****     {
1779:Drivers/STM32F4xx_HAL_Driver/Src/stm32f4xx_ll_usb.c ****       (void)USB_DoPing(USBx, hc->ch_num);
ARM GAS  /tmp/ccTCOTTa.s 			page 140


1780:Drivers/STM32F4xx_HAL_Driver/Src/stm32f4xx_ll_usb.c ****       return HAL_OK;
1781:Drivers/STM32F4xx_HAL_Driver/Src/stm32f4xx_ll_usb.c ****     }
1782:Drivers/STM32F4xx_HAL_Driver/Src/stm32f4xx_ll_usb.c **** 
1783:Drivers/STM32F4xx_HAL_Driver/Src/stm32f4xx_ll_usb.c ****   }
1784:Drivers/STM32F4xx_HAL_Driver/Src/stm32f4xx_ll_usb.c **** 
1785:Drivers/STM32F4xx_HAL_Driver/Src/stm32f4xx_ll_usb.c ****   /* Compute the expected number of packets associated to the transfer */
1786:Drivers/STM32F4xx_HAL_Driver/Src/stm32f4xx_ll_usb.c ****   if (hc->xfer_len > 0U)
 4784              		.loc 1 1786 3 is_stmt 1 view .LVU1632
 4785              		.loc 1 1786 9 is_stmt 0 view .LVU1633
 4786 001c 4D69     		ldr	r5, [r1, #20]
 4787              		.loc 1 1786 6 view .LVU1634
 4788 001e 002D     		cmp	r5, #0
 4789 0020 3AD1     		bne	.L418
1787:Drivers/STM32F4xx_HAL_Driver/Src/stm32f4xx_ll_usb.c ****   {
1788:Drivers/STM32F4xx_HAL_Driver/Src/stm32f4xx_ll_usb.c ****     num_packets = (uint16_t)((hc->xfer_len + hc->max_packet - 1U) / hc->max_packet);
1789:Drivers/STM32F4xx_HAL_Driver/Src/stm32f4xx_ll_usb.c **** 
1790:Drivers/STM32F4xx_HAL_Driver/Src/stm32f4xx_ll_usb.c ****     if (num_packets > max_hc_pkt_count)
1791:Drivers/STM32F4xx_HAL_Driver/Src/stm32f4xx_ll_usb.c ****     {
1792:Drivers/STM32F4xx_HAL_Driver/Src/stm32f4xx_ll_usb.c ****       num_packets = max_hc_pkt_count;
1793:Drivers/STM32F4xx_HAL_Driver/Src/stm32f4xx_ll_usb.c ****       hc->XferSize = (uint32_t)num_packets * hc->max_packet;
1794:Drivers/STM32F4xx_HAL_Driver/Src/stm32f4xx_ll_usb.c ****     }
1795:Drivers/STM32F4xx_HAL_Driver/Src/stm32f4xx_ll_usb.c ****   }
1796:Drivers/STM32F4xx_HAL_Driver/Src/stm32f4xx_ll_usb.c ****   else
1797:Drivers/STM32F4xx_HAL_Driver/Src/stm32f4xx_ll_usb.c ****   {
1798:Drivers/STM32F4xx_HAL_Driver/Src/stm32f4xx_ll_usb.c ****     num_packets = 1U;
1799:Drivers/STM32F4xx_HAL_Driver/Src/stm32f4xx_ll_usb.c ****   }
1800:Drivers/STM32F4xx_HAL_Driver/Src/stm32f4xx_ll_usb.c **** 
1801:Drivers/STM32F4xx_HAL_Driver/Src/stm32f4xx_ll_usb.c ****   /*
1802:Drivers/STM32F4xx_HAL_Driver/Src/stm32f4xx_ll_usb.c ****    * For IN channel HCTSIZ.XferSize is expected to be an integer multiple of
1803:Drivers/STM32F4xx_HAL_Driver/Src/stm32f4xx_ll_usb.c ****    * max_packet size.
1804:Drivers/STM32F4xx_HAL_Driver/Src/stm32f4xx_ll_usb.c ****    */
1805:Drivers/STM32F4xx_HAL_Driver/Src/stm32f4xx_ll_usb.c ****   if (hc->ep_is_in != 0U)
 4790              		.loc 1 1805 3 is_stmt 1 view .LVU1635
 4791              		.loc 1 1805 9 is_stmt 0 view .LVU1636
 4792 0022 CE78     		ldrb	r6, [r1, #3]	@ zero_extendqisi2
 4793 0024 4FF4002E 		mov	lr, #524288
 4794 0028 0124     		movs	r4, #1
 4795              		.loc 1 1805 6 view .LVU1637
 4796 002a 002E     		cmp	r6, #0
 4797 002c 45D0     		beq	.L406
 4798              	.L419:
1806:Drivers/STM32F4xx_HAL_Driver/Src/stm32f4xx_ll_usb.c ****   {
1807:Drivers/STM32F4xx_HAL_Driver/Src/stm32f4xx_ll_usb.c ****     hc->XferSize = (uint32_t)num_packets * hc->max_packet;
 4799              		.loc 1 1807 5 is_stmt 1 view .LVU1638
 4800              		.loc 1 1807 46 is_stmt 0 view .LVU1639
 4801 002e 0F89     		ldrh	r7, [r1, #8]
 4802              		.loc 1 1807 42 view .LVU1640
 4803 0030 04FB07F7 		mul	r7, r4, r7
 4804              	.L395:
1808:Drivers/STM32F4xx_HAL_Driver/Src/stm32f4xx_ll_usb.c ****   }
1809:Drivers/STM32F4xx_HAL_Driver/Src/stm32f4xx_ll_usb.c ****   else
1810:Drivers/STM32F4xx_HAL_Driver/Src/stm32f4xx_ll_usb.c ****   {
1811:Drivers/STM32F4xx_HAL_Driver/Src/stm32f4xx_ll_usb.c ****     hc->XferSize = hc->xfer_len;
1812:Drivers/STM32F4xx_HAL_Driver/Src/stm32f4xx_ll_usb.c ****   }
1813:Drivers/STM32F4xx_HAL_Driver/Src/stm32f4xx_ll_usb.c **** 
1814:Drivers/STM32F4xx_HAL_Driver/Src/stm32f4xx_ll_usb.c ****   /* Initialize the HCTSIZn register */
1815:Drivers/STM32F4xx_HAL_Driver/Src/stm32f4xx_ll_usb.c ****   USBx_HC(ch_num)->HCTSIZ = (hc->XferSize & USB_OTG_HCTSIZ_XFRSIZ) |
ARM GAS  /tmp/ccTCOTTa.s 			page 141


1816:Drivers/STM32F4xx_HAL_Driver/Src/stm32f4xx_ll_usb.c ****                             (((uint32_t)num_packets << 19) & USB_OTG_HCTSIZ_PKTCNT) |
1817:Drivers/STM32F4xx_HAL_Driver/Src/stm32f4xx_ll_usb.c ****                             (((uint32_t)hc->data_pid << 29) & USB_OTG_HCTSIZ_DPID);
 4805              		.loc 1 1817 31 view .LVU1641
 4806 0034 8C7A     		ldrb	r4, [r1, #10]	@ zero_extendqisi2
 4807 0036 0F61     		str	r7, [r1, #16]
1815:Drivers/STM32F4xx_HAL_Driver/Src/stm32f4xx_ll_usb.c ****                             (((uint32_t)num_packets << 19) & USB_OTG_HCTSIZ_PKTCNT) |
 4808              		.loc 1 1815 3 is_stmt 1 view .LVU1642
 4809              		.loc 1 1817 54 is_stmt 0 view .LVU1643
 4810 0038 6407     		lsls	r4, r4, #29
 4811              		.loc 1 1817 61 view .LVU1644
 4812 003a 04F0C044 		and	r4, r4, #1610612736
1815:Drivers/STM32F4xx_HAL_Driver/Src/stm32f4xx_ll_usb.c ****                             (((uint32_t)num_packets << 19) & USB_OTG_HCTSIZ_PKTCNT) |
 4813              		.loc 1 1815 43 view .LVU1645
 4814 003e C7F31207 		ubfx	r7, r7, #0, #19
1816:Drivers/STM32F4xx_HAL_Driver/Src/stm32f4xx_ll_usb.c ****                             (((uint32_t)hc->data_pid << 29) & USB_OTG_HCTSIZ_DPID);
 4815              		.loc 1 1816 85 view .LVU1646
 4816 0042 44EA0E04 		orr	r4, r4, lr
 4817 0046 3C43     		orrs	r4, r4, r7
1815:Drivers/STM32F4xx_HAL_Driver/Src/stm32f4xx_ll_usb.c ****                             (((uint32_t)num_packets << 19) & USB_OTG_HCTSIZ_PKTCNT) |
 4818              		.loc 1 1815 27 view .LVU1647
 4819 0048 1C61     		str	r4, [r3, #16]
1818:Drivers/STM32F4xx_HAL_Driver/Src/stm32f4xx_ll_usb.c **** 
1819:Drivers/STM32F4xx_HAL_Driver/Src/stm32f4xx_ll_usb.c ****   if (dma != 0U)
 4820              		.loc 1 1819 3 is_stmt 1 view .LVU1648
 4821              		.loc 1 1819 6 is_stmt 0 view .LVU1649
 4822 004a 0AB1     		cbz	r2, .L396
1820:Drivers/STM32F4xx_HAL_Driver/Src/stm32f4xx_ll_usb.c ****   {
1821:Drivers/STM32F4xx_HAL_Driver/Src/stm32f4xx_ll_usb.c ****     /* xfer_buff MUST be 32-bits aligned */
1822:Drivers/STM32F4xx_HAL_Driver/Src/stm32f4xx_ll_usb.c ****     USBx_HC(ch_num)->HCDMA = (uint32_t)hc->xfer_buff;
 4823              		.loc 1 1822 5 is_stmt 1 view .LVU1650
 4824              		.loc 1 1822 30 is_stmt 0 view .LVU1651
 4825 004c CC68     		ldr	r4, [r1, #12]
 4826              		.loc 1 1822 28 view .LVU1652
 4827 004e 5C61     		str	r4, [r3, #20]
 4828              	.L396:
1823:Drivers/STM32F4xx_HAL_Driver/Src/stm32f4xx_ll_usb.c ****   }
1824:Drivers/STM32F4xx_HAL_Driver/Src/stm32f4xx_ll_usb.c **** 
1825:Drivers/STM32F4xx_HAL_Driver/Src/stm32f4xx_ll_usb.c ****   is_oddframe = (((uint32_t)USBx_HOST->HFNUM & 0x01U) != 0U) ? 0U : 1U;
 4829              		.loc 1 1825 3 is_stmt 1 view .LVU1653
 4830              		.loc 1 1825 38 is_stmt 0 view .LVU1654
 4831 0050 D0F80844 		ldr	r4, [r0, #1032]
 4832              	.LVL325:
1826:Drivers/STM32F4xx_HAL_Driver/Src/stm32f4xx_ll_usb.c ****   USBx_HC(ch_num)->HCCHAR &= ~USB_OTG_HCCHAR_ODDFRM;
 4833              		.loc 1 1826 3 is_stmt 1 view .LVU1655
 4834              		.loc 1 1826 27 is_stmt 0 view .LVU1656
 4835 0054 1F68     		ldr	r7, [r3]
 4836 0056 27F00057 		bic	r7, r7, #536870912
 4837 005a 1F60     		str	r7, [r3]
1827:Drivers/STM32F4xx_HAL_Driver/Src/stm32f4xx_ll_usb.c ****   USBx_HC(ch_num)->HCCHAR |= (uint32_t)is_oddframe << 29;
 4838              		.loc 1 1827 3 is_stmt 1 view .LVU1657
 4839              		.loc 1 1827 52 is_stmt 0 view .LVU1658
 4840 005c E443     		mvns	r4, r4
 4841              	.LVL326:
 4842              		.loc 1 1827 27 view .LVU1659
 4843 005e 1F68     		ldr	r7, [r3]
 4844              		.loc 1 1827 52 view .LVU1660
 4845 0060 6407     		lsls	r4, r4, #29
ARM GAS  /tmp/ccTCOTTa.s 			page 142


 4846              	.LVL327:
 4847              		.loc 1 1827 52 view .LVU1661
 4848 0062 04F00054 		and	r4, r4, #536870912
 4849              		.loc 1 1827 27 view .LVU1662
 4850 0066 3C43     		orrs	r4, r4, r7
 4851 0068 1C60     		str	r4, [r3]
1828:Drivers/STM32F4xx_HAL_Driver/Src/stm32f4xx_ll_usb.c **** 
1829:Drivers/STM32F4xx_HAL_Driver/Src/stm32f4xx_ll_usb.c ****   /* Set host channel enable */
1830:Drivers/STM32F4xx_HAL_Driver/Src/stm32f4xx_ll_usb.c ****   tmpreg = USBx_HC(ch_num)->HCCHAR;
 4852              		.loc 1 1830 3 is_stmt 1 view .LVU1663
 4853              		.loc 1 1830 27 is_stmt 0 view .LVU1664
 4854 006a 1C68     		ldr	r4, [r3]
 4855              		.loc 1 1830 10 view .LVU1665
 4856 006c 0194     		str	r4, [sp, #4]
1831:Drivers/STM32F4xx_HAL_Driver/Src/stm32f4xx_ll_usb.c ****   tmpreg &= ~USB_OTG_HCCHAR_CHDIS;
 4857              		.loc 1 1831 3 is_stmt 1 view .LVU1666
 4858              		.loc 1 1831 10 is_stmt 0 view .LVU1667
 4859 006e 019C     		ldr	r4, [sp, #4]
 4860 0070 24F08044 		bic	r4, r4, #1073741824
 4861 0074 0194     		str	r4, [sp, #4]
1832:Drivers/STM32F4xx_HAL_Driver/Src/stm32f4xx_ll_usb.c **** 
1833:Drivers/STM32F4xx_HAL_Driver/Src/stm32f4xx_ll_usb.c ****   /* make sure to set the correct ep direction */
1834:Drivers/STM32F4xx_HAL_Driver/Src/stm32f4xx_ll_usb.c ****   if (hc->ep_is_in != 0U)
 4862              		.loc 1 1834 3 is_stmt 1 view .LVU1668
1825:Drivers/STM32F4xx_HAL_Driver/Src/stm32f4xx_ll_usb.c ****   USBx_HC(ch_num)->HCCHAR &= ~USB_OTG_HCCHAR_ODDFRM;
 4863              		.loc 1 1825 29 is_stmt 0 view .LVU1669
 4864 0076 00F58067 		add	r7, r0, #1024
 4865              		.loc 1 1834 6 view .LVU1670
 4866 007a 002E     		cmp	r6, #0
 4867 007c 34D0     		beq	.L397
1835:Drivers/STM32F4xx_HAL_Driver/Src/stm32f4xx_ll_usb.c ****   {
1836:Drivers/STM32F4xx_HAL_Driver/Src/stm32f4xx_ll_usb.c ****     tmpreg |= USB_OTG_HCCHAR_EPDIR;
 4868              		.loc 1 1836 5 is_stmt 1 view .LVU1671
 4869              		.loc 1 1836 12 is_stmt 0 view .LVU1672
 4870 007e 019A     		ldr	r2, [sp, #4]
 4871              	.LVL328:
 4872              		.loc 1 1836 12 view .LVU1673
 4873 0080 42F40042 		orr	r2, r2, #32768
 4874 0084 0192     		str	r2, [sp, #4]
1837:Drivers/STM32F4xx_HAL_Driver/Src/stm32f4xx_ll_usb.c ****   }
1838:Drivers/STM32F4xx_HAL_Driver/Src/stm32f4xx_ll_usb.c ****   else
1839:Drivers/STM32F4xx_HAL_Driver/Src/stm32f4xx_ll_usb.c ****   {
1840:Drivers/STM32F4xx_HAL_Driver/Src/stm32f4xx_ll_usb.c ****     tmpreg &= ~USB_OTG_HCCHAR_EPDIR;
1841:Drivers/STM32F4xx_HAL_Driver/Src/stm32f4xx_ll_usb.c ****   }
1842:Drivers/STM32F4xx_HAL_Driver/Src/stm32f4xx_ll_usb.c ****   tmpreg |= USB_OTG_HCCHAR_CHENA;
 4875              		.loc 1 1842 3 is_stmt 1 view .LVU1674
 4876              		.loc 1 1842 10 is_stmt 0 view .LVU1675
 4877 0086 019A     		ldr	r2, [sp, #4]
 4878 0088 42F00042 		orr	r2, r2, #-2147483648
 4879 008c 0192     		str	r2, [sp, #4]
1843:Drivers/STM32F4xx_HAL_Driver/Src/stm32f4xx_ll_usb.c ****   USBx_HC(ch_num)->HCCHAR = tmpreg;
 4880              		.loc 1 1843 3 is_stmt 1 view .LVU1676
 4881              		.loc 1 1843 27 is_stmt 0 view .LVU1677
 4882 008e 019A     		ldr	r2, [sp, #4]
 4883 0090 1A60     		str	r2, [r3]
1844:Drivers/STM32F4xx_HAL_Driver/Src/stm32f4xx_ll_usb.c **** 
1845:Drivers/STM32F4xx_HAL_Driver/Src/stm32f4xx_ll_usb.c ****   if (dma != 0U) /* dma mode */
ARM GAS  /tmp/ccTCOTTa.s 			page 143


 4884              		.loc 1 1845 3 is_stmt 1 view .LVU1678
1846:Drivers/STM32F4xx_HAL_Driver/Src/stm32f4xx_ll_usb.c ****   {
1847:Drivers/STM32F4xx_HAL_Driver/Src/stm32f4xx_ll_usb.c ****     return HAL_OK;
1848:Drivers/STM32F4xx_HAL_Driver/Src/stm32f4xx_ll_usb.c ****   }
1849:Drivers/STM32F4xx_HAL_Driver/Src/stm32f4xx_ll_usb.c **** 
1850:Drivers/STM32F4xx_HAL_Driver/Src/stm32f4xx_ll_usb.c ****   if ((hc->ep_is_in == 0U) && (hc->xfer_len > 0U))
 4885              		.loc 1 1850 3 view .LVU1679
 4886              	.LVL329:
 4887              	.L393:
1851:Drivers/STM32F4xx_HAL_Driver/Src/stm32f4xx_ll_usb.c ****   {
1852:Drivers/STM32F4xx_HAL_Driver/Src/stm32f4xx_ll_usb.c ****     switch (hc->ep_type)
1853:Drivers/STM32F4xx_HAL_Driver/Src/stm32f4xx_ll_usb.c ****     {
1854:Drivers/STM32F4xx_HAL_Driver/Src/stm32f4xx_ll_usb.c ****       /* Non periodic transfer */
1855:Drivers/STM32F4xx_HAL_Driver/Src/stm32f4xx_ll_usb.c ****       case EP_TYPE_CTRL:
1856:Drivers/STM32F4xx_HAL_Driver/Src/stm32f4xx_ll_usb.c ****       case EP_TYPE_BULK:
1857:Drivers/STM32F4xx_HAL_Driver/Src/stm32f4xx_ll_usb.c **** 
1858:Drivers/STM32F4xx_HAL_Driver/Src/stm32f4xx_ll_usb.c ****         len_words = (uint16_t)((hc->xfer_len + 3U) / 4U);
1859:Drivers/STM32F4xx_HAL_Driver/Src/stm32f4xx_ll_usb.c **** 
1860:Drivers/STM32F4xx_HAL_Driver/Src/stm32f4xx_ll_usb.c ****         /* check if there is enough space in FIFO space */
1861:Drivers/STM32F4xx_HAL_Driver/Src/stm32f4xx_ll_usb.c ****         if (len_words > (USBx->HNPTXSTS & 0xFFFFU))
1862:Drivers/STM32F4xx_HAL_Driver/Src/stm32f4xx_ll_usb.c ****         {
1863:Drivers/STM32F4xx_HAL_Driver/Src/stm32f4xx_ll_usb.c ****           /* need to process data in nptxfempty interrupt */
1864:Drivers/STM32F4xx_HAL_Driver/Src/stm32f4xx_ll_usb.c ****           USBx->GINTMSK |= USB_OTG_GINTMSK_NPTXFEM;
1865:Drivers/STM32F4xx_HAL_Driver/Src/stm32f4xx_ll_usb.c ****         }
1866:Drivers/STM32F4xx_HAL_Driver/Src/stm32f4xx_ll_usb.c ****         break;
1867:Drivers/STM32F4xx_HAL_Driver/Src/stm32f4xx_ll_usb.c **** 
1868:Drivers/STM32F4xx_HAL_Driver/Src/stm32f4xx_ll_usb.c ****       /* Periodic transfer */
1869:Drivers/STM32F4xx_HAL_Driver/Src/stm32f4xx_ll_usb.c ****       case EP_TYPE_INTR:
1870:Drivers/STM32F4xx_HAL_Driver/Src/stm32f4xx_ll_usb.c ****       case EP_TYPE_ISOC:
1871:Drivers/STM32F4xx_HAL_Driver/Src/stm32f4xx_ll_usb.c ****         len_words = (uint16_t)((hc->xfer_len + 3U) / 4U);
1872:Drivers/STM32F4xx_HAL_Driver/Src/stm32f4xx_ll_usb.c ****         /* check if there is enough space in FIFO space */
1873:Drivers/STM32F4xx_HAL_Driver/Src/stm32f4xx_ll_usb.c ****         if (len_words > (USBx_HOST->HPTXSTS & 0xFFFFU)) /* split the transfer */
1874:Drivers/STM32F4xx_HAL_Driver/Src/stm32f4xx_ll_usb.c ****         {
1875:Drivers/STM32F4xx_HAL_Driver/Src/stm32f4xx_ll_usb.c ****           /* need to process data in ptxfempty interrupt */
1876:Drivers/STM32F4xx_HAL_Driver/Src/stm32f4xx_ll_usb.c ****           USBx->GINTMSK |= USB_OTG_GINTMSK_PTXFEM;
1877:Drivers/STM32F4xx_HAL_Driver/Src/stm32f4xx_ll_usb.c ****         }
1878:Drivers/STM32F4xx_HAL_Driver/Src/stm32f4xx_ll_usb.c ****         break;
1879:Drivers/STM32F4xx_HAL_Driver/Src/stm32f4xx_ll_usb.c **** 
1880:Drivers/STM32F4xx_HAL_Driver/Src/stm32f4xx_ll_usb.c ****       default:
1881:Drivers/STM32F4xx_HAL_Driver/Src/stm32f4xx_ll_usb.c ****         break;
1882:Drivers/STM32F4xx_HAL_Driver/Src/stm32f4xx_ll_usb.c ****     }
1883:Drivers/STM32F4xx_HAL_Driver/Src/stm32f4xx_ll_usb.c **** 
1884:Drivers/STM32F4xx_HAL_Driver/Src/stm32f4xx_ll_usb.c ****     /* Write packet into the Tx FIFO. */
1885:Drivers/STM32F4xx_HAL_Driver/Src/stm32f4xx_ll_usb.c ****     (void)USB_WritePacket(USBx, hc->xfer_buff, hc->ch_num, (uint16_t)hc->xfer_len, 0);
1886:Drivers/STM32F4xx_HAL_Driver/Src/stm32f4xx_ll_usb.c ****   }
1887:Drivers/STM32F4xx_HAL_Driver/Src/stm32f4xx_ll_usb.c **** 
1888:Drivers/STM32F4xx_HAL_Driver/Src/stm32f4xx_ll_usb.c ****   return HAL_OK;
1889:Drivers/STM32F4xx_HAL_Driver/Src/stm32f4xx_ll_usb.c **** }
 4888              		.loc 1 1889 1 is_stmt 0 view .LVU1680
 4889 0092 0020     		movs	r0, #0
 4890 0094 03B0     		add	sp, sp, #12
 4891              	.LCFI80:
 4892              		.cfi_remember_state
 4893              		.cfi_def_cfa_offset 20
 4894              		@ sp needed
 4895 0096 F0BD     		pop	{r4, r5, r6, r7, pc}
 4896              	.LVL330:
ARM GAS  /tmp/ccTCOTTa.s 			page 144


 4897              	.L418:
 4898              	.LCFI81:
 4899              		.cfi_restore_state
1788:Drivers/STM32F4xx_HAL_Driver/Src/stm32f4xx_ll_usb.c **** 
 4900              		.loc 1 1788 5 is_stmt 1 view .LVU1681
1788:Drivers/STM32F4xx_HAL_Driver/Src/stm32f4xx_ll_usb.c **** 
 4901              		.loc 1 1788 48 is_stmt 0 view .LVU1682
 4902 0098 0C89     		ldrh	r4, [r1, #8]
 4903              	.LVL331:
1790:Drivers/STM32F4xx_HAL_Driver/Src/stm32f4xx_ll_usb.c ****     {
 4904              		.loc 1 1790 5 is_stmt 1 view .LVU1683
1805:Drivers/STM32F4xx_HAL_Driver/Src/stm32f4xx_ll_usb.c ****   {
 4905              		.loc 1 1805 9 is_stmt 0 view .LVU1684
 4906 009a CE78     		ldrb	r6, [r1, #3]	@ zero_extendqisi2
1788:Drivers/STM32F4xx_HAL_Driver/Src/stm32f4xx_ll_usb.c **** 
 4907              		.loc 1 1788 61 view .LVU1685
 4908 009c 6F1E     		subs	r7, r5, #1
 4909 009e 2744     		add	r7, r7, r4
1788:Drivers/STM32F4xx_HAL_Driver/Src/stm32f4xx_ll_usb.c **** 
 4910              		.loc 1 1788 67 view .LVU1686
 4911 00a0 B7FBF4F7 		udiv	r7, r7, r4
1807:Drivers/STM32F4xx_HAL_Driver/Src/stm32f4xx_ll_usb.c ****   }
 4912              		.loc 1 1807 20 view .LVU1687
 4913 00a4 BFB2     		uxth	r7, r7
 4914 00a6 B7F5807F 		cmp	r7, #256
 4915 00aa 3C46     		mov	r4, r7
 4916              	.LVL332:
1807:Drivers/STM32F4xx_HAL_Driver/Src/stm32f4xx_ll_usb.c ****   }
 4917              		.loc 1 1807 20 view .LVU1688
 4918 00ac 28BF     		it	cs
 4919 00ae 4FF48074 		movcs	r4, #256
1816:Drivers/STM32F4xx_HAL_Driver/Src/stm32f4xx_ll_usb.c ****                             (((uint32_t)hc->data_pid << 29) & USB_OTG_HCTSIZ_DPID);
 4920              		.loc 1 1816 53 view .LVU1689
 4921 00b2 4FEAC44E 		lsl	lr, r4, #19
 4922              	.LVL333:
1805:Drivers/STM32F4xx_HAL_Driver/Src/stm32f4xx_ll_usb.c ****   {
 4923              		.loc 1 1805 3 is_stmt 1 view .LVU1690
1805:Drivers/STM32F4xx_HAL_Driver/Src/stm32f4xx_ll_usb.c ****   {
 4924              		.loc 1 1805 6 is_stmt 0 view .LVU1691
 4925 00b6 002E     		cmp	r6, #0
 4926 00b8 B9D1     		bne	.L419
 4927              	.L406:
1786:Drivers/STM32F4xx_HAL_Driver/Src/stm32f4xx_ll_usb.c ****   {
 4928              		.loc 1 1786 9 view .LVU1692
 4929 00ba 2F46     		mov	r7, r5
 4930 00bc BAE7     		b	.L395
 4931              	.L387:
1770:Drivers/STM32F4xx_HAL_Driver/Src/stm32f4xx_ll_usb.c ****     {
 4932              		.loc 1 1770 5 is_stmt 1 view .LVU1693
1770:Drivers/STM32F4xx_HAL_Driver/Src/stm32f4xx_ll_usb.c ****     {
 4933              		.loc 1 1770 8 is_stmt 0 view .LVU1694
 4934 00be 012A     		cmp	r2, #1
 4935 00c0 27D0     		beq	.L420
1777:Drivers/STM32F4xx_HAL_Driver/Src/stm32f4xx_ll_usb.c ****     {
 4936              		.loc 1 1777 5 is_stmt 1 view .LVU1695
1777:Drivers/STM32F4xx_HAL_Driver/Src/stm32f4xx_ll_usb.c ****     {
 4937              		.loc 1 1777 8 is_stmt 0 view .LVU1696
ARM GAS  /tmp/ccTCOTTa.s 			page 145


 4938 00c2 002A     		cmp	r2, #0
 4939 00c4 A6D1     		bne	.L386
1777:Drivers/STM32F4xx_HAL_Driver/Src/stm32f4xx_ll_usb.c ****     {
 4940              		.loc 1 1777 21 discriminator 1 view .LVU1697
 4941 00c6 4B79     		ldrb	r3, [r1, #5]	@ zero_extendqisi2
 4942 00c8 012B     		cmp	r3, #1
 4943 00ca A3D1     		bne	.L386
1779:Drivers/STM32F4xx_HAL_Driver/Src/stm32f4xx_ll_usb.c ****       return HAL_OK;
 4944              		.loc 1 1779 7 is_stmt 1 view .LVU1698
 4945              	.LVL334:
 4946              	.LBB90:
 4947              	.LBI90:
1890:Drivers/STM32F4xx_HAL_Driver/Src/stm32f4xx_ll_usb.c **** 
1891:Drivers/STM32F4xx_HAL_Driver/Src/stm32f4xx_ll_usb.c **** /**
1892:Drivers/STM32F4xx_HAL_Driver/Src/stm32f4xx_ll_usb.c ****   * @brief Read all host channel interrupts status
1893:Drivers/STM32F4xx_HAL_Driver/Src/stm32f4xx_ll_usb.c ****   * @param  USBx  Selected device
1894:Drivers/STM32F4xx_HAL_Driver/Src/stm32f4xx_ll_usb.c ****   * @retval HAL state
1895:Drivers/STM32F4xx_HAL_Driver/Src/stm32f4xx_ll_usb.c ****   */
1896:Drivers/STM32F4xx_HAL_Driver/Src/stm32f4xx_ll_usb.c **** uint32_t USB_HC_ReadInterrupt(USB_OTG_GlobalTypeDef *USBx)
1897:Drivers/STM32F4xx_HAL_Driver/Src/stm32f4xx_ll_usb.c **** {
1898:Drivers/STM32F4xx_HAL_Driver/Src/stm32f4xx_ll_usb.c ****   uint32_t USBx_BASE = (uint32_t)USBx;
1899:Drivers/STM32F4xx_HAL_Driver/Src/stm32f4xx_ll_usb.c **** 
1900:Drivers/STM32F4xx_HAL_Driver/Src/stm32f4xx_ll_usb.c ****   return ((USBx_HOST->HAINT) & 0xFFFFU);
1901:Drivers/STM32F4xx_HAL_Driver/Src/stm32f4xx_ll_usb.c **** }
1902:Drivers/STM32F4xx_HAL_Driver/Src/stm32f4xx_ll_usb.c **** 
1903:Drivers/STM32F4xx_HAL_Driver/Src/stm32f4xx_ll_usb.c **** /**
1904:Drivers/STM32F4xx_HAL_Driver/Src/stm32f4xx_ll_usb.c ****   * @brief  Halt a host channel
1905:Drivers/STM32F4xx_HAL_Driver/Src/stm32f4xx_ll_usb.c ****   * @param  USBx  Selected device
1906:Drivers/STM32F4xx_HAL_Driver/Src/stm32f4xx_ll_usb.c ****   * @param  hc_num  Host Channel number
1907:Drivers/STM32F4xx_HAL_Driver/Src/stm32f4xx_ll_usb.c ****   *         This parameter can be a value from 1 to 15
1908:Drivers/STM32F4xx_HAL_Driver/Src/stm32f4xx_ll_usb.c ****   * @retval HAL state
1909:Drivers/STM32F4xx_HAL_Driver/Src/stm32f4xx_ll_usb.c ****   */
1910:Drivers/STM32F4xx_HAL_Driver/Src/stm32f4xx_ll_usb.c **** HAL_StatusTypeDef USB_HC_Halt(USB_OTG_GlobalTypeDef *USBx, uint8_t hc_num)
1911:Drivers/STM32F4xx_HAL_Driver/Src/stm32f4xx_ll_usb.c **** {
1912:Drivers/STM32F4xx_HAL_Driver/Src/stm32f4xx_ll_usb.c ****   uint32_t USBx_BASE = (uint32_t)USBx;
1913:Drivers/STM32F4xx_HAL_Driver/Src/stm32f4xx_ll_usb.c ****   uint32_t hcnum = (uint32_t)hc_num;
1914:Drivers/STM32F4xx_HAL_Driver/Src/stm32f4xx_ll_usb.c ****   uint32_t count = 0U;
1915:Drivers/STM32F4xx_HAL_Driver/Src/stm32f4xx_ll_usb.c ****   uint32_t HcEpType = (USBx_HC(hcnum)->HCCHAR & USB_OTG_HCCHAR_EPTYP) >> 18;
1916:Drivers/STM32F4xx_HAL_Driver/Src/stm32f4xx_ll_usb.c ****   uint32_t ChannelEna = (USBx_HC(hcnum)->HCCHAR & USB_OTG_HCCHAR_CHENA) >> 31;
1917:Drivers/STM32F4xx_HAL_Driver/Src/stm32f4xx_ll_usb.c **** 
1918:Drivers/STM32F4xx_HAL_Driver/Src/stm32f4xx_ll_usb.c ****   if (((USBx->GAHBCFG & USB_OTG_GAHBCFG_DMAEN) == USB_OTG_GAHBCFG_DMAEN) &&
1919:Drivers/STM32F4xx_HAL_Driver/Src/stm32f4xx_ll_usb.c ****       (ChannelEna == 0U))
1920:Drivers/STM32F4xx_HAL_Driver/Src/stm32f4xx_ll_usb.c ****   {
1921:Drivers/STM32F4xx_HAL_Driver/Src/stm32f4xx_ll_usb.c ****     return HAL_OK;
1922:Drivers/STM32F4xx_HAL_Driver/Src/stm32f4xx_ll_usb.c ****   }
1923:Drivers/STM32F4xx_HAL_Driver/Src/stm32f4xx_ll_usb.c **** 
1924:Drivers/STM32F4xx_HAL_Driver/Src/stm32f4xx_ll_usb.c ****   /* Check for space in the request queue to issue the halt. */
1925:Drivers/STM32F4xx_HAL_Driver/Src/stm32f4xx_ll_usb.c ****   if ((HcEpType == HCCHAR_CTRL) || (HcEpType == HCCHAR_BULK))
1926:Drivers/STM32F4xx_HAL_Driver/Src/stm32f4xx_ll_usb.c ****   {
1927:Drivers/STM32F4xx_HAL_Driver/Src/stm32f4xx_ll_usb.c ****     USBx_HC(hcnum)->HCCHAR |= USB_OTG_HCCHAR_CHDIS;
1928:Drivers/STM32F4xx_HAL_Driver/Src/stm32f4xx_ll_usb.c **** 
1929:Drivers/STM32F4xx_HAL_Driver/Src/stm32f4xx_ll_usb.c ****     if ((USBx->GAHBCFG & USB_OTG_GAHBCFG_DMAEN) == 0U)
1930:Drivers/STM32F4xx_HAL_Driver/Src/stm32f4xx_ll_usb.c ****     {
1931:Drivers/STM32F4xx_HAL_Driver/Src/stm32f4xx_ll_usb.c ****       if ((USBx->HNPTXSTS & (0xFFU << 16)) == 0U)
1932:Drivers/STM32F4xx_HAL_Driver/Src/stm32f4xx_ll_usb.c ****       {
1933:Drivers/STM32F4xx_HAL_Driver/Src/stm32f4xx_ll_usb.c ****         USBx_HC(hcnum)->HCCHAR &= ~USB_OTG_HCCHAR_CHENA;
1934:Drivers/STM32F4xx_HAL_Driver/Src/stm32f4xx_ll_usb.c ****         USBx_HC(hcnum)->HCCHAR |= USB_OTG_HCCHAR_CHENA;
ARM GAS  /tmp/ccTCOTTa.s 			page 146


1935:Drivers/STM32F4xx_HAL_Driver/Src/stm32f4xx_ll_usb.c ****         USBx_HC(hcnum)->HCCHAR &= ~USB_OTG_HCCHAR_EPDIR;
1936:Drivers/STM32F4xx_HAL_Driver/Src/stm32f4xx_ll_usb.c ****         do
1937:Drivers/STM32F4xx_HAL_Driver/Src/stm32f4xx_ll_usb.c ****         {
1938:Drivers/STM32F4xx_HAL_Driver/Src/stm32f4xx_ll_usb.c ****           if (++count > 1000U)
1939:Drivers/STM32F4xx_HAL_Driver/Src/stm32f4xx_ll_usb.c ****           {
1940:Drivers/STM32F4xx_HAL_Driver/Src/stm32f4xx_ll_usb.c ****             break;
1941:Drivers/STM32F4xx_HAL_Driver/Src/stm32f4xx_ll_usb.c ****           }
1942:Drivers/STM32F4xx_HAL_Driver/Src/stm32f4xx_ll_usb.c ****         } while ((USBx_HC(hcnum)->HCCHAR & USB_OTG_HCCHAR_CHENA) == USB_OTG_HCCHAR_CHENA);
1943:Drivers/STM32F4xx_HAL_Driver/Src/stm32f4xx_ll_usb.c ****       }
1944:Drivers/STM32F4xx_HAL_Driver/Src/stm32f4xx_ll_usb.c ****       else
1945:Drivers/STM32F4xx_HAL_Driver/Src/stm32f4xx_ll_usb.c ****       {
1946:Drivers/STM32F4xx_HAL_Driver/Src/stm32f4xx_ll_usb.c ****         USBx_HC(hcnum)->HCCHAR |= USB_OTG_HCCHAR_CHENA;
1947:Drivers/STM32F4xx_HAL_Driver/Src/stm32f4xx_ll_usb.c ****       }
1948:Drivers/STM32F4xx_HAL_Driver/Src/stm32f4xx_ll_usb.c ****     }
1949:Drivers/STM32F4xx_HAL_Driver/Src/stm32f4xx_ll_usb.c ****   }
1950:Drivers/STM32F4xx_HAL_Driver/Src/stm32f4xx_ll_usb.c ****   else
1951:Drivers/STM32F4xx_HAL_Driver/Src/stm32f4xx_ll_usb.c ****   {
1952:Drivers/STM32F4xx_HAL_Driver/Src/stm32f4xx_ll_usb.c ****     USBx_HC(hcnum)->HCCHAR |= USB_OTG_HCCHAR_CHDIS;
1953:Drivers/STM32F4xx_HAL_Driver/Src/stm32f4xx_ll_usb.c **** 
1954:Drivers/STM32F4xx_HAL_Driver/Src/stm32f4xx_ll_usb.c ****     if ((USBx_HOST->HPTXSTS & (0xFFU << 16)) == 0U)
1955:Drivers/STM32F4xx_HAL_Driver/Src/stm32f4xx_ll_usb.c ****     {
1956:Drivers/STM32F4xx_HAL_Driver/Src/stm32f4xx_ll_usb.c ****       USBx_HC(hcnum)->HCCHAR &= ~USB_OTG_HCCHAR_CHENA;
1957:Drivers/STM32F4xx_HAL_Driver/Src/stm32f4xx_ll_usb.c ****       USBx_HC(hcnum)->HCCHAR |= USB_OTG_HCCHAR_CHENA;
1958:Drivers/STM32F4xx_HAL_Driver/Src/stm32f4xx_ll_usb.c ****       USBx_HC(hcnum)->HCCHAR &= ~USB_OTG_HCCHAR_EPDIR;
1959:Drivers/STM32F4xx_HAL_Driver/Src/stm32f4xx_ll_usb.c ****       do
1960:Drivers/STM32F4xx_HAL_Driver/Src/stm32f4xx_ll_usb.c ****       {
1961:Drivers/STM32F4xx_HAL_Driver/Src/stm32f4xx_ll_usb.c ****         if (++count > 1000U)
1962:Drivers/STM32F4xx_HAL_Driver/Src/stm32f4xx_ll_usb.c ****         {
1963:Drivers/STM32F4xx_HAL_Driver/Src/stm32f4xx_ll_usb.c ****           break;
1964:Drivers/STM32F4xx_HAL_Driver/Src/stm32f4xx_ll_usb.c ****         }
1965:Drivers/STM32F4xx_HAL_Driver/Src/stm32f4xx_ll_usb.c ****       } while ((USBx_HC(hcnum)->HCCHAR & USB_OTG_HCCHAR_CHENA) == USB_OTG_HCCHAR_CHENA);
1966:Drivers/STM32F4xx_HAL_Driver/Src/stm32f4xx_ll_usb.c ****     }
1967:Drivers/STM32F4xx_HAL_Driver/Src/stm32f4xx_ll_usb.c ****     else
1968:Drivers/STM32F4xx_HAL_Driver/Src/stm32f4xx_ll_usb.c ****     {
1969:Drivers/STM32F4xx_HAL_Driver/Src/stm32f4xx_ll_usb.c ****       USBx_HC(hcnum)->HCCHAR |= USB_OTG_HCCHAR_CHENA;
1970:Drivers/STM32F4xx_HAL_Driver/Src/stm32f4xx_ll_usb.c ****     }
1971:Drivers/STM32F4xx_HAL_Driver/Src/stm32f4xx_ll_usb.c ****   }
1972:Drivers/STM32F4xx_HAL_Driver/Src/stm32f4xx_ll_usb.c **** 
1973:Drivers/STM32F4xx_HAL_Driver/Src/stm32f4xx_ll_usb.c ****   return HAL_OK;
1974:Drivers/STM32F4xx_HAL_Driver/Src/stm32f4xx_ll_usb.c **** }
1975:Drivers/STM32F4xx_HAL_Driver/Src/stm32f4xx_ll_usb.c **** 
1976:Drivers/STM32F4xx_HAL_Driver/Src/stm32f4xx_ll_usb.c **** /**
1977:Drivers/STM32F4xx_HAL_Driver/Src/stm32f4xx_ll_usb.c ****   * @brief  Initiate Do Ping protocol
1978:Drivers/STM32F4xx_HAL_Driver/Src/stm32f4xx_ll_usb.c ****   * @param  USBx  Selected device
1979:Drivers/STM32F4xx_HAL_Driver/Src/stm32f4xx_ll_usb.c ****   * @param  hc_num  Host Channel number
1980:Drivers/STM32F4xx_HAL_Driver/Src/stm32f4xx_ll_usb.c ****   *         This parameter can be a value from 1 to 15
1981:Drivers/STM32F4xx_HAL_Driver/Src/stm32f4xx_ll_usb.c ****   * @retval HAL state
1982:Drivers/STM32F4xx_HAL_Driver/Src/stm32f4xx_ll_usb.c ****   */
1983:Drivers/STM32F4xx_HAL_Driver/Src/stm32f4xx_ll_usb.c **** HAL_StatusTypeDef USB_DoPing(USB_OTG_GlobalTypeDef *USBx, uint8_t ch_num)
 4948              		.loc 1 1983 19 view .LVU1699
 4949              	.LBB91:
1984:Drivers/STM32F4xx_HAL_Driver/Src/stm32f4xx_ll_usb.c **** {
1985:Drivers/STM32F4xx_HAL_Driver/Src/stm32f4xx_ll_usb.c ****   uint32_t USBx_BASE = (uint32_t)USBx;
 4950              		.loc 1 1985 3 view .LVU1700
1986:Drivers/STM32F4xx_HAL_Driver/Src/stm32f4xx_ll_usb.c ****   uint32_t chnum = (uint32_t)ch_num;
 4951              		.loc 1 1986 3 view .LVU1701
1987:Drivers/STM32F4xx_HAL_Driver/Src/stm32f4xx_ll_usb.c ****   uint32_t num_packets = 1U;
ARM GAS  /tmp/ccTCOTTa.s 			page 147


 4952              		.loc 1 1987 3 view .LVU1702
1988:Drivers/STM32F4xx_HAL_Driver/Src/stm32f4xx_ll_usb.c ****   uint32_t tmpreg;
 4953              		.loc 1 1988 3 view .LVU1703
1989:Drivers/STM32F4xx_HAL_Driver/Src/stm32f4xx_ll_usb.c **** 
1990:Drivers/STM32F4xx_HAL_Driver/Src/stm32f4xx_ll_usb.c ****   USBx_HC(chnum)->HCTSIZ = ((num_packets << 19) & USB_OTG_HCTSIZ_PKTCNT) |
 4954              		.loc 1 1990 3 view .LVU1704
 4955 00cc 00EB4C10 		add	r0, r0, ip, lsl #5
 4956              	.LVL335:
 4957              		.loc 1 1990 26 is_stmt 0 view .LVU1705
 4958 00d0 2C4A     		ldr	r2, .L422
 4959              	.LVL336:
 4960              		.loc 1 1990 26 view .LVU1706
 4961 00d2 C0F81025 		str	r2, [r0, #1296]
1991:Drivers/STM32F4xx_HAL_Driver/Src/stm32f4xx_ll_usb.c ****                            USB_OTG_HCTSIZ_DOPING;
1992:Drivers/STM32F4xx_HAL_Driver/Src/stm32f4xx_ll_usb.c **** 
1993:Drivers/STM32F4xx_HAL_Driver/Src/stm32f4xx_ll_usb.c ****   /* Set host channel enable */
1994:Drivers/STM32F4xx_HAL_Driver/Src/stm32f4xx_ll_usb.c ****   tmpreg = USBx_HC(chnum)->HCCHAR;
 4962              		.loc 1 1994 3 is_stmt 1 view .LVU1707
 4963              		.loc 1 1994 10 is_stmt 0 view .LVU1708
 4964 00d6 D0F80035 		ldr	r3, [r0, #1280]
 4965              	.LVL337:
1995:Drivers/STM32F4xx_HAL_Driver/Src/stm32f4xx_ll_usb.c ****   tmpreg &= ~USB_OTG_HCCHAR_CHDIS;
 4966              		.loc 1 1995 3 is_stmt 1 view .LVU1709
 4967              		.loc 1 1995 10 is_stmt 0 view .LVU1710
 4968 00da 23F08043 		bic	r3, r3, #1073741824
 4969              	.LVL338:
1996:Drivers/STM32F4xx_HAL_Driver/Src/stm32f4xx_ll_usb.c ****   tmpreg |= USB_OTG_HCCHAR_CHENA;
 4970              		.loc 1 1996 3 is_stmt 1 view .LVU1711
 4971              		.loc 1 1996 10 is_stmt 0 view .LVU1712
 4972 00de 43F00043 		orr	r3, r3, #-2147483648
 4973              	.LVL339:
1997:Drivers/STM32F4xx_HAL_Driver/Src/stm32f4xx_ll_usb.c ****   USBx_HC(chnum)->HCCHAR = tmpreg;
 4974              		.loc 1 1997 3 is_stmt 1 view .LVU1713
 4975              		.loc 1 1997 26 is_stmt 0 view .LVU1714
 4976 00e2 C0F80035 		str	r3, [r0, #1280]
1998:Drivers/STM32F4xx_HAL_Driver/Src/stm32f4xx_ll_usb.c **** 
1999:Drivers/STM32F4xx_HAL_Driver/Src/stm32f4xx_ll_usb.c ****   return HAL_OK;
 4977              		.loc 1 1999 3 is_stmt 1 view .LVU1715
 4978              	.LVL340:
 4979              		.loc 1 1999 3 is_stmt 0 view .LVU1716
 4980              	.LBE91:
 4981              	.LBE90:
1780:Drivers/STM32F4xx_HAL_Driver/Src/stm32f4xx_ll_usb.c ****     }
 4982              		.loc 1 1780 7 is_stmt 1 view .LVU1717
1780:Drivers/STM32F4xx_HAL_Driver/Src/stm32f4xx_ll_usb.c ****     }
 4983              		.loc 1 1780 14 is_stmt 0 view .LVU1718
 4984 00e6 D4E7     		b	.L393
 4985              	.LVL341:
 4986              	.L397:
1840:Drivers/STM32F4xx_HAL_Driver/Src/stm32f4xx_ll_usb.c ****   }
 4987              		.loc 1 1840 5 is_stmt 1 view .LVU1719
1840:Drivers/STM32F4xx_HAL_Driver/Src/stm32f4xx_ll_usb.c ****   }
 4988              		.loc 1 1840 12 is_stmt 0 view .LVU1720
 4989 00e8 019C     		ldr	r4, [sp, #4]
 4990 00ea 24F40044 		bic	r4, r4, #32768
 4991 00ee 0194     		str	r4, [sp, #4]
1842:Drivers/STM32F4xx_HAL_Driver/Src/stm32f4xx_ll_usb.c ****   USBx_HC(ch_num)->HCCHAR = tmpreg;
ARM GAS  /tmp/ccTCOTTa.s 			page 148


 4992              		.loc 1 1842 3 is_stmt 1 view .LVU1721
1842:Drivers/STM32F4xx_HAL_Driver/Src/stm32f4xx_ll_usb.c ****   USBx_HC(ch_num)->HCCHAR = tmpreg;
 4993              		.loc 1 1842 10 is_stmt 0 view .LVU1722
 4994 00f0 019C     		ldr	r4, [sp, #4]
 4995 00f2 44F00044 		orr	r4, r4, #-2147483648
 4996 00f6 0194     		str	r4, [sp, #4]
1843:Drivers/STM32F4xx_HAL_Driver/Src/stm32f4xx_ll_usb.c **** 
 4997              		.loc 1 1843 3 is_stmt 1 view .LVU1723
1843:Drivers/STM32F4xx_HAL_Driver/Src/stm32f4xx_ll_usb.c **** 
 4998              		.loc 1 1843 27 is_stmt 0 view .LVU1724
 4999 00f8 019C     		ldr	r4, [sp, #4]
 5000 00fa 1C60     		str	r4, [r3]
1845:Drivers/STM32F4xx_HAL_Driver/Src/stm32f4xx_ll_usb.c ****   {
 5001              		.loc 1 1845 3 is_stmt 1 view .LVU1725
1845:Drivers/STM32F4xx_HAL_Driver/Src/stm32f4xx_ll_usb.c ****   {
 5002              		.loc 1 1845 6 is_stmt 0 view .LVU1726
 5003 00fc 002A     		cmp	r2, #0
 5004 00fe C8D1     		bne	.L393
1850:Drivers/STM32F4xx_HAL_Driver/Src/stm32f4xx_ll_usb.c ****   {
 5005              		.loc 1 1850 28 discriminator 1 view .LVU1727
 5006 0100 002D     		cmp	r5, #0
 5007 0102 C6D0     		beq	.L393
1852:Drivers/STM32F4xx_HAL_Driver/Src/stm32f4xx_ll_usb.c ****     {
 5008              		.loc 1 1852 5 is_stmt 1 view .LVU1728
 5009 0104 CB79     		ldrb	r3, [r1, #7]	@ zero_extendqisi2
 5010 0106 032B     		cmp	r3, #3
 5011 0108 17D8     		bhi	.L400
 5012 010a DFE803F0 		tbb	[pc, r3]
 5013              	.LVL342:
 5014              	.L402:
 5015 010e 29       		.byte	(.L403-.L402)/2
 5016 010f 0F       		.byte	(.L401-.L402)/2
 5017 0110 29       		.byte	(.L403-.L402)/2
 5018 0111 0F       		.byte	(.L401-.L402)/2
 5019              		.p2align 1
 5020              	.L420:
1772:Drivers/STM32F4xx_HAL_Driver/Src/stm32f4xx_ll_usb.c ****                                                USB_OTG_HCINTMSK_ACKM |
 5021              		.loc 1 1772 7 discriminator 1 view .LVU1729
1770:Drivers/STM32F4xx_HAL_Driver/Src/stm32f4xx_ll_usb.c ****     {
 5022              		.loc 1 1770 21 is_stmt 0 discriminator 1 view .LVU1730
 5023 0112 CB79     		ldrb	r3, [r1, #7]	@ zero_extendqisi2
 5024 0114 13F0FD0F 		tst	r3, #253
1772:Drivers/STM32F4xx_HAL_Driver/Src/stm32f4xx_ll_usb.c ****                                                USB_OTG_HCINTMSK_ACKM |
 5025              		.loc 1 1772 43 discriminator 1 view .LVU1731
 5026 0118 00EB4C13 		add	r3, r0, ip, lsl #5
 5027 011c 03F5A063 		add	r3, r3, #1280
 5028 0120 02BF     		ittt	eq
 5029 0122 DC68     		ldreq	r4, [r3, #12]
 5030 0124 24F07004 		biceq	r4, r4, #112
 5031 0128 DC60     		streq	r4, [r3, #12]
 5032 012a 77E7     		b	.L388
 5033              	.LVL343:
 5034              	.L401:
1871:Drivers/STM32F4xx_HAL_Driver/Src/stm32f4xx_ll_usb.c ****         /* check if there is enough space in FIFO space */
 5035              		.loc 1 1871 9 is_stmt 1 view .LVU1732
1873:Drivers/STM32F4xx_HAL_Driver/Src/stm32f4xx_ll_usb.c ****         {
 5036              		.loc 1 1873 9 view .LVU1733
ARM GAS  /tmp/ccTCOTTa.s 			page 149


1873:Drivers/STM32F4xx_HAL_Driver/Src/stm32f4xx_ll_usb.c ****         {
 5037              		.loc 1 1873 35 is_stmt 0 view .LVU1734
 5038 012c 3A69     		ldr	r2, [r7, #16]
1871:Drivers/STM32F4xx_HAL_Driver/Src/stm32f4xx_ll_usb.c ****         /* check if there is enough space in FIFO space */
 5039              		.loc 1 1871 46 view .LVU1735
 5040 012e EB1C     		adds	r3, r5, #3
1873:Drivers/STM32F4xx_HAL_Driver/Src/stm32f4xx_ll_usb.c ****         {
 5041              		.loc 1 1873 45 view .LVU1736
 5042 0130 92B2     		uxth	r2, r2
1873:Drivers/STM32F4xx_HAL_Driver/Src/stm32f4xx_ll_usb.c ****         {
 5043              		.loc 1 1873 12 view .LVU1737
 5044 0132 C3F38F03 		ubfx	r3, r3, #2, #16
 5045 0136 9A42     		cmp	r2, r3
 5046 0138 1ED3     		bcc	.L421
 5047              	.LVL344:
 5048              	.L400:
1885:Drivers/STM32F4xx_HAL_Driver/Src/stm32f4xx_ll_usb.c ****   }
 5049              		.loc 1 1885 5 is_stmt 1 view .LVU1738
 5050              	.LBB92:
 5051              	.LBB93:
 987:Drivers/STM32F4xx_HAL_Driver/Src/stm32f4xx_ll_usb.c ****     for (i = 0U; i < count32b; i++)
 5052              		.loc 1 987 31 is_stmt 0 view .LVU1739
 5053 013a ABB2     		uxth	r3, r5
 5054 013c 0333     		adds	r3, r3, #3
 988:Drivers/STM32F4xx_HAL_Driver/Src/stm32f4xx_ll_usb.c ****     {
 5055              		.loc 1 988 5 view .LVU1740
 5056 013e 9B08     		lsrs	r3, r3, #2
 5057              	.LBE93:
 5058              	.LBE92:
1885:Drivers/STM32F4xx_HAL_Driver/Src/stm32f4xx_ll_usb.c ****   }
 5059              		.loc 1 1885 11 view .LVU1741
 5060 0140 CA68     		ldr	r2, [r1, #12]
 5061              	.LVL345:
 5062              	.LBB95:
 5063              	.LBI92:
 977:Drivers/STM32F4xx_HAL_Driver/Src/stm32f4xx_ll_usb.c ****                                   uint8_t ch_ep_num, uint16_t len, uint8_t dma)
 5064              		.loc 1 977 19 is_stmt 1 view .LVU1742
 5065              	.LBB94:
 980:Drivers/STM32F4xx_HAL_Driver/Src/stm32f4xx_ll_usb.c ****   uint8_t *pSrc = src;
 5066              		.loc 1 980 3 view .LVU1743
 981:Drivers/STM32F4xx_HAL_Driver/Src/stm32f4xx_ll_usb.c ****   uint32_t count32b;
 5067              		.loc 1 981 3 view .LVU1744
 982:Drivers/STM32F4xx_HAL_Driver/Src/stm32f4xx_ll_usb.c ****   uint32_t i;
 5068              		.loc 1 982 3 view .LVU1745
 983:Drivers/STM32F4xx_HAL_Driver/Src/stm32f4xx_ll_usb.c **** 
 5069              		.loc 1 983 3 view .LVU1746
 985:Drivers/STM32F4xx_HAL_Driver/Src/stm32f4xx_ll_usb.c ****   {
 5070              		.loc 1 985 3 view .LVU1747
 987:Drivers/STM32F4xx_HAL_Driver/Src/stm32f4xx_ll_usb.c ****     for (i = 0U; i < count32b; i++)
 5071              		.loc 1 987 5 view .LVU1748
 988:Drivers/STM32F4xx_HAL_Driver/Src/stm32f4xx_ll_usb.c ****     {
 5072              		.loc 1 988 5 view .LVU1749
 988:Drivers/STM32F4xx_HAL_Driver/Src/stm32f4xx_ll_usb.c ****     {
 5073              		.loc 1 988 18 view .LVU1750
 988:Drivers/STM32F4xx_HAL_Driver/Src/stm32f4xx_ll_usb.c ****     {
 5074              		.loc 1 988 5 is_stmt 0 view .LVU1751
 5075 0142 A6D0     		beq	.L393
ARM GAS  /tmp/ccTCOTTa.s 			page 150


 990:Drivers/STM32F4xx_HAL_Driver/Src/stm32f4xx_ll_usb.c ****       pSrc++;
 5076              		.loc 1 990 7 view .LVU1752
 5077 0144 00EB0C30 		add	r0, r0, ip, lsl #12
 5078              	.LVL346:
 990:Drivers/STM32F4xx_HAL_Driver/Src/stm32f4xx_ll_usb.c ****       pSrc++;
 5079              		.loc 1 990 7 view .LVU1753
 5080 0148 00F58050 		add	r0, r0, #4096
 5081 014c 02EB8303 		add	r3, r2, r3, lsl #2
 5082              	.LVL347:
 5083              	.L404:
 990:Drivers/STM32F4xx_HAL_Driver/Src/stm32f4xx_ll_usb.c ****       pSrc++;
 5084              		.loc 1 990 7 is_stmt 1 view .LVU1754
 990:Drivers/STM32F4xx_HAL_Driver/Src/stm32f4xx_ll_usb.c ****       pSrc++;
 5085              		.loc 1 990 41 is_stmt 0 view .LVU1755
 5086 0150 52F8041B 		ldr	r1, [r2], #4	@ unaligned
 5087              	.LVL348:
 990:Drivers/STM32F4xx_HAL_Driver/Src/stm32f4xx_ll_usb.c ****       pSrc++;
 5088              		.loc 1 990 39 view .LVU1756
 5089 0154 0160     		str	r1, [r0]
 991:Drivers/STM32F4xx_HAL_Driver/Src/stm32f4xx_ll_usb.c ****       pSrc++;
 5090              		.loc 1 991 7 is_stmt 1 view .LVU1757
 5091              	.LVL349:
 992:Drivers/STM32F4xx_HAL_Driver/Src/stm32f4xx_ll_usb.c ****       pSrc++;
 5092              		.loc 1 992 7 view .LVU1758
 993:Drivers/STM32F4xx_HAL_Driver/Src/stm32f4xx_ll_usb.c ****       pSrc++;
 5093              		.loc 1 993 7 view .LVU1759
 994:Drivers/STM32F4xx_HAL_Driver/Src/stm32f4xx_ll_usb.c ****     }
 5094              		.loc 1 994 7 view .LVU1760
 988:Drivers/STM32F4xx_HAL_Driver/Src/stm32f4xx_ll_usb.c ****     {
 5095              		.loc 1 988 32 view .LVU1761
 988:Drivers/STM32F4xx_HAL_Driver/Src/stm32f4xx_ll_usb.c ****     {
 5096              		.loc 1 988 18 view .LVU1762
 988:Drivers/STM32F4xx_HAL_Driver/Src/stm32f4xx_ll_usb.c ****     {
 5097              		.loc 1 988 5 is_stmt 0 view .LVU1763
 5098 0156 9A42     		cmp	r2, r3
 5099 0158 FAD1     		bne	.L404
 5100              	.LVL350:
 988:Drivers/STM32F4xx_HAL_Driver/Src/stm32f4xx_ll_usb.c ****     {
 5101              		.loc 1 988 5 view .LVU1764
 5102              	.LBE94:
 5103              	.LBE95:
1889:Drivers/STM32F4xx_HAL_Driver/Src/stm32f4xx_ll_usb.c **** 
 5104              		.loc 1 1889 1 view .LVU1765
 5105 015a 0020     		movs	r0, #0
 5106 015c 03B0     		add	sp, sp, #12
 5107              	.LCFI82:
 5108              		.cfi_remember_state
 5109              		.cfi_def_cfa_offset 20
 5110              		@ sp needed
 5111 015e F0BD     		pop	{r4, r5, r6, r7, pc}
 5112              	.LVL351:
 5113              	.L403:
 5114              	.LCFI83:
 5115              		.cfi_restore_state
1858:Drivers/STM32F4xx_HAL_Driver/Src/stm32f4xx_ll_usb.c **** 
 5116              		.loc 1 1858 9 is_stmt 1 view .LVU1766
1861:Drivers/STM32F4xx_HAL_Driver/Src/stm32f4xx_ll_usb.c ****         {
ARM GAS  /tmp/ccTCOTTa.s 			page 151


 5117              		.loc 1 1861 9 view .LVU1767
1861:Drivers/STM32F4xx_HAL_Driver/Src/stm32f4xx_ll_usb.c ****         {
 5118              		.loc 1 1861 30 is_stmt 0 view .LVU1768
 5119 0160 C26A     		ldr	r2, [r0, #44]
1858:Drivers/STM32F4xx_HAL_Driver/Src/stm32f4xx_ll_usb.c **** 
 5120              		.loc 1 1858 46 view .LVU1769
 5121 0162 EB1C     		adds	r3, r5, #3
1861:Drivers/STM32F4xx_HAL_Driver/Src/stm32f4xx_ll_usb.c ****         {
 5122              		.loc 1 1861 41 view .LVU1770
 5123 0164 92B2     		uxth	r2, r2
1861:Drivers/STM32F4xx_HAL_Driver/Src/stm32f4xx_ll_usb.c ****         {
 5124              		.loc 1 1861 12 view .LVU1771
 5125 0166 C3F38F03 		ubfx	r3, r3, #2, #16
 5126 016a 9A42     		cmp	r2, r3
 5127 016c E5D2     		bcs	.L400
1864:Drivers/STM32F4xx_HAL_Driver/Src/stm32f4xx_ll_usb.c ****         }
 5128              		.loc 1 1864 11 is_stmt 1 view .LVU1772
1864:Drivers/STM32F4xx_HAL_Driver/Src/stm32f4xx_ll_usb.c ****         }
 5129              		.loc 1 1864 25 is_stmt 0 view .LVU1773
 5130 016e 8369     		ldr	r3, [r0, #24]
 5131 0170 43F02003 		orr	r3, r3, #32
 5132 0174 8361     		str	r3, [r0, #24]
 5133 0176 E0E7     		b	.L400
 5134              	.L421:
1876:Drivers/STM32F4xx_HAL_Driver/Src/stm32f4xx_ll_usb.c ****         }
 5135              		.loc 1 1876 11 is_stmt 1 view .LVU1774
1876:Drivers/STM32F4xx_HAL_Driver/Src/stm32f4xx_ll_usb.c ****         }
 5136              		.loc 1 1876 25 is_stmt 0 view .LVU1775
 5137 0178 8369     		ldr	r3, [r0, #24]
 5138 017a 43F08063 		orr	r3, r3, #67108864
 5139 017e 8361     		str	r3, [r0, #24]
 5140 0180 DBE7     		b	.L400
 5141              	.L423:
 5142 0182 00BF     		.align	2
 5143              	.L422:
 5144 0184 00000880 		.word	-2146959360
 5145              		.cfi_endproc
 5146              	.LFE171:
 5148              		.section	.text.USB_HC_ReadInterrupt,"ax",%progbits
 5149              		.align	1
 5150              		.p2align 2,,3
 5151              		.global	USB_HC_ReadInterrupt
 5152              		.syntax unified
 5153              		.thumb
 5154              		.thumb_func
 5156              	USB_HC_ReadInterrupt:
 5157              	.LVL352:
 5158              	.LFB172:
1897:Drivers/STM32F4xx_HAL_Driver/Src/stm32f4xx_ll_usb.c ****   uint32_t USBx_BASE = (uint32_t)USBx;
 5159              		.loc 1 1897 1 is_stmt 1 view -0
 5160              		.cfi_startproc
 5161              		@ args = 0, pretend = 0, frame = 0
 5162              		@ frame_needed = 0, uses_anonymous_args = 0
 5163              		@ link register save eliminated.
1898:Drivers/STM32F4xx_HAL_Driver/Src/stm32f4xx_ll_usb.c **** 
 5164              		.loc 1 1898 3 view .LVU1777
1900:Drivers/STM32F4xx_HAL_Driver/Src/stm32f4xx_ll_usb.c **** }
ARM GAS  /tmp/ccTCOTTa.s 			page 152


 5165              		.loc 1 1900 3 view .LVU1778
1900:Drivers/STM32F4xx_HAL_Driver/Src/stm32f4xx_ll_usb.c **** }
 5166              		.loc 1 1900 12 is_stmt 0 view .LVU1779
 5167 0000 00F58060 		add	r0, r0, #1024
 5168              	.LVL353:
1900:Drivers/STM32F4xx_HAL_Driver/Src/stm32f4xx_ll_usb.c **** }
 5169              		.loc 1 1900 21 view .LVU1780
 5170 0004 4069     		ldr	r0, [r0, #20]
 5171              	.LVL354:
1901:Drivers/STM32F4xx_HAL_Driver/Src/stm32f4xx_ll_usb.c **** 
 5172              		.loc 1 1901 1 view .LVU1781
 5173 0006 80B2     		uxth	r0, r0
 5174 0008 7047     		bx	lr
 5175              		.cfi_endproc
 5176              	.LFE172:
 5178 000a 00BF     		.section	.text.USB_HC_Halt,"ax",%progbits
 5179              		.align	1
 5180              		.p2align 2,,3
 5181              		.global	USB_HC_Halt
 5182              		.syntax unified
 5183              		.thumb
 5184              		.thumb_func
 5186              	USB_HC_Halt:
 5187              	.LVL355:
 5188              	.LFB173:
1911:Drivers/STM32F4xx_HAL_Driver/Src/stm32f4xx_ll_usb.c ****   uint32_t USBx_BASE = (uint32_t)USBx;
 5189              		.loc 1 1911 1 is_stmt 1 view -0
 5190              		.cfi_startproc
 5191              		@ args = 0, pretend = 0, frame = 0
 5192              		@ frame_needed = 0, uses_anonymous_args = 0
 5193              		@ link register save eliminated.
1912:Drivers/STM32F4xx_HAL_Driver/Src/stm32f4xx_ll_usb.c ****   uint32_t hcnum = (uint32_t)hc_num;
 5194              		.loc 1 1912 3 view .LVU1783
1913:Drivers/STM32F4xx_HAL_Driver/Src/stm32f4xx_ll_usb.c ****   uint32_t count = 0U;
 5195              		.loc 1 1913 3 view .LVU1784
1914:Drivers/STM32F4xx_HAL_Driver/Src/stm32f4xx_ll_usb.c ****   uint32_t HcEpType = (USBx_HC(hcnum)->HCCHAR & USB_OTG_HCCHAR_EPTYP) >> 18;
 5196              		.loc 1 1914 3 view .LVU1785
1915:Drivers/STM32F4xx_HAL_Driver/Src/stm32f4xx_ll_usb.c ****   uint32_t ChannelEna = (USBx_HC(hcnum)->HCCHAR & USB_OTG_HCCHAR_CHENA) >> 31;
 5197              		.loc 1 1915 3 view .LVU1786
1915:Drivers/STM32F4xx_HAL_Driver/Src/stm32f4xx_ll_usb.c ****   uint32_t ChannelEna = (USBx_HC(hcnum)->HCCHAR & USB_OTG_HCCHAR_CHENA) >> 31;
 5198              		.loc 1 1915 24 is_stmt 0 view .LVU1787
 5199 0000 00EB4111 		add	r1, r0, r1, lsl #5
 5200              	.LVL356:
1911:Drivers/STM32F4xx_HAL_Driver/Src/stm32f4xx_ll_usb.c ****   uint32_t USBx_BASE = (uint32_t)USBx;
 5201              		.loc 1 1911 1 view .LVU1788
 5202 0004 10B4     		push	{r4}
 5203              	.LCFI84:
 5204              		.cfi_def_cfa_offset 4
 5205              		.cfi_offset 4, -4
1915:Drivers/STM32F4xx_HAL_Driver/Src/stm32f4xx_ll_usb.c ****   uint32_t ChannelEna = (USBx_HC(hcnum)->HCCHAR & USB_OTG_HCCHAR_CHENA) >> 31;
 5206              		.loc 1 1915 38 view .LVU1789
 5207 0006 D1F80035 		ldr	r3, [r1, #1280]
1916:Drivers/STM32F4xx_HAL_Driver/Src/stm32f4xx_ll_usb.c **** 
 5208              		.loc 1 1916 40 view .LVU1790
 5209 000a D1F80045 		ldr	r4, [r1, #1280]
1918:Drivers/STM32F4xx_HAL_Driver/Src/stm32f4xx_ll_usb.c ****       (ChannelEna == 0U))
 5210              		.loc 1 1918 13 view .LVU1791
ARM GAS  /tmp/ccTCOTTa.s 			page 153


 5211 000e 8268     		ldr	r2, [r0, #8]
1918:Drivers/STM32F4xx_HAL_Driver/Src/stm32f4xx_ll_usb.c ****       (ChannelEna == 0U))
 5212              		.loc 1 1918 6 view .LVU1792
 5213 0010 9206     		lsls	r2, r2, #26
1915:Drivers/STM32F4xx_HAL_Driver/Src/stm32f4xx_ll_usb.c ****   uint32_t ChannelEna = (USBx_HC(hcnum)->HCCHAR & USB_OTG_HCCHAR_CHENA) >> 31;
 5214              		.loc 1 1915 24 view .LVU1793
 5215 0012 01F5A06C 		add	ip, r1, #1280
1915:Drivers/STM32F4xx_HAL_Driver/Src/stm32f4xx_ll_usb.c ****   uint32_t ChannelEna = (USBx_HC(hcnum)->HCCHAR & USB_OTG_HCCHAR_CHENA) >> 31;
 5216              		.loc 1 1915 71 view .LVU1794
 5217 0016 4FEA9343 		lsr	r3, r3, #18
 5218              	.LVL357:
1916:Drivers/STM32F4xx_HAL_Driver/Src/stm32f4xx_ll_usb.c **** 
 5219              		.loc 1 1916 3 is_stmt 1 view .LVU1795
1918:Drivers/STM32F4xx_HAL_Driver/Src/stm32f4xx_ll_usb.c ****       (ChannelEna == 0U))
 5220              		.loc 1 1918 3 view .LVU1796
1918:Drivers/STM32F4xx_HAL_Driver/Src/stm32f4xx_ll_usb.c ****       (ChannelEna == 0U))
 5221              		.loc 1 1918 6 is_stmt 0 view .LVU1797
 5222 001a 01D5     		bpl	.L426
1918:Drivers/STM32F4xx_HAL_Driver/Src/stm32f4xx_ll_usb.c ****       (ChannelEna == 0U))
 5223              		.loc 1 1918 74 discriminator 1 view .LVU1798
 5224 001c 002C     		cmp	r4, #0
 5225 001e 2ADA     		bge	.L427
 5226              	.L426:
1925:Drivers/STM32F4xx_HAL_Driver/Src/stm32f4xx_ll_usb.c ****   {
 5227              		.loc 1 1925 3 is_stmt 1 view .LVU1799
1925:Drivers/STM32F4xx_HAL_Driver/Src/stm32f4xx_ll_usb.c ****   {
 5228              		.loc 1 1925 6 is_stmt 0 view .LVU1800
 5229 0020 13F0010F 		tst	r3, #1
1927:Drivers/STM32F4xx_HAL_Driver/Src/stm32f4xx_ll_usb.c **** 
 5230              		.loc 1 1927 28 view .LVU1801
 5231 0024 D1F80035 		ldr	r3, [r1, #1280]
 5232              	.LVL358:
1927:Drivers/STM32F4xx_HAL_Driver/Src/stm32f4xx_ll_usb.c **** 
 5233              		.loc 1 1927 28 view .LVU1802
 5234 0028 43F08043 		orr	r3, r3, #1073741824
 5235 002c C1F80035 		str	r3, [r1, #1280]
1925:Drivers/STM32F4xx_HAL_Driver/Src/stm32f4xx_ll_usb.c ****   {
 5236              		.loc 1 1925 6 view .LVU1803
 5237 0030 25D1     		bne	.L428
1927:Drivers/STM32F4xx_HAL_Driver/Src/stm32f4xx_ll_usb.c **** 
 5238              		.loc 1 1927 5 is_stmt 1 view .LVU1804
1929:Drivers/STM32F4xx_HAL_Driver/Src/stm32f4xx_ll_usb.c ****     {
 5239              		.loc 1 1929 5 view .LVU1805
1929:Drivers/STM32F4xx_HAL_Driver/Src/stm32f4xx_ll_usb.c ****     {
 5240              		.loc 1 1929 14 is_stmt 0 view .LVU1806
 5241 0032 8368     		ldr	r3, [r0, #8]
1929:Drivers/STM32F4xx_HAL_Driver/Src/stm32f4xx_ll_usb.c ****     {
 5242              		.loc 1 1929 8 view .LVU1807
 5243 0034 9B06     		lsls	r3, r3, #26
 5244 0036 1ED4     		bmi	.L427
1931:Drivers/STM32F4xx_HAL_Driver/Src/stm32f4xx_ll_usb.c ****       {
 5245              		.loc 1 1931 7 is_stmt 1 view .LVU1808
1931:Drivers/STM32F4xx_HAL_Driver/Src/stm32f4xx_ll_usb.c ****       {
 5246              		.loc 1 1931 16 is_stmt 0 view .LVU1809
 5247 0038 C36A     		ldr	r3, [r0, #44]
1931:Drivers/STM32F4xx_HAL_Driver/Src/stm32f4xx_ll_usb.c ****       {
 5248              		.loc 1 1931 10 view .LVU1810
ARM GAS  /tmp/ccTCOTTa.s 			page 154


 5249 003a 13F47F0F 		tst	r3, #16711680
 5250 003e 42D1     		bne	.L433
1933:Drivers/STM32F4xx_HAL_Driver/Src/stm32f4xx_ll_usb.c ****         USBx_HC(hcnum)->HCCHAR |= USB_OTG_HCCHAR_CHENA;
 5251              		.loc 1 1933 9 is_stmt 1 view .LVU1811
1933:Drivers/STM32F4xx_HAL_Driver/Src/stm32f4xx_ll_usb.c ****         USBx_HC(hcnum)->HCCHAR |= USB_OTG_HCCHAR_CHENA;
 5252              		.loc 1 1933 32 is_stmt 0 view .LVU1812
 5253 0040 D1F80025 		ldr	r2, [r1, #1280]
 5254 0044 22F00042 		bic	r2, r2, #-2147483648
 5255 0048 C1F80025 		str	r2, [r1, #1280]
1934:Drivers/STM32F4xx_HAL_Driver/Src/stm32f4xx_ll_usb.c ****         USBx_HC(hcnum)->HCCHAR &= ~USB_OTG_HCCHAR_EPDIR;
 5256              		.loc 1 1934 9 is_stmt 1 view .LVU1813
1934:Drivers/STM32F4xx_HAL_Driver/Src/stm32f4xx_ll_usb.c ****         USBx_HC(hcnum)->HCCHAR &= ~USB_OTG_HCCHAR_EPDIR;
 5257              		.loc 1 1934 32 is_stmt 0 view .LVU1814
 5258 004c D1F80025 		ldr	r2, [r1, #1280]
 5259 0050 42F00042 		orr	r2, r2, #-2147483648
 5260 0054 C1F80025 		str	r2, [r1, #1280]
1935:Drivers/STM32F4xx_HAL_Driver/Src/stm32f4xx_ll_usb.c ****         do
 5261              		.loc 1 1935 9 is_stmt 1 view .LVU1815
1935:Drivers/STM32F4xx_HAL_Driver/Src/stm32f4xx_ll_usb.c ****         do
 5262              		.loc 1 1935 32 is_stmt 0 view .LVU1816
 5263 0058 D1F80025 		ldr	r2, [r1, #1280]
 5264 005c 22F40042 		bic	r2, r2, #32768
 5265 0060 4FF47A73 		mov	r3, #1000
 5266 0064 C1F80025 		str	r2, [r1, #1280]
1936:Drivers/STM32F4xx_HAL_Driver/Src/stm32f4xx_ll_usb.c ****         {
 5267              		.loc 1 1936 9 is_stmt 1 view .LVU1817
1938:Drivers/STM32F4xx_HAL_Driver/Src/stm32f4xx_ll_usb.c ****           {
 5268              		.loc 1 1938 11 view .LVU1818
 5269              	.LVL359:
1938:Drivers/STM32F4xx_HAL_Driver/Src/stm32f4xx_ll_usb.c ****           {
 5270              		.loc 1 1938 11 is_stmt 0 view .LVU1819
 5271 0068 01E0     		b	.L431
 5272              	.LVL360:
 5273              	.L432:
1938:Drivers/STM32F4xx_HAL_Driver/Src/stm32f4xx_ll_usb.c ****           {
 5274              		.loc 1 1938 14 view .LVU1820
 5275 006a 013B     		subs	r3, r3, #1
 5276              	.LVL361:
1938:Drivers/STM32F4xx_HAL_Driver/Src/stm32f4xx_ll_usb.c ****           {
 5277              		.loc 1 1938 14 view .LVU1821
 5278 006c 03D0     		beq	.L427
 5279              	.LVL362:
 5280              	.L431:
1936:Drivers/STM32F4xx_HAL_Driver/Src/stm32f4xx_ll_usb.c ****         {
 5281              		.loc 1 1936 9 is_stmt 1 view .LVU1822
1938:Drivers/STM32F4xx_HAL_Driver/Src/stm32f4xx_ll_usb.c ****           {
 5282              		.loc 1 1938 11 view .LVU1823
1942:Drivers/STM32F4xx_HAL_Driver/Src/stm32f4xx_ll_usb.c ****       }
 5283              		.loc 1 1942 17 view .LVU1824
1942:Drivers/STM32F4xx_HAL_Driver/Src/stm32f4xx_ll_usb.c ****       }
 5284              		.loc 1 1942 33 is_stmt 0 view .LVU1825
 5285 006e DCF80020 		ldr	r2, [ip]
1942:Drivers/STM32F4xx_HAL_Driver/Src/stm32f4xx_ll_usb.c ****       }
 5286              		.loc 1 1942 9 view .LVU1826
 5287 0072 002A     		cmp	r2, #0
 5288 0074 F9DB     		blt	.L432
 5289              	.LVL363:
ARM GAS  /tmp/ccTCOTTa.s 			page 155


 5290              	.L427:
1974:Drivers/STM32F4xx_HAL_Driver/Src/stm32f4xx_ll_usb.c **** 
 5291              		.loc 1 1974 1 view .LVU1827
 5292 0076 0020     		movs	r0, #0
 5293              	.LVL364:
1974:Drivers/STM32F4xx_HAL_Driver/Src/stm32f4xx_ll_usb.c **** 
 5294              		.loc 1 1974 1 view .LVU1828
 5295 0078 5DF8044B 		ldr	r4, [sp], #4
 5296              	.LCFI85:
 5297              		.cfi_remember_state
 5298              		.cfi_restore 4
 5299              		.cfi_def_cfa_offset 0
 5300              	.LVL365:
1974:Drivers/STM32F4xx_HAL_Driver/Src/stm32f4xx_ll_usb.c **** 
 5301              		.loc 1 1974 1 view .LVU1829
 5302 007c 7047     		bx	lr
 5303              	.LVL366:
 5304              	.L428:
 5305              	.LCFI86:
 5306              		.cfi_restore_state
1952:Drivers/STM32F4xx_HAL_Driver/Src/stm32f4xx_ll_usb.c **** 
 5307              		.loc 1 1952 5 is_stmt 1 view .LVU1830
1954:Drivers/STM32F4xx_HAL_Driver/Src/stm32f4xx_ll_usb.c ****     {
 5308              		.loc 1 1954 5 view .LVU1831
1954:Drivers/STM32F4xx_HAL_Driver/Src/stm32f4xx_ll_usb.c ****     {
 5309              		.loc 1 1954 19 is_stmt 0 view .LVU1832
 5310 007e D0F81034 		ldr	r3, [r0, #1040]
1954:Drivers/STM32F4xx_HAL_Driver/Src/stm32f4xx_ll_usb.c ****     {
 5311              		.loc 1 1954 8 view .LVU1833
 5312 0082 13F47F0F 		tst	r3, #16711680
 5313 0086 1ED1     		bne	.L433
1956:Drivers/STM32F4xx_HAL_Driver/Src/stm32f4xx_ll_usb.c ****       USBx_HC(hcnum)->HCCHAR |= USB_OTG_HCCHAR_CHENA;
 5314              		.loc 1 1956 7 is_stmt 1 view .LVU1834
1956:Drivers/STM32F4xx_HAL_Driver/Src/stm32f4xx_ll_usb.c ****       USBx_HC(hcnum)->HCCHAR |= USB_OTG_HCCHAR_CHENA;
 5315              		.loc 1 1956 30 is_stmt 0 view .LVU1835
 5316 0088 D1F80025 		ldr	r2, [r1, #1280]
 5317 008c 22F00042 		bic	r2, r2, #-2147483648
 5318 0090 C1F80025 		str	r2, [r1, #1280]
1957:Drivers/STM32F4xx_HAL_Driver/Src/stm32f4xx_ll_usb.c ****       USBx_HC(hcnum)->HCCHAR &= ~USB_OTG_HCCHAR_EPDIR;
 5319              		.loc 1 1957 7 is_stmt 1 view .LVU1836
1957:Drivers/STM32F4xx_HAL_Driver/Src/stm32f4xx_ll_usb.c ****       USBx_HC(hcnum)->HCCHAR &= ~USB_OTG_HCCHAR_EPDIR;
 5320              		.loc 1 1957 30 is_stmt 0 view .LVU1837
 5321 0094 D1F80025 		ldr	r2, [r1, #1280]
 5322 0098 42F00042 		orr	r2, r2, #-2147483648
 5323 009c C1F80025 		str	r2, [r1, #1280]
1958:Drivers/STM32F4xx_HAL_Driver/Src/stm32f4xx_ll_usb.c ****       do
 5324              		.loc 1 1958 7 is_stmt 1 view .LVU1838
1958:Drivers/STM32F4xx_HAL_Driver/Src/stm32f4xx_ll_usb.c ****       do
 5325              		.loc 1 1958 30 is_stmt 0 view .LVU1839
 5326 00a0 D1F80025 		ldr	r2, [r1, #1280]
 5327 00a4 22F40042 		bic	r2, r2, #32768
 5328 00a8 4FF47A73 		mov	r3, #1000
 5329 00ac C1F80025 		str	r2, [r1, #1280]
1959:Drivers/STM32F4xx_HAL_Driver/Src/stm32f4xx_ll_usb.c ****       {
 5330              		.loc 1 1959 7 is_stmt 1 view .LVU1840
1961:Drivers/STM32F4xx_HAL_Driver/Src/stm32f4xx_ll_usb.c ****         {
 5331              		.loc 1 1961 9 view .LVU1841
ARM GAS  /tmp/ccTCOTTa.s 			page 156


 5332              	.LVL367:
1961:Drivers/STM32F4xx_HAL_Driver/Src/stm32f4xx_ll_usb.c ****         {
 5333              		.loc 1 1961 9 is_stmt 0 view .LVU1842
 5334 00b0 01E0     		b	.L434
 5335              	.LVL368:
 5336              	.L435:
1961:Drivers/STM32F4xx_HAL_Driver/Src/stm32f4xx_ll_usb.c ****         {
 5337              		.loc 1 1961 12 view .LVU1843
 5338 00b2 013B     		subs	r3, r3, #1
 5339              	.LVL369:
1961:Drivers/STM32F4xx_HAL_Driver/Src/stm32f4xx_ll_usb.c ****         {
 5340              		.loc 1 1961 12 view .LVU1844
 5341 00b4 DFD0     		beq	.L427
 5342              	.LVL370:
 5343              	.L434:
1959:Drivers/STM32F4xx_HAL_Driver/Src/stm32f4xx_ll_usb.c ****       {
 5344              		.loc 1 1959 7 is_stmt 1 view .LVU1845
1961:Drivers/STM32F4xx_HAL_Driver/Src/stm32f4xx_ll_usb.c ****         {
 5345              		.loc 1 1961 9 view .LVU1846
1965:Drivers/STM32F4xx_HAL_Driver/Src/stm32f4xx_ll_usb.c ****     }
 5346              		.loc 1 1965 15 view .LVU1847
1965:Drivers/STM32F4xx_HAL_Driver/Src/stm32f4xx_ll_usb.c ****     }
 5347              		.loc 1 1965 31 is_stmt 0 view .LVU1848
 5348 00b6 DCF80020 		ldr	r2, [ip]
1965:Drivers/STM32F4xx_HAL_Driver/Src/stm32f4xx_ll_usb.c ****     }
 5349              		.loc 1 1965 7 view .LVU1849
 5350 00ba 002A     		cmp	r2, #0
 5351 00bc F9DB     		blt	.L435
1974:Drivers/STM32F4xx_HAL_Driver/Src/stm32f4xx_ll_usb.c **** 
 5352              		.loc 1 1974 1 view .LVU1850
 5353 00be 0020     		movs	r0, #0
 5354              	.LVL371:
1974:Drivers/STM32F4xx_HAL_Driver/Src/stm32f4xx_ll_usb.c **** 
 5355              		.loc 1 1974 1 view .LVU1851
 5356 00c0 5DF8044B 		ldr	r4, [sp], #4
 5357              	.LCFI87:
 5358              		.cfi_remember_state
 5359              		.cfi_restore 4
 5360              		.cfi_def_cfa_offset 0
 5361              	.LVL372:
1974:Drivers/STM32F4xx_HAL_Driver/Src/stm32f4xx_ll_usb.c **** 
 5362              		.loc 1 1974 1 view .LVU1852
 5363 00c4 7047     		bx	lr
 5364              	.LVL373:
 5365              	.L433:
 5366              	.LCFI88:
 5367              		.cfi_restore_state
1969:Drivers/STM32F4xx_HAL_Driver/Src/stm32f4xx_ll_usb.c ****     }
 5368              		.loc 1 1969 7 is_stmt 1 view .LVU1853
1969:Drivers/STM32F4xx_HAL_Driver/Src/stm32f4xx_ll_usb.c ****     }
 5369              		.loc 1 1969 30 is_stmt 0 view .LVU1854
 5370 00c6 D1F80035 		ldr	r3, [r1, #1280]
1974:Drivers/STM32F4xx_HAL_Driver/Src/stm32f4xx_ll_usb.c **** 
 5371              		.loc 1 1974 1 view .LVU1855
 5372 00ca 5DF8044B 		ldr	r4, [sp], #4
 5373              	.LCFI89:
 5374              		.cfi_restore 4
ARM GAS  /tmp/ccTCOTTa.s 			page 157


 5375              		.cfi_def_cfa_offset 0
 5376              	.LVL374:
1969:Drivers/STM32F4xx_HAL_Driver/Src/stm32f4xx_ll_usb.c ****     }
 5377              		.loc 1 1969 30 view .LVU1856
 5378 00ce 43F00043 		orr	r3, r3, #-2147483648
1974:Drivers/STM32F4xx_HAL_Driver/Src/stm32f4xx_ll_usb.c **** 
 5379              		.loc 1 1974 1 view .LVU1857
 5380 00d2 0020     		movs	r0, #0
 5381              	.LVL375:
1969:Drivers/STM32F4xx_HAL_Driver/Src/stm32f4xx_ll_usb.c ****     }
 5382              		.loc 1 1969 30 view .LVU1858
 5383 00d4 C1F80035 		str	r3, [r1, #1280]
1974:Drivers/STM32F4xx_HAL_Driver/Src/stm32f4xx_ll_usb.c **** 
 5384              		.loc 1 1974 1 view .LVU1859
 5385 00d8 7047     		bx	lr
 5386              		.cfi_endproc
 5387              	.LFE173:
 5389 00da 00BF     		.section	.text.USB_DoPing,"ax",%progbits
 5390              		.align	1
 5391              		.p2align 2,,3
 5392              		.global	USB_DoPing
 5393              		.syntax unified
 5394              		.thumb
 5395              		.thumb_func
 5397              	USB_DoPing:
 5398              	.LVL376:
 5399              	.LFB174:
1984:Drivers/STM32F4xx_HAL_Driver/Src/stm32f4xx_ll_usb.c ****   uint32_t USBx_BASE = (uint32_t)USBx;
 5400              		.loc 1 1984 1 is_stmt 1 view -0
 5401              		.cfi_startproc
 5402              		@ args = 0, pretend = 0, frame = 0
 5403              		@ frame_needed = 0, uses_anonymous_args = 0
 5404              		@ link register save eliminated.
1985:Drivers/STM32F4xx_HAL_Driver/Src/stm32f4xx_ll_usb.c ****   uint32_t chnum = (uint32_t)ch_num;
 5405              		.loc 1 1985 3 view .LVU1861
1986:Drivers/STM32F4xx_HAL_Driver/Src/stm32f4xx_ll_usb.c ****   uint32_t num_packets = 1U;
 5406              		.loc 1 1986 3 view .LVU1862
1987:Drivers/STM32F4xx_HAL_Driver/Src/stm32f4xx_ll_usb.c ****   uint32_t tmpreg;
 5407              		.loc 1 1987 3 view .LVU1863
1988:Drivers/STM32F4xx_HAL_Driver/Src/stm32f4xx_ll_usb.c **** 
 5408              		.loc 1 1988 3 view .LVU1864
1990:Drivers/STM32F4xx_HAL_Driver/Src/stm32f4xx_ll_usb.c ****                            USB_OTG_HCTSIZ_DOPING;
 5409              		.loc 1 1990 3 view .LVU1865
 5410 0000 00EB4111 		add	r1, r0, r1, lsl #5
 5411              	.LVL377:
1990:Drivers/STM32F4xx_HAL_Driver/Src/stm32f4xx_ll_usb.c ****                            USB_OTG_HCTSIZ_DOPING;
 5412              		.loc 1 1990 26 is_stmt 0 view .LVU1866
 5413 0004 064A     		ldr	r2, .L449
 5414 0006 C1F81025 		str	r2, [r1, #1296]
1994:Drivers/STM32F4xx_HAL_Driver/Src/stm32f4xx_ll_usb.c ****   tmpreg &= ~USB_OTG_HCCHAR_CHDIS;
 5415              		.loc 1 1994 3 is_stmt 1 view .LVU1867
1994:Drivers/STM32F4xx_HAL_Driver/Src/stm32f4xx_ll_usb.c ****   tmpreg &= ~USB_OTG_HCCHAR_CHDIS;
 5416              		.loc 1 1994 10 is_stmt 0 view .LVU1868
 5417 000a D1F80035 		ldr	r3, [r1, #1280]
 5418              	.LVL378:
1995:Drivers/STM32F4xx_HAL_Driver/Src/stm32f4xx_ll_usb.c ****   tmpreg |= USB_OTG_HCCHAR_CHENA;
 5419              		.loc 1 1995 3 is_stmt 1 view .LVU1869
ARM GAS  /tmp/ccTCOTTa.s 			page 158


1995:Drivers/STM32F4xx_HAL_Driver/Src/stm32f4xx_ll_usb.c ****   tmpreg |= USB_OTG_HCCHAR_CHENA;
 5420              		.loc 1 1995 10 is_stmt 0 view .LVU1870
 5421 000e 23F08043 		bic	r3, r3, #1073741824
 5422              	.LVL379:
1996:Drivers/STM32F4xx_HAL_Driver/Src/stm32f4xx_ll_usb.c ****   USBx_HC(chnum)->HCCHAR = tmpreg;
 5423              		.loc 1 1996 3 is_stmt 1 view .LVU1871
1996:Drivers/STM32F4xx_HAL_Driver/Src/stm32f4xx_ll_usb.c ****   USBx_HC(chnum)->HCCHAR = tmpreg;
 5424              		.loc 1 1996 10 is_stmt 0 view .LVU1872
 5425 0012 43F00043 		orr	r3, r3, #-2147483648
 5426              	.LVL380:
1997:Drivers/STM32F4xx_HAL_Driver/Src/stm32f4xx_ll_usb.c **** 
 5427              		.loc 1 1997 3 is_stmt 1 view .LVU1873
2000:Drivers/STM32F4xx_HAL_Driver/Src/stm32f4xx_ll_usb.c **** }
 5428              		.loc 1 2000 1 is_stmt 0 view .LVU1874
 5429 0016 0020     		movs	r0, #0
 5430              	.LVL381:
1997:Drivers/STM32F4xx_HAL_Driver/Src/stm32f4xx_ll_usb.c **** 
 5431              		.loc 1 1997 26 view .LVU1875
 5432 0018 C1F80035 		str	r3, [r1, #1280]
1999:Drivers/STM32F4xx_HAL_Driver/Src/stm32f4xx_ll_usb.c **** }
 5433              		.loc 1 1999 3 is_stmt 1 view .LVU1876
 5434              		.loc 1 2000 1 is_stmt 0 view .LVU1877
 5435 001c 7047     		bx	lr
 5436              	.L450:
 5437 001e 00BF     		.align	2
 5438              	.L449:
 5439 0020 00000880 		.word	-2146959360
 5440              		.cfi_endproc
 5441              	.LFE174:
 5443              		.section	.text.USB_StopHost,"ax",%progbits
 5444              		.align	1
 5445              		.p2align 2,,3
 5446              		.global	USB_StopHost
 5447              		.syntax unified
 5448              		.thumb
 5449              		.thumb_func
 5451              	USB_StopHost:
 5452              	.LVL382:
 5453              	.LFB175:
2001:Drivers/STM32F4xx_HAL_Driver/Src/stm32f4xx_ll_usb.c **** 
2002:Drivers/STM32F4xx_HAL_Driver/Src/stm32f4xx_ll_usb.c **** /**
2003:Drivers/STM32F4xx_HAL_Driver/Src/stm32f4xx_ll_usb.c ****   * @brief  Stop Host Core
2004:Drivers/STM32F4xx_HAL_Driver/Src/stm32f4xx_ll_usb.c ****   * @param  USBx  Selected device
2005:Drivers/STM32F4xx_HAL_Driver/Src/stm32f4xx_ll_usb.c ****   * @retval HAL state
2006:Drivers/STM32F4xx_HAL_Driver/Src/stm32f4xx_ll_usb.c ****   */
2007:Drivers/STM32F4xx_HAL_Driver/Src/stm32f4xx_ll_usb.c **** HAL_StatusTypeDef USB_StopHost(USB_OTG_GlobalTypeDef *USBx)
2008:Drivers/STM32F4xx_HAL_Driver/Src/stm32f4xx_ll_usb.c **** {
 5454              		.loc 1 2008 1 is_stmt 1 view -0
 5455              		.cfi_startproc
 5456              		@ args = 0, pretend = 0, frame = 8
 5457              		@ frame_needed = 0, uses_anonymous_args = 0
 5458              		@ link register save eliminated.
2009:Drivers/STM32F4xx_HAL_Driver/Src/stm32f4xx_ll_usb.c ****   uint32_t USBx_BASE = (uint32_t)USBx;
 5459              		.loc 1 2009 3 view .LVU1879
2008:Drivers/STM32F4xx_HAL_Driver/Src/stm32f4xx_ll_usb.c ****   uint32_t USBx_BASE = (uint32_t)USBx;
 5460              		.loc 1 2008 1 is_stmt 0 view .LVU1880
 5461 0000 8446     		mov	ip, r0
ARM GAS  /tmp/ccTCOTTa.s 			page 159


 5462              	.LVL383:
2010:Drivers/STM32F4xx_HAL_Driver/Src/stm32f4xx_ll_usb.c ****   uint32_t count = 0U;
 5463              		.loc 1 2010 3 is_stmt 1 view .LVU1881
2011:Drivers/STM32F4xx_HAL_Driver/Src/stm32f4xx_ll_usb.c ****   uint32_t value;
 5464              		.loc 1 2011 3 view .LVU1882
2012:Drivers/STM32F4xx_HAL_Driver/Src/stm32f4xx_ll_usb.c ****   uint32_t i;
 5465              		.loc 1 2012 3 view .LVU1883
2013:Drivers/STM32F4xx_HAL_Driver/Src/stm32f4xx_ll_usb.c **** 
2014:Drivers/STM32F4xx_HAL_Driver/Src/stm32f4xx_ll_usb.c ****   (void)USB_DisableGlobalInt(USBx);
 5466              		.loc 1 2014 3 view .LVU1884
 5467              	.LBB104:
 5468              	.LBI104:
 234:Drivers/STM32F4xx_HAL_Driver/Src/stm32f4xx_ll_usb.c **** {
 5469              		.loc 1 234 19 view .LVU1885
 5470              	.LBB105:
 236:Drivers/STM32F4xx_HAL_Driver/Src/stm32f4xx_ll_usb.c ****   return HAL_OK;
 5471              		.loc 1 236 3 view .LVU1886
 5472              	.LBE105:
 5473              	.LBE104:
2008:Drivers/STM32F4xx_HAL_Driver/Src/stm32f4xx_ll_usb.c ****   uint32_t USBx_BASE = (uint32_t)USBx;
 5474              		.loc 1 2008 1 is_stmt 0 view .LVU1887
 5475 0002 82B0     		sub	sp, sp, #8
 5476              	.LCFI90:
 5477              		.cfi_def_cfa_offset 8
 5478              	.LBB108:
 5479              	.LBB106:
 236:Drivers/STM32F4xx_HAL_Driver/Src/stm32f4xx_ll_usb.c ****   return HAL_OK;
 5480              		.loc 1 236 17 view .LVU1888
 5481 0004 DCF80830 		ldr	r3, [ip, #8]
 5482              	.LBE106:
 5483              	.LBE108:
 5484              	.LBB109:
 5485              	.LBB110:
 480:Drivers/STM32F4xx_HAL_Driver/Src/stm32f4xx_ll_usb.c ****     {
 5486              		.loc 1 480 8 view .LVU1889
 5487 0008 294A     		ldr	r2, .L470
 474:Drivers/STM32F4xx_HAL_Driver/Src/stm32f4xx_ll_usb.c **** 
 5488              		.loc 1 474 17 view .LVU1890
 5489 000a 0020     		movs	r0, #0
 5490              	.LVL384:
 476:Drivers/STM32F4xx_HAL_Driver/Src/stm32f4xx_ll_usb.c **** 
 5491              		.loc 1 476 17 view .LVU1891
 5492 000c 4FF48461 		mov	r1, #1056
 5493              	.LBE110:
 5494              	.LBE109:
 5495              	.LBB112:
 5496              	.LBB107:
 236:Drivers/STM32F4xx_HAL_Driver/Src/stm32f4xx_ll_usb.c ****   return HAL_OK;
 5497              		.loc 1 236 17 view .LVU1892
 5498 0010 23F00103 		bic	r3, r3, #1
 5499 0014 CCF80830 		str	r3, [ip, #8]
 237:Drivers/STM32F4xx_HAL_Driver/Src/stm32f4xx_ll_usb.c **** }
 5500              		.loc 1 237 3 is_stmt 1 view .LVU1893
 5501              	.LVL385:
 237:Drivers/STM32F4xx_HAL_Driver/Src/stm32f4xx_ll_usb.c **** }
 5502              		.loc 1 237 3 is_stmt 0 view .LVU1894
 5503              	.LBE107:
ARM GAS  /tmp/ccTCOTTa.s 			page 160


 5504              	.LBE112:
2015:Drivers/STM32F4xx_HAL_Driver/Src/stm32f4xx_ll_usb.c **** 
2016:Drivers/STM32F4xx_HAL_Driver/Src/stm32f4xx_ll_usb.c ****   /* Flush FIFO */
2017:Drivers/STM32F4xx_HAL_Driver/Src/stm32f4xx_ll_usb.c ****   (void)USB_FlushTxFifo(USBx, 0x10U);
 5505              		.loc 1 2017 3 is_stmt 1 view .LVU1895
 5506              	.LBB113:
 5507              	.LBI109:
 472:Drivers/STM32F4xx_HAL_Driver/Src/stm32f4xx_ll_usb.c **** {
 5508              		.loc 1 472 19 view .LVU1896
 5509              	.LBB111:
 474:Drivers/STM32F4xx_HAL_Driver/Src/stm32f4xx_ll_usb.c **** 
 5510              		.loc 1 474 3 view .LVU1897
 474:Drivers/STM32F4xx_HAL_Driver/Src/stm32f4xx_ll_usb.c **** 
 5511              		.loc 1 474 17 is_stmt 0 view .LVU1898
 5512 0018 0190     		str	r0, [sp, #4]
 476:Drivers/STM32F4xx_HAL_Driver/Src/stm32f4xx_ll_usb.c **** 
 5513              		.loc 1 476 3 is_stmt 1 view .LVU1899
 476:Drivers/STM32F4xx_HAL_Driver/Src/stm32f4xx_ll_usb.c **** 
 5514              		.loc 1 476 17 is_stmt 0 view .LVU1900
 5515 001a CCF81010 		str	r1, [ip, #16]
 5516 001e 03E0     		b	.L453
 5517              	.L467:
 484:Drivers/STM32F4xx_HAL_Driver/Src/stm32f4xx_ll_usb.c **** 
 5518              		.loc 1 484 17 view .LVU1901
 5519 0020 DCF81030 		ldr	r3, [ip, #16]
 484:Drivers/STM32F4xx_HAL_Driver/Src/stm32f4xx_ll_usb.c **** 
 5520              		.loc 1 484 3 view .LVU1902
 5521 0024 9906     		lsls	r1, r3, #26
 5522 0026 04D5     		bpl	.L452
 5523              	.L453:
 478:Drivers/STM32F4xx_HAL_Driver/Src/stm32f4xx_ll_usb.c ****   {
 5524              		.loc 1 478 3 is_stmt 1 view .LVU1903
 480:Drivers/STM32F4xx_HAL_Driver/Src/stm32f4xx_ll_usb.c ****     {
 5525              		.loc 1 480 5 view .LVU1904
 484:Drivers/STM32F4xx_HAL_Driver/Src/stm32f4xx_ll_usb.c **** 
 5526              		.loc 1 484 11 view .LVU1905
 480:Drivers/STM32F4xx_HAL_Driver/Src/stm32f4xx_ll_usb.c ****     {
 5527              		.loc 1 480 9 is_stmt 0 view .LVU1906
 5528 0028 019B     		ldr	r3, [sp, #4]
 5529 002a 0133     		adds	r3, r3, #1
 480:Drivers/STM32F4xx_HAL_Driver/Src/stm32f4xx_ll_usb.c ****     {
 5530              		.loc 1 480 8 view .LVU1907
 5531 002c 9342     		cmp	r3, r2
 5532 002e 0193     		str	r3, [sp, #4]
 5533 0030 F6D9     		bls	.L467
 5534              	.L452:
 5535              	.LVL386:
 480:Drivers/STM32F4xx_HAL_Driver/Src/stm32f4xx_ll_usb.c ****     {
 5536              		.loc 1 480 8 view .LVU1908
 5537              	.LBE111:
 5538              	.LBE113:
2018:Drivers/STM32F4xx_HAL_Driver/Src/stm32f4xx_ll_usb.c ****   (void)USB_FlushRxFifo(USBx);
 5539              		.loc 1 2018 3 is_stmt 1 view .LVU1909
 5540              	.LBB114:
 5541              	.LBI114:
 494:Drivers/STM32F4xx_HAL_Driver/Src/stm32f4xx_ll_usb.c **** {
 5542              		.loc 1 494 19 view .LVU1910
ARM GAS  /tmp/ccTCOTTa.s 			page 161


 5543              	.LBB115:
 496:Drivers/STM32F4xx_HAL_Driver/Src/stm32f4xx_ll_usb.c **** 
 5544              		.loc 1 496 3 view .LVU1911
 496:Drivers/STM32F4xx_HAL_Driver/Src/stm32f4xx_ll_usb.c **** 
 5545              		.loc 1 496 17 is_stmt 0 view .LVU1912
 5546 0032 0021     		movs	r1, #0
 498:Drivers/STM32F4xx_HAL_Driver/Src/stm32f4xx_ll_usb.c **** 
 5547              		.loc 1 498 17 view .LVU1913
 5548 0034 1023     		movs	r3, #16
 496:Drivers/STM32F4xx_HAL_Driver/Src/stm32f4xx_ll_usb.c **** 
 5549              		.loc 1 496 17 view .LVU1914
 5550 0036 0091     		str	r1, [sp]
 498:Drivers/STM32F4xx_HAL_Driver/Src/stm32f4xx_ll_usb.c **** 
 5551              		.loc 1 498 3 is_stmt 1 view .LVU1915
 502:Drivers/STM32F4xx_HAL_Driver/Src/stm32f4xx_ll_usb.c ****     {
 5552              		.loc 1 502 8 is_stmt 0 view .LVU1916
 5553 0038 1D4A     		ldr	r2, .L470
 498:Drivers/STM32F4xx_HAL_Driver/Src/stm32f4xx_ll_usb.c **** 
 5554              		.loc 1 498 17 view .LVU1917
 5555 003a CCF81030 		str	r3, [ip, #16]
 5556 003e 03E0     		b	.L455
 5557              	.L468:
 506:Drivers/STM32F4xx_HAL_Driver/Src/stm32f4xx_ll_usb.c **** 
 5558              		.loc 1 506 17 view .LVU1918
 5559 0040 DCF81030 		ldr	r3, [ip, #16]
 506:Drivers/STM32F4xx_HAL_Driver/Src/stm32f4xx_ll_usb.c **** 
 5560              		.loc 1 506 3 view .LVU1919
 5561 0044 DB06     		lsls	r3, r3, #27
 5562 0046 04D5     		bpl	.L454
 5563              	.L455:
 500:Drivers/STM32F4xx_HAL_Driver/Src/stm32f4xx_ll_usb.c ****   {
 5564              		.loc 1 500 3 is_stmt 1 view .LVU1920
 502:Drivers/STM32F4xx_HAL_Driver/Src/stm32f4xx_ll_usb.c ****     {
 5565              		.loc 1 502 5 view .LVU1921
 506:Drivers/STM32F4xx_HAL_Driver/Src/stm32f4xx_ll_usb.c **** 
 5566              		.loc 1 506 11 view .LVU1922
 502:Drivers/STM32F4xx_HAL_Driver/Src/stm32f4xx_ll_usb.c ****     {
 5567              		.loc 1 502 9 is_stmt 0 view .LVU1923
 5568 0048 009B     		ldr	r3, [sp]
 5569 004a 0133     		adds	r3, r3, #1
 502:Drivers/STM32F4xx_HAL_Driver/Src/stm32f4xx_ll_usb.c ****     {
 5570              		.loc 1 502 8 view .LVU1924
 5571 004c 9342     		cmp	r3, r2
 5572 004e 0093     		str	r3, [sp]
 5573 0050 F6D9     		bls	.L468
 5574              	.L454:
 5575 0052 0CF5A061 		add	r1, ip, #1280
 5576 0056 0CF5E060 		add	r0, ip, #1792
 5577              	.LBE115:
 5578              	.LBE114:
2008:Drivers/STM32F4xx_HAL_Driver/Src/stm32f4xx_ll_usb.c ****   uint32_t USBx_BASE = (uint32_t)USBx;
 5579              		.loc 1 2008 1 discriminator 3 view .LVU1925
 5580 005a 0A46     		mov	r2, r1
 5581              	.LVL387:
 5582              	.L456:
2019:Drivers/STM32F4xx_HAL_Driver/Src/stm32f4xx_ll_usb.c **** 
2020:Drivers/STM32F4xx_HAL_Driver/Src/stm32f4xx_ll_usb.c ****   /* Flush out any leftover queued requests. */
ARM GAS  /tmp/ccTCOTTa.s 			page 162


2021:Drivers/STM32F4xx_HAL_Driver/Src/stm32f4xx_ll_usb.c ****   for (i = 0U; i <= 15U; i++)
2022:Drivers/STM32F4xx_HAL_Driver/Src/stm32f4xx_ll_usb.c ****   {
2023:Drivers/STM32F4xx_HAL_Driver/Src/stm32f4xx_ll_usb.c ****     value = USBx_HC(i)->HCCHAR;
 5583              		.loc 1 2023 5 is_stmt 1 discriminator 3 view .LVU1926
 5584              		.loc 1 2023 11 is_stmt 0 discriminator 3 view .LVU1927
 5585 005c 1368     		ldr	r3, [r2]
 5586              	.LVL388:
2024:Drivers/STM32F4xx_HAL_Driver/Src/stm32f4xx_ll_usb.c ****     value |=  USB_OTG_HCCHAR_CHDIS;
 5587              		.loc 1 2024 5 is_stmt 1 discriminator 3 view .LVU1928
2025:Drivers/STM32F4xx_HAL_Driver/Src/stm32f4xx_ll_usb.c ****     value &= ~USB_OTG_HCCHAR_CHENA;
 5588              		.loc 1 2025 5 discriminator 3 view .LVU1929
2026:Drivers/STM32F4xx_HAL_Driver/Src/stm32f4xx_ll_usb.c ****     value &= ~USB_OTG_HCCHAR_EPDIR;
 5589              		.loc 1 2026 5 discriminator 3 view .LVU1930
 5590 005e 23F08023 		bic	r3, r3, #-2147450880
 5591              	.LVL389:
 5592              		.loc 1 2026 11 is_stmt 0 discriminator 3 view .LVU1931
 5593 0062 43F08043 		orr	r3, r3, #1073741824
 5594              	.LVL390:
2027:Drivers/STM32F4xx_HAL_Driver/Src/stm32f4xx_ll_usb.c ****     USBx_HC(i)->HCCHAR = value;
 5595              		.loc 1 2027 5 is_stmt 1 discriminator 3 view .LVU1932
 5596              		.loc 1 2027 24 is_stmt 0 discriminator 3 view .LVU1933
 5597 0066 42F8203B 		str	r3, [r2], #32
2021:Drivers/STM32F4xx_HAL_Driver/Src/stm32f4xx_ll_usb.c ****   {
 5598              		.loc 1 2021 26 is_stmt 1 discriminator 3 view .LVU1934
2021:Drivers/STM32F4xx_HAL_Driver/Src/stm32f4xx_ll_usb.c ****   {
 5599              		.loc 1 2021 16 discriminator 3 view .LVU1935
2021:Drivers/STM32F4xx_HAL_Driver/Src/stm32f4xx_ll_usb.c ****   {
 5600              		.loc 1 2021 3 is_stmt 0 discriminator 3 view .LVU1936
 5601 006a 9042     		cmp	r0, r2
 5602 006c F6D1     		bne	.L456
2010:Drivers/STM32F4xx_HAL_Driver/Src/stm32f4xx_ll_usb.c ****   uint32_t value;
 5603              		.loc 1 2010 12 view .LVU1937
 5604 006e 0023     		movs	r3, #0
 5605              	.LVL391:
 5606              	.L459:
2028:Drivers/STM32F4xx_HAL_Driver/Src/stm32f4xx_ll_usb.c ****   }
2029:Drivers/STM32F4xx_HAL_Driver/Src/stm32f4xx_ll_usb.c **** 
2030:Drivers/STM32F4xx_HAL_Driver/Src/stm32f4xx_ll_usb.c ****   /* Halt all channels to put them into a known state. */
2031:Drivers/STM32F4xx_HAL_Driver/Src/stm32f4xx_ll_usb.c ****   for (i = 0U; i <= 15U; i++)
2032:Drivers/STM32F4xx_HAL_Driver/Src/stm32f4xx_ll_usb.c ****   {
2033:Drivers/STM32F4xx_HAL_Driver/Src/stm32f4xx_ll_usb.c ****     value = USBx_HC(i)->HCCHAR;
 5607              		.loc 1 2033 5 is_stmt 1 view .LVU1938
 5608              		.loc 1 2033 11 is_stmt 0 view .LVU1939
 5609 0070 0A68     		ldr	r2, [r1]
 5610              	.LVL392:
2034:Drivers/STM32F4xx_HAL_Driver/Src/stm32f4xx_ll_usb.c ****     value |= USB_OTG_HCCHAR_CHDIS;
 5611              		.loc 1 2034 5 is_stmt 1 view .LVU1940
2035:Drivers/STM32F4xx_HAL_Driver/Src/stm32f4xx_ll_usb.c ****     value |= USB_OTG_HCCHAR_CHENA;
 5612              		.loc 1 2035 5 view .LVU1941
2036:Drivers/STM32F4xx_HAL_Driver/Src/stm32f4xx_ll_usb.c ****     value &= ~USB_OTG_HCCHAR_EPDIR;
 5613              		.loc 1 2036 5 view .LVU1942
 5614 0072 22F40042 		bic	r2, r2, #32768
 5615              	.LVL393:
 5616              		.loc 1 2036 11 is_stmt 0 view .LVU1943
 5617 0076 42F04042 		orr	r2, r2, #-1073741824
 5618              	.LVL394:
2037:Drivers/STM32F4xx_HAL_Driver/Src/stm32f4xx_ll_usb.c ****     USBx_HC(i)->HCCHAR = value;
ARM GAS  /tmp/ccTCOTTa.s 			page 163


 5619              		.loc 1 2037 5 is_stmt 1 view .LVU1944
 5620              		.loc 1 2037 24 is_stmt 0 view .LVU1945
 5621 007a 0A60     		str	r2, [r1]
 5622 007c 02E0     		b	.L458
 5623              	.LVL395:
 5624              	.L469:
2038:Drivers/STM32F4xx_HAL_Driver/Src/stm32f4xx_ll_usb.c **** 
2039:Drivers/STM32F4xx_HAL_Driver/Src/stm32f4xx_ll_usb.c ****     do
2040:Drivers/STM32F4xx_HAL_Driver/Src/stm32f4xx_ll_usb.c ****     {
2041:Drivers/STM32F4xx_HAL_Driver/Src/stm32f4xx_ll_usb.c ****       if (++count > 1000U)
2042:Drivers/STM32F4xx_HAL_Driver/Src/stm32f4xx_ll_usb.c ****       {
2043:Drivers/STM32F4xx_HAL_Driver/Src/stm32f4xx_ll_usb.c ****         break;
2044:Drivers/STM32F4xx_HAL_Driver/Src/stm32f4xx_ll_usb.c ****       }
2045:Drivers/STM32F4xx_HAL_Driver/Src/stm32f4xx_ll_usb.c ****     } while ((USBx_HC(i)->HCCHAR & USB_OTG_HCCHAR_CHENA) == USB_OTG_HCCHAR_CHENA);
 5625              		.loc 1 2045 25 view .LVU1946
 5626 007e 0A68     		ldr	r2, [r1]
 5627              		.loc 1 2045 5 view .LVU1947
 5628 0080 002A     		cmp	r2, #0
 5629 0082 03DA     		bge	.L457
 5630              	.L458:
2039:Drivers/STM32F4xx_HAL_Driver/Src/stm32f4xx_ll_usb.c ****     {
 5631              		.loc 1 2039 5 is_stmt 1 view .LVU1948
2041:Drivers/STM32F4xx_HAL_Driver/Src/stm32f4xx_ll_usb.c ****       {
 5632              		.loc 1 2041 7 view .LVU1949
 5633              		.loc 1 2045 13 view .LVU1950
2041:Drivers/STM32F4xx_HAL_Driver/Src/stm32f4xx_ll_usb.c ****       {
 5634              		.loc 1 2041 10 is_stmt 0 view .LVU1951
 5635 0084 0133     		adds	r3, r3, #1
 5636              	.LVL396:
2041:Drivers/STM32F4xx_HAL_Driver/Src/stm32f4xx_ll_usb.c ****       {
 5637              		.loc 1 2041 10 view .LVU1952
 5638 0086 B3F57A7F 		cmp	r3, #1000
 5639 008a F8D9     		bls	.L469
 5640              	.L457:
2031:Drivers/STM32F4xx_HAL_Driver/Src/stm32f4xx_ll_usb.c ****   {
 5641              		.loc 1 2031 26 is_stmt 1 discriminator 2 view .LVU1953
2031:Drivers/STM32F4xx_HAL_Driver/Src/stm32f4xx_ll_usb.c ****   {
 5642              		.loc 1 2031 16 discriminator 2 view .LVU1954
2031:Drivers/STM32F4xx_HAL_Driver/Src/stm32f4xx_ll_usb.c ****   {
 5643              		.loc 1 2031 3 is_stmt 0 discriminator 2 view .LVU1955
 5644 008c 2031     		adds	r1, r1, #32
 5645              	.LVL397:
2031:Drivers/STM32F4xx_HAL_Driver/Src/stm32f4xx_ll_usb.c ****   {
 5646              		.loc 1 2031 3 discriminator 2 view .LVU1956
 5647 008e 8142     		cmp	r1, r0
 5648 0090 EED1     		bne	.L459
2046:Drivers/STM32F4xx_HAL_Driver/Src/stm32f4xx_ll_usb.c ****   }
2047:Drivers/STM32F4xx_HAL_Driver/Src/stm32f4xx_ll_usb.c **** 
2048:Drivers/STM32F4xx_HAL_Driver/Src/stm32f4xx_ll_usb.c ****   /* Clear any pending Host interrupts */
2049:Drivers/STM32F4xx_HAL_Driver/Src/stm32f4xx_ll_usb.c ****   USBx_HOST->HAINT = 0xFFFFFFFFU;
 5649              		.loc 1 2049 3 is_stmt 1 view .LVU1957
 5650              		.loc 1 2049 20 is_stmt 0 view .LVU1958
 5651 0092 4FF0FF33 		mov	r3, #-1
 5652              	.LVL398:
 5653              		.loc 1 2049 20 view .LVU1959
 5654 0096 CCF81434 		str	r3, [ip, #1044]
 5655              	.LVL399:
ARM GAS  /tmp/ccTCOTTa.s 			page 164


2050:Drivers/STM32F4xx_HAL_Driver/Src/stm32f4xx_ll_usb.c ****   USBx->GINTSTS = 0xFFFFFFFFU;
 5656              		.loc 1 2050 3 is_stmt 1 view .LVU1960
 5657              		.loc 1 2050 17 is_stmt 0 view .LVU1961
 5658 009a CCF81430 		str	r3, [ip, #20]
2051:Drivers/STM32F4xx_HAL_Driver/Src/stm32f4xx_ll_usb.c **** 
2052:Drivers/STM32F4xx_HAL_Driver/Src/stm32f4xx_ll_usb.c ****   (void)USB_EnableGlobalInt(USBx);
 5659              		.loc 1 2052 3 is_stmt 1 view .LVU1962
 5660              	.LVL400:
 5661              	.LBB116:
 5662              	.LBI116:
 222:Drivers/STM32F4xx_HAL_Driver/Src/stm32f4xx_ll_usb.c **** {
 5663              		.loc 1 222 19 view .LVU1963
 5664              	.LBB117:
 224:Drivers/STM32F4xx_HAL_Driver/Src/stm32f4xx_ll_usb.c ****   return HAL_OK;
 5665              		.loc 1 224 3 view .LVU1964
 224:Drivers/STM32F4xx_HAL_Driver/Src/stm32f4xx_ll_usb.c ****   return HAL_OK;
 5666              		.loc 1 224 17 is_stmt 0 view .LVU1965
 5667 009e DCF80830 		ldr	r3, [ip, #8]
 5668              	.LBE117:
 5669              	.LBE116:
2053:Drivers/STM32F4xx_HAL_Driver/Src/stm32f4xx_ll_usb.c **** 
2054:Drivers/STM32F4xx_HAL_Driver/Src/stm32f4xx_ll_usb.c ****   return HAL_OK;
2055:Drivers/STM32F4xx_HAL_Driver/Src/stm32f4xx_ll_usb.c **** }
 5670              		.loc 1 2055 1 view .LVU1966
 5671 00a2 0020     		movs	r0, #0
 5672              	.LBB119:
 5673              	.LBB118:
 224:Drivers/STM32F4xx_HAL_Driver/Src/stm32f4xx_ll_usb.c ****   return HAL_OK;
 5674              		.loc 1 224 17 view .LVU1967
 5675 00a4 43F00103 		orr	r3, r3, #1
 5676 00a8 CCF80830 		str	r3, [ip, #8]
 225:Drivers/STM32F4xx_HAL_Driver/Src/stm32f4xx_ll_usb.c **** }
 5677              		.loc 1 225 3 is_stmt 1 view .LVU1968
 5678              	.LVL401:
 225:Drivers/STM32F4xx_HAL_Driver/Src/stm32f4xx_ll_usb.c **** }
 5679              		.loc 1 225 3 is_stmt 0 view .LVU1969
 5680              	.LBE118:
 5681              	.LBE119:
2054:Drivers/STM32F4xx_HAL_Driver/Src/stm32f4xx_ll_usb.c **** }
 5682              		.loc 1 2054 3 is_stmt 1 view .LVU1970
 5683              		.loc 1 2055 1 is_stmt 0 view .LVU1971
 5684 00ac 02B0     		add	sp, sp, #8
 5685              	.LCFI91:
 5686              		.cfi_def_cfa_offset 0
 5687              		@ sp needed
 5688 00ae 7047     		bx	lr
 5689              	.L471:
 5690              		.align	2
 5691              	.L470:
 5692 00b0 400D0300 		.word	200000
 5693              		.cfi_endproc
 5694              	.LFE175:
 5696              		.section	.text.USB_ActivateRemoteWakeup,"ax",%progbits
 5697              		.align	1
 5698              		.p2align 2,,3
 5699              		.global	USB_ActivateRemoteWakeup
 5700              		.syntax unified
ARM GAS  /tmp/ccTCOTTa.s 			page 165


 5701              		.thumb
 5702              		.thumb_func
 5704              	USB_ActivateRemoteWakeup:
 5705              	.LVL402:
 5706              	.LFB176:
2056:Drivers/STM32F4xx_HAL_Driver/Src/stm32f4xx_ll_usb.c **** 
2057:Drivers/STM32F4xx_HAL_Driver/Src/stm32f4xx_ll_usb.c **** /**
2058:Drivers/STM32F4xx_HAL_Driver/Src/stm32f4xx_ll_usb.c ****   * @brief  USB_ActivateRemoteWakeup active remote wakeup signalling
2059:Drivers/STM32F4xx_HAL_Driver/Src/stm32f4xx_ll_usb.c ****   * @param  USBx Selected device
2060:Drivers/STM32F4xx_HAL_Driver/Src/stm32f4xx_ll_usb.c ****   * @retval HAL status
2061:Drivers/STM32F4xx_HAL_Driver/Src/stm32f4xx_ll_usb.c ****   */
2062:Drivers/STM32F4xx_HAL_Driver/Src/stm32f4xx_ll_usb.c **** HAL_StatusTypeDef USB_ActivateRemoteWakeup(USB_OTG_GlobalTypeDef *USBx)
2063:Drivers/STM32F4xx_HAL_Driver/Src/stm32f4xx_ll_usb.c **** {
 5707              		.loc 1 2063 1 is_stmt 1 view -0
 5708              		.cfi_startproc
 5709              		@ args = 0, pretend = 0, frame = 0
 5710              		@ frame_needed = 0, uses_anonymous_args = 0
 5711              		@ link register save eliminated.
2064:Drivers/STM32F4xx_HAL_Driver/Src/stm32f4xx_ll_usb.c ****   uint32_t USBx_BASE = (uint32_t)USBx;
 5712              		.loc 1 2064 3 view .LVU1973
2065:Drivers/STM32F4xx_HAL_Driver/Src/stm32f4xx_ll_usb.c **** 
2066:Drivers/STM32F4xx_HAL_Driver/Src/stm32f4xx_ll_usb.c ****   if ((USBx_DEVICE->DSTS & USB_OTG_DSTS_SUSPSTS) == USB_OTG_DSTS_SUSPSTS)
 5713              		.loc 1 2066 3 view .LVU1974
 5714              		.loc 1 2066 19 is_stmt 0 view .LVU1975
 5715 0000 D0F80838 		ldr	r3, [r0, #2056]
 5716              		.loc 1 2066 6 view .LVU1976
 5717 0004 DB07     		lsls	r3, r3, #31
 5718              		.loc 1 2066 8 view .LVU1977
 5719 0006 00F50060 		add	r0, r0, #2048
 5720              	.LVL403:
 5721              		.loc 1 2066 6 view .LVU1978
 5722 000a 03D5     		bpl	.L473
2067:Drivers/STM32F4xx_HAL_Driver/Src/stm32f4xx_ll_usb.c ****   {
2068:Drivers/STM32F4xx_HAL_Driver/Src/stm32f4xx_ll_usb.c ****     /* active Remote wakeup signalling */
2069:Drivers/STM32F4xx_HAL_Driver/Src/stm32f4xx_ll_usb.c ****     USBx_DEVICE->DCTL |= USB_OTG_DCTL_RWUSIG;
 5723              		.loc 1 2069 5 is_stmt 1 view .LVU1979
 5724              		.loc 1 2069 23 is_stmt 0 view .LVU1980
 5725 000c 4368     		ldr	r3, [r0, #4]
 5726 000e 43F00103 		orr	r3, r3, #1
 5727 0012 4360     		str	r3, [r0, #4]
 5728              	.L473:
2070:Drivers/STM32F4xx_HAL_Driver/Src/stm32f4xx_ll_usb.c ****   }
2071:Drivers/STM32F4xx_HAL_Driver/Src/stm32f4xx_ll_usb.c **** 
2072:Drivers/STM32F4xx_HAL_Driver/Src/stm32f4xx_ll_usb.c ****   return HAL_OK;
 5729              		.loc 1 2072 3 is_stmt 1 view .LVU1981
2073:Drivers/STM32F4xx_HAL_Driver/Src/stm32f4xx_ll_usb.c **** }
 5730              		.loc 1 2073 1 is_stmt 0 view .LVU1982
 5731 0014 0020     		movs	r0, #0
 5732              	.LVL404:
 5733              		.loc 1 2073 1 view .LVU1983
 5734 0016 7047     		bx	lr
 5735              		.cfi_endproc
 5736              	.LFE176:
 5738              		.section	.text.USB_DeActivateRemoteWakeup,"ax",%progbits
 5739              		.align	1
 5740              		.p2align 2,,3
 5741              		.global	USB_DeActivateRemoteWakeup
ARM GAS  /tmp/ccTCOTTa.s 			page 166


 5742              		.syntax unified
 5743              		.thumb
 5744              		.thumb_func
 5746              	USB_DeActivateRemoteWakeup:
 5747              	.LVL405:
 5748              	.LFB177:
2074:Drivers/STM32F4xx_HAL_Driver/Src/stm32f4xx_ll_usb.c **** 
2075:Drivers/STM32F4xx_HAL_Driver/Src/stm32f4xx_ll_usb.c **** /**
2076:Drivers/STM32F4xx_HAL_Driver/Src/stm32f4xx_ll_usb.c ****   * @brief  USB_DeActivateRemoteWakeup de-active remote wakeup signalling
2077:Drivers/STM32F4xx_HAL_Driver/Src/stm32f4xx_ll_usb.c ****   * @param  USBx Selected device
2078:Drivers/STM32F4xx_HAL_Driver/Src/stm32f4xx_ll_usb.c ****   * @retval HAL status
2079:Drivers/STM32F4xx_HAL_Driver/Src/stm32f4xx_ll_usb.c ****   */
2080:Drivers/STM32F4xx_HAL_Driver/Src/stm32f4xx_ll_usb.c **** HAL_StatusTypeDef USB_DeActivateRemoteWakeup(USB_OTG_GlobalTypeDef *USBx)
2081:Drivers/STM32F4xx_HAL_Driver/Src/stm32f4xx_ll_usb.c **** {
 5749              		.loc 1 2081 1 is_stmt 1 view -0
 5750              		.cfi_startproc
 5751              		@ args = 0, pretend = 0, frame = 0
 5752              		@ frame_needed = 0, uses_anonymous_args = 0
 5753              		@ link register save eliminated.
2082:Drivers/STM32F4xx_HAL_Driver/Src/stm32f4xx_ll_usb.c ****   uint32_t USBx_BASE = (uint32_t)USBx;
 5754              		.loc 1 2082 3 view .LVU1985
2083:Drivers/STM32F4xx_HAL_Driver/Src/stm32f4xx_ll_usb.c **** 
2084:Drivers/STM32F4xx_HAL_Driver/Src/stm32f4xx_ll_usb.c ****   /* active Remote wakeup signalling */
2085:Drivers/STM32F4xx_HAL_Driver/Src/stm32f4xx_ll_usb.c ****   USBx_DEVICE->DCTL &= ~(USB_OTG_DCTL_RWUSIG);
 5755              		.loc 1 2085 3 view .LVU1986
 5756              		.loc 1 2085 21 is_stmt 0 view .LVU1987
 5757 0000 D0F80428 		ldr	r2, [r0, #2052]
 5758 0004 00F50063 		add	r3, r0, #2048
 5759 0008 22F00102 		bic	r2, r2, #1
2086:Drivers/STM32F4xx_HAL_Driver/Src/stm32f4xx_ll_usb.c **** 
2087:Drivers/STM32F4xx_HAL_Driver/Src/stm32f4xx_ll_usb.c ****   return HAL_OK;
2088:Drivers/STM32F4xx_HAL_Driver/Src/stm32f4xx_ll_usb.c **** }
 5760              		.loc 1 2088 1 view .LVU1988
 5761 000c 0020     		movs	r0, #0
 5762              	.LVL406:
2085:Drivers/STM32F4xx_HAL_Driver/Src/stm32f4xx_ll_usb.c **** 
 5763              		.loc 1 2085 21 view .LVU1989
 5764 000e 5A60     		str	r2, [r3, #4]
2087:Drivers/STM32F4xx_HAL_Driver/Src/stm32f4xx_ll_usb.c **** }
 5765              		.loc 1 2087 3 is_stmt 1 view .LVU1990
 5766              		.loc 1 2088 1 is_stmt 0 view .LVU1991
 5767 0010 7047     		bx	lr
 5768              		.cfi_endproc
 5769              	.LFE177:
 5771 0012 00BF     		.text
 5772              	.Letext0:
 5773              		.file 2 "/home/irfan/Desktop/arm/gcc-arm-none-eabi-10.3-2021.10-x86_64-linux/gcc-arm-none-eabi-10.
 5774              		.file 3 "/home/irfan/Desktop/arm/gcc-arm-none-eabi-10.3-2021.10-x86_64-linux/gcc-arm-none-eabi-10.
 5775              		.file 4 "Drivers/CMSIS/Include/cmsis_gcc.h"
 5776              		.file 5 "Drivers/CMSIS/Device/ST/STM32F4xx/Include/stm32f429xx.h"
 5777              		.file 6 "Drivers/STM32F4xx_HAL_Driver/Inc/stm32f4xx_hal_def.h"
 5778              		.file 7 "Drivers/STM32F4xx_HAL_Driver/Inc/stm32f4xx_ll_usb.h"
 5779              		.file 8 "Drivers/STM32F4xx_HAL_Driver/Inc/stm32f4xx_hal.h"
ARM GAS  /tmp/ccTCOTTa.s 			page 167


DEFINED SYMBOLS
                            *ABS*:0000000000000000 stm32f4xx_ll_usb.c
     /tmp/ccTCOTTa.s:20     .text.USB_CoreReset:0000000000000000 $t
     /tmp/ccTCOTTa.s:26     .text.USB_CoreReset:0000000000000000 USB_CoreReset
     /tmp/ccTCOTTa.s:123    .text.USB_CoreReset:000000000000004c $d
     /tmp/ccTCOTTa.s:128    .text.USB_CoreInit:0000000000000000 $t
     /tmp/ccTCOTTa.s:135    .text.USB_CoreInit:0000000000000000 USB_CoreInit
     /tmp/ccTCOTTa.s:271    .text.USB_SetTurnaroundTime:0000000000000000 $t
     /tmp/ccTCOTTa.s:278    .text.USB_SetTurnaroundTime:0000000000000000 USB_SetTurnaroundTime
     /tmp/ccTCOTTa.s:435    .text.USB_SetTurnaroundTime:00000000000000b8 $d
     /tmp/ccTCOTTa.s:454    .text.USB_EnableGlobalInt:0000000000000000 $t
     /tmp/ccTCOTTa.s:461    .text.USB_EnableGlobalInt:0000000000000000 USB_EnableGlobalInt
     /tmp/ccTCOTTa.s:486    .text.USB_DisableGlobalInt:0000000000000000 $t
     /tmp/ccTCOTTa.s:493    .text.USB_DisableGlobalInt:0000000000000000 USB_DisableGlobalInt
     /tmp/ccTCOTTa.s:518    .text.USB_SetCurrentMode:0000000000000000 $t
     /tmp/ccTCOTTa.s:525    .text.USB_SetCurrentMode:0000000000000000 USB_SetCurrentMode
     /tmp/ccTCOTTa.s:673    .text.USB_DevInit:0000000000000000 $t
     /tmp/ccTCOTTa.s:680    .text.USB_DevInit:0000000000000000 USB_DevInit
     /tmp/ccTCOTTa.s:1155   .text.USB_DevInit:00000000000001c4 $d
     /tmp/ccTCOTTa.s:1163   .text.USB_FlushTxFifo:0000000000000000 $t
     /tmp/ccTCOTTa.s:1170   .text.USB_FlushTxFifo:0000000000000000 USB_FlushTxFifo
     /tmp/ccTCOTTa.s:1241   .text.USB_FlushTxFifo:0000000000000030 $d
     /tmp/ccTCOTTa.s:1246   .text.USB_FlushRxFifo:0000000000000000 $t
     /tmp/ccTCOTTa.s:1253   .text.USB_FlushRxFifo:0000000000000000 USB_FlushRxFifo
     /tmp/ccTCOTTa.s:1321   .text.USB_FlushRxFifo:000000000000002c $d
     /tmp/ccTCOTTa.s:1326   .text.USB_SetDevSpeed:0000000000000000 $t
     /tmp/ccTCOTTa.s:1333   .text.USB_SetDevSpeed:0000000000000000 USB_SetDevSpeed
     /tmp/ccTCOTTa.s:1363   .text.USB_GetDevSpeed:0000000000000000 $t
     /tmp/ccTCOTTa.s:1370   .text.USB_GetDevSpeed:0000000000000000 USB_GetDevSpeed
     /tmp/ccTCOTTa.s:1407   .text.USB_ActivateEndpoint:0000000000000000 $t
     /tmp/ccTCOTTa.s:1414   .text.USB_ActivateEndpoint:0000000000000000 USB_ActivateEndpoint
     /tmp/ccTCOTTa.s:1549   .text.USB_ActivateDedicatedEndpoint:0000000000000000 $t
     /tmp/ccTCOTTa.s:1556   .text.USB_ActivateDedicatedEndpoint:0000000000000000 USB_ActivateDedicatedEndpoint
     /tmp/ccTCOTTa.s:1691   .text.USB_DeactivateEndpoint:0000000000000000 $t
     /tmp/ccTCOTTa.s:1698   .text.USB_DeactivateEndpoint:0000000000000000 USB_DeactivateEndpoint
     /tmp/ccTCOTTa.s:1850   .text.USB_DeactivateEndpoint:00000000000000bc $d
     /tmp/ccTCOTTa.s:1856   .text.USB_DeactivateDedicatedEndpoint:0000000000000000 $t
     /tmp/ccTCOTTa.s:1863   .text.USB_DeactivateDedicatedEndpoint:0000000000000000 USB_DeactivateDedicatedEndpoint
     /tmp/ccTCOTTa.s:1978   .text.USB_EPStartXfer:0000000000000000 $t
     /tmp/ccTCOTTa.s:1985   .text.USB_EPStartXfer:0000000000000000 USB_EPStartXfer
     /tmp/ccTCOTTa.s:2438   .text.USB_EPStartXfer:0000000000000214 $d
     /tmp/ccTCOTTa.s:2443   .text.USB_EP0StartXfer:0000000000000000 $t
     /tmp/ccTCOTTa.s:2450   .text.USB_EP0StartXfer:0000000000000000 USB_EP0StartXfer
     /tmp/ccTCOTTa.s:2719   .text.USB_WritePacket:0000000000000000 $t
     /tmp/ccTCOTTa.s:2726   .text.USB_WritePacket:0000000000000000 USB_WritePacket
     /tmp/ccTCOTTa.s:2801   .text.USB_ReadPacket:0000000000000000 $t
     /tmp/ccTCOTTa.s:2808   .text.USB_ReadPacket:0000000000000000 USB_ReadPacket
     /tmp/ccTCOTTa.s:2919   .text.USB_EPSetStall:0000000000000000 $t
     /tmp/ccTCOTTa.s:2926   .text.USB_EPSetStall:0000000000000000 USB_EPSetStall
     /tmp/ccTCOTTa.s:3012   .text.USB_EPClearStall:0000000000000000 $t
     /tmp/ccTCOTTa.s:3019   .text.USB_EPClearStall:0000000000000000 USB_EPClearStall
     /tmp/ccTCOTTa.s:3102   .text.USB_StopDevice:0000000000000000 $t
     /tmp/ccTCOTTa.s:3109   .text.USB_StopDevice:0000000000000000 USB_StopDevice
     /tmp/ccTCOTTa.s:3281   .text.USB_StopDevice:000000000000007c $d
     /tmp/ccTCOTTa.s:3286   .text.USB_SetDevAddress:0000000000000000 $t
     /tmp/ccTCOTTa.s:3293   .text.USB_SetDevAddress:0000000000000000 USB_SetDevAddress
     /tmp/ccTCOTTa.s:3328   .text.USB_DevConnect:0000000000000000 $t
ARM GAS  /tmp/ccTCOTTa.s 			page 168


     /tmp/ccTCOTTa.s:3335   .text.USB_DevConnect:0000000000000000 USB_DevConnect
     /tmp/ccTCOTTa.s:3370   .text.USB_DevDisconnect:0000000000000000 $t
     /tmp/ccTCOTTa.s:3377   .text.USB_DevDisconnect:0000000000000000 USB_DevDisconnect
     /tmp/ccTCOTTa.s:3412   .text.USB_ReadInterrupts:0000000000000000 $t
     /tmp/ccTCOTTa.s:3419   .text.USB_ReadInterrupts:0000000000000000 USB_ReadInterrupts
     /tmp/ccTCOTTa.s:3446   .text.USB_ReadDevAllOutEpInterrupt:0000000000000000 $t
     /tmp/ccTCOTTa.s:3453   .text.USB_ReadDevAllOutEpInterrupt:0000000000000000 USB_ReadDevAllOutEpInterrupt
     /tmp/ccTCOTTa.s:3486   .text.USB_ReadDevAllInEpInterrupt:0000000000000000 $t
     /tmp/ccTCOTTa.s:3493   .text.USB_ReadDevAllInEpInterrupt:0000000000000000 USB_ReadDevAllInEpInterrupt
     /tmp/ccTCOTTa.s:3526   .text.USB_ReadDevOutEPInterrupt:0000000000000000 $t
     /tmp/ccTCOTTa.s:3533   .text.USB_ReadDevOutEPInterrupt:0000000000000000 USB_ReadDevOutEPInterrupt
     /tmp/ccTCOTTa.s:3567   .text.USB_ReadDevInEPInterrupt:0000000000000000 $t
     /tmp/ccTCOTTa.s:3574   .text.USB_ReadDevInEPInterrupt:0000000000000000 USB_ReadDevInEPInterrupt
     /tmp/ccTCOTTa.s:3622   .text.USB_ClearInterrupts:0000000000000000 $t
     /tmp/ccTCOTTa.s:3629   .text.USB_ClearInterrupts:0000000000000000 USB_ClearInterrupts
     /tmp/ccTCOTTa.s:3650   .text.USB_GetMode:0000000000000000 $t
     /tmp/ccTCOTTa.s:3657   .text.USB_GetMode:0000000000000000 USB_GetMode
     /tmp/ccTCOTTa.s:3676   .text.USB_ActivateSetup:0000000000000000 $t
     /tmp/ccTCOTTa.s:3683   .text.USB_ActivateSetup:0000000000000000 USB_ActivateSetup
     /tmp/ccTCOTTa.s:3719   .text.USB_EP0_OutStart:0000000000000000 $t
     /tmp/ccTCOTTa.s:3726   .text.USB_EP0_OutStart:0000000000000000 USB_EP0_OutStart
     /tmp/ccTCOTTa.s:3826   .text.USB_EP0_OutStart:0000000000000054 $d
     /tmp/ccTCOTTa.s:3831   .text.USB_HostInit:0000000000000000 $t
     /tmp/ccTCOTTa.s:3838   .text.USB_HostInit:0000000000000000 USB_HostInit
     /tmp/ccTCOTTa.s:4119   .text.USB_HostInit:0000000000000128 $d
     /tmp/ccTCOTTa.s:4129   .text.USB_InitFSLSPClkSel:0000000000000000 $t
     /tmp/ccTCOTTa.s:4136   .text.USB_InitFSLSPClkSel:0000000000000000 USB_InitFSLSPClkSel
     /tmp/ccTCOTTa.s:4196   .text.USB_ResetPort:0000000000000000 $t
     /tmp/ccTCOTTa.s:4203   .text.USB_ResetPort:0000000000000000 USB_ResetPort
     /tmp/ccTCOTTa.s:4275   .text.USB_DriveVbus:0000000000000000 $t
     /tmp/ccTCOTTa.s:4282   .text.USB_DriveVbus:0000000000000000 USB_DriveVbus
     /tmp/ccTCOTTa.s:4372   .text.USB_GetHostSpeed:0000000000000000 $t
     /tmp/ccTCOTTa.s:4379   .text.USB_GetHostSpeed:0000000000000000 USB_GetHostSpeed
     /tmp/ccTCOTTa.s:4416   .text.USB_GetCurrentFrame:0000000000000000 $t
     /tmp/ccTCOTTa.s:4423   .text.USB_GetCurrentFrame:0000000000000000 USB_GetCurrentFrame
     /tmp/ccTCOTTa.s:4446   .text.USB_HC_Init:0000000000000000 $t
     /tmp/ccTCOTTa.s:4453   .text.USB_HC_Init:0000000000000000 USB_HC_Init
     /tmp/ccTCOTTa.s:4493   .text.USB_HC_Init:0000000000000028 $d
     /tmp/ccTCOTTa.s:4497   .text.USB_HC_Init:000000000000002c $t
     /tmp/ccTCOTTa.s:4731   .text.USB_HC_StartXfer:0000000000000000 $t
     /tmp/ccTCOTTa.s:4738   .text.USB_HC_StartXfer:0000000000000000 USB_HC_StartXfer
     /tmp/ccTCOTTa.s:5015   .text.USB_HC_StartXfer:000000000000010e $d
     /tmp/ccTCOTTa.s:5019   .text.USB_HC_StartXfer:0000000000000112 $t
     /tmp/ccTCOTTa.s:5144   .text.USB_HC_StartXfer:0000000000000184 $d
     /tmp/ccTCOTTa.s:5149   .text.USB_HC_ReadInterrupt:0000000000000000 $t
     /tmp/ccTCOTTa.s:5156   .text.USB_HC_ReadInterrupt:0000000000000000 USB_HC_ReadInterrupt
     /tmp/ccTCOTTa.s:5179   .text.USB_HC_Halt:0000000000000000 $t
     /tmp/ccTCOTTa.s:5186   .text.USB_HC_Halt:0000000000000000 USB_HC_Halt
     /tmp/ccTCOTTa.s:5390   .text.USB_DoPing:0000000000000000 $t
     /tmp/ccTCOTTa.s:5397   .text.USB_DoPing:0000000000000000 USB_DoPing
     /tmp/ccTCOTTa.s:5439   .text.USB_DoPing:0000000000000020 $d
     /tmp/ccTCOTTa.s:5444   .text.USB_StopHost:0000000000000000 $t
     /tmp/ccTCOTTa.s:5451   .text.USB_StopHost:0000000000000000 USB_StopHost
     /tmp/ccTCOTTa.s:5692   .text.USB_StopHost:00000000000000b0 $d
     /tmp/ccTCOTTa.s:5697   .text.USB_ActivateRemoteWakeup:0000000000000000 $t
     /tmp/ccTCOTTa.s:5704   .text.USB_ActivateRemoteWakeup:0000000000000000 USB_ActivateRemoteWakeup
     /tmp/ccTCOTTa.s:5739   .text.USB_DeActivateRemoteWakeup:0000000000000000 $t
ARM GAS  /tmp/ccTCOTTa.s 			page 169


     /tmp/ccTCOTTa.s:5746   .text.USB_DeActivateRemoteWakeup:0000000000000000 USB_DeActivateRemoteWakeup

UNDEFINED SYMBOLS
HAL_Delay
