ARM GAS  /tmp/ccw9vQFt.s 			page 1


   1              		.cpu cortex-m4
   2              		.arch armv7e-m
   3              		.fpu fpv4-sp-d16
   4              		.eabi_attribute 27, 1
   5              		.eabi_attribute 28, 1
   6              		.eabi_attribute 20, 1
   7              		.eabi_attribute 21, 1
   8              		.eabi_attribute 23, 3
   9              		.eabi_attribute 24, 1
  10              		.eabi_attribute 25, 1
  11              		.eabi_attribute 26, 1
  12              		.eabi_attribute 30, 2
  13              		.eabi_attribute 34, 1
  14              		.eabi_attribute 18, 4
  15              		.file	"stm32f4xx_hal_timebase_tim.c"
  16              		.text
  17              	.Ltext0:
  18              		.cfi_sections	.debug_frame
  19              		.section	.text.HAL_InitTick,"ax",%progbits
  20              		.align	1
  21              		.p2align 2,,3
  22              		.global	HAL_InitTick
  23              		.syntax unified
  24              		.thumb
  25              		.thumb_func
  27              	HAL_InitTick:
  28              	.LVL0:
  29              	.LFB130:
  30              		.file 1 "Core/Src/stm32f4xx_hal_timebase_tim.c"
   1:Core/Src/stm32f4xx_hal_timebase_tim.c **** /* USER CODE BEGIN Header */
   2:Core/Src/stm32f4xx_hal_timebase_tim.c **** /**
   3:Core/Src/stm32f4xx_hal_timebase_tim.c ****   ******************************************************************************
   4:Core/Src/stm32f4xx_hal_timebase_tim.c ****   * @file    stm32f4xx_hal_timebase_TIM.c
   5:Core/Src/stm32f4xx_hal_timebase_tim.c ****   * @brief   HAL time base based on the hardware TIM.
   6:Core/Src/stm32f4xx_hal_timebase_tim.c ****   ******************************************************************************
   7:Core/Src/stm32f4xx_hal_timebase_tim.c ****   * @attention
   8:Core/Src/stm32f4xx_hal_timebase_tim.c ****   *
   9:Core/Src/stm32f4xx_hal_timebase_tim.c ****   * Copyright (c) 2022 STMicroelectronics.
  10:Core/Src/stm32f4xx_hal_timebase_tim.c ****   * All rights reserved.
  11:Core/Src/stm32f4xx_hal_timebase_tim.c ****   *
  12:Core/Src/stm32f4xx_hal_timebase_tim.c ****   * This software is licensed under terms that can be found in the LICENSE file
  13:Core/Src/stm32f4xx_hal_timebase_tim.c ****   * in the root directory of this software component.
  14:Core/Src/stm32f4xx_hal_timebase_tim.c ****   * If no LICENSE file comes with this software, it is provided AS-IS.
  15:Core/Src/stm32f4xx_hal_timebase_tim.c ****   *
  16:Core/Src/stm32f4xx_hal_timebase_tim.c ****   ******************************************************************************
  17:Core/Src/stm32f4xx_hal_timebase_tim.c ****   */
  18:Core/Src/stm32f4xx_hal_timebase_tim.c **** /* USER CODE END Header */
  19:Core/Src/stm32f4xx_hal_timebase_tim.c **** 
  20:Core/Src/stm32f4xx_hal_timebase_tim.c **** /* Includes ------------------------------------------------------------------*/
  21:Core/Src/stm32f4xx_hal_timebase_tim.c **** #include "stm32f4xx_hal.h"
  22:Core/Src/stm32f4xx_hal_timebase_tim.c **** #include "stm32f4xx_hal_tim.h"
  23:Core/Src/stm32f4xx_hal_timebase_tim.c **** 
  24:Core/Src/stm32f4xx_hal_timebase_tim.c **** /* Private typedef -----------------------------------------------------------*/
  25:Core/Src/stm32f4xx_hal_timebase_tim.c **** /* Private define ------------------------------------------------------------*/
  26:Core/Src/stm32f4xx_hal_timebase_tim.c **** /* Private macro -------------------------------------------------------------*/
  27:Core/Src/stm32f4xx_hal_timebase_tim.c **** /* Private variables ---------------------------------------------------------*/
  28:Core/Src/stm32f4xx_hal_timebase_tim.c **** TIM_HandleTypeDef        htim6;
ARM GAS  /tmp/ccw9vQFt.s 			page 2


  29:Core/Src/stm32f4xx_hal_timebase_tim.c **** /* Private function prototypes -----------------------------------------------*/
  30:Core/Src/stm32f4xx_hal_timebase_tim.c **** /* Private functions ---------------------------------------------------------*/
  31:Core/Src/stm32f4xx_hal_timebase_tim.c **** 
  32:Core/Src/stm32f4xx_hal_timebase_tim.c **** /**
  33:Core/Src/stm32f4xx_hal_timebase_tim.c ****   * @brief  This function configures the TIM6 as a time base source.
  34:Core/Src/stm32f4xx_hal_timebase_tim.c ****   *         The time source is configured  to have 1ms time base with a dedicated
  35:Core/Src/stm32f4xx_hal_timebase_tim.c ****   *         Tick interrupt priority.
  36:Core/Src/stm32f4xx_hal_timebase_tim.c ****   * @note   This function is called  automatically at the beginning of program after
  37:Core/Src/stm32f4xx_hal_timebase_tim.c ****   *         reset by HAL_Init() or at any time when clock is configured, by HAL_RCC_ClockConfig().
  38:Core/Src/stm32f4xx_hal_timebase_tim.c ****   * @param  TickPriority: Tick interrupt priority.
  39:Core/Src/stm32f4xx_hal_timebase_tim.c ****   * @retval HAL status
  40:Core/Src/stm32f4xx_hal_timebase_tim.c ****   */
  41:Core/Src/stm32f4xx_hal_timebase_tim.c **** HAL_StatusTypeDef HAL_InitTick(uint32_t TickPriority)
  42:Core/Src/stm32f4xx_hal_timebase_tim.c **** {
  31              		.loc 1 42 1 view -0
  32              		.cfi_startproc
  33              		@ args = 0, pretend = 0, frame = 32
  34              		@ frame_needed = 0, uses_anonymous_args = 0
  43:Core/Src/stm32f4xx_hal_timebase_tim.c ****   RCC_ClkInitTypeDef    clkconfig;
  35              		.loc 1 43 3 view .LVU1
  44:Core/Src/stm32f4xx_hal_timebase_tim.c ****   uint32_t              uwTimclock = 0;
  36              		.loc 1 44 3 view .LVU2
  45:Core/Src/stm32f4xx_hal_timebase_tim.c ****   uint32_t              uwPrescalerValue = 0;
  37              		.loc 1 45 3 view .LVU3
  46:Core/Src/stm32f4xx_hal_timebase_tim.c ****   uint32_t              pFLatency;
  38              		.loc 1 46 3 view .LVU4
  47:Core/Src/stm32f4xx_hal_timebase_tim.c ****   /*Configure the TIM6 IRQ priority */
  48:Core/Src/stm32f4xx_hal_timebase_tim.c ****   HAL_NVIC_SetPriority(TIM6_DAC_IRQn, TickPriority ,0);
  39              		.loc 1 48 3 view .LVU5
  42:Core/Src/stm32f4xx_hal_timebase_tim.c ****   RCC_ClkInitTypeDef    clkconfig;
  40              		.loc 1 42 1 is_stmt 0 view .LVU6
  41 0000 30B5     		push	{r4, r5, lr}
  42              	.LCFI0:
  43              		.cfi_def_cfa_offset 12
  44              		.cfi_offset 4, -12
  45              		.cfi_offset 5, -8
  46              		.cfi_offset 14, -4
  47 0002 0146     		mov	r1, r0
  48 0004 89B0     		sub	sp, sp, #36
  49              	.LCFI1:
  50              		.cfi_def_cfa_offset 48
  51              		.loc 1 48 3 view .LVU7
  52 0006 0022     		movs	r2, #0
  53 0008 3620     		movs	r0, #54
  54              	.LVL1:
  55              		.loc 1 48 3 view .LVU8
  56 000a FFF7FEFF 		bl	HAL_NVIC_SetPriority
  57              	.LVL2:
  49:Core/Src/stm32f4xx_hal_timebase_tim.c **** 
  50:Core/Src/stm32f4xx_hal_timebase_tim.c ****   /* Enable the TIM6 global Interrupt */
  51:Core/Src/stm32f4xx_hal_timebase_tim.c ****   HAL_NVIC_EnableIRQ(TIM6_DAC_IRQn);
  58              		.loc 1 51 3 is_stmt 1 view .LVU9
  59 000e 3620     		movs	r0, #54
  60 0010 FFF7FEFF 		bl	HAL_NVIC_EnableIRQ
  61              	.LVL3:
  52:Core/Src/stm32f4xx_hal_timebase_tim.c **** 
  53:Core/Src/stm32f4xx_hal_timebase_tim.c ****   /* Enable TIM6 clock */
ARM GAS  /tmp/ccw9vQFt.s 			page 3


  54:Core/Src/stm32f4xx_hal_timebase_tim.c ****   __HAL_RCC_TIM6_CLK_ENABLE();
  62              		.loc 1 54 3 view .LVU10
  63              	.LBB2:
  64              		.loc 1 54 3 view .LVU11
  65 0014 0025     		movs	r5, #0
  66 0016 164B     		ldr	r3, .L7
  67 0018 0295     		str	r5, [sp, #8]
  68              		.loc 1 54 3 view .LVU12
  69 001a 1A6C     		ldr	r2, [r3, #64]
  70              	.LBE2:
  55:Core/Src/stm32f4xx_hal_timebase_tim.c **** 
  56:Core/Src/stm32f4xx_hal_timebase_tim.c ****   /* Get clock configuration */
  57:Core/Src/stm32f4xx_hal_timebase_tim.c ****   HAL_RCC_GetClockConfig(&clkconfig, &pFLatency);
  58:Core/Src/stm32f4xx_hal_timebase_tim.c **** 
  59:Core/Src/stm32f4xx_hal_timebase_tim.c ****   /* Compute TIM6 clock */
  60:Core/Src/stm32f4xx_hal_timebase_tim.c ****   uwTimclock = 2*HAL_RCC_GetPCLK1Freq();
  61:Core/Src/stm32f4xx_hal_timebase_tim.c ****   /* Compute the prescaler value to have TIM6 counter clock equal to 1MHz */
  62:Core/Src/stm32f4xx_hal_timebase_tim.c ****   uwPrescalerValue = (uint32_t) ((uwTimclock / 1000000U) - 1U);
  63:Core/Src/stm32f4xx_hal_timebase_tim.c **** 
  64:Core/Src/stm32f4xx_hal_timebase_tim.c ****   /* Initialize TIM6 */
  65:Core/Src/stm32f4xx_hal_timebase_tim.c ****   htim6.Instance = TIM6;
  71              		.loc 1 65 18 is_stmt 0 view .LVU13
  72 001c 154C     		ldr	r4, .L7+4
  73              	.LBB3:
  54:Core/Src/stm32f4xx_hal_timebase_tim.c **** 
  74              		.loc 1 54 3 view .LVU14
  75 001e 42F01002 		orr	r2, r2, #16
  76 0022 1A64     		str	r2, [r3, #64]
  54:Core/Src/stm32f4xx_hal_timebase_tim.c **** 
  77              		.loc 1 54 3 is_stmt 1 view .LVU15
  78 0024 1B6C     		ldr	r3, [r3, #64]
  79 0026 03F01003 		and	r3, r3, #16
  80              	.LBE3:
  57:Core/Src/stm32f4xx_hal_timebase_tim.c **** 
  81              		.loc 1 57 3 is_stmt 0 view .LVU16
  82 002a 01A9     		add	r1, sp, #4
  83 002c 03A8     		add	r0, sp, #12
  84              	.LBB4:
  54:Core/Src/stm32f4xx_hal_timebase_tim.c **** 
  85              		.loc 1 54 3 view .LVU17
  86 002e 0293     		str	r3, [sp, #8]
  54:Core/Src/stm32f4xx_hal_timebase_tim.c **** 
  87              		.loc 1 54 3 is_stmt 1 view .LVU18
  88 0030 029B     		ldr	r3, [sp, #8]
  89              	.LBE4:
  54:Core/Src/stm32f4xx_hal_timebase_tim.c **** 
  90              		.loc 1 54 3 view .LVU19
  57:Core/Src/stm32f4xx_hal_timebase_tim.c **** 
  91              		.loc 1 57 3 view .LVU20
  92 0032 FFF7FEFF 		bl	HAL_RCC_GetClockConfig
  93              	.LVL4:
  60:Core/Src/stm32f4xx_hal_timebase_tim.c ****   /* Compute the prescaler value to have TIM6 counter clock equal to 1MHz */
  94              		.loc 1 60 3 view .LVU21
  60:Core/Src/stm32f4xx_hal_timebase_tim.c ****   /* Compute the prescaler value to have TIM6 counter clock equal to 1MHz */
  95              		.loc 1 60 18 is_stmt 0 view .LVU22
  96 0036 FFF7FEFF 		bl	HAL_RCC_GetPCLK1Freq
  97              	.LVL5:
ARM GAS  /tmp/ccw9vQFt.s 			page 4


  62:Core/Src/stm32f4xx_hal_timebase_tim.c **** 
  98              		.loc 1 62 3 is_stmt 1 view .LVU23
  99              		.loc 1 65 3 view .LVU24
  62:Core/Src/stm32f4xx_hal_timebase_tim.c **** 
 100              		.loc 1 62 46 is_stmt 0 view .LVU25
 101 003a 0F4A     		ldr	r2, .L7+8
 102              		.loc 1 65 18 view .LVU26
 103 003c 0F49     		ldr	r1, .L7+12
 104 003e 2160     		str	r1, [r4]
  66:Core/Src/stm32f4xx_hal_timebase_tim.c **** 
  67:Core/Src/stm32f4xx_hal_timebase_tim.c ****   /* Initialize TIMx peripheral as follow:
  68:Core/Src/stm32f4xx_hal_timebase_tim.c ****   + Period = [(TIM6CLK/1000) - 1]. to have a (1/1000) s time base.
  69:Core/Src/stm32f4xx_hal_timebase_tim.c ****   + Prescaler = (uwTimclock/1000000 - 1) to have a 1MHz counter clock.
  70:Core/Src/stm32f4xx_hal_timebase_tim.c ****   + ClockDivision = 0
  71:Core/Src/stm32f4xx_hal_timebase_tim.c ****   + Counter direction = Up
  72:Core/Src/stm32f4xx_hal_timebase_tim.c ****   */
  73:Core/Src/stm32f4xx_hal_timebase_tim.c ****   htim6.Init.Period = (1000000U / 1000U) - 1U;
 105              		.loc 1 73 3 is_stmt 1 view .LVU27
  60:Core/Src/stm32f4xx_hal_timebase_tim.c ****   /* Compute the prescaler value to have TIM6 counter clock equal to 1MHz */
 106              		.loc 1 60 14 is_stmt 0 view .LVU28
 107 0040 4300     		lsls	r3, r0, #1
 108              	.LVL6:
  62:Core/Src/stm32f4xx_hal_timebase_tim.c **** 
 109              		.loc 1 62 46 view .LVU29
 110 0042 A2FB0323 		umull	r2, r3, r2, r3
 111              	.LVL7:
  62:Core/Src/stm32f4xx_hal_timebase_tim.c **** 
 112              		.loc 1 62 46 view .LVU30
 113 0046 9B0C     		lsrs	r3, r3, #18
  62:Core/Src/stm32f4xx_hal_timebase_tim.c **** 
 114              		.loc 1 62 20 view .LVU31
 115 0048 013B     		subs	r3, r3, #1
 116              		.loc 1 73 21 view .LVU32
 117 004a 40F2E732 		movw	r2, #999
  74:Core/Src/stm32f4xx_hal_timebase_tim.c ****   htim6.Init.Prescaler = uwPrescalerValue;
  75:Core/Src/stm32f4xx_hal_timebase_tim.c ****   htim6.Init.ClockDivision = 0;
  76:Core/Src/stm32f4xx_hal_timebase_tim.c ****   htim6.Init.CounterMode = TIM_COUNTERMODE_UP;
  77:Core/Src/stm32f4xx_hal_timebase_tim.c **** 
  78:Core/Src/stm32f4xx_hal_timebase_tim.c ****   if(HAL_TIM_Base_Init(&htim6) == HAL_OK)
 118              		.loc 1 78 6 view .LVU33
 119 004e 2046     		mov	r0, r4
 120              	.LVL8:
  75:Core/Src/stm32f4xx_hal_timebase_tim.c ****   htim6.Init.CounterMode = TIM_COUNTERMODE_UP;
 121              		.loc 1 75 28 view .LVU34
 122 0050 C4E90325 		strd	r2, r5, [r4, #12]
  76:Core/Src/stm32f4xx_hal_timebase_tim.c **** 
 123              		.loc 1 76 3 is_stmt 1 view .LVU35
  74:Core/Src/stm32f4xx_hal_timebase_tim.c ****   htim6.Init.Prescaler = uwPrescalerValue;
 124              		.loc 1 74 24 is_stmt 0 view .LVU36
 125 0054 6360     		str	r3, [r4, #4]
  76:Core/Src/stm32f4xx_hal_timebase_tim.c **** 
 126              		.loc 1 76 26 view .LVU37
 127 0056 A560     		str	r5, [r4, #8]
 128              		.loc 1 78 3 is_stmt 1 view .LVU38
 129              		.loc 1 78 6 is_stmt 0 view .LVU39
 130 0058 FFF7FEFF 		bl	HAL_TIM_Base_Init
 131              	.LVL9:
ARM GAS  /tmp/ccw9vQFt.s 			page 5


 132              		.loc 1 78 5 view .LVU40
 133 005c 10B1     		cbz	r0, .L6
  79:Core/Src/stm32f4xx_hal_timebase_tim.c ****   {
  80:Core/Src/stm32f4xx_hal_timebase_tim.c ****     /* Start the TIM time Base generation in interrupt mode */
  81:Core/Src/stm32f4xx_hal_timebase_tim.c ****     return HAL_TIM_Base_Start_IT(&htim6);
  82:Core/Src/stm32f4xx_hal_timebase_tim.c ****   }
  83:Core/Src/stm32f4xx_hal_timebase_tim.c **** 
  84:Core/Src/stm32f4xx_hal_timebase_tim.c ****   /* Return function status */
  85:Core/Src/stm32f4xx_hal_timebase_tim.c ****   return HAL_ERROR;
 134              		.loc 1 85 10 view .LVU41
 135 005e 0120     		movs	r0, #1
  86:Core/Src/stm32f4xx_hal_timebase_tim.c **** }
 136              		.loc 1 86 1 view .LVU42
 137 0060 09B0     		add	sp, sp, #36
 138              	.LCFI2:
 139              		.cfi_remember_state
 140              		.cfi_def_cfa_offset 12
 141              		@ sp needed
 142 0062 30BD     		pop	{r4, r5, pc}
 143              	.L6:
 144              	.LCFI3:
 145              		.cfi_restore_state
  81:Core/Src/stm32f4xx_hal_timebase_tim.c ****   }
 146              		.loc 1 81 5 is_stmt 1 view .LVU43
  81:Core/Src/stm32f4xx_hal_timebase_tim.c ****   }
 147              		.loc 1 81 12 is_stmt 0 view .LVU44
 148 0064 2046     		mov	r0, r4
 149 0066 FFF7FEFF 		bl	HAL_TIM_Base_Start_IT
 150              	.LVL10:
 151              		.loc 1 86 1 view .LVU45
 152 006a 09B0     		add	sp, sp, #36
 153              	.LCFI4:
 154              		.cfi_def_cfa_offset 12
 155              		@ sp needed
 156 006c 30BD     		pop	{r4, r5, pc}
 157              	.L8:
 158 006e 00BF     		.align	2
 159              	.L7:
 160 0070 00380240 		.word	1073887232
 161 0074 00000000 		.word	.LANCHOR0
 162 0078 83DE1B43 		.word	1125899907
 163 007c 00100040 		.word	1073745920
 164              		.cfi_endproc
 165              	.LFE130:
 167              		.section	.text.HAL_SuspendTick,"ax",%progbits
 168              		.align	1
 169              		.p2align 2,,3
 170              		.global	HAL_SuspendTick
 171              		.syntax unified
 172              		.thumb
 173              		.thumb_func
 175              	HAL_SuspendTick:
 176              	.LFB131:
  87:Core/Src/stm32f4xx_hal_timebase_tim.c **** 
  88:Core/Src/stm32f4xx_hal_timebase_tim.c **** /**
  89:Core/Src/stm32f4xx_hal_timebase_tim.c ****   * @brief  Suspend Tick increment.
  90:Core/Src/stm32f4xx_hal_timebase_tim.c ****   * @note   Disable the tick increment by disabling TIM6 update interrupt.
ARM GAS  /tmp/ccw9vQFt.s 			page 6


  91:Core/Src/stm32f4xx_hal_timebase_tim.c ****   * @param  None
  92:Core/Src/stm32f4xx_hal_timebase_tim.c ****   * @retval None
  93:Core/Src/stm32f4xx_hal_timebase_tim.c ****   */
  94:Core/Src/stm32f4xx_hal_timebase_tim.c **** void HAL_SuspendTick(void)
  95:Core/Src/stm32f4xx_hal_timebase_tim.c **** {
 177              		.loc 1 95 1 is_stmt 1 view -0
 178              		.cfi_startproc
 179              		@ args = 0, pretend = 0, frame = 0
 180              		@ frame_needed = 0, uses_anonymous_args = 0
 181              		@ link register save eliminated.
  96:Core/Src/stm32f4xx_hal_timebase_tim.c ****   /* Disable TIM6 update Interrupt */
  97:Core/Src/stm32f4xx_hal_timebase_tim.c ****   __HAL_TIM_DISABLE_IT(&htim6, TIM_IT_UPDATE);
 182              		.loc 1 97 3 view .LVU47
 183 0000 034B     		ldr	r3, .L10
 184 0002 1A68     		ldr	r2, [r3]
 185 0004 D368     		ldr	r3, [r2, #12]
 186 0006 23F00103 		bic	r3, r3, #1
 187 000a D360     		str	r3, [r2, #12]
  98:Core/Src/stm32f4xx_hal_timebase_tim.c **** }
 188              		.loc 1 98 1 is_stmt 0 view .LVU48
 189 000c 7047     		bx	lr
 190              	.L11:
 191 000e 00BF     		.align	2
 192              	.L10:
 193 0010 00000000 		.word	.LANCHOR0
 194              		.cfi_endproc
 195              	.LFE131:
 197              		.section	.text.HAL_ResumeTick,"ax",%progbits
 198              		.align	1
 199              		.p2align 2,,3
 200              		.global	HAL_ResumeTick
 201              		.syntax unified
 202              		.thumb
 203              		.thumb_func
 205              	HAL_ResumeTick:
 206              	.LFB132:
  99:Core/Src/stm32f4xx_hal_timebase_tim.c **** 
 100:Core/Src/stm32f4xx_hal_timebase_tim.c **** /**
 101:Core/Src/stm32f4xx_hal_timebase_tim.c ****   * @brief  Resume Tick increment.
 102:Core/Src/stm32f4xx_hal_timebase_tim.c ****   * @note   Enable the tick increment by Enabling TIM6 update interrupt.
 103:Core/Src/stm32f4xx_hal_timebase_tim.c ****   * @param  None
 104:Core/Src/stm32f4xx_hal_timebase_tim.c ****   * @retval None
 105:Core/Src/stm32f4xx_hal_timebase_tim.c ****   */
 106:Core/Src/stm32f4xx_hal_timebase_tim.c **** void HAL_ResumeTick(void)
 107:Core/Src/stm32f4xx_hal_timebase_tim.c **** {
 207              		.loc 1 107 1 is_stmt 1 view -0
 208              		.cfi_startproc
 209              		@ args = 0, pretend = 0, frame = 0
 210              		@ frame_needed = 0, uses_anonymous_args = 0
 211              		@ link register save eliminated.
 108:Core/Src/stm32f4xx_hal_timebase_tim.c ****   /* Enable TIM6 Update interrupt */
 109:Core/Src/stm32f4xx_hal_timebase_tim.c ****   __HAL_TIM_ENABLE_IT(&htim6, TIM_IT_UPDATE);
 212              		.loc 1 109 3 view .LVU50
 213 0000 034B     		ldr	r3, .L13
 214 0002 1A68     		ldr	r2, [r3]
 215 0004 D368     		ldr	r3, [r2, #12]
 216 0006 43F00103 		orr	r3, r3, #1
ARM GAS  /tmp/ccw9vQFt.s 			page 7


 217 000a D360     		str	r3, [r2, #12]
 110:Core/Src/stm32f4xx_hal_timebase_tim.c **** }
 218              		.loc 1 110 1 is_stmt 0 view .LVU51
 219 000c 7047     		bx	lr
 220              	.L14:
 221 000e 00BF     		.align	2
 222              	.L13:
 223 0010 00000000 		.word	.LANCHOR0
 224              		.cfi_endproc
 225              	.LFE132:
 227              		.global	htim6
 228              		.section	.bss.htim6,"aw",%nobits
 229              		.align	2
 230              		.set	.LANCHOR0,. + 0
 233              	htim6:
 234 0000 00000000 		.space	72
 234      00000000 
 234      00000000 
 234      00000000 
 234      00000000 
 235              		.text
 236              	.Letext0:
 237              		.file 2 "/home/irfan/Desktop/arm/gcc-arm-none-eabi-10.3-2021.10-x86_64-linux/gcc-arm-none-eabi-10.
 238              		.file 3 "/home/irfan/Desktop/arm/gcc-arm-none-eabi-10.3-2021.10-x86_64-linux/gcc-arm-none-eabi-10.
 239              		.file 4 "Drivers/CMSIS/Device/ST/STM32F4xx/Include/stm32f429xx.h"
 240              		.file 5 "Drivers/STM32F4xx_HAL_Driver/Inc/stm32f4xx_hal_def.h"
 241              		.file 6 "Drivers/STM32F4xx_HAL_Driver/Inc/stm32f4xx_hal_rcc.h"
 242              		.file 7 "Drivers/STM32F4xx_HAL_Driver/Inc/stm32f4xx_hal_dma.h"
 243              		.file 8 "Drivers/STM32F4xx_HAL_Driver/Inc/stm32f4xx_hal_tim.h"
 244              		.file 9 "Drivers/STM32F4xx_HAL_Driver/Inc/stm32f4xx_hal_cortex.h"
ARM GAS  /tmp/ccw9vQFt.s 			page 8

