ARM GAS  /tmp/ccMsMeuK.s 			page 1


   1              		.cpu cortex-m4
   2              		.arch armv7e-m
   3              		.fpu fpv4-sp-d16
   4              		.eabi_attribute 27, 1
   5              		.eabi_attribute 28, 1
   6              		.eabi_attribute 20, 1
   7              		.eabi_attribute 21, 1
   8              		.eabi_attribute 23, 3
   9              		.eabi_attribute 24, 1
  10              		.eabi_attribute 25, 1
  11              		.eabi_attribute 26, 1
  12              		.eabi_attribute 30, 2
  13              		.eabi_attribute 34, 1
  14              		.eabi_attribute 18, 4
  15              		.file	"stm32f429i_discovery.c"
  16              		.text
  17              	.Ltext0:
  18              		.cfi_sections	.debug_frame
  19              		.section	.text.SPIx_Init.part.0,"ax",%progbits
  20              		.align	1
  21              		.p2align 2,,3
  22              		.syntax unified
  23              		.thumb
  24              		.thumb_func
  26              	SPIx_Init.part.0:
  27              	.LFB166:
  28              		.file 1 "Core/Src/stm32f429i_discovery.c"
   1:Core/Src/stm32f429i_discovery.c **** /**
   2:Core/Src/stm32f429i_discovery.c ****   ******************************************************************************
   3:Core/Src/stm32f429i_discovery.c ****   * @file    stm32f429i_discovery.c
   4:Core/Src/stm32f429i_discovery.c ****   * @author  MCD Application Team
   5:Core/Src/stm32f429i_discovery.c ****   * @brief   This file provides set of firmware functions to manage Leds and
   6:Core/Src/stm32f429i_discovery.c ****   *          push-button available on STM32F429I-Discovery Kit from STMicroelectronics.
   7:Core/Src/stm32f429i_discovery.c ****   ******************************************************************************
   8:Core/Src/stm32f429i_discovery.c ****   * @attention
   9:Core/Src/stm32f429i_discovery.c ****   *
  10:Core/Src/stm32f429i_discovery.c ****   * <h2><center>&copy; COPYRIGHT(c) 2017 STMicroelectronics</center></h2>
  11:Core/Src/stm32f429i_discovery.c ****   *
  12:Core/Src/stm32f429i_discovery.c ****   * Redistribution and use in source and binary forms, with or without modification,
  13:Core/Src/stm32f429i_discovery.c ****   * are permitted provided that the following conditions are met:
  14:Core/Src/stm32f429i_discovery.c ****   *   1. Redistributions of source code must retain the above copyright notice,
  15:Core/Src/stm32f429i_discovery.c ****   *      this list of conditions and the following disclaimer.
  16:Core/Src/stm32f429i_discovery.c ****   *   2. Redistributions in binary form must reproduce the above copyright notice,
  17:Core/Src/stm32f429i_discovery.c ****   *      this list of conditions and the following disclaimer in the documentation
  18:Core/Src/stm32f429i_discovery.c ****   *      and/or other materials provided with the distribution.
  19:Core/Src/stm32f429i_discovery.c ****   *   3. Neither the name of STMicroelectronics nor the names of its contributors
  20:Core/Src/stm32f429i_discovery.c ****   *      may be used to endorse or promote products derived from this software
  21:Core/Src/stm32f429i_discovery.c ****   *      without specific prior written permission.
  22:Core/Src/stm32f429i_discovery.c ****   *
  23:Core/Src/stm32f429i_discovery.c ****   * THIS SOFTWARE IS PROVIDED BY THE COPYRIGHT HOLDERS AND CONTRIBUTORS "AS IS"
  24:Core/Src/stm32f429i_discovery.c ****   * AND ANY EXPRESS OR IMPLIED WARRANTIES, INCLUDING, BUT NOT LIMITED TO, THE
  25:Core/Src/stm32f429i_discovery.c ****   * IMPLIED WARRANTIES OF MERCHANTABILITY AND FITNESS FOR A PARTICULAR PURPOSE ARE
  26:Core/Src/stm32f429i_discovery.c ****   * DISCLAIMED. IN NO EVENT SHALL THE COPYRIGHT HOLDER OR CONTRIBUTORS BE LIABLE
  27:Core/Src/stm32f429i_discovery.c ****   * FOR ANY DIRECT, INDIRECT, INCIDENTAL, SPECIAL, EXEMPLARY, OR CONSEQUENTIAL
  28:Core/Src/stm32f429i_discovery.c ****   * DAMAGES (INCLUDING, BUT NOT LIMITED TO, PROCUREMENT OF SUBSTITUTE GOODS OR
  29:Core/Src/stm32f429i_discovery.c ****   * SERVICES; LOSS OF USE, DATA, OR PROFITS; OR BUSINESS INTERRUPTION) HOWEVER
  30:Core/Src/stm32f429i_discovery.c ****   * CAUSED AND ON ANY THEORY OF LIABILITY, WHETHER IN CONTRACT, STRICT LIABILITY,
ARM GAS  /tmp/ccMsMeuK.s 			page 2


  31:Core/Src/stm32f429i_discovery.c ****   * OR TORT (INCLUDING NEGLIGENCE OR OTHERWISE) ARISING IN ANY WAY OUT OF THE USE
  32:Core/Src/stm32f429i_discovery.c ****   * OF THIS SOFTWARE, EVEN IF ADVISED OF THE POSSIBILITY OF SUCH DAMAGE.
  33:Core/Src/stm32f429i_discovery.c ****   *
  34:Core/Src/stm32f429i_discovery.c ****   ******************************************************************************
  35:Core/Src/stm32f429i_discovery.c ****   */  
  36:Core/Src/stm32f429i_discovery.c ****   
  37:Core/Src/stm32f429i_discovery.c **** /* Includes ------------------------------------------------------------------*/
  38:Core/Src/stm32f429i_discovery.c **** #include "stm32f429i_discovery.h"
  39:Core/Src/stm32f429i_discovery.c **** 
  40:Core/Src/stm32f429i_discovery.c **** /** @defgroup BSP BSP
  41:Core/Src/stm32f429i_discovery.c ****   * @{
  42:Core/Src/stm32f429i_discovery.c ****   */ 
  43:Core/Src/stm32f429i_discovery.c **** 
  44:Core/Src/stm32f429i_discovery.c **** /** @defgroup STM32F429I_DISCOVERY STM32F429I DISCOVERY
  45:Core/Src/stm32f429i_discovery.c ****   * @{
  46:Core/Src/stm32f429i_discovery.c ****   */
  47:Core/Src/stm32f429i_discovery.c ****       
  48:Core/Src/stm32f429i_discovery.c **** /** @defgroup STM32F429I_DISCOVERY_LOW_LEVEL STM32F429I DISCOVERY LOW LEVEL
  49:Core/Src/stm32f429i_discovery.c ****   * @brief This file provides set of firmware functions to manage Leds and push-button
  50:Core/Src/stm32f429i_discovery.c ****   *        available on STM32F429I-Discovery Kit from STMicroelectronics.
  51:Core/Src/stm32f429i_discovery.c ****   * @{
  52:Core/Src/stm32f429i_discovery.c ****   */ 
  53:Core/Src/stm32f429i_discovery.c **** 
  54:Core/Src/stm32f429i_discovery.c **** /** @defgroup STM32F429I_DISCOVERY_LOW_LEVEL_Private_TypesDefinitions STM32F429I DISCOVERY LOW LEVE
  55:Core/Src/stm32f429i_discovery.c ****   * @{
  56:Core/Src/stm32f429i_discovery.c ****   */ 
  57:Core/Src/stm32f429i_discovery.c **** /**
  58:Core/Src/stm32f429i_discovery.c ****   * @}
  59:Core/Src/stm32f429i_discovery.c ****   */ 
  60:Core/Src/stm32f429i_discovery.c **** 
  61:Core/Src/stm32f429i_discovery.c **** /** @defgroup STM32F429I_DISCOVERY_LOW_LEVEL_Private_Defines STM32F429I DISCOVERY LOW LEVEL Private
  62:Core/Src/stm32f429i_discovery.c ****   * @{
  63:Core/Src/stm32f429i_discovery.c ****   */ 
  64:Core/Src/stm32f429i_discovery.c ****   
  65:Core/Src/stm32f429i_discovery.c ****   /**
  66:Core/Src/stm32f429i_discovery.c ****   * @brief STM32F429I DISCO BSP Driver version number V2.1.6
  67:Core/Src/stm32f429i_discovery.c ****   */
  68:Core/Src/stm32f429i_discovery.c **** #define __STM32F429I_DISCO_BSP_VERSION_MAIN   (0x02) /*!< [31:24] main version */
  69:Core/Src/stm32f429i_discovery.c **** #define __STM32F429I_DISCO_BSP_VERSION_SUB1   (0x01) /*!< [23:16] sub1 version */
  70:Core/Src/stm32f429i_discovery.c **** #define __STM32F429I_DISCO_BSP_VERSION_SUB2   (0x06) /*!< [15:8]  sub2 version */
  71:Core/Src/stm32f429i_discovery.c **** #define __STM32F429I_DISCO_BSP_VERSION_RC     (0x00) /*!< [7:0]  release candidate */ 
  72:Core/Src/stm32f429i_discovery.c **** #define __STM32F429I_DISCO_BSP_VERSION        ((__STM32F429I_DISCO_BSP_VERSION_MAIN << 24)\
  73:Core/Src/stm32f429i_discovery.c ****                                              |(__STM32F429I_DISCO_BSP_VERSION_SUB1 << 16)\
  74:Core/Src/stm32f429i_discovery.c ****                                              |(__STM32F429I_DISCO_BSP_VERSION_SUB2 << 8 )\
  75:Core/Src/stm32f429i_discovery.c ****                                              |(__STM32F429I_DISCO_BSP_VERSION_RC)) 
  76:Core/Src/stm32f429i_discovery.c **** /**
  77:Core/Src/stm32f429i_discovery.c ****   * @}
  78:Core/Src/stm32f429i_discovery.c ****   */ 
  79:Core/Src/stm32f429i_discovery.c **** 
  80:Core/Src/stm32f429i_discovery.c **** /** @defgroup STM32F429I_DISCOVERY_LOW_LEVEL_Private_Macros STM32F429I DISCOVERY LOW LEVEL Private 
  81:Core/Src/stm32f429i_discovery.c ****   * @{
  82:Core/Src/stm32f429i_discovery.c ****   */ 
  83:Core/Src/stm32f429i_discovery.c **** /**
  84:Core/Src/stm32f429i_discovery.c ****   * @}
  85:Core/Src/stm32f429i_discovery.c ****   */ 
  86:Core/Src/stm32f429i_discovery.c **** 
  87:Core/Src/stm32f429i_discovery.c **** /** @defgroup STM32F429I_DISCOVERY_LOW_LEVEL_Private_Variables STM32F429I DISCOVERY LOW LEVEL Priva
ARM GAS  /tmp/ccMsMeuK.s 			page 3


  88:Core/Src/stm32f429i_discovery.c ****   * @{
  89:Core/Src/stm32f429i_discovery.c ****   */ 
  90:Core/Src/stm32f429i_discovery.c **** GPIO_TypeDef* GPIO_PORT[LEDn] = {LED3_GPIO_PORT, 
  91:Core/Src/stm32f429i_discovery.c ****                                  LED4_GPIO_PORT};
  92:Core/Src/stm32f429i_discovery.c **** 
  93:Core/Src/stm32f429i_discovery.c **** const uint16_t GPIO_PIN[LEDn] = {LED3_PIN, 
  94:Core/Src/stm32f429i_discovery.c ****                                  LED4_PIN};
  95:Core/Src/stm32f429i_discovery.c **** 
  96:Core/Src/stm32f429i_discovery.c **** GPIO_TypeDef* BUTTON_PORT[BUTTONn] = {KEY_BUTTON_GPIO_PORT}; 
  97:Core/Src/stm32f429i_discovery.c **** const uint16_t BUTTON_PIN[BUTTONn] = {KEY_BUTTON_PIN}; 
  98:Core/Src/stm32f429i_discovery.c **** const uint8_t BUTTON_IRQn[BUTTONn] = {KEY_BUTTON_EXTI_IRQn};
  99:Core/Src/stm32f429i_discovery.c **** 
 100:Core/Src/stm32f429i_discovery.c **** uint32_t I2cxTimeout = I2Cx_TIMEOUT_MAX; /*<! Value of Timeout when I2C communication fails */  
 101:Core/Src/stm32f429i_discovery.c **** uint32_t SpixTimeout = SPIx_TIMEOUT_MAX; /*<! Value of Timeout when SPI communication fails */  
 102:Core/Src/stm32f429i_discovery.c **** 
 103:Core/Src/stm32f429i_discovery.c **** I2C_HandleTypeDef I2cHandle;
 104:Core/Src/stm32f429i_discovery.c **** static SPI_HandleTypeDef SpiHandle;
 105:Core/Src/stm32f429i_discovery.c **** static uint8_t Is_LCD_IO_Initialized = 0;
 106:Core/Src/stm32f429i_discovery.c **** 
 107:Core/Src/stm32f429i_discovery.c **** /**
 108:Core/Src/stm32f429i_discovery.c ****   * @}
 109:Core/Src/stm32f429i_discovery.c ****   */ 
 110:Core/Src/stm32f429i_discovery.c **** 
 111:Core/Src/stm32f429i_discovery.c **** /** @defgroup STM32F429I_DISCOVERY_LOW_LEVEL_Private_FunctionPrototypes STM32F429I DISCOVERY LOW LE
 112:Core/Src/stm32f429i_discovery.c ****   * @{
 113:Core/Src/stm32f429i_discovery.c ****   */ 
 114:Core/Src/stm32f429i_discovery.c **** /* I2Cx bus function */
 115:Core/Src/stm32f429i_discovery.c **** static void               I2Cx_Init(void);
 116:Core/Src/stm32f429i_discovery.c **** static void               I2Cx_ITConfig(void);
 117:Core/Src/stm32f429i_discovery.c **** static void               I2Cx_WriteData(uint8_t Addr, uint8_t Reg, uint8_t Value);
 118:Core/Src/stm32f429i_discovery.c **** static void               I2Cx_WriteBuffer(uint8_t Addr, uint8_t Reg,  uint8_t *pBuffer, uint16_t L
 119:Core/Src/stm32f429i_discovery.c **** static uint8_t            I2Cx_ReadData(uint8_t Addr, uint8_t Reg);
 120:Core/Src/stm32f429i_discovery.c **** static uint8_t            I2Cx_ReadBuffer(uint8_t Addr, uint8_t Reg, uint8_t *pBuffer, uint16_t Len
 121:Core/Src/stm32f429i_discovery.c **** static void               I2Cx_Error(void);
 122:Core/Src/stm32f429i_discovery.c **** static void               I2Cx_MspInit(I2C_HandleTypeDef *hi2c);  
 123:Core/Src/stm32f429i_discovery.c **** #ifdef EE_M24LR64
 124:Core/Src/stm32f429i_discovery.c **** static HAL_StatusTypeDef  I2Cx_WriteBufferDMA(uint8_t Addr, uint16_t Reg,  uint8_t *pBuffer, uint16
 125:Core/Src/stm32f429i_discovery.c **** static HAL_StatusTypeDef  I2Cx_ReadBufferDMA(uint8_t Addr, uint16_t Reg, uint8_t *pBuffer, uint16_t
 126:Core/Src/stm32f429i_discovery.c **** static HAL_StatusTypeDef  I2Cx_IsDeviceReady(uint16_t DevAddress, uint32_t Trials);
 127:Core/Src/stm32f429i_discovery.c **** #endif /* EE_M24LR64 */
 128:Core/Src/stm32f429i_discovery.c **** 
 129:Core/Src/stm32f429i_discovery.c **** /* SPIx bus function */
 130:Core/Src/stm32f429i_discovery.c **** static void               SPIx_Init(void);
 131:Core/Src/stm32f429i_discovery.c **** static void               SPIx_Write(uint16_t Value);
 132:Core/Src/stm32f429i_discovery.c **** static uint32_t           SPIx_Read(uint8_t ReadSize);
 133:Core/Src/stm32f429i_discovery.c **** static uint8_t            SPIx_WriteRead(uint8_t Byte);
 134:Core/Src/stm32f429i_discovery.c **** static void               SPIx_Error(void);
 135:Core/Src/stm32f429i_discovery.c **** static void               SPIx_MspInit(SPI_HandleTypeDef *hspi);
 136:Core/Src/stm32f429i_discovery.c **** 
 137:Core/Src/stm32f429i_discovery.c **** /* Link function for LCD peripheral */
 138:Core/Src/stm32f429i_discovery.c **** void                      LCD_IO_Init(void);
 139:Core/Src/stm32f429i_discovery.c **** void                      LCD_IO_WriteData(uint16_t RegValue);
 140:Core/Src/stm32f429i_discovery.c **** void                      LCD_IO_WriteReg(uint8_t Reg);
 141:Core/Src/stm32f429i_discovery.c **** uint32_t                  LCD_IO_ReadData(uint16_t RegValue, uint8_t ReadSize);
 142:Core/Src/stm32f429i_discovery.c **** void                      LCD_Delay(uint32_t delay);
 143:Core/Src/stm32f429i_discovery.c **** 
 144:Core/Src/stm32f429i_discovery.c **** /* IOExpander IO functions */
ARM GAS  /tmp/ccMsMeuK.s 			page 4


 145:Core/Src/stm32f429i_discovery.c **** void                      IOE_Init(void);
 146:Core/Src/stm32f429i_discovery.c **** void                      IOE_ITConfig(void);
 147:Core/Src/stm32f429i_discovery.c **** void                      IOE_Delay(uint32_t Delay);
 148:Core/Src/stm32f429i_discovery.c **** void                      IOE_Write(uint8_t Addr, uint8_t Reg, uint8_t Value);
 149:Core/Src/stm32f429i_discovery.c **** uint8_t                   IOE_Read(uint8_t Addr, uint8_t Reg);
 150:Core/Src/stm32f429i_discovery.c **** uint16_t                  IOE_ReadMultiple(uint8_t Addr, uint8_t Reg, uint8_t *pBuffer, uint16_t Le
 151:Core/Src/stm32f429i_discovery.c **** void                      IOE_WriteMultiple(uint8_t Addr, uint8_t Reg, uint8_t *pBuffer, uint16_t L
 152:Core/Src/stm32f429i_discovery.c **** 
 153:Core/Src/stm32f429i_discovery.c **** /* Link function for GYRO peripheral */
 154:Core/Src/stm32f429i_discovery.c **** void                      GYRO_IO_Init(void);
 155:Core/Src/stm32f429i_discovery.c **** void                      GYRO_IO_Write(uint8_t* pBuffer, uint8_t WriteAddr, uint16_t NumByteToWrit
 156:Core/Src/stm32f429i_discovery.c **** void                      GYRO_IO_Read(uint8_t* pBuffer, uint8_t ReadAddr, uint16_t NumByteToRead);
 157:Core/Src/stm32f429i_discovery.c **** 
 158:Core/Src/stm32f429i_discovery.c **** #ifdef EE_M24LR64
 159:Core/Src/stm32f429i_discovery.c **** /* Link function for I2C EEPROM peripheral */
 160:Core/Src/stm32f429i_discovery.c **** void                      EEPROM_IO_Init(void);
 161:Core/Src/stm32f429i_discovery.c **** HAL_StatusTypeDef         EEPROM_IO_WriteData(uint16_t DevAddress, uint16_t MemAddress, uint8_t* pB
 162:Core/Src/stm32f429i_discovery.c **** HAL_StatusTypeDef         EEPROM_IO_ReadData(uint16_t DevAddress, uint16_t MemAddress, uint8_t* pBu
 163:Core/Src/stm32f429i_discovery.c **** HAL_StatusTypeDef         EEPROM_IO_IsDeviceReady(uint16_t DevAddress, uint32_t Trials);
 164:Core/Src/stm32f429i_discovery.c **** #endif /* EE_M24LR64 */
 165:Core/Src/stm32f429i_discovery.c **** 
 166:Core/Src/stm32f429i_discovery.c **** /**
 167:Core/Src/stm32f429i_discovery.c ****   * @}
 168:Core/Src/stm32f429i_discovery.c ****   */ 
 169:Core/Src/stm32f429i_discovery.c **** 
 170:Core/Src/stm32f429i_discovery.c **** /** @defgroup STM32F429I_DISCOVERY_LOW_LEVEL_Private_Functions STM32F429I DISCOVERY LOW LEVEL Priva
 171:Core/Src/stm32f429i_discovery.c ****   * @{
 172:Core/Src/stm32f429i_discovery.c ****   */ 
 173:Core/Src/stm32f429i_discovery.c **** 
 174:Core/Src/stm32f429i_discovery.c **** /**
 175:Core/Src/stm32f429i_discovery.c ****   * @brief  This method returns the STM32F429I DISCO BSP Driver revision
 176:Core/Src/stm32f429i_discovery.c ****   * @retval version: 0xXYZR (8bits for each decimal, R for RC)
 177:Core/Src/stm32f429i_discovery.c ****   */
 178:Core/Src/stm32f429i_discovery.c **** uint32_t BSP_GetVersion(void)
 179:Core/Src/stm32f429i_discovery.c **** {
 180:Core/Src/stm32f429i_discovery.c ****   return __STM32F429I_DISCO_BSP_VERSION;
 181:Core/Src/stm32f429i_discovery.c **** }
 182:Core/Src/stm32f429i_discovery.c **** 
 183:Core/Src/stm32f429i_discovery.c **** /**
 184:Core/Src/stm32f429i_discovery.c ****   * @brief  Configures LED GPIO.
 185:Core/Src/stm32f429i_discovery.c ****   * @param  Led: Specifies the Led to be configured. 
 186:Core/Src/stm32f429i_discovery.c ****   *   This parameter can be one of following parameters:
 187:Core/Src/stm32f429i_discovery.c ****   *     @arg LED3
 188:Core/Src/stm32f429i_discovery.c ****   *     @arg LED4
 189:Core/Src/stm32f429i_discovery.c ****   */
 190:Core/Src/stm32f429i_discovery.c **** void BSP_LED_Init(Led_TypeDef Led)
 191:Core/Src/stm32f429i_discovery.c **** {
 192:Core/Src/stm32f429i_discovery.c ****   GPIO_InitTypeDef  GPIO_InitStruct;
 193:Core/Src/stm32f429i_discovery.c ****   
 194:Core/Src/stm32f429i_discovery.c ****   /* Enable the GPIO_LED Clock */
 195:Core/Src/stm32f429i_discovery.c ****   LEDx_GPIO_CLK_ENABLE(Led);
 196:Core/Src/stm32f429i_discovery.c **** 
 197:Core/Src/stm32f429i_discovery.c ****   /* Configure the GPIO_LED pin */
 198:Core/Src/stm32f429i_discovery.c ****   GPIO_InitStruct.Pin = GPIO_PIN[Led];
 199:Core/Src/stm32f429i_discovery.c ****   GPIO_InitStruct.Mode = GPIO_MODE_OUTPUT_PP;
 200:Core/Src/stm32f429i_discovery.c ****   GPIO_InitStruct.Pull = GPIO_PULLUP;
 201:Core/Src/stm32f429i_discovery.c ****   GPIO_InitStruct.Speed = GPIO_SPEED_FAST;
ARM GAS  /tmp/ccMsMeuK.s 			page 5


 202:Core/Src/stm32f429i_discovery.c ****   
 203:Core/Src/stm32f429i_discovery.c ****   HAL_GPIO_Init(GPIO_PORT[Led], &GPIO_InitStruct);
 204:Core/Src/stm32f429i_discovery.c ****   
 205:Core/Src/stm32f429i_discovery.c ****   HAL_GPIO_WritePin(GPIO_PORT[Led], GPIO_PIN[Led], GPIO_PIN_RESET); 
 206:Core/Src/stm32f429i_discovery.c **** }
 207:Core/Src/stm32f429i_discovery.c **** 
 208:Core/Src/stm32f429i_discovery.c **** /**
 209:Core/Src/stm32f429i_discovery.c ****   * @brief  Turns selected LED On.
 210:Core/Src/stm32f429i_discovery.c ****   * @param  Led: Specifies the Led to be set on. 
 211:Core/Src/stm32f429i_discovery.c ****   *   This parameter can be one of following parameters:
 212:Core/Src/stm32f429i_discovery.c ****   *     @arg LED3
 213:Core/Src/stm32f429i_discovery.c ****   *     @arg LED4 
 214:Core/Src/stm32f429i_discovery.c ****   */
 215:Core/Src/stm32f429i_discovery.c **** void BSP_LED_On(Led_TypeDef Led)
 216:Core/Src/stm32f429i_discovery.c **** {
 217:Core/Src/stm32f429i_discovery.c ****   HAL_GPIO_WritePin(GPIO_PORT[Led], GPIO_PIN[Led], GPIO_PIN_SET); 
 218:Core/Src/stm32f429i_discovery.c **** }
 219:Core/Src/stm32f429i_discovery.c **** 
 220:Core/Src/stm32f429i_discovery.c **** /**
 221:Core/Src/stm32f429i_discovery.c ****   * @brief  Turns selected LED Off.
 222:Core/Src/stm32f429i_discovery.c ****   * @param  Led: Specifies the Led to be set off. 
 223:Core/Src/stm32f429i_discovery.c ****   *   This parameter can be one of following parameters:
 224:Core/Src/stm32f429i_discovery.c ****   *     @arg LED3
 225:Core/Src/stm32f429i_discovery.c ****   *     @arg LED4
 226:Core/Src/stm32f429i_discovery.c ****   */
 227:Core/Src/stm32f429i_discovery.c **** void BSP_LED_Off(Led_TypeDef Led)
 228:Core/Src/stm32f429i_discovery.c **** {
 229:Core/Src/stm32f429i_discovery.c ****   HAL_GPIO_WritePin(GPIO_PORT[Led], GPIO_PIN[Led], GPIO_PIN_RESET); 
 230:Core/Src/stm32f429i_discovery.c **** }
 231:Core/Src/stm32f429i_discovery.c **** 
 232:Core/Src/stm32f429i_discovery.c **** /**
 233:Core/Src/stm32f429i_discovery.c ****   * @brief  Toggles the selected LED.
 234:Core/Src/stm32f429i_discovery.c ****   * @param  Led: Specifies the Led to be toggled. 
 235:Core/Src/stm32f429i_discovery.c ****   *   This parameter can be one of following parameters:
 236:Core/Src/stm32f429i_discovery.c ****   *     @arg LED3
 237:Core/Src/stm32f429i_discovery.c ****   *     @arg LED4  
 238:Core/Src/stm32f429i_discovery.c ****   */
 239:Core/Src/stm32f429i_discovery.c **** void BSP_LED_Toggle(Led_TypeDef Led)
 240:Core/Src/stm32f429i_discovery.c **** {
 241:Core/Src/stm32f429i_discovery.c ****   HAL_GPIO_TogglePin(GPIO_PORT[Led], GPIO_PIN[Led]);
 242:Core/Src/stm32f429i_discovery.c **** }
 243:Core/Src/stm32f429i_discovery.c **** 
 244:Core/Src/stm32f429i_discovery.c **** /**
 245:Core/Src/stm32f429i_discovery.c ****   * @brief  Configures Button GPIO and EXTI Line.
 246:Core/Src/stm32f429i_discovery.c ****   * @param  Button: Specifies the Button to be configured.
 247:Core/Src/stm32f429i_discovery.c ****   *   This parameter should be: BUTTON_KEY
 248:Core/Src/stm32f429i_discovery.c ****   * @param  ButtonMode: Specifies Button mode.
 249:Core/Src/stm32f429i_discovery.c ****   *   This parameter can be one of following parameters:   
 250:Core/Src/stm32f429i_discovery.c ****   *     @arg BUTTON_MODE_GPIO: Button will be used as simple IO 
 251:Core/Src/stm32f429i_discovery.c ****   *     @arg BUTTON_MODE_EXTI: Button will be connected to EXTI line with interrupt
 252:Core/Src/stm32f429i_discovery.c ****   *                            generation capability  
 253:Core/Src/stm32f429i_discovery.c ****   */
 254:Core/Src/stm32f429i_discovery.c **** void BSP_PB_Init(Button_TypeDef Button, ButtonMode_TypeDef ButtonMode)
 255:Core/Src/stm32f429i_discovery.c **** {
 256:Core/Src/stm32f429i_discovery.c ****   GPIO_InitTypeDef GPIO_InitStruct;
 257:Core/Src/stm32f429i_discovery.c ****   
 258:Core/Src/stm32f429i_discovery.c ****   /* Enable the BUTTON Clock */
ARM GAS  /tmp/ccMsMeuK.s 			page 6


 259:Core/Src/stm32f429i_discovery.c ****   BUTTONx_GPIO_CLK_ENABLE(Button);
 260:Core/Src/stm32f429i_discovery.c ****   
 261:Core/Src/stm32f429i_discovery.c ****   if (ButtonMode == BUTTON_MODE_GPIO)
 262:Core/Src/stm32f429i_discovery.c ****   {
 263:Core/Src/stm32f429i_discovery.c ****     /* Configure Button pin as input */
 264:Core/Src/stm32f429i_discovery.c ****     GPIO_InitStruct.Pin = BUTTON_PIN[Button];
 265:Core/Src/stm32f429i_discovery.c ****     GPIO_InitStruct.Mode = GPIO_MODE_INPUT;
 266:Core/Src/stm32f429i_discovery.c ****     GPIO_InitStruct.Pull = GPIO_PULLDOWN;
 267:Core/Src/stm32f429i_discovery.c ****     GPIO_InitStruct.Speed = GPIO_SPEED_FAST;
 268:Core/Src/stm32f429i_discovery.c ****     HAL_GPIO_Init(BUTTON_PORT[Button], &GPIO_InitStruct);
 269:Core/Src/stm32f429i_discovery.c ****   }
 270:Core/Src/stm32f429i_discovery.c ****   
 271:Core/Src/stm32f429i_discovery.c ****   if (ButtonMode == BUTTON_MODE_EXTI)
 272:Core/Src/stm32f429i_discovery.c ****   {
 273:Core/Src/stm32f429i_discovery.c ****     /* Configure Button pin as input with External interrupt */
 274:Core/Src/stm32f429i_discovery.c ****     GPIO_InitStruct.Pin = BUTTON_PIN[Button];
 275:Core/Src/stm32f429i_discovery.c ****     GPIO_InitStruct.Pull = GPIO_NOPULL;
 276:Core/Src/stm32f429i_discovery.c ****     GPIO_InitStruct.Mode = GPIO_MODE_IT_RISING; 
 277:Core/Src/stm32f429i_discovery.c ****     HAL_GPIO_Init(BUTTON_PORT[Button], &GPIO_InitStruct);
 278:Core/Src/stm32f429i_discovery.c ****     
 279:Core/Src/stm32f429i_discovery.c ****     /* Enable and set Button EXTI Interrupt to the lowest priority */
 280:Core/Src/stm32f429i_discovery.c ****     HAL_NVIC_SetPriority((IRQn_Type)(BUTTON_IRQn[Button]), 0x0F, 0x00);
 281:Core/Src/stm32f429i_discovery.c ****     HAL_NVIC_EnableIRQ((IRQn_Type)(BUTTON_IRQn[Button]));
 282:Core/Src/stm32f429i_discovery.c ****   }
 283:Core/Src/stm32f429i_discovery.c **** }
 284:Core/Src/stm32f429i_discovery.c **** 
 285:Core/Src/stm32f429i_discovery.c **** /**
 286:Core/Src/stm32f429i_discovery.c ****   * @brief  Returns the selected Button state.
 287:Core/Src/stm32f429i_discovery.c ****   * @param  Button: Specifies the Button to be checked.
 288:Core/Src/stm32f429i_discovery.c ****   *   This parameter should be: BUTTON_KEY  
 289:Core/Src/stm32f429i_discovery.c ****   * @retval The Button GPIO pin value.
 290:Core/Src/stm32f429i_discovery.c ****   */
 291:Core/Src/stm32f429i_discovery.c **** uint32_t BSP_PB_GetState(Button_TypeDef Button)
 292:Core/Src/stm32f429i_discovery.c **** {
 293:Core/Src/stm32f429i_discovery.c ****   return HAL_GPIO_ReadPin(BUTTON_PORT[Button], BUTTON_PIN[Button]);
 294:Core/Src/stm32f429i_discovery.c **** }
 295:Core/Src/stm32f429i_discovery.c **** 
 296:Core/Src/stm32f429i_discovery.c **** /*******************************************************************************
 297:Core/Src/stm32f429i_discovery.c ****                             BUS OPERATIONS
 298:Core/Src/stm32f429i_discovery.c **** *******************************************************************************/
 299:Core/Src/stm32f429i_discovery.c **** 
 300:Core/Src/stm32f429i_discovery.c **** /******************************* I2C Routines *********************************/
 301:Core/Src/stm32f429i_discovery.c **** 
 302:Core/Src/stm32f429i_discovery.c **** /**
 303:Core/Src/stm32f429i_discovery.c ****   * @brief  I2Cx MSP Initialization
 304:Core/Src/stm32f429i_discovery.c ****   * @param  hi2c: I2C handle
 305:Core/Src/stm32f429i_discovery.c ****   */
 306:Core/Src/stm32f429i_discovery.c **** static void I2Cx_MspInit(I2C_HandleTypeDef *hi2c)
 307:Core/Src/stm32f429i_discovery.c **** {
 308:Core/Src/stm32f429i_discovery.c ****   GPIO_InitTypeDef  GPIO_InitStruct;  
 309:Core/Src/stm32f429i_discovery.c **** #ifdef EE_M24LR64
 310:Core/Src/stm32f429i_discovery.c ****   static DMA_HandleTypeDef hdma_tx;
 311:Core/Src/stm32f429i_discovery.c ****   static DMA_HandleTypeDef hdma_rx;
 312:Core/Src/stm32f429i_discovery.c ****   
 313:Core/Src/stm32f429i_discovery.c ****   I2C_HandleTypeDef* pI2cHandle;
 314:Core/Src/stm32f429i_discovery.c ****   pI2cHandle = &I2cHandle;
 315:Core/Src/stm32f429i_discovery.c **** #endif /* EE_M24LR64 */
ARM GAS  /tmp/ccMsMeuK.s 			page 7


 316:Core/Src/stm32f429i_discovery.c **** 
 317:Core/Src/stm32f429i_discovery.c ****   if (hi2c->Instance == DISCOVERY_I2Cx)
 318:Core/Src/stm32f429i_discovery.c ****   {
 319:Core/Src/stm32f429i_discovery.c ****     /* Configure the GPIOs ---------------------------------------------------*/ 
 320:Core/Src/stm32f429i_discovery.c ****     /* Enable GPIO clock */
 321:Core/Src/stm32f429i_discovery.c ****     DISCOVERY_I2Cx_SDA_GPIO_CLK_ENABLE();
 322:Core/Src/stm32f429i_discovery.c ****     DISCOVERY_I2Cx_SCL_GPIO_CLK_ENABLE();
 323:Core/Src/stm32f429i_discovery.c ****       
 324:Core/Src/stm32f429i_discovery.c ****     /* Configure I2C Tx as alternate function  */
 325:Core/Src/stm32f429i_discovery.c ****     GPIO_InitStruct.Pin       = DISCOVERY_I2Cx_SCL_PIN;
 326:Core/Src/stm32f429i_discovery.c ****     GPIO_InitStruct.Mode      = GPIO_MODE_AF_OD;
 327:Core/Src/stm32f429i_discovery.c ****     GPIO_InitStruct.Pull      = GPIO_NOPULL;
 328:Core/Src/stm32f429i_discovery.c ****     GPIO_InitStruct.Speed     = GPIO_SPEED_FAST;
 329:Core/Src/stm32f429i_discovery.c ****     GPIO_InitStruct.Alternate = DISCOVERY_I2Cx_SCL_SDA_AF;
 330:Core/Src/stm32f429i_discovery.c ****     HAL_GPIO_Init(DISCOVERY_I2Cx_SCL_GPIO_PORT, &GPIO_InitStruct);
 331:Core/Src/stm32f429i_discovery.c ****       
 332:Core/Src/stm32f429i_discovery.c ****     /* Configure I2C Rx as alternate function  */
 333:Core/Src/stm32f429i_discovery.c ****     GPIO_InitStruct.Pin = DISCOVERY_I2Cx_SDA_PIN;
 334:Core/Src/stm32f429i_discovery.c ****     HAL_GPIO_Init(DISCOVERY_I2Cx_SDA_GPIO_PORT, &GPIO_InitStruct);
 335:Core/Src/stm32f429i_discovery.c ****     
 336:Core/Src/stm32f429i_discovery.c ****     
 337:Core/Src/stm32f429i_discovery.c ****     /* Configure the Discovery I2Cx peripheral -------------------------------*/ 
 338:Core/Src/stm32f429i_discovery.c ****     /* Enable I2C3 clock */
 339:Core/Src/stm32f429i_discovery.c ****     DISCOVERY_I2Cx_CLOCK_ENABLE();
 340:Core/Src/stm32f429i_discovery.c ****     
 341:Core/Src/stm32f429i_discovery.c ****     /* Force the I2C Peripheral Clock Reset */  
 342:Core/Src/stm32f429i_discovery.c ****     DISCOVERY_I2Cx_FORCE_RESET();
 343:Core/Src/stm32f429i_discovery.c ****       
 344:Core/Src/stm32f429i_discovery.c ****     /* Release the I2C Peripheral Clock Reset */  
 345:Core/Src/stm32f429i_discovery.c ****     DISCOVERY_I2Cx_RELEASE_RESET(); 
 346:Core/Src/stm32f429i_discovery.c ****     
 347:Core/Src/stm32f429i_discovery.c ****     /* Enable and set Discovery I2Cx Interrupt to the lowest priority */
 348:Core/Src/stm32f429i_discovery.c ****     HAL_NVIC_SetPriority(DISCOVERY_I2Cx_EV_IRQn, 0x0F, 0);
 349:Core/Src/stm32f429i_discovery.c ****     HAL_NVIC_EnableIRQ(DISCOVERY_I2Cx_EV_IRQn);
 350:Core/Src/stm32f429i_discovery.c ****     
 351:Core/Src/stm32f429i_discovery.c ****     /* Enable and set Discovery I2Cx Interrupt to the lowest priority */
 352:Core/Src/stm32f429i_discovery.c ****     HAL_NVIC_SetPriority(DISCOVERY_I2Cx_ER_IRQn, 0x0F, 0);
 353:Core/Src/stm32f429i_discovery.c ****     HAL_NVIC_EnableIRQ(DISCOVERY_I2Cx_ER_IRQn);  
 354:Core/Src/stm32f429i_discovery.c **** 
 355:Core/Src/stm32f429i_discovery.c **** #ifdef EE_M24LR64
 356:Core/Src/stm32f429i_discovery.c ****     /* I2C DMA TX and RX channels configuration */
 357:Core/Src/stm32f429i_discovery.c ****     /* Enable the DMA clock */
 358:Core/Src/stm32f429i_discovery.c ****     EEPROM_I2C_DMA_CLK_ENABLE();
 359:Core/Src/stm32f429i_discovery.c ****     
 360:Core/Src/stm32f429i_discovery.c ****     /* Configure the DMA stream for the EE I2C peripheral TX direction */
 361:Core/Src/stm32f429i_discovery.c ****     /* Configure the DMA Stream */
 362:Core/Src/stm32f429i_discovery.c ****     hdma_tx.Instance                  = EEPROM_I2C_DMA_STREAM_TX;
 363:Core/Src/stm32f429i_discovery.c ****     /* Set the parameters to be configured */
 364:Core/Src/stm32f429i_discovery.c ****     hdma_tx.Init.Channel              = EEPROM_I2C_DMA_CHANNEL;  
 365:Core/Src/stm32f429i_discovery.c ****     hdma_tx.Init.Direction            = DMA_MEMORY_TO_PERIPH;
 366:Core/Src/stm32f429i_discovery.c ****     hdma_tx.Init.PeriphInc            = DMA_PINC_DISABLE;
 367:Core/Src/stm32f429i_discovery.c ****     hdma_tx.Init.MemInc               = DMA_MINC_ENABLE;
 368:Core/Src/stm32f429i_discovery.c ****     hdma_tx.Init.PeriphDataAlignment  = DMA_PDATAALIGN_BYTE;
 369:Core/Src/stm32f429i_discovery.c ****     hdma_tx.Init.MemDataAlignment     = DMA_MDATAALIGN_BYTE;
 370:Core/Src/stm32f429i_discovery.c ****     hdma_tx.Init.Mode                 = DMA_NORMAL;
 371:Core/Src/stm32f429i_discovery.c ****     hdma_tx.Init.Priority             = DMA_PRIORITY_VERY_HIGH;
 372:Core/Src/stm32f429i_discovery.c ****     hdma_tx.Init.FIFOMode             = DMA_FIFOMODE_ENABLE;         
ARM GAS  /tmp/ccMsMeuK.s 			page 8


 373:Core/Src/stm32f429i_discovery.c ****     hdma_tx.Init.FIFOThreshold        = DMA_FIFO_THRESHOLD_FULL;
 374:Core/Src/stm32f429i_discovery.c ****     hdma_tx.Init.MemBurst             = DMA_MBURST_SINGLE;
 375:Core/Src/stm32f429i_discovery.c ****     hdma_tx.Init.PeriphBurst          = DMA_PBURST_SINGLE; 
 376:Core/Src/stm32f429i_discovery.c **** 
 377:Core/Src/stm32f429i_discovery.c ****     /* Associate the initilalized hdma_tx handle to the the pI2cHandle handle */
 378:Core/Src/stm32f429i_discovery.c ****     __HAL_LINKDMA(pI2cHandle, hdmatx, hdma_tx);
 379:Core/Src/stm32f429i_discovery.c ****     
 380:Core/Src/stm32f429i_discovery.c ****     /* Configure the DMA Stream */
 381:Core/Src/stm32f429i_discovery.c ****     HAL_DMA_Init(&hdma_tx);
 382:Core/Src/stm32f429i_discovery.c ****     
 383:Core/Src/stm32f429i_discovery.c ****     /* Configure and enable I2C DMA TX Channel interrupt */
 384:Core/Src/stm32f429i_discovery.c ****     HAL_NVIC_SetPriority((IRQn_Type)(EEPROM_I2C_DMA_TX_IRQn), EEPROM_I2C_DMA_PREPRIO, 0);
 385:Core/Src/stm32f429i_discovery.c ****     HAL_NVIC_EnableIRQ((IRQn_Type)(EEPROM_I2C_DMA_TX_IRQn));
 386:Core/Src/stm32f429i_discovery.c ****     
 387:Core/Src/stm32f429i_discovery.c ****     /* Configure the DMA stream for the EE I2C peripheral TX direction */
 388:Core/Src/stm32f429i_discovery.c ****     /* Configure the DMA Stream */
 389:Core/Src/stm32f429i_discovery.c ****     hdma_rx.Instance                  = EEPROM_I2C_DMA_STREAM_RX;
 390:Core/Src/stm32f429i_discovery.c ****     /* Set the parameters to be configured */
 391:Core/Src/stm32f429i_discovery.c ****     hdma_rx.Init.Channel              = EEPROM_I2C_DMA_CHANNEL;  
 392:Core/Src/stm32f429i_discovery.c ****     hdma_rx.Init.Direction            = DMA_PERIPH_TO_MEMORY;
 393:Core/Src/stm32f429i_discovery.c ****     hdma_rx.Init.PeriphInc            = DMA_PINC_DISABLE;
 394:Core/Src/stm32f429i_discovery.c ****     hdma_rx.Init.MemInc               = DMA_MINC_ENABLE;
 395:Core/Src/stm32f429i_discovery.c ****     hdma_rx.Init.PeriphDataAlignment  = DMA_PDATAALIGN_BYTE;
 396:Core/Src/stm32f429i_discovery.c ****     hdma_rx.Init.MemDataAlignment     = DMA_MDATAALIGN_BYTE;
 397:Core/Src/stm32f429i_discovery.c ****     hdma_rx.Init.Mode                 = DMA_NORMAL;
 398:Core/Src/stm32f429i_discovery.c ****     hdma_rx.Init.Priority             = DMA_PRIORITY_VERY_HIGH;
 399:Core/Src/stm32f429i_discovery.c ****     hdma_rx.Init.FIFOMode             = DMA_FIFOMODE_ENABLE;         
 400:Core/Src/stm32f429i_discovery.c ****     hdma_rx.Init.FIFOThreshold        = DMA_FIFO_THRESHOLD_FULL;
 401:Core/Src/stm32f429i_discovery.c ****     hdma_rx.Init.MemBurst             = DMA_MBURST_SINGLE;
 402:Core/Src/stm32f429i_discovery.c ****     hdma_rx.Init.PeriphBurst          = DMA_PBURST_SINGLE; 
 403:Core/Src/stm32f429i_discovery.c **** 
 404:Core/Src/stm32f429i_discovery.c ****     /* Associate the initilalized hdma_rx handle to the the pI2cHandle handle*/
 405:Core/Src/stm32f429i_discovery.c ****     __HAL_LINKDMA(pI2cHandle, hdmarx, hdma_rx);
 406:Core/Src/stm32f429i_discovery.c ****     
 407:Core/Src/stm32f429i_discovery.c ****     /* Configure the DMA Stream */
 408:Core/Src/stm32f429i_discovery.c ****     HAL_DMA_Init(&hdma_rx);
 409:Core/Src/stm32f429i_discovery.c ****     
 410:Core/Src/stm32f429i_discovery.c ****     /* Configure and enable I2C DMA RX Channel interrupt */
 411:Core/Src/stm32f429i_discovery.c ****     HAL_NVIC_SetPriority((IRQn_Type)(EEPROM_I2C_DMA_RX_IRQn), EEPROM_I2C_DMA_PREPRIO, 0);
 412:Core/Src/stm32f429i_discovery.c ****     HAL_NVIC_EnableIRQ((IRQn_Type)(EEPROM_I2C_DMA_RX_IRQn));
 413:Core/Src/stm32f429i_discovery.c **** #endif /* EE_M24LR64 */
 414:Core/Src/stm32f429i_discovery.c ****   }
 415:Core/Src/stm32f429i_discovery.c **** }
 416:Core/Src/stm32f429i_discovery.c **** 
 417:Core/Src/stm32f429i_discovery.c **** /**
 418:Core/Src/stm32f429i_discovery.c ****   * @brief  I2Cx Bus initialization.
 419:Core/Src/stm32f429i_discovery.c ****   */
 420:Core/Src/stm32f429i_discovery.c **** static void I2Cx_Init(void)
 421:Core/Src/stm32f429i_discovery.c **** {
 422:Core/Src/stm32f429i_discovery.c ****   if(HAL_I2C_GetState(&I2cHandle) == HAL_I2C_STATE_RESET)
 423:Core/Src/stm32f429i_discovery.c ****   {
 424:Core/Src/stm32f429i_discovery.c ****     I2cHandle.Instance              = DISCOVERY_I2Cx;
 425:Core/Src/stm32f429i_discovery.c ****     I2cHandle.Init.ClockSpeed       = BSP_I2C_SPEED;
 426:Core/Src/stm32f429i_discovery.c ****     I2cHandle.Init.DutyCycle        = I2C_DUTYCYCLE_2;
 427:Core/Src/stm32f429i_discovery.c ****     I2cHandle.Init.OwnAddress1      = 0;
 428:Core/Src/stm32f429i_discovery.c ****     I2cHandle.Init.AddressingMode   = I2C_ADDRESSINGMODE_7BIT;
 429:Core/Src/stm32f429i_discovery.c ****     I2cHandle.Init.DualAddressMode  = I2C_DUALADDRESS_DISABLED;
ARM GAS  /tmp/ccMsMeuK.s 			page 9


 430:Core/Src/stm32f429i_discovery.c ****     I2cHandle.Init.OwnAddress2      = 0;
 431:Core/Src/stm32f429i_discovery.c ****     I2cHandle.Init.GeneralCallMode  = I2C_GENERALCALL_DISABLED;
 432:Core/Src/stm32f429i_discovery.c ****     I2cHandle.Init.NoStretchMode    = I2C_NOSTRETCH_DISABLED;  
 433:Core/Src/stm32f429i_discovery.c ****     
 434:Core/Src/stm32f429i_discovery.c ****     /* Init the I2C */
 435:Core/Src/stm32f429i_discovery.c ****     I2Cx_MspInit(&I2cHandle);
 436:Core/Src/stm32f429i_discovery.c ****     HAL_I2C_Init(&I2cHandle);
 437:Core/Src/stm32f429i_discovery.c ****   }
 438:Core/Src/stm32f429i_discovery.c **** }
 439:Core/Src/stm32f429i_discovery.c **** 
 440:Core/Src/stm32f429i_discovery.c **** /**
 441:Core/Src/stm32f429i_discovery.c ****   * @brief  Configures Interruption pin for I2C communication.
 442:Core/Src/stm32f429i_discovery.c ****   */
 443:Core/Src/stm32f429i_discovery.c **** static void I2Cx_ITConfig(void)
 444:Core/Src/stm32f429i_discovery.c **** {
 445:Core/Src/stm32f429i_discovery.c ****   GPIO_InitTypeDef  GPIO_InitStruct;
 446:Core/Src/stm32f429i_discovery.c ****     
 447:Core/Src/stm32f429i_discovery.c ****   /* Enable the GPIO EXTI Clock */
 448:Core/Src/stm32f429i_discovery.c ****   STMPE811_INT_CLK_ENABLE();
 449:Core/Src/stm32f429i_discovery.c ****   
 450:Core/Src/stm32f429i_discovery.c ****   GPIO_InitStruct.Pin   = STMPE811_INT_PIN;
 451:Core/Src/stm32f429i_discovery.c ****   GPIO_InitStruct.Pull  = GPIO_PULLUP;
 452:Core/Src/stm32f429i_discovery.c ****   GPIO_InitStruct.Speed = GPIO_SPEED_LOW;
 453:Core/Src/stm32f429i_discovery.c ****   GPIO_InitStruct.Mode  = GPIO_MODE_IT_FALLING;
 454:Core/Src/stm32f429i_discovery.c ****   HAL_GPIO_Init(STMPE811_INT_GPIO_PORT, &GPIO_InitStruct);
 455:Core/Src/stm32f429i_discovery.c ****     
 456:Core/Src/stm32f429i_discovery.c ****   /* Enable and set GPIO EXTI Interrupt to the highest priority */
 457:Core/Src/stm32f429i_discovery.c ****   HAL_NVIC_SetPriority((IRQn_Type)(STMPE811_INT_EXTI), 0x0F, 0x00);
 458:Core/Src/stm32f429i_discovery.c ****   HAL_NVIC_EnableIRQ((IRQn_Type)(STMPE811_INT_EXTI));
 459:Core/Src/stm32f429i_discovery.c **** }
 460:Core/Src/stm32f429i_discovery.c **** 
 461:Core/Src/stm32f429i_discovery.c **** /**
 462:Core/Src/stm32f429i_discovery.c ****   * @brief  Writes a value in a register of the device through BUS.
 463:Core/Src/stm32f429i_discovery.c ****   * @param  Addr: Device address on BUS Bus.  
 464:Core/Src/stm32f429i_discovery.c ****   * @param  Reg: The target register address to write
 465:Core/Src/stm32f429i_discovery.c ****   * @param  Value: The target register value to be written 
 466:Core/Src/stm32f429i_discovery.c ****   */
 467:Core/Src/stm32f429i_discovery.c **** static void I2Cx_WriteData(uint8_t Addr, uint8_t Reg, uint8_t Value)
 468:Core/Src/stm32f429i_discovery.c ****   {
 469:Core/Src/stm32f429i_discovery.c ****   HAL_StatusTypeDef status = HAL_OK;
 470:Core/Src/stm32f429i_discovery.c ****   
 471:Core/Src/stm32f429i_discovery.c ****   status = HAL_I2C_Mem_Write(&I2cHandle, Addr, (uint16_t)Reg, I2C_MEMADD_SIZE_8BIT, &Value, 1, I2cx
 472:Core/Src/stm32f429i_discovery.c ****   
 473:Core/Src/stm32f429i_discovery.c ****   /* Check the communication status */
 474:Core/Src/stm32f429i_discovery.c ****   if(status != HAL_OK)
 475:Core/Src/stm32f429i_discovery.c ****   {
 476:Core/Src/stm32f429i_discovery.c ****     /* Re-Initialize the BUS */
 477:Core/Src/stm32f429i_discovery.c ****     I2Cx_Error();
 478:Core/Src/stm32f429i_discovery.c ****   }        
 479:Core/Src/stm32f429i_discovery.c **** }
 480:Core/Src/stm32f429i_discovery.c **** 
 481:Core/Src/stm32f429i_discovery.c **** /**
 482:Core/Src/stm32f429i_discovery.c ****   * @brief  Writes a value in a register of the device through BUS.
 483:Core/Src/stm32f429i_discovery.c ****   * @param  Addr: Device address on BUS Bus.  
 484:Core/Src/stm32f429i_discovery.c ****   * @param  Reg: The target register address to write
 485:Core/Src/stm32f429i_discovery.c ****   * @param  pBuffer: The target register value to be written 
 486:Core/Src/stm32f429i_discovery.c ****   * @param  Length: buffer size to be written
ARM GAS  /tmp/ccMsMeuK.s 			page 10


 487:Core/Src/stm32f429i_discovery.c ****   */
 488:Core/Src/stm32f429i_discovery.c **** static void I2Cx_WriteBuffer(uint8_t Addr, uint8_t Reg,  uint8_t *pBuffer, uint16_t Length)
 489:Core/Src/stm32f429i_discovery.c ****   {
 490:Core/Src/stm32f429i_discovery.c ****   HAL_StatusTypeDef status = HAL_OK;
 491:Core/Src/stm32f429i_discovery.c ****   
 492:Core/Src/stm32f429i_discovery.c ****   status = HAL_I2C_Mem_Write(&I2cHandle, Addr, (uint16_t)Reg, I2C_MEMADD_SIZE_8BIT, pBuffer, Length
 493:Core/Src/stm32f429i_discovery.c **** 
 494:Core/Src/stm32f429i_discovery.c ****   /* Check the communication status */
 495:Core/Src/stm32f429i_discovery.c ****   if(status != HAL_OK)
 496:Core/Src/stm32f429i_discovery.c ****   {
 497:Core/Src/stm32f429i_discovery.c ****     /* Re-Initialize the BUS */
 498:Core/Src/stm32f429i_discovery.c ****     I2Cx_Error();
 499:Core/Src/stm32f429i_discovery.c ****   }        
 500:Core/Src/stm32f429i_discovery.c **** }
 501:Core/Src/stm32f429i_discovery.c **** 
 502:Core/Src/stm32f429i_discovery.c **** /**
 503:Core/Src/stm32f429i_discovery.c ****   * @brief  Reads a register of the device through BUS.
 504:Core/Src/stm32f429i_discovery.c ****   * @param  Addr: Device address on BUS Bus.  
 505:Core/Src/stm32f429i_discovery.c ****   * @param  Reg: The target register address to write
 506:Core/Src/stm32f429i_discovery.c ****   * @retval Data read at register address
 507:Core/Src/stm32f429i_discovery.c ****   */
 508:Core/Src/stm32f429i_discovery.c **** static uint8_t I2Cx_ReadData(uint8_t Addr, uint8_t Reg)
 509:Core/Src/stm32f429i_discovery.c **** {
 510:Core/Src/stm32f429i_discovery.c ****   HAL_StatusTypeDef status = HAL_OK;
 511:Core/Src/stm32f429i_discovery.c ****   uint8_t value = 0;
 512:Core/Src/stm32f429i_discovery.c ****   
 513:Core/Src/stm32f429i_discovery.c ****   status = HAL_I2C_Mem_Read(&I2cHandle, Addr, Reg, I2C_MEMADD_SIZE_8BIT, &value, 1, I2cxTimeout);
 514:Core/Src/stm32f429i_discovery.c ****  
 515:Core/Src/stm32f429i_discovery.c ****   /* Check the communication status */
 516:Core/Src/stm32f429i_discovery.c ****   if(status != HAL_OK)
 517:Core/Src/stm32f429i_discovery.c ****   {
 518:Core/Src/stm32f429i_discovery.c ****     /* Re-Initialize the BUS */
 519:Core/Src/stm32f429i_discovery.c ****     I2Cx_Error();
 520:Core/Src/stm32f429i_discovery.c ****   
 521:Core/Src/stm32f429i_discovery.c ****   }
 522:Core/Src/stm32f429i_discovery.c ****   return value;
 523:Core/Src/stm32f429i_discovery.c **** }
 524:Core/Src/stm32f429i_discovery.c **** 
 525:Core/Src/stm32f429i_discovery.c **** /**
 526:Core/Src/stm32f429i_discovery.c ****   * @brief  Reads multiple data on the BUS.
 527:Core/Src/stm32f429i_discovery.c ****   * @param  Addr: I2C Address
 528:Core/Src/stm32f429i_discovery.c ****   * @param  Reg: Reg Address 
 529:Core/Src/stm32f429i_discovery.c ****   * @param  pBuffer: pointer to read data buffer
 530:Core/Src/stm32f429i_discovery.c ****   * @param  Length: length of the data
 531:Core/Src/stm32f429i_discovery.c ****   * @retval 0 if no problems to read multiple data
 532:Core/Src/stm32f429i_discovery.c ****   */
 533:Core/Src/stm32f429i_discovery.c **** static uint8_t I2Cx_ReadBuffer(uint8_t Addr, uint8_t Reg, uint8_t *pBuffer, uint16_t Length)
 534:Core/Src/stm32f429i_discovery.c **** {
 535:Core/Src/stm32f429i_discovery.c ****   HAL_StatusTypeDef status = HAL_OK;
 536:Core/Src/stm32f429i_discovery.c **** 
 537:Core/Src/stm32f429i_discovery.c ****   status = HAL_I2C_Mem_Read(&I2cHandle, Addr, (uint16_t)Reg, I2C_MEMADD_SIZE_8BIT, pBuffer, Length,
 538:Core/Src/stm32f429i_discovery.c ****   
 539:Core/Src/stm32f429i_discovery.c ****   /* Check the communication status */
 540:Core/Src/stm32f429i_discovery.c ****   if(status == HAL_OK)
 541:Core/Src/stm32f429i_discovery.c ****   {
 542:Core/Src/stm32f429i_discovery.c ****     return 0;
 543:Core/Src/stm32f429i_discovery.c ****   }
ARM GAS  /tmp/ccMsMeuK.s 			page 11


 544:Core/Src/stm32f429i_discovery.c ****   else
 545:Core/Src/stm32f429i_discovery.c ****   {
 546:Core/Src/stm32f429i_discovery.c ****     /* Re-Initialize the BUS */
 547:Core/Src/stm32f429i_discovery.c ****     I2Cx_Error();
 548:Core/Src/stm32f429i_discovery.c **** 
 549:Core/Src/stm32f429i_discovery.c ****     return 1;
 550:Core/Src/stm32f429i_discovery.c ****   }
 551:Core/Src/stm32f429i_discovery.c **** }
 552:Core/Src/stm32f429i_discovery.c **** 
 553:Core/Src/stm32f429i_discovery.c **** #ifdef EE_M24LR64
 554:Core/Src/stm32f429i_discovery.c **** /**
 555:Core/Src/stm32f429i_discovery.c ****   * @brief  Writes a value in a register of the device through BUS in using DMA mode.
 556:Core/Src/stm32f429i_discovery.c ****   * @param  Addr: Device address on BUS Bus.  
 557:Core/Src/stm32f429i_discovery.c ****   * @param  Reg: The target register address to write
 558:Core/Src/stm32f429i_discovery.c ****   * @param  pBuffer: The target register value to be written 
 559:Core/Src/stm32f429i_discovery.c ****   * @param  Length: buffer size to be written
 560:Core/Src/stm32f429i_discovery.c ****   * @retval HAL status
 561:Core/Src/stm32f429i_discovery.c ****   */
 562:Core/Src/stm32f429i_discovery.c **** static HAL_StatusTypeDef I2Cx_WriteBufferDMA(uint8_t Addr, uint16_t Reg,  uint8_t *pBuffer, uint16_
 563:Core/Src/stm32f429i_discovery.c ****   {
 564:Core/Src/stm32f429i_discovery.c ****   HAL_StatusTypeDef status = HAL_OK;
 565:Core/Src/stm32f429i_discovery.c ****   
 566:Core/Src/stm32f429i_discovery.c ****   status = HAL_I2C_Mem_Write_DMA(&I2cHandle, Addr, Reg, I2C_MEMADD_SIZE_16BIT, pBuffer, Length);
 567:Core/Src/stm32f429i_discovery.c **** 
 568:Core/Src/stm32f429i_discovery.c ****   /* Check the communication status */
 569:Core/Src/stm32f429i_discovery.c ****   if(status != HAL_OK)
 570:Core/Src/stm32f429i_discovery.c ****   {
 571:Core/Src/stm32f429i_discovery.c ****     /* Re-Initialize the BUS */
 572:Core/Src/stm32f429i_discovery.c ****     I2Cx_Error();
 573:Core/Src/stm32f429i_discovery.c ****   }
 574:Core/Src/stm32f429i_discovery.c **** 
 575:Core/Src/stm32f429i_discovery.c ****   return status;
 576:Core/Src/stm32f429i_discovery.c **** }
 577:Core/Src/stm32f429i_discovery.c **** 
 578:Core/Src/stm32f429i_discovery.c **** /**
 579:Core/Src/stm32f429i_discovery.c ****   * @brief  Reads multiple data on the BUS in using DMA mode.
 580:Core/Src/stm32f429i_discovery.c ****   * @param  Addr: I2C Address
 581:Core/Src/stm32f429i_discovery.c ****   * @param  Reg: Reg Address 
 582:Core/Src/stm32f429i_discovery.c ****   * @param  pBuffer: pointer to read data buffer
 583:Core/Src/stm32f429i_discovery.c ****   * @param  Length: length of the data
 584:Core/Src/stm32f429i_discovery.c ****   * @retval HAL status
 585:Core/Src/stm32f429i_discovery.c ****   */
 586:Core/Src/stm32f429i_discovery.c **** static HAL_StatusTypeDef I2Cx_ReadBufferDMA(uint8_t Addr, uint16_t Reg, uint8_t *pBuffer, uint16_t 
 587:Core/Src/stm32f429i_discovery.c **** {
 588:Core/Src/stm32f429i_discovery.c ****   HAL_StatusTypeDef status = HAL_OK;
 589:Core/Src/stm32f429i_discovery.c **** 
 590:Core/Src/stm32f429i_discovery.c ****   status = HAL_I2C_Mem_Read_DMA(&I2cHandle, Addr, Reg, I2C_MEMADD_SIZE_16BIT, pBuffer, Length);
 591:Core/Src/stm32f429i_discovery.c ****   
 592:Core/Src/stm32f429i_discovery.c ****   /* Check the communication status */
 593:Core/Src/stm32f429i_discovery.c ****   if(status != HAL_OK)
 594:Core/Src/stm32f429i_discovery.c ****   {
 595:Core/Src/stm32f429i_discovery.c ****     /* Re-Initialize the BUS */
 596:Core/Src/stm32f429i_discovery.c ****     I2Cx_Error();
 597:Core/Src/stm32f429i_discovery.c ****   }
 598:Core/Src/stm32f429i_discovery.c ****   
 599:Core/Src/stm32f429i_discovery.c ****   return status;
 600:Core/Src/stm32f429i_discovery.c **** }
ARM GAS  /tmp/ccMsMeuK.s 			page 12


 601:Core/Src/stm32f429i_discovery.c **** 
 602:Core/Src/stm32f429i_discovery.c **** /**
 603:Core/Src/stm32f429i_discovery.c **** * @brief  Checks if target device is ready for communication. 
 604:Core/Src/stm32f429i_discovery.c **** * @note   This function is used with Memory devices
 605:Core/Src/stm32f429i_discovery.c **** * @param  DevAddress: Target device address
 606:Core/Src/stm32f429i_discovery.c **** * @param  Trials: Number of trials
 607:Core/Src/stm32f429i_discovery.c **** * @retval HAL status
 608:Core/Src/stm32f429i_discovery.c **** */
 609:Core/Src/stm32f429i_discovery.c **** static HAL_StatusTypeDef I2Cx_IsDeviceReady(uint16_t DevAddress, uint32_t Trials)
 610:Core/Src/stm32f429i_discovery.c **** { 
 611:Core/Src/stm32f429i_discovery.c ****   return (HAL_I2C_IsDeviceReady(&I2cHandle, DevAddress, Trials, I2cxTimeout));
 612:Core/Src/stm32f429i_discovery.c **** }
 613:Core/Src/stm32f429i_discovery.c **** #endif /* EE_M24LR64 */
 614:Core/Src/stm32f429i_discovery.c **** 
 615:Core/Src/stm32f429i_discovery.c **** /**
 616:Core/Src/stm32f429i_discovery.c ****   * @brief  I2Cx error treatment function
 617:Core/Src/stm32f429i_discovery.c ****   */
 618:Core/Src/stm32f429i_discovery.c **** static void I2Cx_Error(void)
 619:Core/Src/stm32f429i_discovery.c **** {
 620:Core/Src/stm32f429i_discovery.c ****   /* De-initialize the SPI communication BUS */
 621:Core/Src/stm32f429i_discovery.c ****   HAL_I2C_DeInit(&I2cHandle);
 622:Core/Src/stm32f429i_discovery.c ****   
 623:Core/Src/stm32f429i_discovery.c ****   /* Re-Initialize the SPI communication BUS */
 624:Core/Src/stm32f429i_discovery.c ****   I2Cx_Init();
 625:Core/Src/stm32f429i_discovery.c **** }
 626:Core/Src/stm32f429i_discovery.c **** 
 627:Core/Src/stm32f429i_discovery.c **** /******************************* SPI Routines *********************************/
 628:Core/Src/stm32f429i_discovery.c **** 
 629:Core/Src/stm32f429i_discovery.c **** /**
 630:Core/Src/stm32f429i_discovery.c ****   * @brief  SPIx Bus initialization
 631:Core/Src/stm32f429i_discovery.c ****   */
 632:Core/Src/stm32f429i_discovery.c **** static void SPIx_Init(void)
  29              		.loc 1 632 13 view -0
  30              		.cfi_startproc
  31              		@ args = 0, pretend = 0, frame = 32
  32              		@ frame_needed = 0, uses_anonymous_args = 0
 633:Core/Src/stm32f429i_discovery.c **** {
 634:Core/Src/stm32f429i_discovery.c ****   if(HAL_SPI_GetState(&SpiHandle) == HAL_SPI_STATE_RESET)
 635:Core/Src/stm32f429i_discovery.c ****   {
 636:Core/Src/stm32f429i_discovery.c ****     /* SPI configuration -----------------------------------------------------*/
 637:Core/Src/stm32f429i_discovery.c ****     SpiHandle.Instance = DISCOVERY_SPIx;
  33              		.loc 1 637 5 view .LVU1
 632:Core/Src/stm32f429i_discovery.c **** {
  34              		.loc 1 632 13 is_stmt 0 view .LVU2
  35 0000 30B5     		push	{r4, r5, lr}
  36              	.LCFI0:
  37              		.cfi_def_cfa_offset 12
  38              		.cfi_offset 4, -12
  39              		.cfi_offset 5, -8
  40              		.cfi_offset 14, -4
  41 0002 89B0     		sub	sp, sp, #36
  42              	.LCFI1:
  43              		.cfi_def_cfa_offset 48
  44              		.loc 1 637 24 view .LVU3
  45 0004 1E4C     		ldr	r4, .L4
  46              	.LBB29:
  47              	.LBB30:
ARM GAS  /tmp/ccMsMeuK.s 			page 13


  48              	.LBB31:
 638:Core/Src/stm32f429i_discovery.c ****     /* SPI baudrate is set to 5.6 MHz (PCLK2/SPI_BaudRatePrescaler = 90/16 = 5.625 MHz) 
 639:Core/Src/stm32f429i_discovery.c ****        to verify these constraints:
 640:Core/Src/stm32f429i_discovery.c ****        - ILI9341 LCD SPI interface max baudrate is 10MHz for write and 6.66MHz for read
 641:Core/Src/stm32f429i_discovery.c ****        - l3gd20 SPI interface max baudrate is 10MHz for write/read
 642:Core/Src/stm32f429i_discovery.c ****        - PCLK2 frequency is set to 90 MHz 
 643:Core/Src/stm32f429i_discovery.c ****     */  
 644:Core/Src/stm32f429i_discovery.c ****     SpiHandle.Init.BaudRatePrescaler = SPI_BAUDRATEPRESCALER_16;
 645:Core/Src/stm32f429i_discovery.c **** 
 646:Core/Src/stm32f429i_discovery.c ****     /* On STM32F429I-Discovery, LCD ID cannot be read then keep a common configuration */
 647:Core/Src/stm32f429i_discovery.c ****     /* for LCD and GYRO (SPI_DIRECTION_2LINES) */
 648:Core/Src/stm32f429i_discovery.c ****     /* Note: To read a register a LCD, SPI_DIRECTION_1LINE should be set */
 649:Core/Src/stm32f429i_discovery.c ****     SpiHandle.Init.Direction      = SPI_DIRECTION_2LINES;
 650:Core/Src/stm32f429i_discovery.c ****     SpiHandle.Init.CLKPhase       = SPI_PHASE_1EDGE;
 651:Core/Src/stm32f429i_discovery.c ****     SpiHandle.Init.CLKPolarity    = SPI_POLARITY_LOW;
 652:Core/Src/stm32f429i_discovery.c ****     SpiHandle.Init.CRCCalculation = SPI_CRCCALCULATION_DISABLED;
 653:Core/Src/stm32f429i_discovery.c ****     SpiHandle.Init.CRCPolynomial  = 7;
 654:Core/Src/stm32f429i_discovery.c ****     SpiHandle.Init.DataSize       = SPI_DATASIZE_8BIT;
 655:Core/Src/stm32f429i_discovery.c ****     SpiHandle.Init.FirstBit       = SPI_FIRSTBIT_MSB;
 656:Core/Src/stm32f429i_discovery.c ****     SpiHandle.Init.NSS            = SPI_NSS_SOFT;
 657:Core/Src/stm32f429i_discovery.c ****     SpiHandle.Init.TIMode         = SPI_TIMODE_DISABLED;
 658:Core/Src/stm32f429i_discovery.c ****     SpiHandle.Init.Mode           = SPI_MODE_MASTER;
 659:Core/Src/stm32f429i_discovery.c ****   
 660:Core/Src/stm32f429i_discovery.c ****     SPIx_MspInit(&SpiHandle);
 661:Core/Src/stm32f429i_discovery.c ****     HAL_SPI_Init(&SpiHandle);
 662:Core/Src/stm32f429i_discovery.c ****   } 
 663:Core/Src/stm32f429i_discovery.c **** }
 664:Core/Src/stm32f429i_discovery.c **** 
 665:Core/Src/stm32f429i_discovery.c **** /**
 666:Core/Src/stm32f429i_discovery.c ****   * @brief  Reads 4 bytes from device.
 667:Core/Src/stm32f429i_discovery.c ****   * @param  ReadSize: Number of bytes to read (max 4 bytes)
 668:Core/Src/stm32f429i_discovery.c ****   * @retval Value read on the SPI
 669:Core/Src/stm32f429i_discovery.c ****   */
 670:Core/Src/stm32f429i_discovery.c **** static uint32_t SPIx_Read(uint8_t ReadSize)
 671:Core/Src/stm32f429i_discovery.c **** {
 672:Core/Src/stm32f429i_discovery.c ****   HAL_StatusTypeDef status = HAL_OK;
 673:Core/Src/stm32f429i_discovery.c ****   uint32_t readvalue;
 674:Core/Src/stm32f429i_discovery.c ****   
 675:Core/Src/stm32f429i_discovery.c ****   status = HAL_SPI_Receive(&SpiHandle, (uint8_t*) &readvalue, ReadSize, SpixTimeout);
 676:Core/Src/stm32f429i_discovery.c ****   
 677:Core/Src/stm32f429i_discovery.c ****   /* Check the communication status */
 678:Core/Src/stm32f429i_discovery.c ****   if(status != HAL_OK)
 679:Core/Src/stm32f429i_discovery.c ****   {
 680:Core/Src/stm32f429i_discovery.c ****     /* Re-Initialize the BUS */
 681:Core/Src/stm32f429i_discovery.c ****     SPIx_Error();
 682:Core/Src/stm32f429i_discovery.c ****   }
 683:Core/Src/stm32f429i_discovery.c ****   
 684:Core/Src/stm32f429i_discovery.c ****   return readvalue;
 685:Core/Src/stm32f429i_discovery.c **** }
 686:Core/Src/stm32f429i_discovery.c **** 
 687:Core/Src/stm32f429i_discovery.c **** /**
 688:Core/Src/stm32f429i_discovery.c ****   * @brief  Writes a byte to device.
 689:Core/Src/stm32f429i_discovery.c ****   * @param  Value: value to be written
 690:Core/Src/stm32f429i_discovery.c ****   */
 691:Core/Src/stm32f429i_discovery.c **** static void SPIx_Write(uint16_t Value)
 692:Core/Src/stm32f429i_discovery.c **** {
 693:Core/Src/stm32f429i_discovery.c ****   HAL_StatusTypeDef status = HAL_OK;
ARM GAS  /tmp/ccMsMeuK.s 			page 14


 694:Core/Src/stm32f429i_discovery.c ****   
 695:Core/Src/stm32f429i_discovery.c ****   status = HAL_SPI_Transmit(&SpiHandle, (uint8_t*) &Value, 1, SpixTimeout);
 696:Core/Src/stm32f429i_discovery.c ****   
 697:Core/Src/stm32f429i_discovery.c ****   /* Check the communication status */
 698:Core/Src/stm32f429i_discovery.c ****   if(status != HAL_OK)
 699:Core/Src/stm32f429i_discovery.c ****   {
 700:Core/Src/stm32f429i_discovery.c ****     /* Re-Initialize the BUS */
 701:Core/Src/stm32f429i_discovery.c ****     SPIx_Error();
 702:Core/Src/stm32f429i_discovery.c ****   }
 703:Core/Src/stm32f429i_discovery.c **** }
 704:Core/Src/stm32f429i_discovery.c **** 
 705:Core/Src/stm32f429i_discovery.c **** /**
 706:Core/Src/stm32f429i_discovery.c ****   * @brief  Sends a Byte through the SPI interface and return the Byte received 
 707:Core/Src/stm32f429i_discovery.c ****   *         from the SPI bus.
 708:Core/Src/stm32f429i_discovery.c ****   * @param  Byte: Byte send.
 709:Core/Src/stm32f429i_discovery.c ****   * @retval The received byte value
 710:Core/Src/stm32f429i_discovery.c ****   */
 711:Core/Src/stm32f429i_discovery.c **** static uint8_t SPIx_WriteRead(uint8_t Byte)
 712:Core/Src/stm32f429i_discovery.c **** {
 713:Core/Src/stm32f429i_discovery.c ****   uint8_t receivedbyte = 0;
 714:Core/Src/stm32f429i_discovery.c ****   
 715:Core/Src/stm32f429i_discovery.c ****   /* Send a Byte through the SPI peripheral */
 716:Core/Src/stm32f429i_discovery.c ****   /* Read byte from the SPI bus */
 717:Core/Src/stm32f429i_discovery.c ****   if(HAL_SPI_TransmitReceive(&SpiHandle, (uint8_t*) &Byte, (uint8_t*) &receivedbyte, 1, SpixTimeout
 718:Core/Src/stm32f429i_discovery.c ****   {
 719:Core/Src/stm32f429i_discovery.c ****     SPIx_Error();
 720:Core/Src/stm32f429i_discovery.c ****   }
 721:Core/Src/stm32f429i_discovery.c ****   
 722:Core/Src/stm32f429i_discovery.c ****   return receivedbyte;
 723:Core/Src/stm32f429i_discovery.c **** }
 724:Core/Src/stm32f429i_discovery.c **** 
 725:Core/Src/stm32f429i_discovery.c **** /**
 726:Core/Src/stm32f429i_discovery.c ****   * @brief  SPIx error treatment function.
 727:Core/Src/stm32f429i_discovery.c ****   */
 728:Core/Src/stm32f429i_discovery.c **** static void SPIx_Error(void)
 729:Core/Src/stm32f429i_discovery.c **** {
 730:Core/Src/stm32f429i_discovery.c ****   /* De-initialize the SPI communication BUS */
 731:Core/Src/stm32f429i_discovery.c ****   HAL_SPI_DeInit(&SpiHandle);
 732:Core/Src/stm32f429i_discovery.c ****   
 733:Core/Src/stm32f429i_discovery.c ****   /* Re- Initialize the SPI communication BUS */
 734:Core/Src/stm32f429i_discovery.c ****   SPIx_Init();
 735:Core/Src/stm32f429i_discovery.c **** }
 736:Core/Src/stm32f429i_discovery.c **** 
 737:Core/Src/stm32f429i_discovery.c **** /**
 738:Core/Src/stm32f429i_discovery.c ****   * @brief  SPI MSP Init.
 739:Core/Src/stm32f429i_discovery.c ****   * @param  hspi: SPI handle
 740:Core/Src/stm32f429i_discovery.c ****   */
 741:Core/Src/stm32f429i_discovery.c **** static void SPIx_MspInit(SPI_HandleTypeDef *hspi)
 742:Core/Src/stm32f429i_discovery.c **** {
 743:Core/Src/stm32f429i_discovery.c ****   GPIO_InitTypeDef   GPIO_InitStructure;
 744:Core/Src/stm32f429i_discovery.c **** 
 745:Core/Src/stm32f429i_discovery.c ****   /* Enable SPIx clock */
 746:Core/Src/stm32f429i_discovery.c ****   DISCOVERY_SPIx_CLK_ENABLE();
  49              		.loc 1 746 3 view .LVU4
  50 0006 1F4A     		ldr	r2, .L4+4
  51              	.LBE31:
  52              	.LBE30:
ARM GAS  /tmp/ccMsMeuK.s 			page 15


  53              	.LBE29:
 637:Core/Src/stm32f429i_discovery.c ****     /* SPI baudrate is set to 5.6 MHz (PCLK2/SPI_BaudRatePrescaler = 90/16 = 5.625 MHz) 
  54              		.loc 1 637 24 view .LVU5
  55 0008 1F49     		ldr	r1, .L4+8
  56 000a 2160     		str	r1, [r4]
 644:Core/Src/stm32f429i_discovery.c **** 
  57              		.loc 1 644 5 is_stmt 1 view .LVU6
 649:Core/Src/stm32f429i_discovery.c ****     SpiHandle.Init.CLKPhase       = SPI_PHASE_1EDGE;
  58              		.loc 1 649 35 is_stmt 0 view .LVU7
  59 000c 0023     		movs	r3, #0
  60              	.LBB50:
  61              	.LBB40:
  62              	.LBB32:
  63              		.loc 1 746 3 view .LVU8
  64 000e 0193     		str	r3, [sp, #4]
  65 0010 516C     		ldr	r1, [r2, #68]
  66 0012 41F48011 		orr	r1, r1, #1048576
  67 0016 5164     		str	r1, [r2, #68]
  68 0018 516C     		ldr	r1, [r2, #68]
  69 001a 01F48011 		and	r1, r1, #1048576
  70 001e 0191     		str	r1, [sp, #4]
  71              	.LBE32:
  72              	.LBE40:
  73              	.LBE50:
 644:Core/Src/stm32f429i_discovery.c **** 
  74              		.loc 1 644 38 view .LVU9
  75 0020 1820     		movs	r0, #24
  76              	.LBB51:
  77              	.LBB41:
  78              	.LBB33:
  79              		.loc 1 746 3 view .LVU10
  80 0022 0199     		ldr	r1, [sp, #4]
  81              	.LBE33:
  82              	.LBE41:
  83              	.LBE51:
 644:Core/Src/stm32f429i_discovery.c **** 
  84              		.loc 1 644 38 view .LVU11
  85 0024 E061     		str	r0, [r4, #28]
 649:Core/Src/stm32f429i_discovery.c ****     SpiHandle.Init.CLKPhase       = SPI_PHASE_1EDGE;
  86              		.loc 1 649 5 is_stmt 1 view .LVU12
  87              	.LBB52:
  88              	.LBB42:
  89              	.LBB34:
 747:Core/Src/stm32f429i_discovery.c **** 
 748:Core/Src/stm32f429i_discovery.c ****   /* Enable DISCOVERY_SPI GPIO clock */
 749:Core/Src/stm32f429i_discovery.c ****   DISCOVERY_SPIx_GPIO_CLK_ENABLE();
  90              		.loc 1 749 3 is_stmt 0 view .LVU13
  91 0026 0293     		str	r3, [sp, #8]
  92 0028 116B     		ldr	r1, [r2, #48]
  93              	.LBE34:
  94              	.LBE42:
  95              	.LBE52:
 649:Core/Src/stm32f429i_discovery.c ****     SpiHandle.Init.CLKPhase       = SPI_PHASE_1EDGE;
  96              		.loc 1 649 35 view .LVU14
  97 002a A360     		str	r3, [r4, #8]
 650:Core/Src/stm32f429i_discovery.c ****     SpiHandle.Init.CLKPolarity    = SPI_POLARITY_LOW;
  98              		.loc 1 650 5 is_stmt 1 view .LVU15
ARM GAS  /tmp/ccMsMeuK.s 			page 16


  99              	.LBB53:
 100              	.LBB43:
 101              	.LBB35:
 102              		.loc 1 749 3 is_stmt 0 view .LVU16
 103 002c 41F02001 		orr	r1, r1, #32
 104 0030 1163     		str	r1, [r2, #48]
 105 0032 126B     		ldr	r2, [r2, #48]
 106              	.LBE35:
 107              	.LBE43:
 108              	.LBE53:
 650:Core/Src/stm32f429i_discovery.c ****     SpiHandle.Init.CLKPolarity    = SPI_POLARITY_LOW;
 109              		.loc 1 650 35 view .LVU17
 110 0034 6361     		str	r3, [r4, #20]
 651:Core/Src/stm32f429i_discovery.c ****     SpiHandle.Init.CRCCalculation = SPI_CRCCALCULATION_DISABLED;
 111              		.loc 1 651 5 is_stmt 1 view .LVU18
 112              	.LBB54:
 113              	.LBB44:
 114              	.LBB36:
 115              		.loc 1 749 3 is_stmt 0 view .LVU19
 116 0036 02F02002 		and	r2, r2, #32
 117 003a 0292     		str	r2, [sp, #8]
 118              	.LBE36:
 119              	.LBE44:
 120              	.LBE54:
 657:Core/Src/stm32f429i_discovery.c ****     SpiHandle.Init.Mode           = SPI_MODE_MASTER;
 121              		.loc 1 657 35 view .LVU20
 122 003c C4E90833 		strd	r3, r3, [r4, #32]
 651:Core/Src/stm32f429i_discovery.c ****     SpiHandle.Init.CRCCalculation = SPI_CRCCALCULATION_DISABLED;
 123              		.loc 1 651 35 view .LVU21
 124 0040 2361     		str	r3, [r4, #16]
 652:Core/Src/stm32f429i_discovery.c ****     SpiHandle.Init.CRCPolynomial  = 7;
 125              		.loc 1 652 5 is_stmt 1 view .LVU22
 652:Core/Src/stm32f429i_discovery.c ****     SpiHandle.Init.CRCPolynomial  = 7;
 126              		.loc 1 652 35 is_stmt 0 view .LVU23
 127 0042 A362     		str	r3, [r4, #40]
 653:Core/Src/stm32f429i_discovery.c ****     SpiHandle.Init.DataSize       = SPI_DATASIZE_8BIT;
 128              		.loc 1 653 5 is_stmt 1 view .LVU24
 654:Core/Src/stm32f429i_discovery.c ****     SpiHandle.Init.FirstBit       = SPI_FIRSTBIT_MSB;
 129              		.loc 1 654 35 is_stmt 0 view .LVU25
 130 0044 E360     		str	r3, [r4, #12]
 131              	.LBB55:
 132              	.LBB45:
 750:Core/Src/stm32f429i_discovery.c **** 
 751:Core/Src/stm32f429i_discovery.c ****   /* configure SPI SCK, MOSI and MISO */    
 752:Core/Src/stm32f429i_discovery.c ****   GPIO_InitStructure.Pin    = (DISCOVERY_SPIx_SCK_PIN | DISCOVERY_SPIx_MOSI_PIN | DISCOVERY_SPIx_MI
 133              		.loc 1 752 29 view .LVU26
 134 0046 4FF46072 		mov	r2, #896
 135              	.LBE45:
 136              	.LBE55:
 658:Core/Src/stm32f429i_discovery.c ****   
 137              		.loc 1 658 35 view .LVU27
 138 004a 4FF48273 		mov	r3, #260
 139 004e 6360     		str	r3, [r4, #4]
 140              	.LBB56:
 141              	.LBB46:
 142              		.loc 1 752 29 view .LVU28
 143 0050 0392     		str	r2, [sp, #12]
ARM GAS  /tmp/ccMsMeuK.s 			page 17


 753:Core/Src/stm32f429i_discovery.c ****   GPIO_InitStructure.Mode   = GPIO_MODE_AF_PP;
 754:Core/Src/stm32f429i_discovery.c ****   GPIO_InitStructure.Pull   = GPIO_PULLDOWN;
 755:Core/Src/stm32f429i_discovery.c ****   GPIO_InitStructure.Speed  = GPIO_SPEED_MEDIUM;
 756:Core/Src/stm32f429i_discovery.c ****   GPIO_InitStructure.Alternate = DISCOVERY_SPIx_AF;
 144              		.loc 1 756 32 view .LVU29
 145 0052 0523     		movs	r3, #5
 755:Core/Src/stm32f429i_discovery.c ****   GPIO_InitStructure.Alternate = DISCOVERY_SPIx_AF;
 146              		.loc 1 755 29 view .LVU30
 147 0054 0122     		movs	r2, #1
 148              	.LBB37:
 749:Core/Src/stm32f429i_discovery.c **** 
 149              		.loc 1 749 3 view .LVU31
 150 0056 0299     		ldr	r1, [sp, #8]
 151              	.LBE37:
 755:Core/Src/stm32f429i_discovery.c ****   GPIO_InitStructure.Alternate = DISCOVERY_SPIx_AF;
 152              		.loc 1 755 29 view .LVU32
 153 0058 0692     		str	r2, [sp, #24]
 154              		.loc 1 756 32 view .LVU33
 155 005a 0793     		str	r3, [sp, #28]
 156              	.LBE46:
 157              	.LBE56:
 653:Core/Src/stm32f429i_discovery.c ****     SpiHandle.Init.DataSize       = SPI_DATASIZE_8BIT;
 158              		.loc 1 653 35 view .LVU34
 159 005c 0722     		movs	r2, #7
 656:Core/Src/stm32f429i_discovery.c ****     SpiHandle.Init.TIMode         = SPI_TIMODE_DISABLED;
 160              		.loc 1 656 35 view .LVU35
 161 005e 4FF40073 		mov	r3, #512
 162              	.LBB57:
 163              	.LBB47:
 757:Core/Src/stm32f429i_discovery.c ****   HAL_GPIO_Init(DISCOVERY_SPIx_GPIO_PORT, &GPIO_InitStructure);      
 164              		.loc 1 757 3 view .LVU36
 165 0062 0A48     		ldr	r0, .L4+12
 166              	.LBE47:
 167              	.LBE57:
 653:Core/Src/stm32f429i_discovery.c ****     SpiHandle.Init.DataSize       = SPI_DATASIZE_8BIT;
 168              		.loc 1 653 35 view .LVU37
 169 0064 E262     		str	r2, [r4, #44]
 654:Core/Src/stm32f429i_discovery.c ****     SpiHandle.Init.FirstBit       = SPI_FIRSTBIT_MSB;
 170              		.loc 1 654 5 is_stmt 1 view .LVU38
 655:Core/Src/stm32f429i_discovery.c ****     SpiHandle.Init.NSS            = SPI_NSS_SOFT;
 171              		.loc 1 655 5 view .LVU39
 656:Core/Src/stm32f429i_discovery.c ****     SpiHandle.Init.TIMode         = SPI_TIMODE_DISABLED;
 172              		.loc 1 656 5 view .LVU40
 173              	.LBB58:
 174              	.LBB48:
 753:Core/Src/stm32f429i_discovery.c ****   GPIO_InitStructure.Pull   = GPIO_PULLDOWN;
 175              		.loc 1 753 29 is_stmt 0 view .LVU41
 176 0066 0225     		movs	r5, #2
 177              		.loc 1 757 3 view .LVU42
 178 0068 03A9     		add	r1, sp, #12
 754:Core/Src/stm32f429i_discovery.c ****   GPIO_InitStructure.Speed  = GPIO_SPEED_MEDIUM;
 179              		.loc 1 754 29 view .LVU43
 180 006a CDE90455 		strd	r5, r5, [sp, #16]
 181              	.LBE48:
 182              	.LBE58:
 656:Core/Src/stm32f429i_discovery.c ****     SpiHandle.Init.TIMode         = SPI_TIMODE_DISABLED;
 183              		.loc 1 656 35 view .LVU44
ARM GAS  /tmp/ccMsMeuK.s 			page 18


 184 006e A361     		str	r3, [r4, #24]
 657:Core/Src/stm32f429i_discovery.c ****     SpiHandle.Init.Mode           = SPI_MODE_MASTER;
 185              		.loc 1 657 5 is_stmt 1 view .LVU45
 658:Core/Src/stm32f429i_discovery.c ****   
 186              		.loc 1 658 5 view .LVU46
 660:Core/Src/stm32f429i_discovery.c ****     HAL_SPI_Init(&SpiHandle);
 187              		.loc 1 660 5 view .LVU47
 188              	.LBB59:
 189              	.LBI29:
 741:Core/Src/stm32f429i_discovery.c **** {
 190              		.loc 1 741 13 view .LVU48
 191              	.LVL0:
 192              	.LBB49:
 743:Core/Src/stm32f429i_discovery.c **** 
 193              		.loc 1 743 3 view .LVU49
 746:Core/Src/stm32f429i_discovery.c **** 
 194              		.loc 1 746 3 view .LVU50
 195              	.LBB38:
 746:Core/Src/stm32f429i_discovery.c **** 
 196              		.loc 1 746 3 view .LVU51
 746:Core/Src/stm32f429i_discovery.c **** 
 197              		.loc 1 746 3 view .LVU52
 746:Core/Src/stm32f429i_discovery.c **** 
 198              		.loc 1 746 3 view .LVU53
 746:Core/Src/stm32f429i_discovery.c **** 
 199              		.loc 1 746 3 view .LVU54
 200              	.LBE38:
 746:Core/Src/stm32f429i_discovery.c **** 
 201              		.loc 1 746 3 view .LVU55
 749:Core/Src/stm32f429i_discovery.c **** 
 202              		.loc 1 749 3 view .LVU56
 203              	.LBB39:
 749:Core/Src/stm32f429i_discovery.c **** 
 204              		.loc 1 749 3 view .LVU57
 749:Core/Src/stm32f429i_discovery.c **** 
 205              		.loc 1 749 3 view .LVU58
 749:Core/Src/stm32f429i_discovery.c **** 
 206              		.loc 1 749 3 view .LVU59
 749:Core/Src/stm32f429i_discovery.c **** 
 207              		.loc 1 749 3 view .LVU60
 208              	.LBE39:
 749:Core/Src/stm32f429i_discovery.c **** 
 209              		.loc 1 749 3 view .LVU61
 752:Core/Src/stm32f429i_discovery.c ****   GPIO_InitStructure.Mode   = GPIO_MODE_AF_PP;
 210              		.loc 1 752 3 view .LVU62
 753:Core/Src/stm32f429i_discovery.c ****   GPIO_InitStructure.Pull   = GPIO_PULLDOWN;
 211              		.loc 1 753 3 view .LVU63
 754:Core/Src/stm32f429i_discovery.c ****   GPIO_InitStructure.Speed  = GPIO_SPEED_MEDIUM;
 212              		.loc 1 754 3 view .LVU64
 755:Core/Src/stm32f429i_discovery.c ****   GPIO_InitStructure.Alternate = DISCOVERY_SPIx_AF;
 213              		.loc 1 755 3 view .LVU65
 756:Core/Src/stm32f429i_discovery.c ****   HAL_GPIO_Init(DISCOVERY_SPIx_GPIO_PORT, &GPIO_InitStructure);      
 214              		.loc 1 756 3 view .LVU66
 215              		.loc 1 757 3 view .LVU67
 216 0070 FFF7FEFF 		bl	HAL_GPIO_Init
 217              	.LVL1:
 218              		.loc 1 757 3 is_stmt 0 view .LVU68
ARM GAS  /tmp/ccMsMeuK.s 			page 19


 219              	.LBE49:
 220              	.LBE59:
 661:Core/Src/stm32f429i_discovery.c ****   } 
 221              		.loc 1 661 5 is_stmt 1 view .LVU69
 222 0074 2046     		mov	r0, r4
 663:Core/Src/stm32f429i_discovery.c **** 
 223              		.loc 1 663 1 is_stmt 0 view .LVU70
 224 0076 09B0     		add	sp, sp, #36
 225              	.LCFI2:
 226              		.cfi_def_cfa_offset 12
 227              		@ sp needed
 228 0078 BDE83040 		pop	{r4, r5, lr}
 229              	.LCFI3:
 230              		.cfi_restore 14
 231              		.cfi_restore 5
 232              		.cfi_restore 4
 233              		.cfi_def_cfa_offset 0
 661:Core/Src/stm32f429i_discovery.c ****   } 
 234              		.loc 1 661 5 view .LVU71
 235 007c FFF7FEBF 		b	HAL_SPI_Init
 236              	.LVL2:
 237              	.L5:
 238              		.align	2
 239              	.L4:
 240 0080 00000000 		.word	.LANCHOR0
 241 0084 00380240 		.word	1073887232
 242 0088 00500140 		.word	1073827840
 243 008c 00140240 		.word	1073878016
 244              		.cfi_endproc
 245              	.LFE166:
 247              		.section	.text.I2Cx_Init.part.0,"ax",%progbits
 248              		.align	1
 249              		.p2align 2,,3
 250              		.syntax unified
 251              		.thumb
 252              		.thumb_func
 254              	I2Cx_Init.part.0:
 255              	.LFB168:
 420:Core/Src/stm32f429i_discovery.c **** {
 256              		.loc 1 420 13 is_stmt 1 view -0
 257              		.cfi_startproc
 258              		@ args = 0, pretend = 0, frame = 32
 259              		@ frame_needed = 0, uses_anonymous_args = 0
 424:Core/Src/stm32f429i_discovery.c ****     I2cHandle.Init.ClockSpeed       = BSP_I2C_SPEED;
 260              		.loc 1 424 5 view .LVU73
 420:Core/Src/stm32f429i_discovery.c **** {
 261              		.loc 1 420 13 is_stmt 0 view .LVU74
 262 0000 70B5     		push	{r4, r5, r6, lr}
 263              	.LCFI4:
 264              		.cfi_def_cfa_offset 16
 265              		.cfi_offset 4, -16
 266              		.cfi_offset 5, -12
 267              		.cfi_offset 6, -8
 268              		.cfi_offset 14, -4
 269 0002 88B0     		sub	sp, sp, #32
 270              	.LCFI5:
 271              		.cfi_def_cfa_offset 48
ARM GAS  /tmp/ccMsMeuK.s 			page 20


 272              	.LBB65:
 273              	.LBB66:
 274              	.LBB67:
 321:Core/Src/stm32f429i_discovery.c ****     DISCOVERY_I2Cx_SCL_GPIO_CLK_ENABLE();
 275              		.loc 1 321 5 view .LVU75
 276 0004 304C     		ldr	r4, .L8
 277              	.LBE67:
 278              	.LBE66:
 279              	.LBE65:
 424:Core/Src/stm32f429i_discovery.c ****     I2cHandle.Init.ClockSpeed       = BSP_I2C_SPEED;
 280              		.loc 1 424 37 view .LVU76
 281 0006 314E     		ldr	r6, .L8+4
 282 0008 314B     		ldr	r3, .L8+8
 283 000a 3360     		str	r3, [r6]
 425:Core/Src/stm32f429i_discovery.c ****     I2cHandle.Init.DutyCycle        = I2C_DUTYCYCLE_2;
 284              		.loc 1 425 5 is_stmt 1 view .LVU77
 426:Core/Src/stm32f429i_discovery.c ****     I2cHandle.Init.OwnAddress1      = 0;
 285              		.loc 1 426 37 is_stmt 0 view .LVU78
 286 000c 0025     		movs	r5, #0
 287              	.LBB86:
 288              	.LBB78:
 289              	.LBB68:
 321:Core/Src/stm32f429i_discovery.c ****     DISCOVERY_I2Cx_SCL_GPIO_CLK_ENABLE();
 290              		.loc 1 321 5 view .LVU79
 291 000e 0095     		str	r5, [sp]
 292 0010 236B     		ldr	r3, [r4, #48]
 293              	.LBE68:
 294              	.LBE78:
 295              	.LBE86:
 425:Core/Src/stm32f429i_discovery.c ****     I2cHandle.Init.DutyCycle        = I2C_DUTYCYCLE_2;
 296              		.loc 1 425 37 view .LVU80
 297 0012 304A     		ldr	r2, .L8+12
 298              	.LBB87:
 299              	.LBB79:
 330:Core/Src/stm32f429i_discovery.c ****       
 300              		.loc 1 330 5 view .LVU81
 301 0014 3048     		ldr	r0, .L8+16
 302              	.LBB69:
 321:Core/Src/stm32f429i_discovery.c ****     DISCOVERY_I2Cx_SCL_GPIO_CLK_ENABLE();
 303              		.loc 1 321 5 view .LVU82
 304 0016 43F00403 		orr	r3, r3, #4
 305 001a 2363     		str	r3, [r4, #48]
 306 001c 236B     		ldr	r3, [r4, #48]
 307              	.LBE69:
 308              	.LBE79:
 309              	.LBE87:
 425:Core/Src/stm32f429i_discovery.c ****     I2cHandle.Init.DutyCycle        = I2C_DUTYCYCLE_2;
 310              		.loc 1 425 37 view .LVU83
 311 001e 7260     		str	r2, [r6, #4]
 426:Core/Src/stm32f429i_discovery.c ****     I2cHandle.Init.OwnAddress1      = 0;
 312              		.loc 1 426 5 is_stmt 1 view .LVU84
 313              	.LBB88:
 314              	.LBB80:
 315              	.LBB70:
 321:Core/Src/stm32f429i_discovery.c ****     DISCOVERY_I2Cx_SCL_GPIO_CLK_ENABLE();
 316              		.loc 1 321 5 is_stmt 0 view .LVU85
 317 0020 03F00403 		and	r3, r3, #4
ARM GAS  /tmp/ccMsMeuK.s 			page 21


 318 0024 0093     		str	r3, [sp]
 319 0026 009B     		ldr	r3, [sp]
 320              	.LBE70:
 321              	.LBB71:
 322:Core/Src/stm32f429i_discovery.c ****       
 322              		.loc 1 322 5 view .LVU86
 323 0028 0195     		str	r5, [sp, #4]
 324 002a 236B     		ldr	r3, [r4, #48]
 325              	.LBE71:
 326              	.LBE80:
 327              	.LBE88:
 426:Core/Src/stm32f429i_discovery.c ****     I2cHandle.Init.OwnAddress1      = 0;
 328              		.loc 1 426 37 view .LVU87
 329 002c B560     		str	r5, [r6, #8]
 427:Core/Src/stm32f429i_discovery.c ****     I2cHandle.Init.AddressingMode   = I2C_ADDRESSINGMODE_7BIT;
 330              		.loc 1 427 5 is_stmt 1 view .LVU88
 331              	.LBB89:
 332              	.LBB81:
 333              	.LBB72:
 322:Core/Src/stm32f429i_discovery.c ****       
 334              		.loc 1 322 5 is_stmt 0 view .LVU89
 335 002e 43F00103 		orr	r3, r3, #1
 336 0032 2363     		str	r3, [r4, #48]
 337 0034 236B     		ldr	r3, [r4, #48]
 338              	.LBE72:
 339              	.LBE81:
 340              	.LBE89:
 427:Core/Src/stm32f429i_discovery.c ****     I2cHandle.Init.AddressingMode   = I2C_ADDRESSINGMODE_7BIT;
 341              		.loc 1 427 37 view .LVU90
 342 0036 F560     		str	r5, [r6, #12]
 428:Core/Src/stm32f429i_discovery.c ****     I2cHandle.Init.DualAddressMode  = I2C_DUALADDRESS_DISABLED;
 343              		.loc 1 428 5 is_stmt 1 view .LVU91
 344              	.LBB90:
 345              	.LBB82:
 346              	.LBB73:
 322:Core/Src/stm32f429i_discovery.c ****       
 347              		.loc 1 322 5 is_stmt 0 view .LVU92
 348 0038 03F00103 		and	r3, r3, #1
 349 003c 0193     		str	r3, [sp, #4]
 350              	.LBE73:
 325:Core/Src/stm32f429i_discovery.c ****     GPIO_InitStruct.Mode      = GPIO_MODE_AF_OD;
 351              		.loc 1 325 31 view .LVU93
 352 003e 4FF48073 		mov	r3, #256
 353 0042 0393     		str	r3, [sp, #12]
 326:Core/Src/stm32f429i_discovery.c ****     GPIO_InitStruct.Pull      = GPIO_NOPULL;
 354              		.loc 1 326 31 view .LVU94
 355 0044 1223     		movs	r3, #18
 356 0046 0493     		str	r3, [sp, #16]
 328:Core/Src/stm32f429i_discovery.c ****     GPIO_InitStruct.Alternate = DISCOVERY_I2Cx_SCL_SDA_AF;
 357              		.loc 1 328 31 view .LVU95
 358 0048 0223     		movs	r3, #2
 359 004a CDE90553 		strd	r5, r3, [sp, #20]
 329:Core/Src/stm32f429i_discovery.c ****     HAL_GPIO_Init(DISCOVERY_I2Cx_SCL_GPIO_PORT, &GPIO_InitStruct);
 360              		.loc 1 329 31 view .LVU96
 361 004e 0423     		movs	r3, #4
 362 0050 0793     		str	r3, [sp, #28]
 330:Core/Src/stm32f429i_discovery.c ****       
ARM GAS  /tmp/ccMsMeuK.s 			page 22


 363              		.loc 1 330 5 view .LVU97
 364 0052 03A9     		add	r1, sp, #12
 365              	.LBE82:
 366              	.LBE90:
 428:Core/Src/stm32f429i_discovery.c ****     I2cHandle.Init.DualAddressMode  = I2C_DUALADDRESS_DISABLED;
 367              		.loc 1 428 37 view .LVU98
 368 0054 4FF48043 		mov	r3, #16384
 369              	.LBB91:
 370              	.LBB83:
 371              	.LBB74:
 322:Core/Src/stm32f429i_discovery.c ****       
 372              		.loc 1 322 5 view .LVU99
 373 0058 019A     		ldr	r2, [sp, #4]
 374              	.LBE74:
 375              	.LBE83:
 376              	.LBE91:
 428:Core/Src/stm32f429i_discovery.c ****     I2cHandle.Init.DualAddressMode  = I2C_DUALADDRESS_DISABLED;
 377              		.loc 1 428 37 view .LVU100
 378 005a 3361     		str	r3, [r6, #16]
 429:Core/Src/stm32f429i_discovery.c ****     I2cHandle.Init.OwnAddress2      = 0;
 379              		.loc 1 429 5 is_stmt 1 view .LVU101
 430:Core/Src/stm32f429i_discovery.c ****     I2cHandle.Init.GeneralCallMode  = I2C_GENERALCALL_DISABLED;
 380              		.loc 1 430 5 view .LVU102
 431:Core/Src/stm32f429i_discovery.c ****     I2cHandle.Init.NoStretchMode    = I2C_NOSTRETCH_DISABLED;  
 381              		.loc 1 431 5 view .LVU103
 432:Core/Src/stm32f429i_discovery.c ****     
 382              		.loc 1 432 5 view .LVU104
 435:Core/Src/stm32f429i_discovery.c ****     HAL_I2C_Init(&I2cHandle);
 383              		.loc 1 435 5 view .LVU105
 384              	.LBB92:
 385              	.LBI65:
 306:Core/Src/stm32f429i_discovery.c **** {
 386              		.loc 1 306 13 view .LVU106
 387              	.LVL3:
 388              	.LBB84:
 308:Core/Src/stm32f429i_discovery.c **** #ifdef EE_M24LR64
 389              		.loc 1 308 3 view .LVU107
 317:Core/Src/stm32f429i_discovery.c ****   {
 390              		.loc 1 317 3 view .LVU108
 321:Core/Src/stm32f429i_discovery.c ****     DISCOVERY_I2Cx_SCL_GPIO_CLK_ENABLE();
 391              		.loc 1 321 5 view .LVU109
 392              	.LBB75:
 321:Core/Src/stm32f429i_discovery.c ****     DISCOVERY_I2Cx_SCL_GPIO_CLK_ENABLE();
 393              		.loc 1 321 5 view .LVU110
 321:Core/Src/stm32f429i_discovery.c ****     DISCOVERY_I2Cx_SCL_GPIO_CLK_ENABLE();
 394              		.loc 1 321 5 view .LVU111
 321:Core/Src/stm32f429i_discovery.c ****     DISCOVERY_I2Cx_SCL_GPIO_CLK_ENABLE();
 395              		.loc 1 321 5 view .LVU112
 321:Core/Src/stm32f429i_discovery.c ****     DISCOVERY_I2Cx_SCL_GPIO_CLK_ENABLE();
 396              		.loc 1 321 5 view .LVU113
 397              	.LBE75:
 321:Core/Src/stm32f429i_discovery.c ****     DISCOVERY_I2Cx_SCL_GPIO_CLK_ENABLE();
 398              		.loc 1 321 5 view .LVU114
 322:Core/Src/stm32f429i_discovery.c ****       
 399              		.loc 1 322 5 view .LVU115
 400              	.LBB76:
 322:Core/Src/stm32f429i_discovery.c ****       
ARM GAS  /tmp/ccMsMeuK.s 			page 23


 401              		.loc 1 322 5 view .LVU116
 322:Core/Src/stm32f429i_discovery.c ****       
 402              		.loc 1 322 5 view .LVU117
 322:Core/Src/stm32f429i_discovery.c ****       
 403              		.loc 1 322 5 view .LVU118
 322:Core/Src/stm32f429i_discovery.c ****       
 404              		.loc 1 322 5 view .LVU119
 405              	.LBE76:
 322:Core/Src/stm32f429i_discovery.c ****       
 406              		.loc 1 322 5 view .LVU120
 325:Core/Src/stm32f429i_discovery.c ****     GPIO_InitStruct.Mode      = GPIO_MODE_AF_OD;
 407              		.loc 1 325 5 view .LVU121
 326:Core/Src/stm32f429i_discovery.c ****     GPIO_InitStruct.Pull      = GPIO_NOPULL;
 408              		.loc 1 326 5 view .LVU122
 327:Core/Src/stm32f429i_discovery.c ****     GPIO_InitStruct.Speed     = GPIO_SPEED_FAST;
 409              		.loc 1 327 5 view .LVU123
 328:Core/Src/stm32f429i_discovery.c ****     GPIO_InitStruct.Alternate = DISCOVERY_I2Cx_SCL_SDA_AF;
 410              		.loc 1 328 5 view .LVU124
 329:Core/Src/stm32f429i_discovery.c ****     HAL_GPIO_Init(DISCOVERY_I2Cx_SCL_GPIO_PORT, &GPIO_InitStruct);
 411              		.loc 1 329 5 view .LVU125
 330:Core/Src/stm32f429i_discovery.c ****       
 412              		.loc 1 330 5 view .LVU126
 413              	.LBE84:
 414              	.LBE92:
 430:Core/Src/stm32f429i_discovery.c ****     I2cHandle.Init.GeneralCallMode  = I2C_GENERALCALL_DISABLED;
 415              		.loc 1 430 37 is_stmt 0 view .LVU127
 416 005c C6E90555 		strd	r5, r5, [r6, #20]
 432:Core/Src/stm32f429i_discovery.c ****     
 417              		.loc 1 432 37 view .LVU128
 418 0060 C6E90755 		strd	r5, r5, [r6, #28]
 419              	.LBB93:
 420              	.LBB85:
 330:Core/Src/stm32f429i_discovery.c ****       
 421              		.loc 1 330 5 view .LVU129
 422 0064 FFF7FEFF 		bl	HAL_GPIO_Init
 423              	.LVL4:
 333:Core/Src/stm32f429i_discovery.c ****     HAL_GPIO_Init(DISCOVERY_I2Cx_SDA_GPIO_PORT, &GPIO_InitStruct);
 424              		.loc 1 333 5 is_stmt 1 view .LVU130
 334:Core/Src/stm32f429i_discovery.c ****     
 425              		.loc 1 334 5 is_stmt 0 view .LVU131
 426 0068 03A9     		add	r1, sp, #12
 333:Core/Src/stm32f429i_discovery.c ****     HAL_GPIO_Init(DISCOVERY_I2Cx_SDA_GPIO_PORT, &GPIO_InitStruct);
 427              		.loc 1 333 25 view .LVU132
 428 006a 4FF40073 		mov	r3, #512
 334:Core/Src/stm32f429i_discovery.c ****     
 429              		.loc 1 334 5 view .LVU133
 430 006e 1B48     		ldr	r0, .L8+20
 333:Core/Src/stm32f429i_discovery.c ****     HAL_GPIO_Init(DISCOVERY_I2Cx_SDA_GPIO_PORT, &GPIO_InitStruct);
 431              		.loc 1 333 25 view .LVU134
 432 0070 0393     		str	r3, [sp, #12]
 334:Core/Src/stm32f429i_discovery.c ****     
 433              		.loc 1 334 5 is_stmt 1 view .LVU135
 434 0072 FFF7FEFF 		bl	HAL_GPIO_Init
 435              	.LVL5:
 339:Core/Src/stm32f429i_discovery.c ****     
 436              		.loc 1 339 5 view .LVU136
 437              	.LBB77:
ARM GAS  /tmp/ccMsMeuK.s 			page 24


 339:Core/Src/stm32f429i_discovery.c ****     
 438              		.loc 1 339 5 view .LVU137
 439 0076 0295     		str	r5, [sp, #8]
 339:Core/Src/stm32f429i_discovery.c ****     
 440              		.loc 1 339 5 view .LVU138
 441 0078 236C     		ldr	r3, [r4, #64]
 442 007a 43F40003 		orr	r3, r3, #8388608
 443 007e 2364     		str	r3, [r4, #64]
 339:Core/Src/stm32f429i_discovery.c ****     
 444              		.loc 1 339 5 view .LVU139
 445 0080 236C     		ldr	r3, [r4, #64]
 446 0082 03F40003 		and	r3, r3, #8388608
 447 0086 0293     		str	r3, [sp, #8]
 339:Core/Src/stm32f429i_discovery.c ****     
 448              		.loc 1 339 5 view .LVU140
 449 0088 029B     		ldr	r3, [sp, #8]
 450              	.LBE77:
 339:Core/Src/stm32f429i_discovery.c ****     
 451              		.loc 1 339 5 view .LVU141
 342:Core/Src/stm32f429i_discovery.c ****       
 452              		.loc 1 342 5 view .LVU142
 453 008a 236A     		ldr	r3, [r4, #32]
 454 008c 43F40003 		orr	r3, r3, #8388608
 455 0090 2362     		str	r3, [r4, #32]
 345:Core/Src/stm32f429i_discovery.c ****     
 456              		.loc 1 345 5 view .LVU143
 457 0092 236A     		ldr	r3, [r4, #32]
 458 0094 23F40003 		bic	r3, r3, #8388608
 459 0098 2362     		str	r3, [r4, #32]
 348:Core/Src/stm32f429i_discovery.c ****     HAL_NVIC_EnableIRQ(DISCOVERY_I2Cx_EV_IRQn);
 460              		.loc 1 348 5 view .LVU144
 461 009a 2A46     		mov	r2, r5
 462 009c 0F21     		movs	r1, #15
 463 009e 4820     		movs	r0, #72
 464 00a0 FFF7FEFF 		bl	HAL_NVIC_SetPriority
 465              	.LVL6:
 349:Core/Src/stm32f429i_discovery.c ****     
 466              		.loc 1 349 5 view .LVU145
 467 00a4 4820     		movs	r0, #72
 468 00a6 FFF7FEFF 		bl	HAL_NVIC_EnableIRQ
 469              	.LVL7:
 352:Core/Src/stm32f429i_discovery.c ****     HAL_NVIC_EnableIRQ(DISCOVERY_I2Cx_ER_IRQn);  
 470              		.loc 1 352 5 view .LVU146
 471 00aa 2A46     		mov	r2, r5
 472 00ac 0F21     		movs	r1, #15
 473 00ae 4920     		movs	r0, #73
 474 00b0 FFF7FEFF 		bl	HAL_NVIC_SetPriority
 475              	.LVL8:
 353:Core/Src/stm32f429i_discovery.c **** 
 476              		.loc 1 353 5 view .LVU147
 477 00b4 4920     		movs	r0, #73
 478 00b6 FFF7FEFF 		bl	HAL_NVIC_EnableIRQ
 479              	.LVL9:
 353:Core/Src/stm32f429i_discovery.c **** 
 480              		.loc 1 353 5 is_stmt 0 view .LVU148
 481              	.LBE85:
 482              	.LBE93:
ARM GAS  /tmp/ccMsMeuK.s 			page 25


 436:Core/Src/stm32f429i_discovery.c ****   }
 483              		.loc 1 436 5 is_stmt 1 view .LVU149
 484 00ba 3046     		mov	r0, r6
 438:Core/Src/stm32f429i_discovery.c **** 
 485              		.loc 1 438 1 is_stmt 0 view .LVU150
 486 00bc 08B0     		add	sp, sp, #32
 487              	.LCFI6:
 488              		.cfi_def_cfa_offset 16
 489              		@ sp needed
 490 00be BDE87040 		pop	{r4, r5, r6, lr}
 491              	.LCFI7:
 492              		.cfi_restore 14
 493              		.cfi_restore 6
 494              		.cfi_restore 5
 495              		.cfi_restore 4
 496              		.cfi_def_cfa_offset 0
 436:Core/Src/stm32f429i_discovery.c ****   }
 497              		.loc 1 436 5 view .LVU151
 498 00c2 FFF7FEBF 		b	HAL_I2C_Init
 499              	.LVL10:
 500              	.L9:
 501 00c6 00BF     		.align	2
 502              	.L8:
 503 00c8 00380240 		.word	1073887232
 504 00cc 00000000 		.word	.LANCHOR1
 505 00d0 005C0040 		.word	1073765376
 506 00d4 A0860100 		.word	100000
 507 00d8 00000240 		.word	1073872896
 508 00dc 00080240 		.word	1073874944
 509              		.cfi_endproc
 510              	.LFE168:
 512              		.section	.text.SPIx_WriteRead,"ax",%progbits
 513              		.align	1
 514              		.p2align 2,,3
 515              		.syntax unified
 516              		.thumb
 517              		.thumb_func
 519              	SPIx_WriteRead:
 520              	.LVL11:
 521              	.LFB148:
 712:Core/Src/stm32f429i_discovery.c ****   uint8_t receivedbyte = 0;
 522              		.loc 1 712 1 is_stmt 1 view -0
 523              		.cfi_startproc
 524              		@ args = 0, pretend = 0, frame = 16
 525              		@ frame_needed = 0, uses_anonymous_args = 0
 713:Core/Src/stm32f429i_discovery.c ****   
 526              		.loc 1 713 3 view .LVU153
 712:Core/Src/stm32f429i_discovery.c ****   uint8_t receivedbyte = 0;
 527              		.loc 1 712 1 is_stmt 0 view .LVU154
 528 0000 00B5     		push	{lr}
 529              	.LCFI8:
 530              		.cfi_def_cfa_offset 4
 531              		.cfi_offset 14, -4
 717:Core/Src/stm32f429i_discovery.c ****   {
 532              		.loc 1 717 6 view .LVU155
 533 0002 134B     		ldr	r3, .L16
 712:Core/Src/stm32f429i_discovery.c ****   uint8_t receivedbyte = 0;
ARM GAS  /tmp/ccMsMeuK.s 			page 26


 534              		.loc 1 712 1 view .LVU156
 535 0004 87B0     		sub	sp, sp, #28
 536              	.LCFI9:
 537              		.cfi_def_cfa_offset 32
 717:Core/Src/stm32f429i_discovery.c ****   {
 538              		.loc 1 717 6 view .LVU157
 539 0006 1B68     		ldr	r3, [r3]
 540 0008 0093     		str	r3, [sp]
 713:Core/Src/stm32f429i_discovery.c ****   
 541              		.loc 1 713 11 view .LVU158
 542 000a 0021     		movs	r1, #0
 712:Core/Src/stm32f429i_discovery.c ****   uint8_t receivedbyte = 0;
 543              		.loc 1 712 1 view .LVU159
 544 000c 8446     		mov	ip, r0
 713:Core/Src/stm32f429i_discovery.c ****   
 545              		.loc 1 713 11 view .LVU160
 546 000e 8DF81710 		strb	r1, [sp, #23]
 717:Core/Src/stm32f429i_discovery.c ****   {
 547              		.loc 1 717 3 is_stmt 1 view .LVU161
 717:Core/Src/stm32f429i_discovery.c ****   {
 548              		.loc 1 717 6 is_stmt 0 view .LVU162
 549 0012 1048     		ldr	r0, .L16+4
 550              	.LVL12:
 712:Core/Src/stm32f429i_discovery.c ****   uint8_t receivedbyte = 0;
 551              		.loc 1 712 1 view .LVU163
 552 0014 8DF80FC0 		strb	ip, [sp, #15]
 717:Core/Src/stm32f429i_discovery.c ****   {
 553              		.loc 1 717 6 view .LVU164
 554 0018 0123     		movs	r3, #1
 555 001a 0DF11702 		add	r2, sp, #23
 556 001e 0DF10F01 		add	r1, sp, #15
 557 0022 FFF7FEFF 		bl	HAL_SPI_TransmitReceive
 558              	.LVL13:
 717:Core/Src/stm32f429i_discovery.c ****   {
 559              		.loc 1 717 5 view .LVU165
 560 0026 20B9     		cbnz	r0, .L15
 561              	.L12:
 722:Core/Src/stm32f429i_discovery.c **** }
 562              		.loc 1 722 3 is_stmt 1 view .LVU166
 723:Core/Src/stm32f429i_discovery.c **** 
 563              		.loc 1 723 1 is_stmt 0 view .LVU167
 564 0028 9DF81700 		ldrb	r0, [sp, #23]	@ zero_extendqisi2
 565 002c 07B0     		add	sp, sp, #28
 566              	.LCFI10:
 567              		.cfi_remember_state
 568              		.cfi_def_cfa_offset 4
 569              		@ sp needed
 570 002e 5DF804FB 		ldr	pc, [sp], #4
 571              	.L15:
 572              	.LCFI11:
 573              		.cfi_restore_state
 574              	.LBB100:
 575              	.LBI100:
 691:Core/Src/stm32f429i_discovery.c **** {
 576              		.loc 1 691 13 is_stmt 1 view .LVU168
 577              	.LBB101:
 701:Core/Src/stm32f429i_discovery.c ****   }
ARM GAS  /tmp/ccMsMeuK.s 			page 27


 578              		.loc 1 701 5 view .LVU169
 579              	.LBB102:
 580              	.LBI102:
 728:Core/Src/stm32f429i_discovery.c **** {
 581              		.loc 1 728 13 view .LVU170
 582              	.LBB103:
 731:Core/Src/stm32f429i_discovery.c ****   
 583              		.loc 1 731 3 view .LVU171
 584 0032 0848     		ldr	r0, .L16+4
 585 0034 FFF7FEFF 		bl	HAL_SPI_DeInit
 586              	.LVL14:
 734:Core/Src/stm32f429i_discovery.c **** }
 587              		.loc 1 734 3 view .LVU172
 588              	.LBB104:
 589              	.LBI104:
 632:Core/Src/stm32f429i_discovery.c **** {
 590              		.loc 1 632 13 view .LVU173
 591              	.LBB105:
 634:Core/Src/stm32f429i_discovery.c ****   {
 592              		.loc 1 634 3 view .LVU174
 634:Core/Src/stm32f429i_discovery.c ****   {
 593              		.loc 1 634 6 is_stmt 0 view .LVU175
 594 0038 0648     		ldr	r0, .L16+4
 595 003a FFF7FEFF 		bl	HAL_SPI_GetState
 596              	.LVL15:
 634:Core/Src/stm32f429i_discovery.c ****   {
 597              		.loc 1 634 5 view .LVU176
 598 003e 0028     		cmp	r0, #0
 599 0040 F2D1     		bne	.L12
 600 0042 FFF7FEFF 		bl	SPIx_Init.part.0
 601              	.LVL16:
 602              	.LBE105:
 603              	.LBE104:
 604              	.LBE103:
 605              	.LBE102:
 606              	.LBE101:
 607              	.LBE100:
 722:Core/Src/stm32f429i_discovery.c **** }
 608              		.loc 1 722 3 is_stmt 1 view .LVU177
 723:Core/Src/stm32f429i_discovery.c **** 
 609              		.loc 1 723 1 is_stmt 0 view .LVU178
 610 0046 9DF81700 		ldrb	r0, [sp, #23]	@ zero_extendqisi2
 611 004a 07B0     		add	sp, sp, #28
 612              	.LCFI12:
 613              		.cfi_def_cfa_offset 4
 614              		@ sp needed
 615 004c 5DF804FB 		ldr	pc, [sp], #4
 616              	.L17:
 617              		.align	2
 618              	.L16:
 619 0050 00000000 		.word	.LANCHOR2
 620 0054 00000000 		.word	.LANCHOR0
 621              		.cfi_endproc
 622              	.LFE148:
 624              		.section	.text.BSP_GetVersion,"ax",%progbits
 625              		.align	1
 626              		.p2align 2,,3
ARM GAS  /tmp/ccMsMeuK.s 			page 28


 627              		.global	BSP_GetVersion
 628              		.syntax unified
 629              		.thumb
 630              		.thumb_func
 632              	BSP_GetVersion:
 633              	.LFB130:
 179:Core/Src/stm32f429i_discovery.c ****   return __STM32F429I_DISCO_BSP_VERSION;
 634              		.loc 1 179 1 is_stmt 1 view -0
 635              		.cfi_startproc
 636              		@ args = 0, pretend = 0, frame = 0
 637              		@ frame_needed = 0, uses_anonymous_args = 0
 638              		@ link register save eliminated.
 180:Core/Src/stm32f429i_discovery.c **** }
 639              		.loc 1 180 3 view .LVU180
 181:Core/Src/stm32f429i_discovery.c **** 
 640              		.loc 1 181 1 is_stmt 0 view .LVU181
 641 0000 0048     		ldr	r0, .L19
 642 0002 7047     		bx	lr
 643              	.L20:
 644              		.align	2
 645              	.L19:
 646 0004 00060102 		.word	33621504
 647              		.cfi_endproc
 648              	.LFE130:
 650              		.section	.text.BSP_LED_Init,"ax",%progbits
 651              		.align	1
 652              		.p2align 2,,3
 653              		.global	BSP_LED_Init
 654              		.syntax unified
 655              		.thumb
 656              		.thumb_func
 658              	BSP_LED_Init:
 659              	.LVL17:
 660              	.LFB131:
 191:Core/Src/stm32f429i_discovery.c ****   GPIO_InitTypeDef  GPIO_InitStruct;
 661              		.loc 1 191 1 is_stmt 1 view -0
 662              		.cfi_startproc
 663              		@ args = 0, pretend = 0, frame = 32
 664              		@ frame_needed = 0, uses_anonymous_args = 0
 192:Core/Src/stm32f429i_discovery.c ****   
 665              		.loc 1 192 3 view .LVU183
 195:Core/Src/stm32f429i_discovery.c **** 
 666              		.loc 1 195 3 view .LVU184
 195:Core/Src/stm32f429i_discovery.c **** 
 667              		.loc 1 195 3 view .LVU185
 191:Core/Src/stm32f429i_discovery.c ****   GPIO_InitTypeDef  GPIO_InitStruct;
 668              		.loc 1 191 1 is_stmt 0 view .LVU186
 669 0000 70B5     		push	{r4, r5, r6, lr}
 670              	.LCFI13:
 671              		.cfi_def_cfa_offset 16
 672              		.cfi_offset 4, -16
 673              		.cfi_offset 5, -12
 674              		.cfi_offset 6, -8
 675              		.cfi_offset 14, -4
 195:Core/Src/stm32f429i_discovery.c **** 
 676              		.loc 1 195 3 view .LVU187
 677 0002 0446     		mov	r4, r0
ARM GAS  /tmp/ccMsMeuK.s 			page 29


 191:Core/Src/stm32f429i_discovery.c ****   GPIO_InitTypeDef  GPIO_InitStruct;
 678              		.loc 1 191 1 view .LVU188
 679 0004 88B0     		sub	sp, sp, #32
 680              	.LCFI14:
 681              		.cfi_def_cfa_offset 48
 195:Core/Src/stm32f429i_discovery.c **** 
 682              		.loc 1 195 3 view .LVU189
 683 0006 08BB     		cbnz	r0, .L22
 195:Core/Src/stm32f429i_discovery.c **** 
 684              		.loc 1 195 3 is_stmt 1 discriminator 1 view .LVU190
 685              	.LBB106:
 195:Core/Src/stm32f429i_discovery.c **** 
 686              		.loc 1 195 3 discriminator 1 view .LVU191
 687 0008 184B     		ldr	r3, .L25
 688 000a 0190     		str	r0, [sp, #4]
 195:Core/Src/stm32f429i_discovery.c **** 
 689              		.loc 1 195 3 discriminator 1 view .LVU192
 690 000c 1A6B     		ldr	r2, [r3, #48]
 691 000e 42F04002 		orr	r2, r2, #64
 692 0012 1A63     		str	r2, [r3, #48]
 195:Core/Src/stm32f429i_discovery.c **** 
 693              		.loc 1 195 3 discriminator 1 view .LVU193
 694 0014 1B6B     		ldr	r3, [r3, #48]
 695 0016 03F04003 		and	r3, r3, #64
 696 001a 0193     		str	r3, [sp, #4]
 195:Core/Src/stm32f429i_discovery.c **** 
 697              		.loc 1 195 3 discriminator 1 view .LVU194
 698 001c 019B     		ldr	r3, [sp, #4]
 699              	.LBE106:
 195:Core/Src/stm32f429i_discovery.c **** 
 700              		.loc 1 195 3 discriminator 1 view .LVU195
 701              	.L23:
 195:Core/Src/stm32f429i_discovery.c **** 
 702              		.loc 1 195 3 discriminator 6 view .LVU196
 195:Core/Src/stm32f429i_discovery.c **** 
 703              		.loc 1 195 3 discriminator 6 view .LVU197
 198:Core/Src/stm32f429i_discovery.c ****   GPIO_InitStruct.Mode = GPIO_MODE_OUTPUT_PP;
 704              		.loc 1 198 3 discriminator 6 view .LVU198
 198:Core/Src/stm32f429i_discovery.c ****   GPIO_InitStruct.Mode = GPIO_MODE_OUTPUT_PP;
 705              		.loc 1 198 33 is_stmt 0 discriminator 6 view .LVU199
 706 001e 144B     		ldr	r3, .L25+4
 203:Core/Src/stm32f429i_discovery.c ****   
 707              		.loc 1 203 3 discriminator 6 view .LVU200
 708 0020 144E     		ldr	r6, .L25+8
 198:Core/Src/stm32f429i_discovery.c ****   GPIO_InitStruct.Mode = GPIO_MODE_OUTPUT_PP;
 709              		.loc 1 198 33 discriminator 6 view .LVU201
 710 0022 33F81450 		ldrh	r5, [r3, r4, lsl #1]
 203:Core/Src/stm32f429i_discovery.c ****   
 711              		.loc 1 203 3 discriminator 6 view .LVU202
 712 0026 56F82400 		ldr	r0, [r6, r4, lsl #2]
 713              	.LVL18:
 199:Core/Src/stm32f429i_discovery.c ****   GPIO_InitStruct.Pull = GPIO_PULLUP;
 714              		.loc 1 199 24 discriminator 6 view .LVU203
 715 002a 0123     		movs	r3, #1
 716 002c CDE90353 		strd	r5, r3, [sp, #12]
 200:Core/Src/stm32f429i_discovery.c ****   GPIO_InitStruct.Speed = GPIO_SPEED_FAST;
 717              		.loc 1 200 3 is_stmt 1 discriminator 6 view .LVU204
ARM GAS  /tmp/ccMsMeuK.s 			page 30


 200:Core/Src/stm32f429i_discovery.c ****   GPIO_InitStruct.Speed = GPIO_SPEED_FAST;
 718              		.loc 1 200 24 is_stmt 0 discriminator 6 view .LVU205
 719 0030 0593     		str	r3, [sp, #20]
 201:Core/Src/stm32f429i_discovery.c ****   
 720              		.loc 1 201 3 is_stmt 1 discriminator 6 view .LVU206
 203:Core/Src/stm32f429i_discovery.c ****   
 721              		.loc 1 203 3 is_stmt 0 discriminator 6 view .LVU207
 722 0032 03A9     		add	r1, sp, #12
 201:Core/Src/stm32f429i_discovery.c ****   
 723              		.loc 1 201 25 discriminator 6 view .LVU208
 724 0034 0223     		movs	r3, #2
 725 0036 0693     		str	r3, [sp, #24]
 203:Core/Src/stm32f429i_discovery.c ****   
 726              		.loc 1 203 3 is_stmt 1 discriminator 6 view .LVU209
 727 0038 FFF7FEFF 		bl	HAL_GPIO_Init
 728              	.LVL19:
 205:Core/Src/stm32f429i_discovery.c **** }
 729              		.loc 1 205 3 discriminator 6 view .LVU210
 730 003c 56F82400 		ldr	r0, [r6, r4, lsl #2]
 731 0040 0022     		movs	r2, #0
 732 0042 2946     		mov	r1, r5
 733 0044 FFF7FEFF 		bl	HAL_GPIO_WritePin
 734              	.LVL20:
 206:Core/Src/stm32f429i_discovery.c **** 
 735              		.loc 1 206 1 is_stmt 0 discriminator 6 view .LVU211
 736 0048 08B0     		add	sp, sp, #32
 737              	.LCFI15:
 738              		.cfi_remember_state
 739              		.cfi_def_cfa_offset 16
 740              		@ sp needed
 741 004a 70BD     		pop	{r4, r5, r6, pc}
 742              	.LVL21:
 743              	.L22:
 744              	.LCFI16:
 745              		.cfi_restore_state
 195:Core/Src/stm32f429i_discovery.c **** 
 746              		.loc 1 195 3 is_stmt 1 discriminator 2 view .LVU212
 747 004c 0128     		cmp	r0, #1
 748 004e E6D1     		bne	.L23
 195:Core/Src/stm32f429i_discovery.c **** 
 749              		.loc 1 195 3 discriminator 4 view .LVU213
 750              	.LBB107:
 195:Core/Src/stm32f429i_discovery.c **** 
 751              		.loc 1 195 3 discriminator 4 view .LVU214
 752 0050 064B     		ldr	r3, .L25
 753 0052 0022     		movs	r2, #0
 754 0054 0292     		str	r2, [sp, #8]
 195:Core/Src/stm32f429i_discovery.c **** 
 755              		.loc 1 195 3 discriminator 4 view .LVU215
 756 0056 1A6B     		ldr	r2, [r3, #48]
 757 0058 42F04002 		orr	r2, r2, #64
 758 005c 1A63     		str	r2, [r3, #48]
 195:Core/Src/stm32f429i_discovery.c **** 
 759              		.loc 1 195 3 discriminator 4 view .LVU216
 760 005e 1B6B     		ldr	r3, [r3, #48]
 761 0060 03F04003 		and	r3, r3, #64
 762 0064 0293     		str	r3, [sp, #8]
ARM GAS  /tmp/ccMsMeuK.s 			page 31


 195:Core/Src/stm32f429i_discovery.c **** 
 763              		.loc 1 195 3 discriminator 4 view .LVU217
 764 0066 029B     		ldr	r3, [sp, #8]
 765 0068 D9E7     		b	.L23
 766              	.L26:
 767 006a 00BF     		.align	2
 768              	.L25:
 769 006c 00380240 		.word	1073887232
 770 0070 00000000 		.word	.LANCHOR3
 771 0074 00000000 		.word	.LANCHOR4
 772              	.LBE107:
 773              		.cfi_endproc
 774              	.LFE131:
 776              		.section	.text.BSP_LED_On,"ax",%progbits
 777              		.align	1
 778              		.p2align 2,,3
 779              		.global	BSP_LED_On
 780              		.syntax unified
 781              		.thumb
 782              		.thumb_func
 784              	BSP_LED_On:
 785              	.LVL22:
 786              	.LFB132:
 216:Core/Src/stm32f429i_discovery.c ****   HAL_GPIO_WritePin(GPIO_PORT[Led], GPIO_PIN[Led], GPIO_PIN_SET); 
 787              		.loc 1 216 1 view -0
 788              		.cfi_startproc
 789              		@ args = 0, pretend = 0, frame = 0
 790              		@ frame_needed = 0, uses_anonymous_args = 0
 791              		@ link register save eliminated.
 217:Core/Src/stm32f429i_discovery.c **** }
 792              		.loc 1 217 3 view .LVU219
 793 0000 044A     		ldr	r2, .L28
 794 0002 054B     		ldr	r3, .L28+4
 795 0004 32F81010 		ldrh	r1, [r2, r0, lsl #1]
 796 0008 53F82000 		ldr	r0, [r3, r0, lsl #2]
 797              	.LVL23:
 217:Core/Src/stm32f429i_discovery.c **** }
 798              		.loc 1 217 3 is_stmt 0 view .LVU220
 799 000c 0122     		movs	r2, #1
 800 000e FFF7FEBF 		b	HAL_GPIO_WritePin
 801              	.LVL24:
 802              	.L29:
 803 0012 00BF     		.align	2
 804              	.L28:
 805 0014 00000000 		.word	.LANCHOR3
 806 0018 00000000 		.word	.LANCHOR4
 807              		.cfi_endproc
 808              	.LFE132:
 810              		.section	.text.BSP_LED_Off,"ax",%progbits
 811              		.align	1
 812              		.p2align 2,,3
 813              		.global	BSP_LED_Off
 814              		.syntax unified
 815              		.thumb
 816              		.thumb_func
 818              	BSP_LED_Off:
 819              	.LVL25:
ARM GAS  /tmp/ccMsMeuK.s 			page 32


 820              	.LFB133:
 228:Core/Src/stm32f429i_discovery.c ****   HAL_GPIO_WritePin(GPIO_PORT[Led], GPIO_PIN[Led], GPIO_PIN_RESET); 
 821              		.loc 1 228 1 is_stmt 1 view -0
 822              		.cfi_startproc
 823              		@ args = 0, pretend = 0, frame = 0
 824              		@ frame_needed = 0, uses_anonymous_args = 0
 825              		@ link register save eliminated.
 229:Core/Src/stm32f429i_discovery.c **** }
 826              		.loc 1 229 3 view .LVU222
 827 0000 044A     		ldr	r2, .L31
 828 0002 054B     		ldr	r3, .L31+4
 829 0004 32F81010 		ldrh	r1, [r2, r0, lsl #1]
 830 0008 53F82000 		ldr	r0, [r3, r0, lsl #2]
 831              	.LVL26:
 229:Core/Src/stm32f429i_discovery.c **** }
 832              		.loc 1 229 3 is_stmt 0 view .LVU223
 833 000c 0022     		movs	r2, #0
 834 000e FFF7FEBF 		b	HAL_GPIO_WritePin
 835              	.LVL27:
 836              	.L32:
 837 0012 00BF     		.align	2
 838              	.L31:
 839 0014 00000000 		.word	.LANCHOR3
 840 0018 00000000 		.word	.LANCHOR4
 841              		.cfi_endproc
 842              	.LFE133:
 844              		.section	.text.BSP_LED_Toggle,"ax",%progbits
 845              		.align	1
 846              		.p2align 2,,3
 847              		.global	BSP_LED_Toggle
 848              		.syntax unified
 849              		.thumb
 850              		.thumb_func
 852              	BSP_LED_Toggle:
 853              	.LVL28:
 854              	.LFB134:
 240:Core/Src/stm32f429i_discovery.c ****   HAL_GPIO_TogglePin(GPIO_PORT[Led], GPIO_PIN[Led]);
 855              		.loc 1 240 1 is_stmt 1 view -0
 856              		.cfi_startproc
 857              		@ args = 0, pretend = 0, frame = 0
 858              		@ frame_needed = 0, uses_anonymous_args = 0
 859              		@ link register save eliminated.
 241:Core/Src/stm32f429i_discovery.c **** }
 860              		.loc 1 241 3 view .LVU225
 861 0000 034A     		ldr	r2, .L34
 862 0002 044B     		ldr	r3, .L34+4
 863 0004 32F81010 		ldrh	r1, [r2, r0, lsl #1]
 864 0008 53F82000 		ldr	r0, [r3, r0, lsl #2]
 865              	.LVL29:
 241:Core/Src/stm32f429i_discovery.c **** }
 866              		.loc 1 241 3 is_stmt 0 view .LVU226
 867 000c FFF7FEBF 		b	HAL_GPIO_TogglePin
 868              	.LVL30:
 869              	.L35:
 870              		.align	2
 871              	.L34:
 872 0010 00000000 		.word	.LANCHOR3
ARM GAS  /tmp/ccMsMeuK.s 			page 33


 873 0014 00000000 		.word	.LANCHOR4
 874              		.cfi_endproc
 875              	.LFE134:
 877              		.section	.text.BSP_PB_Init,"ax",%progbits
 878              		.align	1
 879              		.p2align 2,,3
 880              		.global	BSP_PB_Init
 881              		.syntax unified
 882              		.thumb
 883              		.thumb_func
 885              	BSP_PB_Init:
 886              	.LVL31:
 887              	.LFB135:
 255:Core/Src/stm32f429i_discovery.c ****   GPIO_InitTypeDef GPIO_InitStruct;
 888              		.loc 1 255 1 is_stmt 1 view -0
 889              		.cfi_startproc
 890              		@ args = 0, pretend = 0, frame = 24
 891              		@ frame_needed = 0, uses_anonymous_args = 0
 256:Core/Src/stm32f429i_discovery.c ****   
 892              		.loc 1 256 3 view .LVU228
 259:Core/Src/stm32f429i_discovery.c ****   
 893              		.loc 1 259 3 view .LVU229
 259:Core/Src/stm32f429i_discovery.c ****   
 894              		.loc 1 259 3 view .LVU230
 255:Core/Src/stm32f429i_discovery.c ****   GPIO_InitTypeDef GPIO_InitStruct;
 895              		.loc 1 255 1 is_stmt 0 view .LVU231
 896 0000 10B5     		push	{r4, lr}
 897              	.LCFI17:
 898              		.cfi_def_cfa_offset 8
 899              		.cfi_offset 4, -8
 900              		.cfi_offset 14, -4
 901 0002 0B46     		mov	r3, r1
 902 0004 86B0     		sub	sp, sp, #24
 903              	.LCFI18:
 904              		.cfi_def_cfa_offset 32
 259:Core/Src/stm32f429i_discovery.c ****   
 905              		.loc 1 259 3 view .LVU232
 906 0006 50B9     		cbnz	r0, .L37
 259:Core/Src/stm32f429i_discovery.c ****   
 907              		.loc 1 259 3 is_stmt 1 discriminator 1 view .LVU233
 908              	.LBB108:
 259:Core/Src/stm32f429i_discovery.c ****   
 909              		.loc 1 259 3 discriminator 1 view .LVU234
 910 0008 194A     		ldr	r2, .L43
 911 000a 0090     		str	r0, [sp]
 259:Core/Src/stm32f429i_discovery.c ****   
 912              		.loc 1 259 3 discriminator 1 view .LVU235
 913 000c 116B     		ldr	r1, [r2, #48]
 914              	.LVL32:
 259:Core/Src/stm32f429i_discovery.c ****   
 915              		.loc 1 259 3 is_stmt 0 discriminator 1 view .LVU236
 916 000e 41F00101 		orr	r1, r1, #1
 917 0012 1163     		str	r1, [r2, #48]
 259:Core/Src/stm32f429i_discovery.c ****   
 918              		.loc 1 259 3 is_stmt 1 discriminator 1 view .LVU237
 919 0014 126B     		ldr	r2, [r2, #48]
 920 0016 02F00102 		and	r2, r2, #1
ARM GAS  /tmp/ccMsMeuK.s 			page 34


 921 001a 0092     		str	r2, [sp]
 259:Core/Src/stm32f429i_discovery.c ****   
 922              		.loc 1 259 3 discriminator 1 view .LVU238
 923 001c 009A     		ldr	r2, [sp]
 924              	.L37:
 925              	.LBE108:
 259:Core/Src/stm32f429i_discovery.c ****   
 926              		.loc 1 259 3 discriminator 3 view .LVU239
 259:Core/Src/stm32f429i_discovery.c ****   
 927              		.loc 1 259 3 discriminator 3 view .LVU240
 261:Core/Src/stm32f429i_discovery.c ****   {
 928              		.loc 1 261 3 discriminator 3 view .LVU241
 261:Core/Src/stm32f429i_discovery.c ****   {
 929              		.loc 1 261 6 is_stmt 0 discriminator 3 view .LVU242
 930 001e CBB1     		cbz	r3, .L41
 271:Core/Src/stm32f429i_discovery.c ****   {
 931              		.loc 1 271 3 is_stmt 1 view .LVU243
 271:Core/Src/stm32f429i_discovery.c ****   {
 932              		.loc 1 271 6 is_stmt 0 view .LVU244
 933 0020 012B     		cmp	r3, #1
 934 0022 01D0     		beq	.L42
 283:Core/Src/stm32f429i_discovery.c **** 
 935              		.loc 1 283 1 view .LVU245
 936 0024 06B0     		add	sp, sp, #24
 937              	.LCFI19:
 938              		.cfi_remember_state
 939              		.cfi_def_cfa_offset 8
 940              		@ sp needed
 941 0026 10BD     		pop	{r4, pc}
 942              	.L42:
 943              	.LCFI20:
 944              		.cfi_restore_state
 274:Core/Src/stm32f429i_discovery.c ****     GPIO_InitStruct.Pull = GPIO_NOPULL;
 945              		.loc 1 274 5 is_stmt 1 view .LVU246
 277:Core/Src/stm32f429i_discovery.c ****     
 946              		.loc 1 277 5 is_stmt 0 view .LVU247
 947 0028 124A     		ldr	r2, .L43+4
 274:Core/Src/stm32f429i_discovery.c ****     GPIO_InitStruct.Pull = GPIO_NOPULL;
 948              		.loc 1 274 25 view .LVU248
 949 002a 0193     		str	r3, [sp, #4]
 275:Core/Src/stm32f429i_discovery.c ****     GPIO_InitStruct.Mode = GPIO_MODE_IT_RISING; 
 950              		.loc 1 275 5 is_stmt 1 view .LVU249
 277:Core/Src/stm32f429i_discovery.c ****     
 951              		.loc 1 277 5 is_stmt 0 view .LVU250
 952 002c 52F82000 		ldr	r0, [r2, r0, lsl #2]
 953              	.LVL33:
 275:Core/Src/stm32f429i_discovery.c ****     GPIO_InitStruct.Mode = GPIO_MODE_IT_RISING; 
 954              		.loc 1 275 26 view .LVU251
 955 0030 0024     		movs	r4, #0
 276:Core/Src/stm32f429i_discovery.c ****     HAL_GPIO_Init(BUTTON_PORT[Button], &GPIO_InitStruct);
 956              		.loc 1 276 26 view .LVU252
 957 0032 4FF48812 		mov	r2, #1114112
 277:Core/Src/stm32f429i_discovery.c ****     
 958              		.loc 1 277 5 view .LVU253
 959 0036 01A9     		add	r1, sp, #4
 276:Core/Src/stm32f429i_discovery.c ****     HAL_GPIO_Init(BUTTON_PORT[Button], &GPIO_InitStruct);
 960              		.loc 1 276 26 view .LVU254
ARM GAS  /tmp/ccMsMeuK.s 			page 35


 961 0038 CDE90224 		strd	r2, r4, [sp, #8]
 277:Core/Src/stm32f429i_discovery.c ****     
 962              		.loc 1 277 5 is_stmt 1 view .LVU255
 963 003c FFF7FEFF 		bl	HAL_GPIO_Init
 964              	.LVL34:
 280:Core/Src/stm32f429i_discovery.c ****     HAL_NVIC_EnableIRQ((IRQn_Type)(BUTTON_IRQn[Button]));
 965              		.loc 1 280 5 view .LVU256
 966 0040 2246     		mov	r2, r4
 967 0042 0F21     		movs	r1, #15
 968 0044 0620     		movs	r0, #6
 969 0046 FFF7FEFF 		bl	HAL_NVIC_SetPriority
 970              	.LVL35:
 281:Core/Src/stm32f429i_discovery.c ****   }
 971              		.loc 1 281 5 view .LVU257
 972 004a 0620     		movs	r0, #6
 973 004c FFF7FEFF 		bl	HAL_NVIC_EnableIRQ
 974              	.LVL36:
 283:Core/Src/stm32f429i_discovery.c **** 
 975              		.loc 1 283 1 is_stmt 0 view .LVU258
 976 0050 06B0     		add	sp, sp, #24
 977              	.LCFI21:
 978              		.cfi_remember_state
 979              		.cfi_def_cfa_offset 8
 980              		@ sp needed
 981 0052 10BD     		pop	{r4, pc}
 982              	.LVL37:
 983              	.L41:
 984              	.LCFI22:
 985              		.cfi_restore_state
 264:Core/Src/stm32f429i_discovery.c ****     GPIO_InitStruct.Mode = GPIO_MODE_INPUT;
 986              		.loc 1 264 5 is_stmt 1 view .LVU259
 268:Core/Src/stm32f429i_discovery.c ****   }
 987              		.loc 1 268 5 is_stmt 0 view .LVU260
 988 0054 074C     		ldr	r4, .L43+4
 264:Core/Src/stm32f429i_discovery.c ****     GPIO_InitStruct.Mode = GPIO_MODE_INPUT;
 989              		.loc 1 264 25 view .LVU261
 990 0056 0121     		movs	r1, #1
 266:Core/Src/stm32f429i_discovery.c ****     GPIO_InitStruct.Speed = GPIO_SPEED_FAST;
 991              		.loc 1 266 26 view .LVU262
 992 0058 0222     		movs	r2, #2
 264:Core/Src/stm32f429i_discovery.c ****     GPIO_InitStruct.Mode = GPIO_MODE_INPUT;
 993              		.loc 1 264 25 view .LVU263
 994 005a 0191     		str	r1, [sp, #4]
 265:Core/Src/stm32f429i_discovery.c ****     GPIO_InitStruct.Pull = GPIO_PULLDOWN;
 995              		.loc 1 265 5 is_stmt 1 view .LVU264
 268:Core/Src/stm32f429i_discovery.c ****   }
 996              		.loc 1 268 5 is_stmt 0 view .LVU265
 997 005c 54F82000 		ldr	r0, [r4, r0, lsl #2]
 998              	.LVL38:
 267:Core/Src/stm32f429i_discovery.c ****     HAL_GPIO_Init(BUTTON_PORT[Button], &GPIO_InitStruct);
 999              		.loc 1 267 27 view .LVU266
 1000 0060 0492     		str	r2, [sp, #16]
 268:Core/Src/stm32f429i_discovery.c ****   }
 1001              		.loc 1 268 5 view .LVU267
 1002 0062 01A9     		add	r1, sp, #4
 266:Core/Src/stm32f429i_discovery.c ****     GPIO_InitStruct.Speed = GPIO_SPEED_FAST;
 1003              		.loc 1 266 26 view .LVU268
ARM GAS  /tmp/ccMsMeuK.s 			page 36


 1004 0064 CDE90232 		strd	r3, r2, [sp, #8]
 267:Core/Src/stm32f429i_discovery.c ****     HAL_GPIO_Init(BUTTON_PORT[Button], &GPIO_InitStruct);
 1005              		.loc 1 267 5 is_stmt 1 view .LVU269
 268:Core/Src/stm32f429i_discovery.c ****   }
 1006              		.loc 1 268 5 view .LVU270
 1007 0068 FFF7FEFF 		bl	HAL_GPIO_Init
 1008              	.LVL39:
 271:Core/Src/stm32f429i_discovery.c ****   {
 1009              		.loc 1 271 3 view .LVU271
 283:Core/Src/stm32f429i_discovery.c **** 
 1010              		.loc 1 283 1 is_stmt 0 view .LVU272
 1011 006c 06B0     		add	sp, sp, #24
 1012              	.LCFI23:
 1013              		.cfi_def_cfa_offset 8
 1014              		@ sp needed
 1015 006e 10BD     		pop	{r4, pc}
 1016              	.L44:
 1017              		.align	2
 1018              	.L43:
 1019 0070 00380240 		.word	1073887232
 1020 0074 00000000 		.word	.LANCHOR5
 1021              		.cfi_endproc
 1022              	.LFE135:
 1024              		.section	.text.BSP_PB_GetState,"ax",%progbits
 1025              		.align	1
 1026              		.p2align 2,,3
 1027              		.global	BSP_PB_GetState
 1028              		.syntax unified
 1029              		.thumb
 1030              		.thumb_func
 1032              	BSP_PB_GetState:
 1033              	.LVL40:
 1034              	.LFB136:
 292:Core/Src/stm32f429i_discovery.c ****   return HAL_GPIO_ReadPin(BUTTON_PORT[Button], BUTTON_PIN[Button]);
 1035              		.loc 1 292 1 is_stmt 1 view -0
 1036              		.cfi_startproc
 1037              		@ args = 0, pretend = 0, frame = 0
 1038              		@ frame_needed = 0, uses_anonymous_args = 0
 293:Core/Src/stm32f429i_discovery.c **** }
 1039              		.loc 1 293 3 view .LVU274
 292:Core/Src/stm32f429i_discovery.c ****   return HAL_GPIO_ReadPin(BUTTON_PORT[Button], BUTTON_PIN[Button]);
 1040              		.loc 1 292 1 is_stmt 0 view .LVU275
 1041 0000 08B5     		push	{r3, lr}
 1042              	.LCFI24:
 1043              		.cfi_def_cfa_offset 8
 1044              		.cfi_offset 3, -8
 1045              		.cfi_offset 14, -4
 293:Core/Src/stm32f429i_discovery.c **** }
 1046              		.loc 1 293 10 view .LVU276
 1047 0002 034B     		ldr	r3, .L47
 1048 0004 0121     		movs	r1, #1
 1049 0006 53F82000 		ldr	r0, [r3, r0, lsl #2]
 1050              	.LVL41:
 293:Core/Src/stm32f429i_discovery.c **** }
 1051              		.loc 1 293 10 view .LVU277
 1052 000a FFF7FEFF 		bl	HAL_GPIO_ReadPin
 1053              	.LVL42:
ARM GAS  /tmp/ccMsMeuK.s 			page 37


 294:Core/Src/stm32f429i_discovery.c **** 
 1054              		.loc 1 294 1 view .LVU278
 1055 000e 08BD     		pop	{r3, pc}
 1056              	.L48:
 1057              		.align	2
 1058              	.L47:
 1059 0010 00000000 		.word	.LANCHOR5
 1060              		.cfi_endproc
 1061              	.LFE136:
 1063              		.section	.text.LCD_IO_Init,"ax",%progbits
 1064              		.align	1
 1065              		.p2align 2,,3
 1066              		.global	LCD_IO_Init
 1067              		.syntax unified
 1068              		.thumb
 1069              		.thumb_func
 1071              	LCD_IO_Init:
 1072              	.LFB151:
 758:Core/Src/stm32f429i_discovery.c **** }
 759:Core/Src/stm32f429i_discovery.c **** 
 760:Core/Src/stm32f429i_discovery.c **** /********************************* LINK LCD ***********************************/
 761:Core/Src/stm32f429i_discovery.c **** 
 762:Core/Src/stm32f429i_discovery.c **** /**
 763:Core/Src/stm32f429i_discovery.c ****   * @brief  Configures the LCD_SPI interface.
 764:Core/Src/stm32f429i_discovery.c ****   */
 765:Core/Src/stm32f429i_discovery.c **** void LCD_IO_Init(void)
 766:Core/Src/stm32f429i_discovery.c **** {
 1073              		.loc 1 766 1 is_stmt 1 view -0
 1074              		.cfi_startproc
 1075              		@ args = 0, pretend = 0, frame = 32
 1076              		@ frame_needed = 0, uses_anonymous_args = 0
 767:Core/Src/stm32f429i_discovery.c ****   GPIO_InitTypeDef GPIO_InitStructure;
 1077              		.loc 1 767 3 view .LVU280
 768:Core/Src/stm32f429i_discovery.c ****   
 769:Core/Src/stm32f429i_discovery.c ****   if(Is_LCD_IO_Initialized == 0)
 1078              		.loc 1 769 3 view .LVU281
 766:Core/Src/stm32f429i_discovery.c ****   GPIO_InitTypeDef GPIO_InitStructure;
 1079              		.loc 1 766 1 is_stmt 0 view .LVU282
 1080 0000 F0B5     		push	{r4, r5, r6, r7, lr}
 1081              	.LCFI25:
 1082              		.cfi_def_cfa_offset 20
 1083              		.cfi_offset 4, -20
 1084              		.cfi_offset 5, -16
 1085              		.cfi_offset 6, -12
 1086              		.cfi_offset 7, -8
 1087              		.cfi_offset 14, -4
 1088              		.loc 1 769 28 view .LVU283
 1089 0002 2C4B     		ldr	r3, .L55
 1090              		.loc 1 769 5 view .LVU284
 1091 0004 1C78     		ldrb	r4, [r3]	@ zero_extendqisi2
 766:Core/Src/stm32f429i_discovery.c ****   GPIO_InitTypeDef GPIO_InitStructure;
 1092              		.loc 1 766 1 view .LVU285
 1093 0006 89B0     		sub	sp, sp, #36
 1094              	.LCFI26:
 1095              		.cfi_def_cfa_offset 56
 1096              		.loc 1 769 5 view .LVU286
 1097 0008 0CB1     		cbz	r4, .L54
ARM GAS  /tmp/ccMsMeuK.s 			page 38


 1098              	.L49:
 770:Core/Src/stm32f429i_discovery.c ****   {
 771:Core/Src/stm32f429i_discovery.c ****     Is_LCD_IO_Initialized = 1; 
 772:Core/Src/stm32f429i_discovery.c ****     
 773:Core/Src/stm32f429i_discovery.c ****     /* Configure NCS in Output Push-Pull mode */
 774:Core/Src/stm32f429i_discovery.c ****     LCD_WRX_GPIO_CLK_ENABLE();
 775:Core/Src/stm32f429i_discovery.c ****     GPIO_InitStructure.Pin     = LCD_WRX_PIN;
 776:Core/Src/stm32f429i_discovery.c ****     GPIO_InitStructure.Mode    = GPIO_MODE_OUTPUT_PP;
 777:Core/Src/stm32f429i_discovery.c ****     GPIO_InitStructure.Pull    = GPIO_NOPULL;
 778:Core/Src/stm32f429i_discovery.c ****     GPIO_InitStructure.Speed   = GPIO_SPEED_FAST;
 779:Core/Src/stm32f429i_discovery.c ****     HAL_GPIO_Init(LCD_WRX_GPIO_PORT, &GPIO_InitStructure);
 780:Core/Src/stm32f429i_discovery.c ****     
 781:Core/Src/stm32f429i_discovery.c ****     LCD_RDX_GPIO_CLK_ENABLE();
 782:Core/Src/stm32f429i_discovery.c ****     GPIO_InitStructure.Pin     = LCD_RDX_PIN;
 783:Core/Src/stm32f429i_discovery.c ****     GPIO_InitStructure.Mode    = GPIO_MODE_OUTPUT_PP;
 784:Core/Src/stm32f429i_discovery.c ****     GPIO_InitStructure.Pull    = GPIO_NOPULL;
 785:Core/Src/stm32f429i_discovery.c ****     GPIO_InitStructure.Speed   = GPIO_SPEED_FAST;
 786:Core/Src/stm32f429i_discovery.c ****     HAL_GPIO_Init(LCD_RDX_GPIO_PORT, &GPIO_InitStructure);
 787:Core/Src/stm32f429i_discovery.c ****     
 788:Core/Src/stm32f429i_discovery.c ****     /* Configure the LCD Control pins ----------------------------------------*/
 789:Core/Src/stm32f429i_discovery.c ****     LCD_NCS_GPIO_CLK_ENABLE();
 790:Core/Src/stm32f429i_discovery.c ****     
 791:Core/Src/stm32f429i_discovery.c ****     /* Configure NCS in Output Push-Pull mode */
 792:Core/Src/stm32f429i_discovery.c ****     GPIO_InitStructure.Pin     = LCD_NCS_PIN;
 793:Core/Src/stm32f429i_discovery.c ****     GPIO_InitStructure.Mode    = GPIO_MODE_OUTPUT_PP;
 794:Core/Src/stm32f429i_discovery.c ****     GPIO_InitStructure.Pull    = GPIO_NOPULL;
 795:Core/Src/stm32f429i_discovery.c ****     GPIO_InitStructure.Speed   = GPIO_SPEED_FAST;
 796:Core/Src/stm32f429i_discovery.c ****     HAL_GPIO_Init(LCD_NCS_GPIO_PORT, &GPIO_InitStructure);
 797:Core/Src/stm32f429i_discovery.c ****     
 798:Core/Src/stm32f429i_discovery.c ****     /* Set or Reset the control line */
 799:Core/Src/stm32f429i_discovery.c ****     LCD_CS_LOW();
 800:Core/Src/stm32f429i_discovery.c ****     LCD_CS_HIGH();
 801:Core/Src/stm32f429i_discovery.c ****     
 802:Core/Src/stm32f429i_discovery.c ****     SPIx_Init();
 803:Core/Src/stm32f429i_discovery.c ****   }
 804:Core/Src/stm32f429i_discovery.c **** }
 1099              		.loc 1 804 1 view .LVU287
 1100 000a 09B0     		add	sp, sp, #36
 1101              	.LCFI27:
 1102              		.cfi_remember_state
 1103              		.cfi_def_cfa_offset 20
 1104              		@ sp needed
 1105 000c F0BD     		pop	{r4, r5, r6, r7, pc}
 1106              	.L54:
 1107              	.LCFI28:
 1108              		.cfi_restore_state
 771:Core/Src/stm32f429i_discovery.c ****     
 1109              		.loc 1 771 5 is_stmt 1 view .LVU288
 1110              	.LBB114:
 774:Core/Src/stm32f429i_discovery.c ****     GPIO_InitStructure.Pin     = LCD_WRX_PIN;
 1111              		.loc 1 774 5 is_stmt 0 view .LVU289
 1112 000e 2A4D     		ldr	r5, .L55+4
 1113 0010 0094     		str	r4, [sp]
 1114              	.LBE114:
 771:Core/Src/stm32f429i_discovery.c ****     
 1115              		.loc 1 771 27 view .LVU290
 1116 0012 0126     		movs	r6, #1
ARM GAS  /tmp/ccMsMeuK.s 			page 39


 1117 0014 1E70     		strb	r6, [r3]
 774:Core/Src/stm32f429i_discovery.c ****     GPIO_InitStructure.Pin     = LCD_WRX_PIN;
 1118              		.loc 1 774 5 is_stmt 1 view .LVU291
 1119              	.LBB115:
 774:Core/Src/stm32f429i_discovery.c ****     GPIO_InitStructure.Pin     = LCD_WRX_PIN;
 1120              		.loc 1 774 5 view .LVU292
 774:Core/Src/stm32f429i_discovery.c ****     GPIO_InitStructure.Pin     = LCD_WRX_PIN;
 1121              		.loc 1 774 5 view .LVU293
 1122 0016 2B6B     		ldr	r3, [r5, #48]
 1123              	.LBE115:
 779:Core/Src/stm32f429i_discovery.c ****     
 1124              		.loc 1 779 5 is_stmt 0 view .LVU294
 1125 0018 2848     		ldr	r0, .L55+8
 1126              	.LBB116:
 774:Core/Src/stm32f429i_discovery.c ****     GPIO_InitStructure.Pin     = LCD_WRX_PIN;
 1127              		.loc 1 774 5 view .LVU295
 1128 001a 43F00803 		orr	r3, r3, #8
 1129 001e 2B63     		str	r3, [r5, #48]
 774:Core/Src/stm32f429i_discovery.c ****     GPIO_InitStructure.Pin     = LCD_WRX_PIN;
 1130              		.loc 1 774 5 is_stmt 1 view .LVU296
 1131 0020 2B6B     		ldr	r3, [r5, #48]
 1132              	.LBE116:
 776:Core/Src/stm32f429i_discovery.c ****     GPIO_InitStructure.Pull    = GPIO_NOPULL;
 1133              		.loc 1 776 32 is_stmt 0 view .LVU297
 1134 0022 0496     		str	r6, [sp, #16]
 1135              	.LBB117:
 774:Core/Src/stm32f429i_discovery.c ****     GPIO_InitStructure.Pin     = LCD_WRX_PIN;
 1136              		.loc 1 774 5 view .LVU298
 1137 0024 03F00803 		and	r3, r3, #8
 1138 0028 0093     		str	r3, [sp]
 774:Core/Src/stm32f429i_discovery.c ****     GPIO_InitStructure.Pin     = LCD_WRX_PIN;
 1139              		.loc 1 774 5 is_stmt 1 view .LVU299
 1140              	.LBE117:
 778:Core/Src/stm32f429i_discovery.c ****     HAL_GPIO_Init(LCD_WRX_GPIO_PORT, &GPIO_InitStructure);
 1141              		.loc 1 778 32 is_stmt 0 view .LVU300
 1142 002a 0227     		movs	r7, #2
 775:Core/Src/stm32f429i_discovery.c ****     GPIO_InitStructure.Mode    = GPIO_MODE_OUTPUT_PP;
 1143              		.loc 1 775 32 view .LVU301
 1144 002c 4FF40053 		mov	r3, #8192
 779:Core/Src/stm32f429i_discovery.c ****     
 1145              		.loc 1 779 5 view .LVU302
 1146 0030 03A9     		add	r1, sp, #12
 1147              	.LBB118:
 774:Core/Src/stm32f429i_discovery.c ****     GPIO_InitStructure.Pin     = LCD_WRX_PIN;
 1148              		.loc 1 774 5 view .LVU303
 1149 0032 009A     		ldr	r2, [sp]
 1150              	.LBE118:
 774:Core/Src/stm32f429i_discovery.c ****     GPIO_InitStructure.Pin     = LCD_WRX_PIN;
 1151              		.loc 1 774 5 is_stmt 1 view .LVU304
 775:Core/Src/stm32f429i_discovery.c ****     GPIO_InitStructure.Mode    = GPIO_MODE_OUTPUT_PP;
 1152              		.loc 1 775 5 view .LVU305
 775:Core/Src/stm32f429i_discovery.c ****     GPIO_InitStructure.Mode    = GPIO_MODE_OUTPUT_PP;
 1153              		.loc 1 775 32 is_stmt 0 view .LVU306
 1154 0034 0393     		str	r3, [sp, #12]
 776:Core/Src/stm32f429i_discovery.c ****     GPIO_InitStructure.Pull    = GPIO_NOPULL;
 1155              		.loc 1 776 5 is_stmt 1 view .LVU307
 777:Core/Src/stm32f429i_discovery.c ****     GPIO_InitStructure.Speed   = GPIO_SPEED_FAST;
ARM GAS  /tmp/ccMsMeuK.s 			page 40


 1156              		.loc 1 777 5 view .LVU308
 778:Core/Src/stm32f429i_discovery.c ****     HAL_GPIO_Init(LCD_WRX_GPIO_PORT, &GPIO_InitStructure);
 1157              		.loc 1 778 32 is_stmt 0 view .LVU309
 1158 0036 CDE90547 		strd	r4, r7, [sp, #20]
 779:Core/Src/stm32f429i_discovery.c ****     
 1159              		.loc 1 779 5 is_stmt 1 view .LVU310
 1160 003a FFF7FEFF 		bl	HAL_GPIO_Init
 1161              	.LVL43:
 781:Core/Src/stm32f429i_discovery.c ****     GPIO_InitStructure.Pin     = LCD_RDX_PIN;
 1162              		.loc 1 781 5 view .LVU311
 1163              	.LBB119:
 781:Core/Src/stm32f429i_discovery.c ****     GPIO_InitStructure.Pin     = LCD_RDX_PIN;
 1164              		.loc 1 781 5 view .LVU312
 1165 003e 0194     		str	r4, [sp, #4]
 781:Core/Src/stm32f429i_discovery.c ****     GPIO_InitStructure.Pin     = LCD_RDX_PIN;
 1166              		.loc 1 781 5 view .LVU313
 1167 0040 2B6B     		ldr	r3, [r5, #48]
 1168              	.LBE119:
 786:Core/Src/stm32f429i_discovery.c ****     
 1169              		.loc 1 786 5 is_stmt 0 view .LVU314
 1170 0042 1E48     		ldr	r0, .L55+8
 1171              	.LBB120:
 781:Core/Src/stm32f429i_discovery.c ****     GPIO_InitStructure.Pin     = LCD_RDX_PIN;
 1172              		.loc 1 781 5 view .LVU315
 1173 0044 43F00803 		orr	r3, r3, #8
 1174 0048 2B63     		str	r3, [r5, #48]
 781:Core/Src/stm32f429i_discovery.c ****     GPIO_InitStructure.Pin     = LCD_RDX_PIN;
 1175              		.loc 1 781 5 is_stmt 1 view .LVU316
 1176 004a 2B6B     		ldr	r3, [r5, #48]
 1177              	.LBE120:
 783:Core/Src/stm32f429i_discovery.c ****     GPIO_InitStructure.Pull    = GPIO_NOPULL;
 1178              		.loc 1 783 32 is_stmt 0 view .LVU317
 1179 004c 0496     		str	r6, [sp, #16]
 1180              	.LBB121:
 781:Core/Src/stm32f429i_discovery.c ****     GPIO_InitStructure.Pin     = LCD_RDX_PIN;
 1181              		.loc 1 781 5 view .LVU318
 1182 004e 03F00803 		and	r3, r3, #8
 1183 0052 0193     		str	r3, [sp, #4]
 781:Core/Src/stm32f429i_discovery.c ****     GPIO_InitStructure.Pin     = LCD_RDX_PIN;
 1184              		.loc 1 781 5 is_stmt 1 view .LVU319
 1185 0054 019B     		ldr	r3, [sp, #4]
 1186              	.LBE121:
 781:Core/Src/stm32f429i_discovery.c ****     GPIO_InitStructure.Pin     = LCD_RDX_PIN;
 1187              		.loc 1 781 5 view .LVU320
 782:Core/Src/stm32f429i_discovery.c ****     GPIO_InitStructure.Mode    = GPIO_MODE_OUTPUT_PP;
 1188              		.loc 1 782 5 view .LVU321
 786:Core/Src/stm32f429i_discovery.c ****     
 1189              		.loc 1 786 5 is_stmt 0 view .LVU322
 1190 0056 03A9     		add	r1, sp, #12
 782:Core/Src/stm32f429i_discovery.c ****     GPIO_InitStructure.Mode    = GPIO_MODE_OUTPUT_PP;
 1191              		.loc 1 782 32 view .LVU323
 1192 0058 4FF48053 		mov	r3, #4096
 1193 005c 0393     		str	r3, [sp, #12]
 783:Core/Src/stm32f429i_discovery.c ****     GPIO_InitStructure.Pull    = GPIO_NOPULL;
 1194              		.loc 1 783 5 is_stmt 1 view .LVU324
 784:Core/Src/stm32f429i_discovery.c ****     GPIO_InitStructure.Speed   = GPIO_SPEED_FAST;
 1195              		.loc 1 784 5 view .LVU325
ARM GAS  /tmp/ccMsMeuK.s 			page 41


 785:Core/Src/stm32f429i_discovery.c ****     HAL_GPIO_Init(LCD_RDX_GPIO_PORT, &GPIO_InitStructure);
 1196              		.loc 1 785 5 view .LVU326
 786:Core/Src/stm32f429i_discovery.c ****     
 1197              		.loc 1 786 5 view .LVU327
 785:Core/Src/stm32f429i_discovery.c ****     HAL_GPIO_Init(LCD_RDX_GPIO_PORT, &GPIO_InitStructure);
 1198              		.loc 1 785 32 is_stmt 0 view .LVU328
 1199 005e CDE90547 		strd	r4, r7, [sp, #20]
 786:Core/Src/stm32f429i_discovery.c ****     
 1200              		.loc 1 786 5 view .LVU329
 1201 0062 FFF7FEFF 		bl	HAL_GPIO_Init
 1202              	.LVL44:
 789:Core/Src/stm32f429i_discovery.c ****     
 1203              		.loc 1 789 5 is_stmt 1 view .LVU330
 1204              	.LBB122:
 789:Core/Src/stm32f429i_discovery.c ****     
 1205              		.loc 1 789 5 view .LVU331
 1206 0066 0294     		str	r4, [sp, #8]
 789:Core/Src/stm32f429i_discovery.c ****     
 1207              		.loc 1 789 5 view .LVU332
 1208 0068 2B6B     		ldr	r3, [r5, #48]
 1209              	.LBE122:
 796:Core/Src/stm32f429i_discovery.c ****     
 1210              		.loc 1 796 5 is_stmt 0 view .LVU333
 1211 006a 1548     		ldr	r0, .L55+12
 1212              	.LBB123:
 789:Core/Src/stm32f429i_discovery.c ****     
 1213              		.loc 1 789 5 view .LVU334
 1214 006c 43F00403 		orr	r3, r3, #4
 1215 0070 2B63     		str	r3, [r5, #48]
 789:Core/Src/stm32f429i_discovery.c ****     
 1216              		.loc 1 789 5 is_stmt 1 view .LVU335
 1217 0072 2B6B     		ldr	r3, [r5, #48]
 1218              	.LBE123:
 795:Core/Src/stm32f429i_discovery.c ****     HAL_GPIO_Init(LCD_NCS_GPIO_PORT, &GPIO_InitStructure);
 1219              		.loc 1 795 32 is_stmt 0 view .LVU336
 1220 0074 0697     		str	r7, [sp, #24]
 1221              	.LBB124:
 789:Core/Src/stm32f429i_discovery.c ****     
 1222              		.loc 1 789 5 view .LVU337
 1223 0076 03F00403 		and	r3, r3, #4
 1224              	.LBE124:
 792:Core/Src/stm32f429i_discovery.c ****     GPIO_InitStructure.Mode    = GPIO_MODE_OUTPUT_PP;
 1225              		.loc 1 792 32 view .LVU338
 1226 007a 0425     		movs	r5, #4
 796:Core/Src/stm32f429i_discovery.c ****     
 1227              		.loc 1 796 5 view .LVU339
 1228 007c 03A9     		add	r1, sp, #12
 1229              	.LBB125:
 789:Core/Src/stm32f429i_discovery.c ****     
 1230              		.loc 1 789 5 view .LVU340
 1231 007e 0293     		str	r3, [sp, #8]
 789:Core/Src/stm32f429i_discovery.c ****     
 1232              		.loc 1 789 5 is_stmt 1 view .LVU341
 1233 0080 029B     		ldr	r3, [sp, #8]
 1234              	.LBE125:
 789:Core/Src/stm32f429i_discovery.c ****     
 1235              		.loc 1 789 5 view .LVU342
ARM GAS  /tmp/ccMsMeuK.s 			page 42


 792:Core/Src/stm32f429i_discovery.c ****     GPIO_InitStructure.Mode    = GPIO_MODE_OUTPUT_PP;
 1236              		.loc 1 792 5 view .LVU343
 794:Core/Src/stm32f429i_discovery.c ****     GPIO_InitStructure.Speed   = GPIO_SPEED_FAST;
 1237              		.loc 1 794 32 is_stmt 0 view .LVU344
 1238 0082 0594     		str	r4, [sp, #20]
 793:Core/Src/stm32f429i_discovery.c ****     GPIO_InitStructure.Pull    = GPIO_NOPULL;
 1239              		.loc 1 793 32 view .LVU345
 1240 0084 CDE90356 		strd	r5, r6, [sp, #12]
 794:Core/Src/stm32f429i_discovery.c ****     GPIO_InitStructure.Speed   = GPIO_SPEED_FAST;
 1241              		.loc 1 794 5 is_stmt 1 view .LVU346
 795:Core/Src/stm32f429i_discovery.c ****     HAL_GPIO_Init(LCD_NCS_GPIO_PORT, &GPIO_InitStructure);
 1242              		.loc 1 795 5 view .LVU347
 796:Core/Src/stm32f429i_discovery.c ****     
 1243              		.loc 1 796 5 view .LVU348
 1244 0088 FFF7FEFF 		bl	HAL_GPIO_Init
 1245              	.LVL45:
 799:Core/Src/stm32f429i_discovery.c ****     LCD_CS_HIGH();
 1246              		.loc 1 799 5 view .LVU349
 1247 008c 0C48     		ldr	r0, .L55+12
 1248 008e 2246     		mov	r2, r4
 1249 0090 2946     		mov	r1, r5
 1250 0092 FFF7FEFF 		bl	HAL_GPIO_WritePin
 1251              	.LVL46:
 800:Core/Src/stm32f429i_discovery.c ****     
 1252              		.loc 1 800 5 view .LVU350
 1253 0096 0A48     		ldr	r0, .L55+12
 1254 0098 3246     		mov	r2, r6
 1255 009a 2946     		mov	r1, r5
 1256 009c FFF7FEFF 		bl	HAL_GPIO_WritePin
 1257              	.LVL47:
 802:Core/Src/stm32f429i_discovery.c ****   }
 1258              		.loc 1 802 5 view .LVU351
 1259              	.LBB126:
 1260              	.LBI126:
 632:Core/Src/stm32f429i_discovery.c **** {
 1261              		.loc 1 632 13 view .LVU352
 1262              	.LBB127:
 634:Core/Src/stm32f429i_discovery.c ****   {
 1263              		.loc 1 634 3 view .LVU353
 634:Core/Src/stm32f429i_discovery.c ****   {
 1264              		.loc 1 634 6 is_stmt 0 view .LVU354
 1265 00a0 0848     		ldr	r0, .L55+16
 1266 00a2 FFF7FEFF 		bl	HAL_SPI_GetState
 1267              	.LVL48:
 634:Core/Src/stm32f429i_discovery.c ****   {
 1268              		.loc 1 634 5 view .LVU355
 1269 00a6 0028     		cmp	r0, #0
 1270 00a8 AFD1     		bne	.L49
 1271 00aa FFF7FEFF 		bl	SPIx_Init.part.0
 1272              	.LVL49:
 1273              	.LBE127:
 1274              	.LBE126:
 1275              		.loc 1 804 1 view .LVU356
 1276 00ae 09B0     		add	sp, sp, #36
 1277              	.LCFI29:
 1278              		.cfi_def_cfa_offset 20
 1279              		@ sp needed
ARM GAS  /tmp/ccMsMeuK.s 			page 43


 1280 00b0 F0BD     		pop	{r4, r5, r6, r7, pc}
 1281              	.L56:
 1282 00b2 00BF     		.align	2
 1283              	.L55:
 1284 00b4 00000000 		.word	.LANCHOR6
 1285 00b8 00380240 		.word	1073887232
 1286 00bc 000C0240 		.word	1073875968
 1287 00c0 00080240 		.word	1073874944
 1288 00c4 00000000 		.word	.LANCHOR0
 1289              		.cfi_endproc
 1290              	.LFE151:
 1292              		.section	.text.LCD_IO_WriteData,"ax",%progbits
 1293              		.align	1
 1294              		.p2align 2,,3
 1295              		.global	LCD_IO_WriteData
 1296              		.syntax unified
 1297              		.thumb
 1298              		.thumb_func
 1300              	LCD_IO_WriteData:
 1301              	.LVL50:
 1302              	.LFB152:
 805:Core/Src/stm32f429i_discovery.c **** 
 806:Core/Src/stm32f429i_discovery.c **** /**
 807:Core/Src/stm32f429i_discovery.c ****   * @brief  Writes register value.
 808:Core/Src/stm32f429i_discovery.c ****   */
 809:Core/Src/stm32f429i_discovery.c **** void LCD_IO_WriteData(uint16_t RegValue) 
 810:Core/Src/stm32f429i_discovery.c **** {
 1303              		.loc 1 810 1 is_stmt 1 view -0
 1304              		.cfi_startproc
 1305              		@ args = 0, pretend = 0, frame = 8
 1306              		@ frame_needed = 0, uses_anonymous_args = 0
 811:Core/Src/stm32f429i_discovery.c ****   /* Set WRX to send data */
 812:Core/Src/stm32f429i_discovery.c ****   LCD_WRX_HIGH();
 1307              		.loc 1 812 3 view .LVU358
 810:Core/Src/stm32f429i_discovery.c ****   /* Set WRX to send data */
 1308              		.loc 1 810 1 is_stmt 0 view .LVU359
 1309 0000 10B5     		push	{r4, lr}
 1310              	.LCFI30:
 1311              		.cfi_def_cfa_offset 8
 1312              		.cfi_offset 4, -8
 1313              		.cfi_offset 14, -4
 1314              		.loc 1 812 3 view .LVU360
 1315 0002 0122     		movs	r2, #1
 810:Core/Src/stm32f429i_discovery.c ****   /* Set WRX to send data */
 1316              		.loc 1 810 1 view .LVU361
 1317 0004 82B0     		sub	sp, sp, #8
 1318              	.LCFI31:
 1319              		.cfi_def_cfa_offset 16
 810:Core/Src/stm32f429i_discovery.c ****   /* Set WRX to send data */
 1320              		.loc 1 810 1 view .LVU362
 1321 0006 0446     		mov	r4, r0
 1322              		.loc 1 812 3 view .LVU363
 1323 0008 4FF40051 		mov	r1, #8192
 1324 000c 1248     		ldr	r0, .L63
 1325              	.LVL51:
 1326              		.loc 1 812 3 view .LVU364
 1327 000e FFF7FEFF 		bl	HAL_GPIO_WritePin
ARM GAS  /tmp/ccMsMeuK.s 			page 44


 1328              	.LVL52:
 813:Core/Src/stm32f429i_discovery.c ****   
 814:Core/Src/stm32f429i_discovery.c ****   /* Reset LCD control line(/CS) and Send data */  
 815:Core/Src/stm32f429i_discovery.c ****   LCD_CS_LOW();
 1329              		.loc 1 815 3 is_stmt 1 view .LVU365
 1330 0012 1248     		ldr	r0, .L63+4
 1331 0014 0022     		movs	r2, #0
 1332 0016 0421     		movs	r1, #4
 1333 0018 FFF7FEFF 		bl	HAL_GPIO_WritePin
 1334              	.LVL53:
 816:Core/Src/stm32f429i_discovery.c ****   SPIx_Write(RegValue);
 1335              		.loc 1 816 3 view .LVU366
 1336              	.LBB136:
 1337              	.LBB137:
 695:Core/Src/stm32f429i_discovery.c ****   
 1338              		.loc 1 695 12 is_stmt 0 view .LVU367
 1339 001c 104B     		ldr	r3, .L63+8
 1340 001e 1148     		ldr	r0, .L63+12
 1341 0020 1B68     		ldr	r3, [r3]
 1342 0022 ADF80640 		strh	r4, [sp, #6]	@ movhi
 1343              	.LVL54:
 695:Core/Src/stm32f429i_discovery.c ****   
 1344              		.loc 1 695 12 view .LVU368
 1345              	.LBE137:
 1346              	.LBI136:
 691:Core/Src/stm32f429i_discovery.c **** {
 1347              		.loc 1 691 13 is_stmt 1 view .LVU369
 1348              	.LBB144:
 693:Core/Src/stm32f429i_discovery.c ****   
 1349              		.loc 1 693 3 view .LVU370
 695:Core/Src/stm32f429i_discovery.c ****   
 1350              		.loc 1 695 3 view .LVU371
 695:Core/Src/stm32f429i_discovery.c ****   
 1351              		.loc 1 695 12 is_stmt 0 view .LVU372
 1352 0026 0122     		movs	r2, #1
 1353 0028 0DF10601 		add	r1, sp, #6
 1354 002c FFF7FEFF 		bl	HAL_SPI_Transmit
 1355              	.LVL55:
 698:Core/Src/stm32f429i_discovery.c ****   {
 1356              		.loc 1 698 3 is_stmt 1 view .LVU373
 698:Core/Src/stm32f429i_discovery.c ****   {
 1357              		.loc 1 698 5 is_stmt 0 view .LVU374
 1358 0030 38B9     		cbnz	r0, .L62
 1359              	.LVL56:
 1360              	.L59:
 698:Core/Src/stm32f429i_discovery.c ****   {
 1361              		.loc 1 698 5 view .LVU375
 1362              	.LBE144:
 1363              	.LBE136:
 817:Core/Src/stm32f429i_discovery.c ****   
 818:Core/Src/stm32f429i_discovery.c ****   /* Deselect: Chip Select high */
 819:Core/Src/stm32f429i_discovery.c ****   LCD_CS_HIGH();
 1364              		.loc 1 819 3 is_stmt 1 view .LVU376
 1365 0032 0A48     		ldr	r0, .L63+4
 1366 0034 0122     		movs	r2, #1
 1367 0036 0421     		movs	r1, #4
 820:Core/Src/stm32f429i_discovery.c **** }
ARM GAS  /tmp/ccMsMeuK.s 			page 45


 1368              		.loc 1 820 1 is_stmt 0 view .LVU377
 1369 0038 02B0     		add	sp, sp, #8
 1370              	.LCFI32:
 1371              		.cfi_remember_state
 1372              		.cfi_def_cfa_offset 8
 1373              		@ sp needed
 1374 003a BDE81040 		pop	{r4, lr}
 1375              	.LCFI33:
 1376              		.cfi_restore 14
 1377              		.cfi_restore 4
 1378              		.cfi_def_cfa_offset 0
 819:Core/Src/stm32f429i_discovery.c **** }
 1379              		.loc 1 819 3 view .LVU378
 1380 003e FFF7FEBF 		b	HAL_GPIO_WritePin
 1381              	.LVL57:
 1382              	.L62:
 1383              	.LCFI34:
 1384              		.cfi_restore_state
 1385              	.LBB146:
 1386              	.LBB145:
 1387              	.LBB138:
 1388              	.LBI138:
 691:Core/Src/stm32f429i_discovery.c **** {
 1389              		.loc 1 691 13 is_stmt 1 view .LVU379
 1390              	.LBB139:
 701:Core/Src/stm32f429i_discovery.c ****   }
 1391              		.loc 1 701 5 view .LVU380
 1392              	.LBB140:
 1393              	.LBI140:
 728:Core/Src/stm32f429i_discovery.c **** {
 1394              		.loc 1 728 13 view .LVU381
 1395              	.LBB141:
 731:Core/Src/stm32f429i_discovery.c ****   
 1396              		.loc 1 731 3 view .LVU382
 1397 0042 0848     		ldr	r0, .L63+12
 1398              	.LVL58:
 731:Core/Src/stm32f429i_discovery.c ****   
 1399              		.loc 1 731 3 is_stmt 0 view .LVU383
 1400 0044 FFF7FEFF 		bl	HAL_SPI_DeInit
 1401              	.LVL59:
 734:Core/Src/stm32f429i_discovery.c **** }
 1402              		.loc 1 734 3 is_stmt 1 view .LVU384
 1403              	.LBB142:
 1404              	.LBI142:
 632:Core/Src/stm32f429i_discovery.c **** {
 1405              		.loc 1 632 13 view .LVU385
 1406              	.LBB143:
 634:Core/Src/stm32f429i_discovery.c ****   {
 1407              		.loc 1 634 3 view .LVU386
 634:Core/Src/stm32f429i_discovery.c ****   {
 1408              		.loc 1 634 6 is_stmt 0 view .LVU387
 1409 0048 0648     		ldr	r0, .L63+12
 1410 004a FFF7FEFF 		bl	HAL_SPI_GetState
 1411              	.LVL60:
 634:Core/Src/stm32f429i_discovery.c ****   {
 1412              		.loc 1 634 5 view .LVU388
 1413 004e 0028     		cmp	r0, #0
ARM GAS  /tmp/ccMsMeuK.s 			page 46


 1414 0050 EFD1     		bne	.L59
 1415 0052 FFF7FEFF 		bl	SPIx_Init.part.0
 1416              	.LVL61:
 1417 0056 ECE7     		b	.L59
 1418              	.L64:
 1419              		.align	2
 1420              	.L63:
 1421 0058 000C0240 		.word	1073875968
 1422 005c 00080240 		.word	1073874944
 1423 0060 00000000 		.word	.LANCHOR2
 1424 0064 00000000 		.word	.LANCHOR0
 1425              	.LBE143:
 1426              	.LBE142:
 1427              	.LBE141:
 1428              	.LBE140:
 1429              	.LBE139:
 1430              	.LBE138:
 1431              	.LBE145:
 1432              	.LBE146:
 1433              		.cfi_endproc
 1434              	.LFE152:
 1436              		.section	.text.LCD_IO_WriteReg,"ax",%progbits
 1437              		.align	1
 1438              		.p2align 2,,3
 1439              		.global	LCD_IO_WriteReg
 1440              		.syntax unified
 1441              		.thumb
 1442              		.thumb_func
 1444              	LCD_IO_WriteReg:
 1445              	.LVL62:
 1446              	.LFB153:
 821:Core/Src/stm32f429i_discovery.c **** 
 822:Core/Src/stm32f429i_discovery.c **** /**
 823:Core/Src/stm32f429i_discovery.c ****   * @brief  Writes register address.
 824:Core/Src/stm32f429i_discovery.c ****   */
 825:Core/Src/stm32f429i_discovery.c **** void LCD_IO_WriteReg(uint8_t Reg) 
 826:Core/Src/stm32f429i_discovery.c **** {
 1447              		.loc 1 826 1 is_stmt 1 view -0
 1448              		.cfi_startproc
 1449              		@ args = 0, pretend = 0, frame = 8
 1450              		@ frame_needed = 0, uses_anonymous_args = 0
 827:Core/Src/stm32f429i_discovery.c ****   /* Reset WRX to send command */
 828:Core/Src/stm32f429i_discovery.c ****   LCD_WRX_LOW();
 1451              		.loc 1 828 3 view .LVU390
 826:Core/Src/stm32f429i_discovery.c ****   /* Reset WRX to send command */
 1452              		.loc 1 826 1 is_stmt 0 view .LVU391
 1453 0000 10B5     		push	{r4, lr}
 1454              	.LCFI35:
 1455              		.cfi_def_cfa_offset 8
 1456              		.cfi_offset 4, -8
 1457              		.cfi_offset 14, -4
 1458              		.loc 1 828 3 view .LVU392
 1459 0002 0022     		movs	r2, #0
 826:Core/Src/stm32f429i_discovery.c ****   /* Reset WRX to send command */
 1460              		.loc 1 826 1 view .LVU393
 1461 0004 82B0     		sub	sp, sp, #8
 1462              	.LCFI36:
ARM GAS  /tmp/ccMsMeuK.s 			page 47


 1463              		.cfi_def_cfa_offset 16
 826:Core/Src/stm32f429i_discovery.c ****   /* Reset WRX to send command */
 1464              		.loc 1 826 1 view .LVU394
 1465 0006 0446     		mov	r4, r0
 1466              		.loc 1 828 3 view .LVU395
 1467 0008 4FF40051 		mov	r1, #8192
 1468 000c 1248     		ldr	r0, .L71
 1469              	.LVL63:
 1470              		.loc 1 828 3 view .LVU396
 1471 000e FFF7FEFF 		bl	HAL_GPIO_WritePin
 1472              	.LVL64:
 829:Core/Src/stm32f429i_discovery.c ****   
 830:Core/Src/stm32f429i_discovery.c ****   /* Reset LCD control line(/CS) and Send command */
 831:Core/Src/stm32f429i_discovery.c ****   LCD_CS_LOW();
 1473              		.loc 1 831 3 is_stmt 1 view .LVU397
 1474 0012 1248     		ldr	r0, .L71+4
 1475 0014 0022     		movs	r2, #0
 1476 0016 0421     		movs	r1, #4
 1477 0018 FFF7FEFF 		bl	HAL_GPIO_WritePin
 1478              	.LVL65:
 832:Core/Src/stm32f429i_discovery.c ****   SPIx_Write(Reg);
 1479              		.loc 1 832 3 view .LVU398
 1480              	.LBB155:
 1481              	.LBB156:
 695:Core/Src/stm32f429i_discovery.c ****   
 1482              		.loc 1 695 12 is_stmt 0 view .LVU399
 1483 001c 104B     		ldr	r3, .L71+8
 1484 001e 1148     		ldr	r0, .L71+12
 1485 0020 1B68     		ldr	r3, [r3]
 1486              	.LBE156:
 1487              	.LBE155:
 1488              		.loc 1 832 3 view .LVU400
 1489 0022 ADF80640 		strh	r4, [sp, #6]	@ movhi
 1490              	.LVL66:
 1491              	.LBB165:
 1492              	.LBI155:
 691:Core/Src/stm32f429i_discovery.c **** {
 1493              		.loc 1 691 13 is_stmt 1 view .LVU401
 1494              	.LBB163:
 693:Core/Src/stm32f429i_discovery.c ****   
 1495              		.loc 1 693 3 view .LVU402
 695:Core/Src/stm32f429i_discovery.c ****   
 1496              		.loc 1 695 3 view .LVU403
 695:Core/Src/stm32f429i_discovery.c ****   
 1497              		.loc 1 695 12 is_stmt 0 view .LVU404
 1498 0026 0122     		movs	r2, #1
 1499 0028 0DF10601 		add	r1, sp, #6
 1500 002c FFF7FEFF 		bl	HAL_SPI_Transmit
 1501              	.LVL67:
 698:Core/Src/stm32f429i_discovery.c ****   {
 1502              		.loc 1 698 3 is_stmt 1 view .LVU405
 698:Core/Src/stm32f429i_discovery.c ****   {
 1503              		.loc 1 698 5 is_stmt 0 view .LVU406
 1504 0030 38B9     		cbnz	r0, .L70
 1505              	.LVL68:
 1506              	.L67:
 698:Core/Src/stm32f429i_discovery.c ****   {
ARM GAS  /tmp/ccMsMeuK.s 			page 48


 1507              		.loc 1 698 5 view .LVU407
 1508              	.LBE163:
 1509              	.LBE165:
 833:Core/Src/stm32f429i_discovery.c ****   
 834:Core/Src/stm32f429i_discovery.c ****   /* Deselect: Chip Select high */
 835:Core/Src/stm32f429i_discovery.c ****   LCD_CS_HIGH();
 1510              		.loc 1 835 3 is_stmt 1 view .LVU408
 1511 0032 0A48     		ldr	r0, .L71+4
 1512 0034 0122     		movs	r2, #1
 1513 0036 0421     		movs	r1, #4
 836:Core/Src/stm32f429i_discovery.c **** }
 1514              		.loc 1 836 1 is_stmt 0 view .LVU409
 1515 0038 02B0     		add	sp, sp, #8
 1516              	.LCFI37:
 1517              		.cfi_remember_state
 1518              		.cfi_def_cfa_offset 8
 1519              		@ sp needed
 1520 003a BDE81040 		pop	{r4, lr}
 1521              	.LCFI38:
 1522              		.cfi_restore 14
 1523              		.cfi_restore 4
 1524              		.cfi_def_cfa_offset 0
 835:Core/Src/stm32f429i_discovery.c **** }
 1525              		.loc 1 835 3 view .LVU410
 1526 003e FFF7FEBF 		b	HAL_GPIO_WritePin
 1527              	.LVL69:
 1528              	.L70:
 1529              	.LCFI39:
 1530              		.cfi_restore_state
 1531              	.LBB166:
 1532              	.LBB164:
 1533              	.LBB157:
 1534              	.LBI157:
 691:Core/Src/stm32f429i_discovery.c **** {
 1535              		.loc 1 691 13 is_stmt 1 view .LVU411
 1536              	.LBB158:
 701:Core/Src/stm32f429i_discovery.c ****   }
 1537              		.loc 1 701 5 view .LVU412
 1538              	.LBB159:
 1539              	.LBI159:
 728:Core/Src/stm32f429i_discovery.c **** {
 1540              		.loc 1 728 13 view .LVU413
 1541              	.LBB160:
 731:Core/Src/stm32f429i_discovery.c ****   
 1542              		.loc 1 731 3 view .LVU414
 1543 0042 0848     		ldr	r0, .L71+12
 1544              	.LVL70:
 731:Core/Src/stm32f429i_discovery.c ****   
 1545              		.loc 1 731 3 is_stmt 0 view .LVU415
 1546 0044 FFF7FEFF 		bl	HAL_SPI_DeInit
 1547              	.LVL71:
 734:Core/Src/stm32f429i_discovery.c **** }
 1548              		.loc 1 734 3 is_stmt 1 view .LVU416
 1549              	.LBB161:
 1550              	.LBI161:
 632:Core/Src/stm32f429i_discovery.c **** {
 1551              		.loc 1 632 13 view .LVU417
ARM GAS  /tmp/ccMsMeuK.s 			page 49


 1552              	.LBB162:
 634:Core/Src/stm32f429i_discovery.c ****   {
 1553              		.loc 1 634 3 view .LVU418
 634:Core/Src/stm32f429i_discovery.c ****   {
 1554              		.loc 1 634 6 is_stmt 0 view .LVU419
 1555 0048 0648     		ldr	r0, .L71+12
 1556 004a FFF7FEFF 		bl	HAL_SPI_GetState
 1557              	.LVL72:
 634:Core/Src/stm32f429i_discovery.c ****   {
 1558              		.loc 1 634 5 view .LVU420
 1559 004e 0028     		cmp	r0, #0
 1560 0050 EFD1     		bne	.L67
 1561 0052 FFF7FEFF 		bl	SPIx_Init.part.0
 1562              	.LVL73:
 1563 0056 ECE7     		b	.L67
 1564              	.L72:
 1565              		.align	2
 1566              	.L71:
 1567 0058 000C0240 		.word	1073875968
 1568 005c 00080240 		.word	1073874944
 1569 0060 00000000 		.word	.LANCHOR2
 1570 0064 00000000 		.word	.LANCHOR0
 1571              	.LBE162:
 1572              	.LBE161:
 1573              	.LBE160:
 1574              	.LBE159:
 1575              	.LBE158:
 1576              	.LBE157:
 1577              	.LBE164:
 1578              	.LBE166:
 1579              		.cfi_endproc
 1580              	.LFE153:
 1582              		.section	.text.LCD_IO_ReadData,"ax",%progbits
 1583              		.align	1
 1584              		.p2align 2,,3
 1585              		.global	LCD_IO_ReadData
 1586              		.syntax unified
 1587              		.thumb
 1588              		.thumb_func
 1590              	LCD_IO_ReadData:
 1591              	.LVL74:
 1592              	.LFB154:
 837:Core/Src/stm32f429i_discovery.c **** 
 838:Core/Src/stm32f429i_discovery.c **** /**
 839:Core/Src/stm32f429i_discovery.c ****   * @brief  Reads register value.
 840:Core/Src/stm32f429i_discovery.c ****   * @param  RegValue Address of the register to read
 841:Core/Src/stm32f429i_discovery.c ****   * @param  ReadSize Number of bytes to read
 842:Core/Src/stm32f429i_discovery.c ****   * @retval Content of the register value
 843:Core/Src/stm32f429i_discovery.c ****   */
 844:Core/Src/stm32f429i_discovery.c **** uint32_t LCD_IO_ReadData(uint16_t RegValue, uint8_t ReadSize) 
 845:Core/Src/stm32f429i_discovery.c **** {
 1593              		.loc 1 845 1 is_stmt 1 view -0
 1594              		.cfi_startproc
 1595              		@ args = 0, pretend = 0, frame = 8
 1596              		@ frame_needed = 0, uses_anonymous_args = 0
 846:Core/Src/stm32f429i_discovery.c ****   uint32_t readvalue = 0;
 1597              		.loc 1 846 3 view .LVU422
ARM GAS  /tmp/ccMsMeuK.s 			page 50


 847:Core/Src/stm32f429i_discovery.c **** 
 848:Core/Src/stm32f429i_discovery.c ****   /* Select: Chip Select low */
 849:Core/Src/stm32f429i_discovery.c ****   LCD_CS_LOW();
 1598              		.loc 1 849 3 view .LVU423
 845:Core/Src/stm32f429i_discovery.c ****   uint32_t readvalue = 0;
 1599              		.loc 1 845 1 is_stmt 0 view .LVU424
 1600 0000 70B5     		push	{r4, r5, r6, lr}
 1601              	.LCFI40:
 1602              		.cfi_def_cfa_offset 16
 1603              		.cfi_offset 4, -16
 1604              		.cfi_offset 5, -12
 1605              		.cfi_offset 6, -8
 1606              		.cfi_offset 14, -4
 1607              		.loc 1 849 3 view .LVU425
 1608 0002 0022     		movs	r2, #0
 845:Core/Src/stm32f429i_discovery.c ****   uint32_t readvalue = 0;
 1609              		.loc 1 845 1 view .LVU426
 1610 0004 82B0     		sub	sp, sp, #8
 1611              	.LCFI41:
 1612              		.cfi_def_cfa_offset 24
 845:Core/Src/stm32f429i_discovery.c ****   uint32_t readvalue = 0;
 1613              		.loc 1 845 1 view .LVU427
 1614 0006 0546     		mov	r5, r0
 1615              	.LBB181:
 1616              	.LBB182:
 695:Core/Src/stm32f429i_discovery.c ****   
 1617              		.loc 1 695 12 view .LVU428
 1618 0008 204E     		ldr	r6, .L83
 1619              	.LBE182:
 1620              	.LBE181:
 1621              		.loc 1 849 3 view .LVU429
 1622 000a 2148     		ldr	r0, .L83+4
 1623              	.LVL75:
 845:Core/Src/stm32f429i_discovery.c ****   uint32_t readvalue = 0;
 1624              		.loc 1 845 1 view .LVU430
 1625 000c 0C46     		mov	r4, r1
 1626              		.loc 1 849 3 view .LVU431
 1627 000e 0421     		movs	r1, #4
 1628              	.LVL76:
 1629              		.loc 1 849 3 view .LVU432
 1630 0010 FFF7FEFF 		bl	HAL_GPIO_WritePin
 1631              	.LVL77:
 850:Core/Src/stm32f429i_discovery.c **** 
 851:Core/Src/stm32f429i_discovery.c ****   /* Reset WRX to send command */
 852:Core/Src/stm32f429i_discovery.c ****   LCD_WRX_LOW();
 1632              		.loc 1 852 3 is_stmt 1 view .LVU433
 1633 0014 1F48     		ldr	r0, .L83+8
 1634 0016 0022     		movs	r2, #0
 1635 0018 4FF40051 		mov	r1, #8192
 1636 001c FFF7FEFF 		bl	HAL_GPIO_WritePin
 1637              	.LVL78:
 853:Core/Src/stm32f429i_discovery.c ****   
 854:Core/Src/stm32f429i_discovery.c ****   SPIx_Write(RegValue);
 1638              		.loc 1 854 3 view .LVU434
 1639              	.LBB192:
 1640              	.LBB189:
 695:Core/Src/stm32f429i_discovery.c ****   
ARM GAS  /tmp/ccMsMeuK.s 			page 51


 1641              		.loc 1 695 12 is_stmt 0 view .LVU435
 1642 0020 3368     		ldr	r3, [r6]
 1643 0022 1D48     		ldr	r0, .L83+12
 1644 0024 ADF80450 		strh	r5, [sp, #4]	@ movhi
 1645              	.LVL79:
 695:Core/Src/stm32f429i_discovery.c ****   
 1646              		.loc 1 695 12 view .LVU436
 1647              	.LBE189:
 1648              	.LBI181:
 691:Core/Src/stm32f429i_discovery.c **** {
 1649              		.loc 1 691 13 is_stmt 1 view .LVU437
 1650              	.LBB190:
 693:Core/Src/stm32f429i_discovery.c ****   
 1651              		.loc 1 693 3 view .LVU438
 695:Core/Src/stm32f429i_discovery.c ****   
 1652              		.loc 1 695 3 view .LVU439
 695:Core/Src/stm32f429i_discovery.c ****   
 1653              		.loc 1 695 12 is_stmt 0 view .LVU440
 1654 0028 0122     		movs	r2, #1
 1655 002a 01A9     		add	r1, sp, #4
 1656 002c FFF7FEFF 		bl	HAL_SPI_Transmit
 1657              	.LVL80:
 698:Core/Src/stm32f429i_discovery.c ****   {
 1658              		.loc 1 698 3 is_stmt 1 view .LVU441
 698:Core/Src/stm32f429i_discovery.c ****   {
 1659              		.loc 1 698 5 is_stmt 0 view .LVU442
 1660 0030 A8B9     		cbnz	r0, .L81
 1661              	.LVL81:
 1662              	.L75:
 698:Core/Src/stm32f429i_discovery.c ****   {
 1663              		.loc 1 698 5 view .LVU443
 1664              	.LBE190:
 1665              	.LBE192:
 855:Core/Src/stm32f429i_discovery.c ****   
 856:Core/Src/stm32f429i_discovery.c ****   readvalue = SPIx_Read(ReadSize);
 1666              		.loc 1 856 3 is_stmt 1 view .LVU444
 1667              	.LBB193:
 1668              	.LBI193:
 670:Core/Src/stm32f429i_discovery.c **** {
 1669              		.loc 1 670 17 view .LVU445
 1670              	.LBB194:
 672:Core/Src/stm32f429i_discovery.c ****   uint32_t readvalue;
 1671              		.loc 1 672 3 view .LVU446
 673:Core/Src/stm32f429i_discovery.c ****   
 1672              		.loc 1 673 3 view .LVU447
 675:Core/Src/stm32f429i_discovery.c ****   
 1673              		.loc 1 675 3 view .LVU448
 675:Core/Src/stm32f429i_discovery.c ****   
 1674              		.loc 1 675 12 is_stmt 0 view .LVU449
 1675 0032 3368     		ldr	r3, [r6]
 1676 0034 1848     		ldr	r0, .L83+12
 1677 0036 2246     		mov	r2, r4
 1678 0038 01A9     		add	r1, sp, #4
 1679 003a FFF7FEFF 		bl	HAL_SPI_Receive
 1680              	.LVL82:
 678:Core/Src/stm32f429i_discovery.c ****   {
 1681              		.loc 1 678 3 is_stmt 1 view .LVU450
ARM GAS  /tmp/ccMsMeuK.s 			page 52


 678:Core/Src/stm32f429i_discovery.c ****   {
 1682              		.loc 1 678 5 is_stmt 0 view .LVU451
 1683 003e C8B9     		cbnz	r0, .L82
 1684              	.LVL83:
 1685              	.L78:
 684:Core/Src/stm32f429i_discovery.c **** }
 1686              		.loc 1 684 3 is_stmt 1 view .LVU452
 1687              	.LBE194:
 1688              	.LBE193:
 857:Core/Src/stm32f429i_discovery.c **** 
 858:Core/Src/stm32f429i_discovery.c ****   /* Set WRX to send data */
 859:Core/Src/stm32f429i_discovery.c ****   LCD_WRX_HIGH();
 1689              		.loc 1 859 3 is_stmt 0 view .LVU453
 1690 0040 1448     		ldr	r0, .L83+8
 1691              	.LBB201:
 1692              	.LBB199:
 684:Core/Src/stm32f429i_discovery.c **** }
 1693              		.loc 1 684 10 view .LVU454
 1694 0042 019C     		ldr	r4, [sp, #4]
 1695              	.LVL84:
 684:Core/Src/stm32f429i_discovery.c **** }
 1696              		.loc 1 684 10 view .LVU455
 1697              	.LBE199:
 1698              	.LBE201:
 1699              		.loc 1 859 3 is_stmt 1 view .LVU456
 1700 0044 0122     		movs	r2, #1
 1701 0046 4FF40051 		mov	r1, #8192
 1702 004a FFF7FEFF 		bl	HAL_GPIO_WritePin
 1703              	.LVL85:
 860:Core/Src/stm32f429i_discovery.c **** 
 861:Core/Src/stm32f429i_discovery.c ****   /* Deselect: Chip Select high */
 862:Core/Src/stm32f429i_discovery.c ****   LCD_CS_HIGH();
 1704              		.loc 1 862 3 view .LVU457
 1705 004e 1048     		ldr	r0, .L83+4
 1706 0050 0122     		movs	r2, #1
 1707 0052 0421     		movs	r1, #4
 1708 0054 FFF7FEFF 		bl	HAL_GPIO_WritePin
 1709              	.LVL86:
 863:Core/Src/stm32f429i_discovery.c ****   
 864:Core/Src/stm32f429i_discovery.c ****   return readvalue;
 1710              		.loc 1 864 3 view .LVU458
 865:Core/Src/stm32f429i_discovery.c **** }
 1711              		.loc 1 865 1 is_stmt 0 view .LVU459
 1712 0058 2046     		mov	r0, r4
 1713 005a 02B0     		add	sp, sp, #8
 1714              	.LCFI42:
 1715              		.cfi_remember_state
 1716              		.cfi_def_cfa_offset 16
 1717              		@ sp needed
 1718 005c 70BD     		pop	{r4, r5, r6, pc}
 1719              	.LVL87:
 1720              	.L81:
 1721              	.LCFI43:
 1722              		.cfi_restore_state
 1723              	.LBB202:
 1724              	.LBB191:
 1725              	.LBB183:
ARM GAS  /tmp/ccMsMeuK.s 			page 53


 1726              	.LBI183:
 691:Core/Src/stm32f429i_discovery.c **** {
 1727              		.loc 1 691 13 is_stmt 1 view .LVU460
 1728              	.LBB184:
 701:Core/Src/stm32f429i_discovery.c ****   }
 1729              		.loc 1 701 5 view .LVU461
 1730              	.LBB185:
 1731              	.LBI185:
 728:Core/Src/stm32f429i_discovery.c **** {
 1732              		.loc 1 728 13 view .LVU462
 1733              	.LBB186:
 731:Core/Src/stm32f429i_discovery.c ****   
 1734              		.loc 1 731 3 view .LVU463
 1735 005e 0E48     		ldr	r0, .L83+12
 1736              	.LVL88:
 731:Core/Src/stm32f429i_discovery.c ****   
 1737              		.loc 1 731 3 is_stmt 0 view .LVU464
 1738 0060 FFF7FEFF 		bl	HAL_SPI_DeInit
 1739              	.LVL89:
 734:Core/Src/stm32f429i_discovery.c **** }
 1740              		.loc 1 734 3 is_stmt 1 view .LVU465
 1741              	.LBB187:
 1742              	.LBI187:
 632:Core/Src/stm32f429i_discovery.c **** {
 1743              		.loc 1 632 13 view .LVU466
 1744              	.LBB188:
 634:Core/Src/stm32f429i_discovery.c ****   {
 1745              		.loc 1 634 3 view .LVU467
 634:Core/Src/stm32f429i_discovery.c ****   {
 1746              		.loc 1 634 6 is_stmt 0 view .LVU468
 1747 0064 0C48     		ldr	r0, .L83+12
 1748 0066 FFF7FEFF 		bl	HAL_SPI_GetState
 1749              	.LVL90:
 634:Core/Src/stm32f429i_discovery.c ****   {
 1750              		.loc 1 634 5 view .LVU469
 1751 006a 0028     		cmp	r0, #0
 1752 006c E1D1     		bne	.L75
 1753 006e FFF7FEFF 		bl	SPIx_Init.part.0
 1754              	.LVL91:
 1755 0072 DEE7     		b	.L75
 1756              	.LVL92:
 1757              	.L82:
 634:Core/Src/stm32f429i_discovery.c ****   {
 1758              		.loc 1 634 5 view .LVU470
 1759              	.LBE188:
 1760              	.LBE187:
 1761              	.LBE186:
 1762              	.LBE185:
 1763              	.LBE184:
 1764              	.LBE183:
 1765              	.LBE191:
 1766              	.LBE202:
 1767              	.LBB203:
 1768              	.LBB200:
 681:Core/Src/stm32f429i_discovery.c ****   }
 1769              		.loc 1 681 5 is_stmt 1 view .LVU471
 1770              	.LBB195:
ARM GAS  /tmp/ccMsMeuK.s 			page 54


 1771              	.LBI195:
 728:Core/Src/stm32f429i_discovery.c **** {
 1772              		.loc 1 728 13 view .LVU472
 1773              	.LBB196:
 731:Core/Src/stm32f429i_discovery.c ****   
 1774              		.loc 1 731 3 view .LVU473
 1775 0074 0848     		ldr	r0, .L83+12
 1776              	.LVL93:
 731:Core/Src/stm32f429i_discovery.c ****   
 1777              		.loc 1 731 3 is_stmt 0 view .LVU474
 1778 0076 FFF7FEFF 		bl	HAL_SPI_DeInit
 1779              	.LVL94:
 734:Core/Src/stm32f429i_discovery.c **** }
 1780              		.loc 1 734 3 is_stmt 1 view .LVU475
 1781              	.LBB197:
 1782              	.LBI197:
 632:Core/Src/stm32f429i_discovery.c **** {
 1783              		.loc 1 632 13 view .LVU476
 1784              	.LBB198:
 634:Core/Src/stm32f429i_discovery.c ****   {
 1785              		.loc 1 634 3 view .LVU477
 634:Core/Src/stm32f429i_discovery.c ****   {
 1786              		.loc 1 634 6 is_stmt 0 view .LVU478
 1787 007a 0748     		ldr	r0, .L83+12
 1788 007c FFF7FEFF 		bl	HAL_SPI_GetState
 1789              	.LVL95:
 634:Core/Src/stm32f429i_discovery.c ****   {
 1790              		.loc 1 634 5 view .LVU479
 1791 0080 0028     		cmp	r0, #0
 1792 0082 DDD1     		bne	.L78
 1793 0084 FFF7FEFF 		bl	SPIx_Init.part.0
 1794              	.LVL96:
 1795 0088 DAE7     		b	.L78
 1796              	.L84:
 1797 008a 00BF     		.align	2
 1798              	.L83:
 1799 008c 00000000 		.word	.LANCHOR2
 1800 0090 00080240 		.word	1073874944
 1801 0094 000C0240 		.word	1073875968
 1802 0098 00000000 		.word	.LANCHOR0
 1803              	.LBE198:
 1804              	.LBE197:
 1805              	.LBE196:
 1806              	.LBE195:
 1807              	.LBE200:
 1808              	.LBE203:
 1809              		.cfi_endproc
 1810              	.LFE154:
 1812              		.section	.text.LCD_Delay,"ax",%progbits
 1813              		.align	1
 1814              		.p2align 2,,3
 1815              		.global	LCD_Delay
 1816              		.syntax unified
 1817              		.thumb
 1818              		.thumb_func
 1820              	LCD_Delay:
 1821              	.LVL97:
ARM GAS  /tmp/ccMsMeuK.s 			page 55


 1822              	.LFB155:
 866:Core/Src/stm32f429i_discovery.c **** 
 867:Core/Src/stm32f429i_discovery.c **** /**
 868:Core/Src/stm32f429i_discovery.c ****   * @brief  Wait for loop in ms.
 869:Core/Src/stm32f429i_discovery.c ****   * @param  Delay in ms.
 870:Core/Src/stm32f429i_discovery.c ****   */
 871:Core/Src/stm32f429i_discovery.c **** void LCD_Delay(uint32_t Delay)
 872:Core/Src/stm32f429i_discovery.c **** {
 1823              		.loc 1 872 1 is_stmt 1 view -0
 1824              		.cfi_startproc
 1825              		@ args = 0, pretend = 0, frame = 0
 1826              		@ frame_needed = 0, uses_anonymous_args = 0
 1827              		@ link register save eliminated.
 873:Core/Src/stm32f429i_discovery.c ****   HAL_Delay(Delay);
 1828              		.loc 1 873 3 view .LVU481
 1829 0000 FFF7FEBF 		b	HAL_Delay
 1830              	.LVL98:
 1831              		.loc 1 873 3 is_stmt 0 view .LVU482
 1832              		.cfi_endproc
 1833              	.LFE155:
 1835              		.section	.text.IOE_Init,"ax",%progbits
 1836              		.align	1
 1837              		.p2align 2,,3
 1838              		.global	IOE_Init
 1839              		.syntax unified
 1840              		.thumb
 1841              		.thumb_func
 1843              	IOE_Init:
 1844              	.LFB156:
 874:Core/Src/stm32f429i_discovery.c **** }
 875:Core/Src/stm32f429i_discovery.c **** 
 876:Core/Src/stm32f429i_discovery.c **** /*******************************************************************************
 877:Core/Src/stm32f429i_discovery.c ****                             LINK OPERATIONS
 878:Core/Src/stm32f429i_discovery.c **** *******************************************************************************/
 879:Core/Src/stm32f429i_discovery.c **** 
 880:Core/Src/stm32f429i_discovery.c **** /********************************* LINK IOE ***********************************/
 881:Core/Src/stm32f429i_discovery.c **** 
 882:Core/Src/stm32f429i_discovery.c **** /**
 883:Core/Src/stm32f429i_discovery.c ****   * @brief  IOE Low Level Initialization.
 884:Core/Src/stm32f429i_discovery.c ****   */
 885:Core/Src/stm32f429i_discovery.c **** void IOE_Init(void) 
 886:Core/Src/stm32f429i_discovery.c **** {
 1845              		.loc 1 886 1 is_stmt 1 view -0
 1846              		.cfi_startproc
 1847              		@ args = 0, pretend = 0, frame = 0
 1848              		@ frame_needed = 0, uses_anonymous_args = 0
 887:Core/Src/stm32f429i_discovery.c ****   I2Cx_Init();
 1849              		.loc 1 887 3 view .LVU484
 1850              	.LBB206:
 1851              	.LBI206:
 420:Core/Src/stm32f429i_discovery.c **** {
 1852              		.loc 1 420 13 view .LVU485
 1853              	.LBB207:
 422:Core/Src/stm32f429i_discovery.c ****   {
 1854              		.loc 1 422 3 view .LVU486
 1855              	.LBE207:
 1856              	.LBE206:
ARM GAS  /tmp/ccMsMeuK.s 			page 56


 886:Core/Src/stm32f429i_discovery.c ****   I2Cx_Init();
 1857              		.loc 1 886 1 is_stmt 0 view .LVU487
 1858 0000 08B5     		push	{r3, lr}
 1859              	.LCFI44:
 1860              		.cfi_def_cfa_offset 8
 1861              		.cfi_offset 3, -8
 1862              		.cfi_offset 14, -4
 1863              	.LBB210:
 1864              	.LBB208:
 422:Core/Src/stm32f429i_discovery.c ****   {
 1865              		.loc 1 422 6 view .LVU488
 1866 0002 0448     		ldr	r0, .L90
 1867 0004 FFF7FEFF 		bl	HAL_I2C_GetState
 1868              	.LVL99:
 422:Core/Src/stm32f429i_discovery.c ****   {
 1869              		.loc 1 422 5 view .LVU489
 1870 0008 00B1     		cbz	r0, .L89
 1871              	.LBE208:
 1872              	.LBE210:
 888:Core/Src/stm32f429i_discovery.c **** }
 1873              		.loc 1 888 1 view .LVU490
 1874 000a 08BD     		pop	{r3, pc}
 1875              	.L89:
 1876 000c BDE80840 		pop	{r3, lr}
 1877              	.LCFI45:
 1878              		.cfi_restore 14
 1879              		.cfi_restore 3
 1880              		.cfi_def_cfa_offset 0
 1881              	.LBB211:
 1882              	.LBB209:
 1883 0010 FFF7FEBF 		b	I2Cx_Init.part.0
 1884              	.LVL100:
 1885              	.L91:
 1886              		.align	2
 1887              	.L90:
 1888 0014 00000000 		.word	.LANCHOR1
 1889              	.LBE209:
 1890              	.LBE211:
 1891              		.cfi_endproc
 1892              	.LFE156:
 1894              		.section	.text.IOE_ITConfig,"ax",%progbits
 1895              		.align	1
 1896              		.p2align 2,,3
 1897              		.global	IOE_ITConfig
 1898              		.syntax unified
 1899              		.thumb
 1900              		.thumb_func
 1902              	IOE_ITConfig:
 1903              	.LFB157:
 889:Core/Src/stm32f429i_discovery.c **** 
 890:Core/Src/stm32f429i_discovery.c **** /**
 891:Core/Src/stm32f429i_discovery.c ****   * @brief  IOE Low Level Interrupt configuration.
 892:Core/Src/stm32f429i_discovery.c ****   */
 893:Core/Src/stm32f429i_discovery.c **** void IOE_ITConfig(void)
 894:Core/Src/stm32f429i_discovery.c **** {
 1904              		.loc 1 894 1 is_stmt 1 view -0
 1905              		.cfi_startproc
ARM GAS  /tmp/ccMsMeuK.s 			page 57


 1906              		@ args = 0, pretend = 0, frame = 24
 1907              		@ frame_needed = 0, uses_anonymous_args = 0
 895:Core/Src/stm32f429i_discovery.c ****   I2Cx_ITConfig();
 1908              		.loc 1 895 3 view .LVU492
 1909              	.LBB215:
 1910              	.LBI215:
 443:Core/Src/stm32f429i_discovery.c **** {
 1911              		.loc 1 443 13 view .LVU493
 1912              	.LBB216:
 445:Core/Src/stm32f429i_discovery.c ****     
 1913              		.loc 1 445 3 view .LVU494
 448:Core/Src/stm32f429i_discovery.c ****   
 1914              		.loc 1 448 3 view .LVU495
 1915              	.LBB217:
 448:Core/Src/stm32f429i_discovery.c ****   
 1916              		.loc 1 448 3 view .LVU496
 1917              	.LBE217:
 1918              	.LBE216:
 1919              	.LBE215:
 894:Core/Src/stm32f429i_discovery.c ****   I2Cx_ITConfig();
 1920              		.loc 1 894 1 is_stmt 0 view .LVU497
 1921 0000 30B5     		push	{r4, r5, lr}
 1922              	.LCFI46:
 1923              		.cfi_def_cfa_offset 12
 1924              		.cfi_offset 4, -12
 1925              		.cfi_offset 5, -8
 1926              		.cfi_offset 14, -4
 1927 0002 87B0     		sub	sp, sp, #28
 1928              	.LCFI47:
 1929              		.cfi_def_cfa_offset 40
 1930              	.LBB223:
 1931              	.LBB222:
 1932              	.LBB218:
 448:Core/Src/stm32f429i_discovery.c ****   
 1933              		.loc 1 448 3 view .LVU498
 1934 0004 0024     		movs	r4, #0
 1935 0006 114B     		ldr	r3, .L94
 1936 0008 0094     		str	r4, [sp]
 448:Core/Src/stm32f429i_discovery.c ****   
 1937              		.loc 1 448 3 is_stmt 1 view .LVU499
 1938 000a 1A6B     		ldr	r2, [r3, #48]
 1939              	.LBE218:
 454:Core/Src/stm32f429i_discovery.c ****     
 1940              		.loc 1 454 3 is_stmt 0 view .LVU500
 1941 000c 1048     		ldr	r0, .L94+4
 1942              	.LBB219:
 448:Core/Src/stm32f429i_discovery.c ****   
 1943              		.loc 1 448 3 view .LVU501
 1944 000e 42F00102 		orr	r2, r2, #1
 1945 0012 1A63     		str	r2, [r3, #48]
 448:Core/Src/stm32f429i_discovery.c ****   
 1946              		.loc 1 448 3 is_stmt 1 view .LVU502
 1947 0014 1B6B     		ldr	r3, [r3, #48]
 1948              	.LBE219:
 452:Core/Src/stm32f429i_discovery.c ****   GPIO_InitStruct.Mode  = GPIO_MODE_IT_FALLING;
 1949              		.loc 1 452 25 is_stmt 0 view .LVU503
 1950 0016 0494     		str	r4, [sp, #16]
ARM GAS  /tmp/ccMsMeuK.s 			page 58


 1951              	.LBB220:
 448:Core/Src/stm32f429i_discovery.c ****   
 1952              		.loc 1 448 3 view .LVU504
 1953 0018 03F00103 		and	r3, r3, #1
 1954 001c 0093     		str	r3, [sp]
 448:Core/Src/stm32f429i_discovery.c ****   
 1955              		.loc 1 448 3 is_stmt 1 view .LVU505
 1956              	.LBE220:
 451:Core/Src/stm32f429i_discovery.c ****   GPIO_InitStruct.Speed = GPIO_SPEED_LOW;
 1957              		.loc 1 451 25 is_stmt 0 view .LVU506
 1958 001e 0123     		movs	r3, #1
 454:Core/Src/stm32f429i_discovery.c ****     
 1959              		.loc 1 454 3 view .LVU507
 1960 0020 01A9     		add	r1, sp, #4
 450:Core/Src/stm32f429i_discovery.c ****   GPIO_InitStruct.Pull  = GPIO_PULLUP;
 1961              		.loc 1 450 25 view .LVU508
 1962 0022 4FF40042 		mov	r2, #32768
 451:Core/Src/stm32f429i_discovery.c ****   GPIO_InitStruct.Speed = GPIO_SPEED_LOW;
 1963              		.loc 1 451 25 view .LVU509
 1964 0026 0393     		str	r3, [sp, #12]
 453:Core/Src/stm32f429i_discovery.c ****   HAL_GPIO_Init(STMPE811_INT_GPIO_PORT, &GPIO_InitStruct);
 1965              		.loc 1 453 25 view .LVU510
 1966 0028 4FF40413 		mov	r3, #2162688
 1967 002c 0293     		str	r3, [sp, #8]
 450:Core/Src/stm32f429i_discovery.c ****   GPIO_InitStruct.Pull  = GPIO_PULLUP;
 1968              		.loc 1 450 25 view .LVU511
 1969 002e 0192     		str	r2, [sp, #4]
 1970              	.LBB221:
 448:Core/Src/stm32f429i_discovery.c ****   
 1971              		.loc 1 448 3 view .LVU512
 1972 0030 009D     		ldr	r5, [sp]
 1973              	.LBE221:
 448:Core/Src/stm32f429i_discovery.c ****   
 1974              		.loc 1 448 3 is_stmt 1 view .LVU513
 450:Core/Src/stm32f429i_discovery.c ****   GPIO_InitStruct.Pull  = GPIO_PULLUP;
 1975              		.loc 1 450 3 view .LVU514
 451:Core/Src/stm32f429i_discovery.c ****   GPIO_InitStruct.Speed = GPIO_SPEED_LOW;
 1976              		.loc 1 451 3 view .LVU515
 452:Core/Src/stm32f429i_discovery.c ****   GPIO_InitStruct.Mode  = GPIO_MODE_IT_FALLING;
 1977              		.loc 1 452 3 view .LVU516
 453:Core/Src/stm32f429i_discovery.c ****   HAL_GPIO_Init(STMPE811_INT_GPIO_PORT, &GPIO_InitStruct);
 1978              		.loc 1 453 3 view .LVU517
 454:Core/Src/stm32f429i_discovery.c ****     
 1979              		.loc 1 454 3 view .LVU518
 1980 0032 FFF7FEFF 		bl	HAL_GPIO_Init
 1981              	.LVL101:
 457:Core/Src/stm32f429i_discovery.c ****   HAL_NVIC_EnableIRQ((IRQn_Type)(STMPE811_INT_EXTI));
 1982              		.loc 1 457 3 view .LVU519
 1983 0036 2246     		mov	r2, r4
 1984 0038 0F21     		movs	r1, #15
 1985 003a 2820     		movs	r0, #40
 1986 003c FFF7FEFF 		bl	HAL_NVIC_SetPriority
 1987              	.LVL102:
 458:Core/Src/stm32f429i_discovery.c **** }
 1988              		.loc 1 458 3 view .LVU520
 1989 0040 2820     		movs	r0, #40
 1990 0042 FFF7FEFF 		bl	HAL_NVIC_EnableIRQ
ARM GAS  /tmp/ccMsMeuK.s 			page 59


 1991              	.LVL103:
 1992              	.LBE222:
 1993              	.LBE223:
 896:Core/Src/stm32f429i_discovery.c **** }
 1994              		.loc 1 896 1 is_stmt 0 view .LVU521
 1995 0046 07B0     		add	sp, sp, #28
 1996              	.LCFI48:
 1997              		.cfi_def_cfa_offset 12
 1998              		@ sp needed
 1999 0048 30BD     		pop	{r4, r5, pc}
 2000              	.L95:
 2001 004a 00BF     		.align	2
 2002              	.L94:
 2003 004c 00380240 		.word	1073887232
 2004 0050 00000240 		.word	1073872896
 2005              		.cfi_endproc
 2006              	.LFE157:
 2008              		.section	.text.IOE_Write,"ax",%progbits
 2009              		.align	1
 2010              		.p2align 2,,3
 2011              		.global	IOE_Write
 2012              		.syntax unified
 2013              		.thumb
 2014              		.thumb_func
 2016              	IOE_Write:
 2017              	.LVL104:
 2018              	.LFB158:
 897:Core/Src/stm32f429i_discovery.c **** 
 898:Core/Src/stm32f429i_discovery.c **** /**
 899:Core/Src/stm32f429i_discovery.c ****   * @brief  IOE Writes single data operation.
 900:Core/Src/stm32f429i_discovery.c ****   * @param  Addr: I2C Address
 901:Core/Src/stm32f429i_discovery.c ****   * @param  Reg: Reg Address 
 902:Core/Src/stm32f429i_discovery.c ****   * @param  Value: Data to be written
 903:Core/Src/stm32f429i_discovery.c ****   */
 904:Core/Src/stm32f429i_discovery.c **** void IOE_Write(uint8_t Addr, uint8_t Reg, uint8_t Value)
 905:Core/Src/stm32f429i_discovery.c **** {
 2019              		.loc 1 905 1 is_stmt 1 view -0
 2020              		.cfi_startproc
 2021              		@ args = 0, pretend = 0, frame = 8
 2022              		@ frame_needed = 0, uses_anonymous_args = 0
 906:Core/Src/stm32f429i_discovery.c ****   I2Cx_WriteData(Addr, Reg, Value);
 2023              		.loc 1 906 3 view .LVU523
 905:Core/Src/stm32f429i_discovery.c ****   I2Cx_WriteData(Addr, Reg, Value);
 2024              		.loc 1 905 1 is_stmt 0 view .LVU524
 2025 0000 10B5     		push	{r4, lr}
 2026              	.LCFI49:
 2027              		.cfi_def_cfa_offset 8
 2028              		.cfi_offset 4, -8
 2029              		.cfi_offset 14, -4
 2030              	.LBB230:
 2031              	.LBB231:
 471:Core/Src/stm32f429i_discovery.c ****   
 2032              		.loc 1 471 12 view .LVU525
 2033 0002 104B     		ldr	r3, .L102
 2034              	.LVL105:
 471:Core/Src/stm32f429i_discovery.c ****   
 2035              		.loc 1 471 12 view .LVU526
ARM GAS  /tmp/ccMsMeuK.s 			page 60


 2036              	.LBE231:
 2037              	.LBE230:
 905:Core/Src/stm32f429i_discovery.c ****   I2Cx_WriteData(Addr, Reg, Value);
 2038              		.loc 1 905 1 view .LVU527
 2039 0004 86B0     		sub	sp, sp, #24
 2040              	.LCFI50:
 2041              		.cfi_def_cfa_offset 32
 2042              	.LBB240:
 2043              	.LBB236:
 471:Core/Src/stm32f429i_discovery.c ****   
 2044              		.loc 1 471 12 view .LVU528
 2045 0006 1B68     		ldr	r3, [r3]
 2046 0008 0293     		str	r3, [sp, #8]
 2047              	.LVL106:
 471:Core/Src/stm32f429i_discovery.c ****   
 2048              		.loc 1 471 12 view .LVU529
 2049              	.LBE236:
 2050              	.LBE240:
 905:Core/Src/stm32f429i_discovery.c ****   I2Cx_WriteData(Addr, Reg, Value);
 2051              		.loc 1 905 1 view .LVU530
 2052 000a 1446     		mov	r4, r2
 2053              	.LBB241:
 2054              	.LBB237:
 471:Core/Src/stm32f429i_discovery.c ****   
 2055              		.loc 1 471 12 view .LVU531
 2056 000c 0123     		movs	r3, #1
 2057 000e 8DF81740 		strb	r4, [sp, #23]
 2058              	.LVL107:
 471:Core/Src/stm32f429i_discovery.c ****   
 2059              		.loc 1 471 12 view .LVU532
 2060              	.LBE237:
 2061              	.LBI230:
 467:Core/Src/stm32f429i_discovery.c ****   {
 2062              		.loc 1 467 13 is_stmt 1 view .LVU533
 2063              	.LBB238:
 469:Core/Src/stm32f429i_discovery.c ****   
 2064              		.loc 1 469 3 view .LVU534
 471:Core/Src/stm32f429i_discovery.c ****   
 2065              		.loc 1 471 3 view .LVU535
 471:Core/Src/stm32f429i_discovery.c ****   
 2066              		.loc 1 471 12 is_stmt 0 view .LVU536
 2067 0012 0DF11704 		add	r4, sp, #23
 2068              	.LVL108:
 471:Core/Src/stm32f429i_discovery.c ****   
 2069              		.loc 1 471 12 view .LVU537
 2070 0016 0A46     		mov	r2, r1
 2071              	.LVL109:
 471:Core/Src/stm32f429i_discovery.c ****   
 2072              		.loc 1 471 12 view .LVU538
 2073 0018 0193     		str	r3, [sp, #4]
 2074 001a 0146     		mov	r1, r0
 2075              	.LVL110:
 471:Core/Src/stm32f429i_discovery.c ****   
 2076              		.loc 1 471 12 view .LVU539
 2077 001c 0094     		str	r4, [sp]
 2078 001e 0A48     		ldr	r0, .L102+4
 2079              	.LVL111:
ARM GAS  /tmp/ccMsMeuK.s 			page 61


 471:Core/Src/stm32f429i_discovery.c ****   
 2080              		.loc 1 471 12 view .LVU540
 2081 0020 FFF7FEFF 		bl	HAL_I2C_Mem_Write
 2082              	.LVL112:
 474:Core/Src/stm32f429i_discovery.c ****   {
 2083              		.loc 1 474 3 is_stmt 1 view .LVU541
 474:Core/Src/stm32f429i_discovery.c ****   {
 2084              		.loc 1 474 5 is_stmt 0 view .LVU542
 2085 0024 08B9     		cbnz	r0, .L101
 2086              	.LVL113:
 2087              	.L96:
 474:Core/Src/stm32f429i_discovery.c ****   {
 2088              		.loc 1 474 5 view .LVU543
 2089              	.LBE238:
 2090              	.LBE241:
 907:Core/Src/stm32f429i_discovery.c **** }
 2091              		.loc 1 907 1 view .LVU544
 2092 0026 06B0     		add	sp, sp, #24
 2093              	.LCFI51:
 2094              		.cfi_remember_state
 2095              		.cfi_def_cfa_offset 8
 2096              		@ sp needed
 2097 0028 10BD     		pop	{r4, pc}
 2098              	.LVL114:
 2099              	.L101:
 2100              	.LCFI52:
 2101              		.cfi_restore_state
 2102              	.LBB242:
 2103              	.LBB239:
 477:Core/Src/stm32f429i_discovery.c ****   }        
 2104              		.loc 1 477 5 is_stmt 1 view .LVU545
 2105              	.LBB232:
 2106              	.LBI232:
 618:Core/Src/stm32f429i_discovery.c **** {
 2107              		.loc 1 618 13 view .LVU546
 2108              	.LBB233:
 621:Core/Src/stm32f429i_discovery.c ****   
 2109              		.loc 1 621 3 view .LVU547
 2110 002a 0748     		ldr	r0, .L102+4
 2111              	.LVL115:
 621:Core/Src/stm32f429i_discovery.c ****   
 2112              		.loc 1 621 3 is_stmt 0 view .LVU548
 2113 002c FFF7FEFF 		bl	HAL_I2C_DeInit
 2114              	.LVL116:
 624:Core/Src/stm32f429i_discovery.c **** }
 2115              		.loc 1 624 3 is_stmt 1 view .LVU549
 2116              	.LBB234:
 2117              	.LBI234:
 420:Core/Src/stm32f429i_discovery.c **** {
 2118              		.loc 1 420 13 view .LVU550
 2119              	.LBB235:
 422:Core/Src/stm32f429i_discovery.c ****   {
 2120              		.loc 1 422 3 view .LVU551
 422:Core/Src/stm32f429i_discovery.c ****   {
 2121              		.loc 1 422 6 is_stmt 0 view .LVU552
 2122 0030 0548     		ldr	r0, .L102+4
 2123 0032 FFF7FEFF 		bl	HAL_I2C_GetState
ARM GAS  /tmp/ccMsMeuK.s 			page 62


 2124              	.LVL117:
 422:Core/Src/stm32f429i_discovery.c ****   {
 2125              		.loc 1 422 5 view .LVU553
 2126 0036 0028     		cmp	r0, #0
 2127 0038 F5D1     		bne	.L96
 2128 003a FFF7FEFF 		bl	I2Cx_Init.part.0
 2129              	.LVL118:
 422:Core/Src/stm32f429i_discovery.c ****   {
 2130              		.loc 1 422 5 view .LVU554
 2131              	.LBE235:
 2132              	.LBE234:
 2133              	.LBE233:
 2134              	.LBE232:
 2135              	.LBE239:
 2136              	.LBE242:
 2137              		.loc 1 907 1 view .LVU555
 2138 003e 06B0     		add	sp, sp, #24
 2139              	.LCFI53:
 2140              		.cfi_def_cfa_offset 8
 2141              		@ sp needed
 2142 0040 10BD     		pop	{r4, pc}
 2143              	.L103:
 2144 0042 00BF     		.align	2
 2145              	.L102:
 2146 0044 00000000 		.word	.LANCHOR7
 2147 0048 00000000 		.word	.LANCHOR1
 2148              		.cfi_endproc
 2149              	.LFE158:
 2151              		.section	.text.IOE_Read,"ax",%progbits
 2152              		.align	1
 2153              		.p2align 2,,3
 2154              		.global	IOE_Read
 2155              		.syntax unified
 2156              		.thumb
 2157              		.thumb_func
 2159              	IOE_Read:
 2160              	.LVL119:
 2161              	.LFB159:
 908:Core/Src/stm32f429i_discovery.c **** 
 909:Core/Src/stm32f429i_discovery.c **** /**
 910:Core/Src/stm32f429i_discovery.c ****   * @brief  IOE Reads single data.
 911:Core/Src/stm32f429i_discovery.c ****   * @param  Addr: I2C Address
 912:Core/Src/stm32f429i_discovery.c ****   * @param  Reg: Reg Address 
 913:Core/Src/stm32f429i_discovery.c ****   * @retval The read data
 914:Core/Src/stm32f429i_discovery.c ****   */
 915:Core/Src/stm32f429i_discovery.c **** uint8_t IOE_Read(uint8_t Addr, uint8_t Reg)
 916:Core/Src/stm32f429i_discovery.c **** {
 2162              		.loc 1 916 1 is_stmt 1 view -0
 2163              		.cfi_startproc
 2164              		@ args = 0, pretend = 0, frame = 8
 2165              		@ frame_needed = 0, uses_anonymous_args = 0
 917:Core/Src/stm32f429i_discovery.c ****   return I2Cx_ReadData(Addr, Reg);
 2166              		.loc 1 917 3 view .LVU557
 916:Core/Src/stm32f429i_discovery.c ****   return I2Cx_ReadData(Addr, Reg);
 2167              		.loc 1 916 1 is_stmt 0 view .LVU558
 2168 0000 00B5     		push	{lr}
 2169              	.LCFI54:
ARM GAS  /tmp/ccMsMeuK.s 			page 63


 2170              		.cfi_def_cfa_offset 4
 2171              		.cfi_offset 14, -4
 2172              	.LBB249:
 2173              	.LBB250:
 513:Core/Src/stm32f429i_discovery.c ****  
 2174              		.loc 1 513 12 view .LVU559
 2175 0002 134B     		ldr	r3, .L110
 2176              	.LBE250:
 2177              	.LBE249:
 916:Core/Src/stm32f429i_discovery.c ****   return I2Cx_ReadData(Addr, Reg);
 2178              		.loc 1 916 1 view .LVU560
 2179 0004 87B0     		sub	sp, sp, #28
 2180              	.LCFI55:
 2181              		.cfi_def_cfa_offset 32
 2182              	.LBB258:
 2183              	.LBB255:
 513:Core/Src/stm32f429i_discovery.c ****  
 2184              		.loc 1 513 12 view .LVU561
 2185 0006 1B68     		ldr	r3, [r3]
 2186 0008 0293     		str	r3, [sp, #8]
 2187              	.LBE255:
 2188              	.LBE258:
 916:Core/Src/stm32f429i_discovery.c ****   return I2Cx_ReadData(Addr, Reg);
 2189              		.loc 1 916 1 view .LVU562
 2190 000a 8446     		mov	ip, r0
 2191              	.LVL120:
 916:Core/Src/stm32f429i_discovery.c ****   return I2Cx_ReadData(Addr, Reg);
 2192              		.loc 1 916 1 view .LVU563
 2193 000c 0A46     		mov	r2, r1
 2194              	.LVL121:
 2195              	.LBB259:
 2196              	.LBI249:
 508:Core/Src/stm32f429i_discovery.c **** {
 2197              		.loc 1 508 16 is_stmt 1 view .LVU564
 2198              	.LBB256:
 510:Core/Src/stm32f429i_discovery.c ****   uint8_t value = 0;
 2199              		.loc 1 510 3 view .LVU565
 511:Core/Src/stm32f429i_discovery.c ****   
 2200              		.loc 1 511 3 view .LVU566
 511:Core/Src/stm32f429i_discovery.c ****   
 2201              		.loc 1 511 11 is_stmt 0 view .LVU567
 2202 000e 0020     		movs	r0, #0
 2203              	.LVL122:
 513:Core/Src/stm32f429i_discovery.c ****  
 2204              		.loc 1 513 12 view .LVU568
 2205 0010 0DF11701 		add	r1, sp, #23
 2206              	.LVL123:
 513:Core/Src/stm32f429i_discovery.c ****  
 2207              		.loc 1 513 12 view .LVU569
 2208 0014 0123     		movs	r3, #1
 2209 0016 CDE90013 		strd	r1, r3, [sp]
 511:Core/Src/stm32f429i_discovery.c ****   
 2210              		.loc 1 511 11 view .LVU570
 2211 001a 8DF81700 		strb	r0, [sp, #23]
 513:Core/Src/stm32f429i_discovery.c ****  
 2212              		.loc 1 513 3 is_stmt 1 view .LVU571
 513:Core/Src/stm32f429i_discovery.c ****  
ARM GAS  /tmp/ccMsMeuK.s 			page 64


 2213              		.loc 1 513 12 is_stmt 0 view .LVU572
 2214 001e 6146     		mov	r1, ip
 2215 0020 0C48     		ldr	r0, .L110+4
 2216 0022 FFF7FEFF 		bl	HAL_I2C_Mem_Read
 2217              	.LVL124:
 516:Core/Src/stm32f429i_discovery.c ****   {
 2218              		.loc 1 516 3 is_stmt 1 view .LVU573
 516:Core/Src/stm32f429i_discovery.c ****   {
 2219              		.loc 1 516 5 is_stmt 0 view .LVU574
 2220 0026 20B9     		cbnz	r0, .L109
 2221              	.LVL125:
 2222              	.L106:
 522:Core/Src/stm32f429i_discovery.c **** }
 2223              		.loc 1 522 3 is_stmt 1 view .LVU575
 522:Core/Src/stm32f429i_discovery.c **** }
 2224              		.loc 1 522 3 is_stmt 0 view .LVU576
 2225              	.LBE256:
 2226              	.LBE259:
 918:Core/Src/stm32f429i_discovery.c **** }
 2227              		.loc 1 918 1 view .LVU577
 2228 0028 9DF81700 		ldrb	r0, [sp, #23]	@ zero_extendqisi2
 2229 002c 07B0     		add	sp, sp, #28
 2230              	.LCFI56:
 2231              		.cfi_remember_state
 2232              		.cfi_def_cfa_offset 4
 2233              		@ sp needed
 2234 002e 5DF804FB 		ldr	pc, [sp], #4
 2235              	.LVL126:
 2236              	.L109:
 2237              	.LCFI57:
 2238              		.cfi_restore_state
 2239              	.LBB260:
 2240              	.LBB257:
 519:Core/Src/stm32f429i_discovery.c ****   
 2241              		.loc 1 519 5 is_stmt 1 view .LVU578
 2242              	.LBB251:
 2243              	.LBI251:
 618:Core/Src/stm32f429i_discovery.c **** {
 2244              		.loc 1 618 13 view .LVU579
 2245              	.LBB252:
 621:Core/Src/stm32f429i_discovery.c ****   
 2246              		.loc 1 621 3 view .LVU580
 2247 0032 0848     		ldr	r0, .L110+4
 2248              	.LVL127:
 621:Core/Src/stm32f429i_discovery.c ****   
 2249              		.loc 1 621 3 is_stmt 0 view .LVU581
 2250 0034 FFF7FEFF 		bl	HAL_I2C_DeInit
 2251              	.LVL128:
 624:Core/Src/stm32f429i_discovery.c **** }
 2252              		.loc 1 624 3 is_stmt 1 view .LVU582
 2253              	.LBB253:
 2254              	.LBI253:
 420:Core/Src/stm32f429i_discovery.c **** {
 2255              		.loc 1 420 13 view .LVU583
 2256              	.LBB254:
 422:Core/Src/stm32f429i_discovery.c ****   {
 2257              		.loc 1 422 3 view .LVU584
ARM GAS  /tmp/ccMsMeuK.s 			page 65


 422:Core/Src/stm32f429i_discovery.c ****   {
 2258              		.loc 1 422 6 is_stmt 0 view .LVU585
 2259 0038 0648     		ldr	r0, .L110+4
 2260 003a FFF7FEFF 		bl	HAL_I2C_GetState
 2261              	.LVL129:
 422:Core/Src/stm32f429i_discovery.c ****   {
 2262              		.loc 1 422 5 view .LVU586
 2263 003e 0028     		cmp	r0, #0
 2264 0040 F2D1     		bne	.L106
 2265 0042 FFF7FEFF 		bl	I2Cx_Init.part.0
 2266              	.LVL130:
 2267              	.LBE254:
 2268              	.LBE253:
 2269              	.LBE252:
 2270              	.LBE251:
 522:Core/Src/stm32f429i_discovery.c **** }
 2271              		.loc 1 522 3 is_stmt 1 view .LVU587
 522:Core/Src/stm32f429i_discovery.c **** }
 2272              		.loc 1 522 3 is_stmt 0 view .LVU588
 2273              	.LBE257:
 2274              	.LBE260:
 2275              		.loc 1 918 1 view .LVU589
 2276 0046 9DF81700 		ldrb	r0, [sp, #23]	@ zero_extendqisi2
 2277 004a 07B0     		add	sp, sp, #28
 2278              	.LCFI58:
 2279              		.cfi_def_cfa_offset 4
 2280              		@ sp needed
 2281 004c 5DF804FB 		ldr	pc, [sp], #4
 2282              	.L111:
 2283              		.align	2
 2284              	.L110:
 2285 0050 00000000 		.word	.LANCHOR7
 2286 0054 00000000 		.word	.LANCHOR1
 2287              		.cfi_endproc
 2288              	.LFE159:
 2290              		.section	.text.IOE_WriteMultiple,"ax",%progbits
 2291              		.align	1
 2292              		.p2align 2,,3
 2293              		.global	IOE_WriteMultiple
 2294              		.syntax unified
 2295              		.thumb
 2296              		.thumb_func
 2298              	IOE_WriteMultiple:
 2299              	.LVL131:
 2300              	.LFB160:
 919:Core/Src/stm32f429i_discovery.c **** 
 920:Core/Src/stm32f429i_discovery.c **** /**
 921:Core/Src/stm32f429i_discovery.c ****   * @brief  IOE Writes multiple data.
 922:Core/Src/stm32f429i_discovery.c ****   * @param  Addr: I2C Address
 923:Core/Src/stm32f429i_discovery.c ****   * @param  Reg: Reg Address 
 924:Core/Src/stm32f429i_discovery.c ****   * @param  pBuffer: pointer to data buffer
 925:Core/Src/stm32f429i_discovery.c ****   * @param  Length: length of the data
 926:Core/Src/stm32f429i_discovery.c ****   */
 927:Core/Src/stm32f429i_discovery.c **** void IOE_WriteMultiple(uint8_t Addr, uint8_t Reg, uint8_t *pBuffer, uint16_t Length)
 928:Core/Src/stm32f429i_discovery.c **** {
 2301              		.loc 1 928 1 is_stmt 1 view -0
 2302              		.cfi_startproc
ARM GAS  /tmp/ccMsMeuK.s 			page 66


 2303              		@ args = 0, pretend = 0, frame = 0
 2304              		@ frame_needed = 0, uses_anonymous_args = 0
 929:Core/Src/stm32f429i_discovery.c ****   I2Cx_WriteBuffer(Addr, Reg, pBuffer, Length);
 2305              		.loc 1 929 3 view .LVU591
 928:Core/Src/stm32f429i_discovery.c ****   I2Cx_WriteBuffer(Addr, Reg, pBuffer, Length);
 2306              		.loc 1 928 1 is_stmt 0 view .LVU592
 2307 0000 10B5     		push	{r4, lr}
 2308              	.LCFI59:
 2309              		.cfi_def_cfa_offset 8
 2310              		.cfi_offset 4, -8
 2311              		.cfi_offset 14, -4
 2312              	.LBB267:
 2313              	.LBB268:
 492:Core/Src/stm32f429i_discovery.c **** 
 2314              		.loc 1 492 12 view .LVU593
 2315 0002 0E4C     		ldr	r4, .L118
 2316              	.LBE268:
 2317              	.LBE267:
 928:Core/Src/stm32f429i_discovery.c ****   I2Cx_WriteBuffer(Addr, Reg, pBuffer, Length);
 2318              		.loc 1 928 1 view .LVU594
 2319 0004 84B0     		sub	sp, sp, #16
 2320              	.LCFI60:
 2321              		.cfi_def_cfa_offset 24
 928:Core/Src/stm32f429i_discovery.c ****   I2Cx_WriteBuffer(Addr, Reg, pBuffer, Length);
 2322              		.loc 1 928 1 view .LVU595
 2323 0006 8446     		mov	ip, r0
 2324              	.LVL132:
 2325              	.LBB281:
 2326              	.LBB277:
 492:Core/Src/stm32f429i_discovery.c **** 
 2327              		.loc 1 492 12 view .LVU596
 2328 0008 2068     		ldr	r0, [r4]
 2329              	.LVL133:
 492:Core/Src/stm32f429i_discovery.c **** 
 2330              		.loc 1 492 12 view .LVU597
 2331              	.LBE277:
 2332              	.LBI267:
 488:Core/Src/stm32f429i_discovery.c ****   {
 2333              		.loc 1 488 13 is_stmt 1 view .LVU598
 2334              	.LBB278:
 490:Core/Src/stm32f429i_discovery.c ****   
 2335              		.loc 1 490 3 view .LVU599
 492:Core/Src/stm32f429i_discovery.c **** 
 2336              		.loc 1 492 3 view .LVU600
 492:Core/Src/stm32f429i_discovery.c **** 
 2337              		.loc 1 492 12 is_stmt 0 view .LVU601
 2338 000a 0290     		str	r0, [sp, #8]
 2339 000c CDE90023 		strd	r2, r3, [sp]
 2340 0010 0B48     		ldr	r0, .L118+4
 2341 0012 0A46     		mov	r2, r1
 2342              	.LVL134:
 492:Core/Src/stm32f429i_discovery.c **** 
 2343              		.loc 1 492 12 view .LVU602
 2344 0014 0123     		movs	r3, #1
 2345              	.LVL135:
 492:Core/Src/stm32f429i_discovery.c **** 
 2346              		.loc 1 492 12 view .LVU603
ARM GAS  /tmp/ccMsMeuK.s 			page 67


 2347 0016 6146     		mov	r1, ip
 2348              	.LVL136:
 492:Core/Src/stm32f429i_discovery.c **** 
 2349              		.loc 1 492 12 view .LVU604
 2350 0018 FFF7FEFF 		bl	HAL_I2C_Mem_Write
 2351              	.LVL137:
 495:Core/Src/stm32f429i_discovery.c ****   {
 2352              		.loc 1 495 3 is_stmt 1 view .LVU605
 495:Core/Src/stm32f429i_discovery.c ****   {
 2353              		.loc 1 495 5 is_stmt 0 view .LVU606
 2354 001c 08B9     		cbnz	r0, .L117
 2355              	.LVL138:
 2356              	.L112:
 495:Core/Src/stm32f429i_discovery.c ****   {
 2357              		.loc 1 495 5 view .LVU607
 2358              	.LBE278:
 2359              	.LBE281:
 930:Core/Src/stm32f429i_discovery.c **** }
 2360              		.loc 1 930 1 view .LVU608
 2361 001e 04B0     		add	sp, sp, #16
 2362              	.LCFI61:
 2363              		.cfi_remember_state
 2364              		.cfi_def_cfa_offset 8
 2365              		@ sp needed
 2366 0020 10BD     		pop	{r4, pc}
 2367              	.LVL139:
 2368              	.L117:
 2369              	.LCFI62:
 2370              		.cfi_restore_state
 2371              	.LBB282:
 2372              	.LBB279:
 498:Core/Src/stm32f429i_discovery.c ****   }        
 2373              		.loc 1 498 5 is_stmt 1 view .LVU609
 2374              	.LBB269:
 2375              	.LBI269:
 618:Core/Src/stm32f429i_discovery.c **** {
 2376              		.loc 1 618 13 view .LVU610
 2377              	.LBB270:
 621:Core/Src/stm32f429i_discovery.c ****   
 2378              		.loc 1 621 3 view .LVU611
 2379 0022 0748     		ldr	r0, .L118+4
 2380              	.LVL140:
 621:Core/Src/stm32f429i_discovery.c ****   
 2381              		.loc 1 621 3 is_stmt 0 view .LVU612
 2382 0024 FFF7FEFF 		bl	HAL_I2C_DeInit
 2383              	.LVL141:
 624:Core/Src/stm32f429i_discovery.c **** }
 2384              		.loc 1 624 3 is_stmt 1 view .LVU613
 2385              	.LBB271:
 2386              	.LBI271:
 420:Core/Src/stm32f429i_discovery.c **** {
 2387              		.loc 1 420 13 view .LVU614
 2388              	.LBB272:
 422:Core/Src/stm32f429i_discovery.c ****   {
 2389              		.loc 1 422 3 view .LVU615
 422:Core/Src/stm32f429i_discovery.c ****   {
 2390              		.loc 1 422 6 is_stmt 0 view .LVU616
ARM GAS  /tmp/ccMsMeuK.s 			page 68


 2391 0028 0548     		ldr	r0, .L118+4
 2392 002a FFF7FEFF 		bl	HAL_I2C_GetState
 2393              	.LVL142:
 422:Core/Src/stm32f429i_discovery.c ****   {
 2394              		.loc 1 422 5 view .LVU617
 2395 002e 0028     		cmp	r0, #0
 2396 0030 F5D1     		bne	.L112
 2397              	.LBE272:
 2398              	.LBE271:
 2399              	.LBE270:
 2400              	.LBE269:
 2401              	.LBE279:
 2402              	.LBE282:
 2403              		.loc 1 930 1 view .LVU618
 2404 0032 04B0     		add	sp, sp, #16
 2405              	.LCFI63:
 2406              		.cfi_def_cfa_offset 8
 2407              		@ sp needed
 2408 0034 BDE81040 		pop	{r4, lr}
 2409              	.LCFI64:
 2410              		.cfi_restore 14
 2411              		.cfi_restore 4
 2412              		.cfi_def_cfa_offset 0
 2413              	.LBB283:
 2414              	.LBB280:
 2415              	.LBB276:
 2416              	.LBB275:
 2417              	.LBB274:
 2418              	.LBB273:
 2419 0038 FFF7FEBF 		b	I2Cx_Init.part.0
 2420              	.LVL143:
 2421              	.L119:
 2422              		.align	2
 2423              	.L118:
 2424 003c 00000000 		.word	.LANCHOR7
 2425 0040 00000000 		.word	.LANCHOR1
 2426              	.LBE273:
 2427              	.LBE274:
 2428              	.LBE275:
 2429              	.LBE276:
 2430              	.LBE280:
 2431              	.LBE283:
 2432              		.cfi_endproc
 2433              	.LFE160:
 2435              		.section	.text.IOE_ReadMultiple,"ax",%progbits
 2436              		.align	1
 2437              		.p2align 2,,3
 2438              		.global	IOE_ReadMultiple
 2439              		.syntax unified
 2440              		.thumb
 2441              		.thumb_func
 2443              	IOE_ReadMultiple:
 2444              	.LVL144:
 2445              	.LFB161:
 931:Core/Src/stm32f429i_discovery.c **** 
 932:Core/Src/stm32f429i_discovery.c **** /**
 933:Core/Src/stm32f429i_discovery.c ****   * @brief  IOE Reads multiple data.
ARM GAS  /tmp/ccMsMeuK.s 			page 69


 934:Core/Src/stm32f429i_discovery.c ****   * @param  Addr: I2C Address
 935:Core/Src/stm32f429i_discovery.c ****   * @param  Reg: Reg Address 
 936:Core/Src/stm32f429i_discovery.c ****   * @param  pBuffer: pointer to data buffer
 937:Core/Src/stm32f429i_discovery.c ****   * @param  Length: length of the data
 938:Core/Src/stm32f429i_discovery.c ****   * @retval 0 if no problems to read multiple data
 939:Core/Src/stm32f429i_discovery.c ****   */
 940:Core/Src/stm32f429i_discovery.c **** uint16_t IOE_ReadMultiple(uint8_t Addr, uint8_t Reg, uint8_t *pBuffer, uint16_t Length)
 941:Core/Src/stm32f429i_discovery.c **** {
 2446              		.loc 1 941 1 is_stmt 1 view -0
 2447              		.cfi_startproc
 2448              		@ args = 0, pretend = 0, frame = 0
 2449              		@ frame_needed = 0, uses_anonymous_args = 0
 942:Core/Src/stm32f429i_discovery.c ****  return I2Cx_ReadBuffer(Addr, Reg, pBuffer, Length);
 2450              		.loc 1 942 2 view .LVU620
 941:Core/Src/stm32f429i_discovery.c ****  return I2Cx_ReadBuffer(Addr, Reg, pBuffer, Length);
 2451              		.loc 1 941 1 is_stmt 0 view .LVU621
 2452 0000 10B5     		push	{r4, lr}
 2453              	.LCFI65:
 2454              		.cfi_def_cfa_offset 8
 2455              		.cfi_offset 4, -8
 2456              		.cfi_offset 14, -4
 2457              	.LBB290:
 2458              	.LBB291:
 537:Core/Src/stm32f429i_discovery.c ****   
 2459              		.loc 1 537 12 view .LVU622
 2460 0002 0F4C     		ldr	r4, .L127
 2461              	.LBE291:
 2462              	.LBE290:
 941:Core/Src/stm32f429i_discovery.c ****  return I2Cx_ReadBuffer(Addr, Reg, pBuffer, Length);
 2463              		.loc 1 941 1 view .LVU623
 2464 0004 84B0     		sub	sp, sp, #16
 2465              	.LCFI66:
 2466              		.cfi_def_cfa_offset 24
 941:Core/Src/stm32f429i_discovery.c ****  return I2Cx_ReadBuffer(Addr, Reg, pBuffer, Length);
 2467              		.loc 1 941 1 view .LVU624
 2468 0006 8446     		mov	ip, r0
 2469              	.LVL145:
 2470              	.LBB304:
 2471              	.LBB300:
 537:Core/Src/stm32f429i_discovery.c ****   
 2472              		.loc 1 537 12 view .LVU625
 2473 0008 2068     		ldr	r0, [r4]
 2474              	.LVL146:
 537:Core/Src/stm32f429i_discovery.c ****   
 2475              		.loc 1 537 12 view .LVU626
 2476              	.LBE300:
 2477              	.LBI290:
 533:Core/Src/stm32f429i_discovery.c **** {
 2478              		.loc 1 533 16 is_stmt 1 view .LVU627
 2479              	.LBB301:
 535:Core/Src/stm32f429i_discovery.c **** 
 2480              		.loc 1 535 3 view .LVU628
 537:Core/Src/stm32f429i_discovery.c ****   
 2481              		.loc 1 537 3 view .LVU629
 537:Core/Src/stm32f429i_discovery.c ****   
 2482              		.loc 1 537 12 is_stmt 0 view .LVU630
 2483 000a 0290     		str	r0, [sp, #8]
ARM GAS  /tmp/ccMsMeuK.s 			page 70


 2484 000c CDE90023 		strd	r2, r3, [sp]
 2485 0010 0C48     		ldr	r0, .L127+4
 2486 0012 0A46     		mov	r2, r1
 2487              	.LVL147:
 537:Core/Src/stm32f429i_discovery.c ****   
 2488              		.loc 1 537 12 view .LVU631
 2489 0014 0123     		movs	r3, #1
 2490              	.LVL148:
 537:Core/Src/stm32f429i_discovery.c ****   
 2491              		.loc 1 537 12 view .LVU632
 2492 0016 6146     		mov	r1, ip
 2493              	.LVL149:
 537:Core/Src/stm32f429i_discovery.c ****   
 2494              		.loc 1 537 12 view .LVU633
 2495 0018 FFF7FEFF 		bl	HAL_I2C_Mem_Read
 2496              	.LVL150:
 540:Core/Src/stm32f429i_discovery.c ****   {
 2497              		.loc 1 540 3 is_stmt 1 view .LVU634
 540:Core/Src/stm32f429i_discovery.c ****   {
 2498              		.loc 1 540 5 is_stmt 0 view .LVU635
 2499 001c 08B9     		cbnz	r0, .L125
 2500              	.LVL151:
 540:Core/Src/stm32f429i_discovery.c ****   {
 2501              		.loc 1 540 5 view .LVU636
 2502              	.LBE301:
 2503              	.LBE304:
 943:Core/Src/stm32f429i_discovery.c **** }
 2504              		.loc 1 943 1 view .LVU637
 2505 001e 04B0     		add	sp, sp, #16
 2506              	.LCFI67:
 2507              		.cfi_remember_state
 2508              		.cfi_def_cfa_offset 8
 2509              		@ sp needed
 2510 0020 10BD     		pop	{r4, pc}
 2511              	.LVL152:
 2512              	.L125:
 2513              	.LCFI68:
 2514              		.cfi_restore_state
 2515              	.LBB305:
 2516              	.LBB302:
 547:Core/Src/stm32f429i_discovery.c **** 
 2517              		.loc 1 547 5 is_stmt 1 view .LVU638
 2518              	.LBB292:
 2519              	.LBI292:
 618:Core/Src/stm32f429i_discovery.c **** {
 2520              		.loc 1 618 13 view .LVU639
 2521              	.LBB293:
 621:Core/Src/stm32f429i_discovery.c ****   
 2522              		.loc 1 621 3 view .LVU640
 2523 0022 0848     		ldr	r0, .L127+4
 2524              	.LVL153:
 621:Core/Src/stm32f429i_discovery.c ****   
 2525              		.loc 1 621 3 is_stmt 0 view .LVU641
 2526 0024 FFF7FEFF 		bl	HAL_I2C_DeInit
 2527              	.LVL154:
 624:Core/Src/stm32f429i_discovery.c **** }
 2528              		.loc 1 624 3 is_stmt 1 view .LVU642
ARM GAS  /tmp/ccMsMeuK.s 			page 71


 2529              	.LBB294:
 2530              	.LBI294:
 420:Core/Src/stm32f429i_discovery.c **** {
 2531              		.loc 1 420 13 view .LVU643
 2532              	.LBB295:
 422:Core/Src/stm32f429i_discovery.c ****   {
 2533              		.loc 1 422 3 view .LVU644
 422:Core/Src/stm32f429i_discovery.c ****   {
 2534              		.loc 1 422 6 is_stmt 0 view .LVU645
 2535 0028 0648     		ldr	r0, .L127+4
 2536 002a FFF7FEFF 		bl	HAL_I2C_GetState
 2537              	.LVL155:
 422:Core/Src/stm32f429i_discovery.c ****   {
 2538              		.loc 1 422 5 view .LVU646
 2539 002e 10B1     		cbz	r0, .L126
 2540 0030 0120     		movs	r0, #1
 2541              	.LVL156:
 422:Core/Src/stm32f429i_discovery.c ****   {
 2542              		.loc 1 422 5 view .LVU647
 2543              	.LBE295:
 2544              	.LBE294:
 2545              	.LBE293:
 2546              	.LBE292:
 2547              	.LBE302:
 2548              	.LBE305:
 2549              		.loc 1 943 1 view .LVU648
 2550 0032 04B0     		add	sp, sp, #16
 2551              	.LCFI69:
 2552              		.cfi_remember_state
 2553              		.cfi_def_cfa_offset 8
 2554              		@ sp needed
 2555 0034 10BD     		pop	{r4, pc}
 2556              	.LVL157:
 2557              	.L126:
 2558              	.LCFI70:
 2559              		.cfi_restore_state
 2560              	.LBB306:
 2561              	.LBB303:
 2562              	.LBB299:
 2563              	.LBB298:
 2564              	.LBB297:
 2565              	.LBB296:
 2566              		.loc 1 943 1 view .LVU649
 2567 0036 FFF7FEFF 		bl	I2Cx_Init.part.0
 2568              	.LVL158:
 2569 003a 0120     		movs	r0, #1
 2570              	.LVL159:
 2571              		.loc 1 943 1 view .LVU650
 2572              	.LBE296:
 2573              	.LBE297:
 2574              	.LBE298:
 2575              	.LBE299:
 2576              	.LBE303:
 2577              	.LBE306:
 2578 003c 04B0     		add	sp, sp, #16
 2579              	.LCFI71:
 2580              		.cfi_def_cfa_offset 8
ARM GAS  /tmp/ccMsMeuK.s 			page 72


 2581              		@ sp needed
 2582 003e 10BD     		pop	{r4, pc}
 2583              	.L128:
 2584              		.align	2
 2585              	.L127:
 2586 0040 00000000 		.word	.LANCHOR7
 2587 0044 00000000 		.word	.LANCHOR1
 2588              		.cfi_endproc
 2589              	.LFE161:
 2591              		.section	.text.IOE_Delay,"ax",%progbits
 2592              		.align	1
 2593              		.p2align 2,,3
 2594              		.global	IOE_Delay
 2595              		.syntax unified
 2596              		.thumb
 2597              		.thumb_func
 2599              	IOE_Delay:
 2600              	.LFB171:
 2601              		.cfi_startproc
 2602              		@ args = 0, pretend = 0, frame = 0
 2603              		@ frame_needed = 0, uses_anonymous_args = 0
 2604              		@ link register save eliminated.
 2605 0000 FFF7FEBF 		b	HAL_Delay
 2606              		.cfi_endproc
 2607              	.LFE171:
 2609              		.section	.text.GYRO_IO_Init,"ax",%progbits
 2610              		.align	1
 2611              		.p2align 2,,3
 2612              		.global	GYRO_IO_Init
 2613              		.syntax unified
 2614              		.thumb
 2615              		.thumb_func
 2617              	GYRO_IO_Init:
 2618              	.LFB163:
 944:Core/Src/stm32f429i_discovery.c **** 
 945:Core/Src/stm32f429i_discovery.c **** /**
 946:Core/Src/stm32f429i_discovery.c ****   * @brief  IOE Delay.
 947:Core/Src/stm32f429i_discovery.c ****   * @param  Delay in ms
 948:Core/Src/stm32f429i_discovery.c ****   */
 949:Core/Src/stm32f429i_discovery.c **** void IOE_Delay(uint32_t Delay)
 950:Core/Src/stm32f429i_discovery.c **** {
 951:Core/Src/stm32f429i_discovery.c ****   HAL_Delay(Delay);
 952:Core/Src/stm32f429i_discovery.c **** }
 953:Core/Src/stm32f429i_discovery.c **** 
 954:Core/Src/stm32f429i_discovery.c **** /********************************* LINK GYROSCOPE *****************************/
 955:Core/Src/stm32f429i_discovery.c **** 
 956:Core/Src/stm32f429i_discovery.c **** /**
 957:Core/Src/stm32f429i_discovery.c ****   * @brief  Configures the Gyroscope SPI interface.
 958:Core/Src/stm32f429i_discovery.c ****   */
 959:Core/Src/stm32f429i_discovery.c **** void GYRO_IO_Init(void)
 960:Core/Src/stm32f429i_discovery.c **** {
 2619              		.loc 1 960 1 is_stmt 1 view -0
 2620              		.cfi_startproc
 2621              		@ args = 0, pretend = 0, frame = 32
 2622              		@ frame_needed = 0, uses_anonymous_args = 0
 961:Core/Src/stm32f429i_discovery.c ****   GPIO_InitTypeDef GPIO_InitStructure;
 2623              		.loc 1 961 3 view .LVU652
ARM GAS  /tmp/ccMsMeuK.s 			page 73


 962:Core/Src/stm32f429i_discovery.c ****   
 963:Core/Src/stm32f429i_discovery.c ****   /* Configure the Gyroscope Control pins ------------------------------------*/
 964:Core/Src/stm32f429i_discovery.c ****   /* Enable CS GPIO clock and Configure GPIO PIN for Gyroscope Chip select */  
 965:Core/Src/stm32f429i_discovery.c ****   GYRO_CS_GPIO_CLK_ENABLE();  
 2624              		.loc 1 965 3 view .LVU653
 2625              	.LBB311:
 2626              		.loc 1 965 3 view .LVU654
 2627              	.LBE311:
 960:Core/Src/stm32f429i_discovery.c ****   GPIO_InitTypeDef GPIO_InitStructure;
 2628              		.loc 1 960 1 is_stmt 0 view .LVU655
 2629 0000 F0B5     		push	{r4, r5, r6, r7, lr}
 2630              	.LCFI72:
 2631              		.cfi_def_cfa_offset 20
 2632              		.cfi_offset 4, -20
 2633              		.cfi_offset 5, -16
 2634              		.cfi_offset 6, -12
 2635              		.cfi_offset 7, -8
 2636              		.cfi_offset 14, -4
 2637 0002 89B0     		sub	sp, sp, #36
 2638              	.LCFI73:
 2639              		.cfi_def_cfa_offset 56
 2640              	.LBB312:
 2641              		.loc 1 965 3 view .LVU656
 2642 0004 1A4C     		ldr	r4, .L134
 2643              	.LBE312:
 966:Core/Src/stm32f429i_discovery.c ****   GPIO_InitStructure.Pin = GYRO_CS_PIN;
 967:Core/Src/stm32f429i_discovery.c ****   GPIO_InitStructure.Mode = GPIO_MODE_OUTPUT_PP;
 968:Core/Src/stm32f429i_discovery.c ****   GPIO_InitStructure.Pull  = GPIO_NOPULL;
 969:Core/Src/stm32f429i_discovery.c ****   GPIO_InitStructure.Speed = GPIO_SPEED_MEDIUM;
 970:Core/Src/stm32f429i_discovery.c ****   HAL_GPIO_Init(GYRO_CS_GPIO_PORT, &GPIO_InitStructure);
 2644              		.loc 1 970 3 view .LVU657
 2645 0006 1B48     		ldr	r0, .L134+4
 2646              	.LBB313:
 965:Core/Src/stm32f429i_discovery.c ****   GPIO_InitStructure.Pin = GYRO_CS_PIN;
 2647              		.loc 1 965 3 view .LVU658
 2648 0008 0025     		movs	r5, #0
 2649 000a 0195     		str	r5, [sp, #4]
 965:Core/Src/stm32f429i_discovery.c ****   GPIO_InitStructure.Pin = GYRO_CS_PIN;
 2650              		.loc 1 965 3 is_stmt 1 view .LVU659
 2651 000c 236B     		ldr	r3, [r4, #48]
 2652 000e 43F00403 		orr	r3, r3, #4
 2653 0012 2363     		str	r3, [r4, #48]
 965:Core/Src/stm32f429i_discovery.c ****   GPIO_InitStructure.Pin = GYRO_CS_PIN;
 2654              		.loc 1 965 3 view .LVU660
 2655 0014 236B     		ldr	r3, [r4, #48]
 2656              	.LBE313:
 968:Core/Src/stm32f429i_discovery.c ****   GPIO_InitStructure.Speed = GPIO_SPEED_MEDIUM;
 2657              		.loc 1 968 28 is_stmt 0 view .LVU661
 2658 0016 0595     		str	r5, [sp, #20]
 2659              	.LBB314:
 965:Core/Src/stm32f429i_discovery.c ****   GPIO_InitStructure.Pin = GYRO_CS_PIN;
 2660              		.loc 1 965 3 view .LVU662
 2661 0018 03F00403 		and	r3, r3, #4
 2662              	.LBE314:
 967:Core/Src/stm32f429i_discovery.c ****   GPIO_InitStructure.Pull  = GPIO_NOPULL;
 2663              		.loc 1 967 27 view .LVU663
 2664 001c 0127     		movs	r7, #1
ARM GAS  /tmp/ccMsMeuK.s 			page 74


 966:Core/Src/stm32f429i_discovery.c ****   GPIO_InitStructure.Mode = GPIO_MODE_OUTPUT_PP;
 2665              		.loc 1 966 26 view .LVU664
 2666 001e 0226     		movs	r6, #2
 2667              	.LBB315:
 965:Core/Src/stm32f429i_discovery.c ****   GPIO_InitStructure.Pin = GYRO_CS_PIN;
 2668              		.loc 1 965 3 view .LVU665
 2669 0020 0193     		str	r3, [sp, #4]
 965:Core/Src/stm32f429i_discovery.c ****   GPIO_InitStructure.Pin = GYRO_CS_PIN;
 2670              		.loc 1 965 3 is_stmt 1 view .LVU666
 2671              	.LBE315:
 2672              		.loc 1 970 3 is_stmt 0 view .LVU667
 2673 0022 03A9     		add	r1, sp, #12
 2674              	.LBB316:
 965:Core/Src/stm32f429i_discovery.c ****   GPIO_InitStructure.Pin = GYRO_CS_PIN;
 2675              		.loc 1 965 3 view .LVU668
 2676 0024 019B     		ldr	r3, [sp, #4]
 2677              	.LBE316:
 965:Core/Src/stm32f429i_discovery.c ****   GPIO_InitStructure.Pin = GYRO_CS_PIN;
 2678              		.loc 1 965 3 is_stmt 1 view .LVU669
 966:Core/Src/stm32f429i_discovery.c ****   GPIO_InitStructure.Mode = GPIO_MODE_OUTPUT_PP;
 2679              		.loc 1 966 3 view .LVU670
 966:Core/Src/stm32f429i_discovery.c ****   GPIO_InitStructure.Mode = GPIO_MODE_OUTPUT_PP;
 2680              		.loc 1 966 26 is_stmt 0 view .LVU671
 2681 0026 0396     		str	r6, [sp, #12]
 967:Core/Src/stm32f429i_discovery.c ****   GPIO_InitStructure.Pull  = GPIO_NOPULL;
 2682              		.loc 1 967 3 is_stmt 1 view .LVU672
 967:Core/Src/stm32f429i_discovery.c ****   GPIO_InitStructure.Pull  = GPIO_NOPULL;
 2683              		.loc 1 967 27 is_stmt 0 view .LVU673
 2684 0028 0497     		str	r7, [sp, #16]
 968:Core/Src/stm32f429i_discovery.c ****   GPIO_InitStructure.Speed = GPIO_SPEED_MEDIUM;
 2685              		.loc 1 968 3 is_stmt 1 view .LVU674
 969:Core/Src/stm32f429i_discovery.c ****   HAL_GPIO_Init(GYRO_CS_GPIO_PORT, &GPIO_InitStructure);
 2686              		.loc 1 969 3 view .LVU675
 969:Core/Src/stm32f429i_discovery.c ****   HAL_GPIO_Init(GYRO_CS_GPIO_PORT, &GPIO_InitStructure);
 2687              		.loc 1 969 28 is_stmt 0 view .LVU676
 2688 002a 0697     		str	r7, [sp, #24]
 2689              		.loc 1 970 3 is_stmt 1 view .LVU677
 2690 002c FFF7FEFF 		bl	HAL_GPIO_Init
 2691              	.LVL160:
 971:Core/Src/stm32f429i_discovery.c ****   
 972:Core/Src/stm32f429i_discovery.c ****   /* Deselect: Chip Select high */
 973:Core/Src/stm32f429i_discovery.c ****   GYRO_CS_HIGH();
 2692              		.loc 1 973 3 view .LVU678
 2693 0030 1048     		ldr	r0, .L134+4
 2694 0032 3A46     		mov	r2, r7
 2695 0034 3146     		mov	r1, r6
 2696 0036 FFF7FEFF 		bl	HAL_GPIO_WritePin
 2697              	.LVL161:
 974:Core/Src/stm32f429i_discovery.c ****   
 975:Core/Src/stm32f429i_discovery.c ****   /* Enable INT1, INT2 GPIO clock and Configure GPIO PINs to detect Interrupts */
 976:Core/Src/stm32f429i_discovery.c ****   GYRO_INT_GPIO_CLK_ENABLE();
 2698              		.loc 1 976 3 view .LVU679
 2699              	.LBB317:
 2700              		.loc 1 976 3 view .LVU680
 2701 003a 0295     		str	r5, [sp, #8]
 2702              		.loc 1 976 3 view .LVU681
 2703 003c 236B     		ldr	r3, [r4, #48]
ARM GAS  /tmp/ccMsMeuK.s 			page 75


 2704              	.LBE317:
 977:Core/Src/stm32f429i_discovery.c ****   GPIO_InitStructure.Pin = GYRO_INT1_PIN | GYRO_INT2_PIN;
 978:Core/Src/stm32f429i_discovery.c ****   GPIO_InitStructure.Mode = GPIO_MODE_INPUT;
 979:Core/Src/stm32f429i_discovery.c ****   GPIO_InitStructure.Speed = GPIO_SPEED_FAST;
 980:Core/Src/stm32f429i_discovery.c ****   GPIO_InitStructure.Pull= GPIO_NOPULL;
 981:Core/Src/stm32f429i_discovery.c ****   HAL_GPIO_Init(GYRO_INT_GPIO_PORT, &GPIO_InitStructure);
 2705              		.loc 1 981 3 is_stmt 0 view .LVU682
 2706 003e 0E48     		ldr	r0, .L134+8
 2707              	.LBB318:
 976:Core/Src/stm32f429i_discovery.c ****   GPIO_InitStructure.Pin = GYRO_INT1_PIN | GYRO_INT2_PIN;
 2708              		.loc 1 976 3 view .LVU683
 2709 0040 3B43     		orrs	r3, r3, r7
 2710 0042 2363     		str	r3, [r4, #48]
 976:Core/Src/stm32f429i_discovery.c ****   GPIO_InitStructure.Pin = GYRO_INT1_PIN | GYRO_INT2_PIN;
 2711              		.loc 1 976 3 is_stmt 1 view .LVU684
 2712 0044 236B     		ldr	r3, [r4, #48]
 2713              	.LBE318:
 978:Core/Src/stm32f429i_discovery.c ****   GPIO_InitStructure.Speed = GPIO_SPEED_FAST;
 2714              		.loc 1 978 27 is_stmt 0 view .LVU685
 2715 0046 0495     		str	r5, [sp, #16]
 2716              	.LBB319:
 976:Core/Src/stm32f429i_discovery.c ****   GPIO_InitStructure.Pin = GYRO_INT1_PIN | GYRO_INT2_PIN;
 2717              		.loc 1 976 3 view .LVU686
 2718 0048 3B40     		ands	r3, r3, r7
 2719 004a 0293     		str	r3, [sp, #8]
 976:Core/Src/stm32f429i_discovery.c ****   GPIO_InitStructure.Pin = GYRO_INT1_PIN | GYRO_INT2_PIN;
 2720              		.loc 1 976 3 is_stmt 1 view .LVU687
 2721              	.LBE319:
 2722              		.loc 1 981 3 is_stmt 0 view .LVU688
 2723 004c 03A9     		add	r1, sp, #12
 977:Core/Src/stm32f429i_discovery.c ****   GPIO_InitStructure.Pin = GYRO_INT1_PIN | GYRO_INT2_PIN;
 2724              		.loc 1 977 26 view .LVU689
 2725 004e 0623     		movs	r3, #6
 980:Core/Src/stm32f429i_discovery.c ****   HAL_GPIO_Init(GYRO_INT_GPIO_PORT, &GPIO_InitStructure);
 2726              		.loc 1 980 26 view .LVU690
 2727 0050 CDE90556 		strd	r5, r6, [sp, #20]
 2728              	.LBB320:
 976:Core/Src/stm32f429i_discovery.c ****   GPIO_InitStructure.Pin = GYRO_INT1_PIN | GYRO_INT2_PIN;
 2729              		.loc 1 976 3 view .LVU691
 2730 0054 029A     		ldr	r2, [sp, #8]
 2731              	.LBE320:
 976:Core/Src/stm32f429i_discovery.c ****   GPIO_InitStructure.Pin = GYRO_INT1_PIN | GYRO_INT2_PIN;
 2732              		.loc 1 976 3 is_stmt 1 view .LVU692
 977:Core/Src/stm32f429i_discovery.c ****   GPIO_InitStructure.Mode = GPIO_MODE_INPUT;
 2733              		.loc 1 977 3 view .LVU693
 977:Core/Src/stm32f429i_discovery.c ****   GPIO_InitStructure.Mode = GPIO_MODE_INPUT;
 2734              		.loc 1 977 26 is_stmt 0 view .LVU694
 2735 0056 0393     		str	r3, [sp, #12]
 978:Core/Src/stm32f429i_discovery.c ****   GPIO_InitStructure.Speed = GPIO_SPEED_FAST;
 2736              		.loc 1 978 3 is_stmt 1 view .LVU695
 979:Core/Src/stm32f429i_discovery.c ****   GPIO_InitStructure.Pull= GPIO_NOPULL;
 2737              		.loc 1 979 3 view .LVU696
 2738              		.loc 1 981 3 view .LVU697
 2739 0058 FFF7FEFF 		bl	HAL_GPIO_Init
 2740              	.LVL162:
 982:Core/Src/stm32f429i_discovery.c **** 
 983:Core/Src/stm32f429i_discovery.c ****   SPIx_Init();
ARM GAS  /tmp/ccMsMeuK.s 			page 76


 2741              		.loc 1 983 3 view .LVU698
 2742              	.LBB321:
 2743              	.LBI321:
 632:Core/Src/stm32f429i_discovery.c **** {
 2744              		.loc 1 632 13 view .LVU699
 2745              	.LBB322:
 634:Core/Src/stm32f429i_discovery.c ****   {
 2746              		.loc 1 634 3 view .LVU700
 634:Core/Src/stm32f429i_discovery.c ****   {
 2747              		.loc 1 634 6 is_stmt 0 view .LVU701
 2748 005c 0748     		ldr	r0, .L134+12
 2749 005e FFF7FEFF 		bl	HAL_SPI_GetState
 2750              	.LVL163:
 634:Core/Src/stm32f429i_discovery.c ****   {
 2751              		.loc 1 634 5 view .LVU702
 2752 0062 08B1     		cbz	r0, .L133
 2753              	.LBE322:
 2754              	.LBE321:
 984:Core/Src/stm32f429i_discovery.c **** }
 2755              		.loc 1 984 1 view .LVU703
 2756 0064 09B0     		add	sp, sp, #36
 2757              	.LCFI74:
 2758              		.cfi_remember_state
 2759              		.cfi_def_cfa_offset 20
 2760              		@ sp needed
 2761 0066 F0BD     		pop	{r4, r5, r6, r7, pc}
 2762              	.L133:
 2763              	.LCFI75:
 2764              		.cfi_restore_state
 2765              	.LBB324:
 2766              	.LBB323:
 2767 0068 FFF7FEFF 		bl	SPIx_Init.part.0
 2768              	.LVL164:
 2769              	.LBE323:
 2770              	.LBE324:
 2771 006c 09B0     		add	sp, sp, #36
 2772              	.LCFI76:
 2773              		.cfi_def_cfa_offset 20
 2774              		@ sp needed
 2775 006e F0BD     		pop	{r4, r5, r6, r7, pc}
 2776              	.L135:
 2777              		.align	2
 2778              	.L134:
 2779 0070 00380240 		.word	1073887232
 2780 0074 00080240 		.word	1073874944
 2781 0078 00000240 		.word	1073872896
 2782 007c 00000000 		.word	.LANCHOR0
 2783              		.cfi_endproc
 2784              	.LFE163:
 2786              		.section	.text.GYRO_IO_Write,"ax",%progbits
 2787              		.align	1
 2788              		.p2align 2,,3
 2789              		.global	GYRO_IO_Write
 2790              		.syntax unified
 2791              		.thumb
 2792              		.thumb_func
 2794              	GYRO_IO_Write:
ARM GAS  /tmp/ccMsMeuK.s 			page 77


 2795              	.LVL165:
 2796              	.LFB164:
 985:Core/Src/stm32f429i_discovery.c **** 
 986:Core/Src/stm32f429i_discovery.c **** /**
 987:Core/Src/stm32f429i_discovery.c ****   * @brief  Writes one byte to the Gyroscope.
 988:Core/Src/stm32f429i_discovery.c ****   * @param  pBuffer: Pointer to the buffer containing the data to be written to the Gyroscope.
 989:Core/Src/stm32f429i_discovery.c ****   * @param  WriteAddr: Gyroscope's internal address to write to.
 990:Core/Src/stm32f429i_discovery.c ****   * @param  NumByteToWrite: Number of bytes to write.
 991:Core/Src/stm32f429i_discovery.c ****   */
 992:Core/Src/stm32f429i_discovery.c **** void GYRO_IO_Write(uint8_t* pBuffer, uint8_t WriteAddr, uint16_t NumByteToWrite)
 993:Core/Src/stm32f429i_discovery.c **** {
 2797              		.loc 1 993 1 is_stmt 1 view -0
 2798              		.cfi_startproc
 2799              		@ args = 0, pretend = 0, frame = 8
 2800              		@ frame_needed = 0, uses_anonymous_args = 0
 2801              		.loc 1 993 1 is_stmt 0 view .LVU705
 2802 0000 2DE9F041 		push	{r4, r5, r6, r7, r8, lr}
 2803              	.LCFI77:
 2804              		.cfi_def_cfa_offset 24
 2805              		.cfi_offset 4, -24
 2806              		.cfi_offset 5, -20
 2807              		.cfi_offset 6, -16
 2808              		.cfi_offset 7, -12
 2809              		.cfi_offset 8, -8
 2810              		.cfi_offset 14, -4
 994:Core/Src/stm32f429i_discovery.c ****   /* Configure the MS bit: 
 995:Core/Src/stm32f429i_discovery.c ****        - When 0, the address will remain unchanged in multiple read/write commands.
 996:Core/Src/stm32f429i_discovery.c ****        - When 1, the address will be auto incremented in multiple read/write commands.
 997:Core/Src/stm32f429i_discovery.c ****   */
 998:Core/Src/stm32f429i_discovery.c ****   if(NumByteToWrite > 0x01)
 2811              		.loc 1 998 5 view .LVU706
 2812 0004 012A     		cmp	r2, #1
 993:Core/Src/stm32f429i_discovery.c ****   /* Configure the MS bit: 
 2813              		.loc 1 993 1 view .LVU707
 2814 0006 1446     		mov	r4, r2
 2815 0008 0546     		mov	r5, r0
 2816 000a 0E46     		mov	r6, r1
 2817              		.loc 1 998 3 is_stmt 1 view .LVU708
 999:Core/Src/stm32f429i_discovery.c ****   {
1000:Core/Src/stm32f429i_discovery.c ****     WriteAddr |= (uint8_t)MULTIPLEBYTE_CMD;
1001:Core/Src/stm32f429i_discovery.c ****   }
1002:Core/Src/stm32f429i_discovery.c ****   /* Set chip select Low at the start of the transmission */
1003:Core/Src/stm32f429i_discovery.c ****   GYRO_CS_LOW();
 2818              		.loc 1 1003 3 is_stmt 0 view .LVU709
 2819 000c 2348     		ldr	r0, .L149
 2820              	.LVL166:
 993:Core/Src/stm32f429i_discovery.c ****   /* Configure the MS bit: 
 2821              		.loc 1 993 1 view .LVU710
 2822 000e 84B0     		sub	sp, sp, #16
 2823              	.LCFI78:
 2824              		.cfi_def_cfa_offset 40
 2825              		.loc 1 1003 3 view .LVU711
 2826 0010 4FF00002 		mov	r2, #0
 2827              	.LVL167:
 2828              		.loc 1 1003 3 view .LVU712
 2829 0014 4FF00201 		mov	r1, #2
 2830              	.LVL168:
ARM GAS  /tmp/ccMsMeuK.s 			page 78


 998:Core/Src/stm32f429i_discovery.c ****   {
 2831              		.loc 1 998 5 view .LVU713
 2832 0018 37D9     		bls	.L137
1000:Core/Src/stm32f429i_discovery.c ****   }
 2833              		.loc 1 1000 5 is_stmt 1 view .LVU714
 2834              	.LVL169:
 2835              		.loc 1 1003 3 view .LVU715
 2836 001a FFF7FEFF 		bl	HAL_GPIO_WritePin
 2837              	.LVL170:
1004:Core/Src/stm32f429i_discovery.c ****   
1005:Core/Src/stm32f429i_discovery.c ****   /* Send the Address of the indexed register */
1006:Core/Src/stm32f429i_discovery.c ****   SPIx_WriteRead(WriteAddr);
 2838              		.loc 1 1006 3 view .LVU716
 2839 001e 46F04000 		orr	r0, r6, #64
 2840 0022 FFF7FEFF 		bl	SPIx_WriteRead
 2841              	.LVL171:
1007:Core/Src/stm32f429i_discovery.c ****   
1008:Core/Src/stm32f429i_discovery.c ****   /* Send the data that will be written into the device (MSB First) */
1009:Core/Src/stm32f429i_discovery.c ****   while(NumByteToWrite >= 0x01)
 2842              		.loc 1 1009 3 view .LVU717
 2843              		.loc 1 1009 8 view .LVU718
 2844              	.L138:
 2845              		.loc 1 1009 8 is_stmt 0 view .LVU719
 2846 0026 621E     		subs	r2, r4, #1
 2847 0028 DFF87880 		ldr	r8, .L149+8
 2848              	.LBB333:
 2849              	.LBB334:
 717:Core/Src/stm32f429i_discovery.c ****   {
 2850              		.loc 1 717 6 view .LVU720
 2851 002c 1C4E     		ldr	r6, .L149+4
 2852 002e 6C1E     		subs	r4, r5, #1
 713:Core/Src/stm32f429i_discovery.c ****   
 2853              		.loc 1 713 11 view .LVU721
 2854 0030 0027     		movs	r7, #0
 2855 0032 15FA82F5 		uxtah	r5, r5, r2
 2856              	.LVL172:
 713:Core/Src/stm32f429i_discovery.c ****   
 2857              		.loc 1 713 11 view .LVU722
 2858 0036 01E0     		b	.L143
 2859              	.LVL173:
 2860              	.L141:
 722:Core/Src/stm32f429i_discovery.c **** }
 2861              		.loc 1 722 3 is_stmt 1 view .LVU723
 2862              	.LBE334:
 2863              	.LBE333:
1010:Core/Src/stm32f429i_discovery.c ****   {
1011:Core/Src/stm32f429i_discovery.c ****     SPIx_WriteRead(*pBuffer);
1012:Core/Src/stm32f429i_discovery.c ****     NumByteToWrite--;
 2864              		.loc 1 1012 5 view .LVU724
1013:Core/Src/stm32f429i_discovery.c ****     pBuffer++;
 2865              		.loc 1 1013 5 view .LVU725
1009:Core/Src/stm32f429i_discovery.c ****   {
 2866              		.loc 1 1009 8 view .LVU726
 2867 0038 AC42     		cmp	r4, r5
 2868 003a 1ED0     		beq	.L139
 2869              	.LVL174:
 2870              	.L143:
ARM GAS  /tmp/ccMsMeuK.s 			page 79


1011:Core/Src/stm32f429i_discovery.c ****     NumByteToWrite--;
 2871              		.loc 1 1011 5 view .LVU727
 2872              	.LBB343:
 2873              	.LBB341:
 717:Core/Src/stm32f429i_discovery.c ****   {
 2874              		.loc 1 717 6 is_stmt 0 view .LVU728
 2875 003c D8F80000 		ldr	r0, [r8]
 2876 0040 14F801CF 		ldrb	ip, [r4, #1]!	@ zero_extendqisi2
 2877              	.LVL175:
 717:Core/Src/stm32f429i_discovery.c ****   {
 2878              		.loc 1 717 6 view .LVU729
 2879 0044 0090     		str	r0, [sp]
 2880 0046 0123     		movs	r3, #1
 2881 0048 0DF10F02 		add	r2, sp, #15
 2882 004c 0DF10E01 		add	r1, sp, #14
 2883 0050 3046     		mov	r0, r6
 2884 0052 8DF80EC0 		strb	ip, [sp, #14]
 2885              	.LVL176:
 717:Core/Src/stm32f429i_discovery.c ****   {
 2886              		.loc 1 717 6 view .LVU730
 2887              	.LBE341:
 2888              	.LBI333:
 711:Core/Src/stm32f429i_discovery.c **** {
 2889              		.loc 1 711 16 is_stmt 1 view .LVU731
 2890              	.LBB342:
 713:Core/Src/stm32f429i_discovery.c ****   
 2891              		.loc 1 713 3 view .LVU732
 713:Core/Src/stm32f429i_discovery.c ****   
 2892              		.loc 1 713 11 is_stmt 0 view .LVU733
 2893 0056 8DF80F70 		strb	r7, [sp, #15]
 717:Core/Src/stm32f429i_discovery.c ****   {
 2894              		.loc 1 717 3 is_stmt 1 view .LVU734
 717:Core/Src/stm32f429i_discovery.c ****   {
 2895              		.loc 1 717 6 is_stmt 0 view .LVU735
 2896 005a FFF7FEFF 		bl	HAL_SPI_TransmitReceive
 2897              	.LVL177:
 717:Core/Src/stm32f429i_discovery.c ****   {
 2898              		.loc 1 717 5 view .LVU736
 2899 005e 0028     		cmp	r0, #0
 2900 0060 EAD0     		beq	.L141
 2901              	.LBB335:
 2902              	.LBI335:
 691:Core/Src/stm32f429i_discovery.c **** {
 2903              		.loc 1 691 13 is_stmt 1 view .LVU737
 2904              	.LBB336:
 701:Core/Src/stm32f429i_discovery.c ****   }
 2905              		.loc 1 701 5 view .LVU738
 2906              	.LBB337:
 2907              	.LBI337:
 728:Core/Src/stm32f429i_discovery.c **** {
 2908              		.loc 1 728 13 view .LVU739
 2909              	.LBB338:
 731:Core/Src/stm32f429i_discovery.c ****   
 2910              		.loc 1 731 3 view .LVU740
 2911 0062 3046     		mov	r0, r6
 2912 0064 FFF7FEFF 		bl	HAL_SPI_DeInit
 2913              	.LVL178:
ARM GAS  /tmp/ccMsMeuK.s 			page 80


 734:Core/Src/stm32f429i_discovery.c **** }
 2914              		.loc 1 734 3 view .LVU741
 2915              	.LBB339:
 2916              	.LBI339:
 632:Core/Src/stm32f429i_discovery.c **** {
 2917              		.loc 1 632 13 view .LVU742
 2918              	.LBB340:
 634:Core/Src/stm32f429i_discovery.c ****   {
 2919              		.loc 1 634 3 view .LVU743
 634:Core/Src/stm32f429i_discovery.c ****   {
 2920              		.loc 1 634 6 is_stmt 0 view .LVU744
 2921 0068 3046     		mov	r0, r6
 2922 006a FFF7FEFF 		bl	HAL_SPI_GetState
 2923              	.LVL179:
 634:Core/Src/stm32f429i_discovery.c ****   {
 2924              		.loc 1 634 5 view .LVU745
 2925 006e 0028     		cmp	r0, #0
 2926 0070 E2D1     		bne	.L141
 2927 0072 FFF7FEFF 		bl	SPIx_Init.part.0
 2928              	.LVL180:
 2929              	.LBE340:
 2930              	.LBE339:
 2931              	.LBE338:
 2932              	.LBE337:
 2933              	.LBE336:
 2934              	.LBE335:
 722:Core/Src/stm32f429i_discovery.c **** }
 2935              		.loc 1 722 3 is_stmt 1 view .LVU746
 2936              	.LBE342:
 2937              	.LBE343:
1012:Core/Src/stm32f429i_discovery.c ****     pBuffer++;
 2938              		.loc 1 1012 5 view .LVU747
 2939              		.loc 1 1013 5 view .LVU748
1009:Core/Src/stm32f429i_discovery.c ****   {
 2940              		.loc 1 1009 8 view .LVU749
 2941 0076 AC42     		cmp	r4, r5
 2942 0078 E0D1     		bne	.L143
 2943              	.LVL181:
 2944              	.L139:
1014:Core/Src/stm32f429i_discovery.c ****   }
1015:Core/Src/stm32f429i_discovery.c ****   
1016:Core/Src/stm32f429i_discovery.c ****   /* Set chip select High at the end of the transmission */ 
1017:Core/Src/stm32f429i_discovery.c ****   GYRO_CS_HIGH();
 2945              		.loc 1 1017 3 view .LVU750
 2946 007a 0848     		ldr	r0, .L149
 2947 007c 0122     		movs	r2, #1
 2948 007e 0221     		movs	r1, #2
1018:Core/Src/stm32f429i_discovery.c **** }
 2949              		.loc 1 1018 1 is_stmt 0 view .LVU751
 2950 0080 04B0     		add	sp, sp, #16
 2951              	.LCFI79:
 2952              		.cfi_remember_state
 2953              		.cfi_def_cfa_offset 24
 2954              		@ sp needed
 2955 0082 BDE8F041 		pop	{r4, r5, r6, r7, r8, lr}
 2956              	.LCFI80:
 2957              		.cfi_restore 14
ARM GAS  /tmp/ccMsMeuK.s 			page 81


 2958              		.cfi_restore 8
 2959              		.cfi_restore 7
 2960              		.cfi_restore 6
 2961              		.cfi_restore 5
 2962              		.cfi_restore 4
 2963              		.cfi_def_cfa_offset 0
1017:Core/Src/stm32f429i_discovery.c **** }
 2964              		.loc 1 1017 3 view .LVU752
 2965 0086 FFF7FEBF 		b	HAL_GPIO_WritePin
 2966              	.LVL182:
 2967              	.L137:
 2968              	.LCFI81:
 2969              		.cfi_restore_state
1003:Core/Src/stm32f429i_discovery.c ****   
 2970              		.loc 1 1003 3 is_stmt 1 view .LVU753
 2971 008a FFF7FEFF 		bl	HAL_GPIO_WritePin
 2972              	.LVL183:
1006:Core/Src/stm32f429i_discovery.c ****   
 2973              		.loc 1 1006 3 view .LVU754
 2974 008e 3046     		mov	r0, r6
 2975 0090 FFF7FEFF 		bl	SPIx_WriteRead
 2976              	.LVL184:
1009:Core/Src/stm32f429i_discovery.c ****   {
 2977              		.loc 1 1009 3 view .LVU755
1009:Core/Src/stm32f429i_discovery.c ****   {
 2978              		.loc 1 1009 8 view .LVU756
 2979 0094 002C     		cmp	r4, #0
 2980 0096 C6D1     		bne	.L138
 2981 0098 EFE7     		b	.L139
 2982              	.L150:
 2983 009a 00BF     		.align	2
 2984              	.L149:
 2985 009c 00080240 		.word	1073874944
 2986 00a0 00000000 		.word	.LANCHOR0
 2987 00a4 00000000 		.word	.LANCHOR2
 2988              		.cfi_endproc
 2989              	.LFE164:
 2991              		.section	.text.GYRO_IO_Read,"ax",%progbits
 2992              		.align	1
 2993              		.p2align 2,,3
 2994              		.global	GYRO_IO_Read
 2995              		.syntax unified
 2996              		.thumb
 2997              		.thumb_func
 2999              	GYRO_IO_Read:
 3000              	.LVL185:
 3001              	.LFB165:
1019:Core/Src/stm32f429i_discovery.c **** 
1020:Core/Src/stm32f429i_discovery.c **** /**
1021:Core/Src/stm32f429i_discovery.c ****   * @brief  Reads a block of data from the Gyroscope.
1022:Core/Src/stm32f429i_discovery.c ****   * @param  pBuffer: Pointer to the buffer that receives the data read from the Gyroscope.
1023:Core/Src/stm32f429i_discovery.c ****   * @param  ReadAddr: Gyroscope's internal address to read from.
1024:Core/Src/stm32f429i_discovery.c ****   * @param  NumByteToRead: Number of bytes to read from the Gyroscope.
1025:Core/Src/stm32f429i_discovery.c ****   */
1026:Core/Src/stm32f429i_discovery.c **** void GYRO_IO_Read(uint8_t* pBuffer, uint8_t ReadAddr, uint16_t NumByteToRead)
1027:Core/Src/stm32f429i_discovery.c **** {  
 3002              		.loc 1 1027 1 view -0
ARM GAS  /tmp/ccMsMeuK.s 			page 82


 3003              		.cfi_startproc
 3004              		@ args = 0, pretend = 0, frame = 8
 3005              		@ frame_needed = 0, uses_anonymous_args = 0
 3006              		.loc 1 1027 1 is_stmt 0 view .LVU758
 3007 0000 2DE9F041 		push	{r4, r5, r6, r7, r8, lr}
 3008              	.LCFI82:
 3009              		.cfi_def_cfa_offset 24
 3010              		.cfi_offset 4, -24
 3011              		.cfi_offset 5, -20
 3012              		.cfi_offset 6, -16
 3013              		.cfi_offset 7, -12
 3014              		.cfi_offset 8, -8
 3015              		.cfi_offset 14, -4
1028:Core/Src/stm32f429i_discovery.c ****   if(NumByteToRead > 0x01)
 3016              		.loc 1 1028 5 view .LVU759
 3017 0004 012A     		cmp	r2, #1
1027:Core/Src/stm32f429i_discovery.c ****   if(NumByteToRead > 0x01)
 3018              		.loc 1 1027 1 view .LVU760
 3019 0006 1546     		mov	r5, r2
 3020 0008 0446     		mov	r4, r0
 3021 000a 0E46     		mov	r6, r1
 3022              		.loc 1 1028 3 is_stmt 1 view .LVU761
1029:Core/Src/stm32f429i_discovery.c ****   {
1030:Core/Src/stm32f429i_discovery.c ****     ReadAddr |= (uint8_t)(READWRITE_CMD | MULTIPLEBYTE_CMD);
1031:Core/Src/stm32f429i_discovery.c ****   }
1032:Core/Src/stm32f429i_discovery.c ****   else
1033:Core/Src/stm32f429i_discovery.c ****   {
1034:Core/Src/stm32f429i_discovery.c ****     ReadAddr |= (uint8_t)READWRITE_CMD;
1035:Core/Src/stm32f429i_discovery.c ****   }
1036:Core/Src/stm32f429i_discovery.c ****   /* Set chip select Low at the start of the transmission */
1037:Core/Src/stm32f429i_discovery.c ****   GYRO_CS_LOW();
 3023              		.loc 1 1037 3 is_stmt 0 view .LVU762
 3024 000c 2648     		ldr	r0, .L164
 3025              	.LVL186:
1027:Core/Src/stm32f429i_discovery.c ****   if(NumByteToRead > 0x01)
 3026              		.loc 1 1027 1 view .LVU763
 3027 000e 84B0     		sub	sp, sp, #16
 3028              	.LCFI83:
 3029              		.cfi_def_cfa_offset 40
 3030              		.loc 1 1037 3 view .LVU764
 3031 0010 4FF00002 		mov	r2, #0
 3032              	.LVL187:
 3033              		.loc 1 1037 3 view .LVU765
 3034 0014 4FF00201 		mov	r1, #2
 3035              	.LVL188:
1028:Core/Src/stm32f429i_discovery.c ****   {
 3036              		.loc 1 1028 5 view .LVU766
 3037 0018 3DD9     		bls	.L152
1030:Core/Src/stm32f429i_discovery.c ****   }
 3038              		.loc 1 1030 5 is_stmt 1 view .LVU767
 3039              	.LVL189:
 3040              		.loc 1 1037 3 view .LVU768
 3041 001a FFF7FEFF 		bl	HAL_GPIO_WritePin
 3042              	.LVL190:
1038:Core/Src/stm32f429i_discovery.c ****   
1039:Core/Src/stm32f429i_discovery.c ****   /* Send the Address of the indexed register */
1040:Core/Src/stm32f429i_discovery.c ****   SPIx_WriteRead(ReadAddr);
ARM GAS  /tmp/ccMsMeuK.s 			page 83


 3043              		.loc 1 1040 3 view .LVU769
 3044 001e 46F0C000 		orr	r0, r6, #192
 3045 0022 FFF7FEFF 		bl	SPIx_WriteRead
 3046              	.LVL191:
1041:Core/Src/stm32f429i_discovery.c ****   
1042:Core/Src/stm32f429i_discovery.c ****   /* Receive the data that will be read from the device (MSB First) */
1043:Core/Src/stm32f429i_discovery.c ****   while(NumByteToRead > 0x00)
 3047              		.loc 1 1043 3 view .LVU770
 3048              		.loc 1 1043 8 view .LVU771
 3049              	.L153:
 3050              		.loc 1 1043 8 is_stmt 0 view .LVU772
 3051 0026 013D     		subs	r5, r5, #1
 3052 0028 ADB2     		uxth	r5, r5
 3053 002a 0135     		adds	r5, r5, #1
 3054 002c DFF88080 		ldr	r8, .L164+8
 3055              	.LBB352:
 3056              	.LBB353:
 717:Core/Src/stm32f429i_discovery.c ****   {
 3057              		.loc 1 717 6 view .LVU773
 3058 0030 1E4F     		ldr	r7, .L164+4
 3059 0032 2544     		add	r5, r5, r4
 3060 0034 0026     		movs	r6, #0
 3061 0036 05E0     		b	.L158
 3062              	.L156:
 722:Core/Src/stm32f429i_discovery.c **** }
 3063              		.loc 1 722 3 is_stmt 1 view .LVU774
 722:Core/Src/stm32f429i_discovery.c **** }
 3064              		.loc 1 722 10 is_stmt 0 view .LVU775
 3065 0038 9DF80F30 		ldrb	r3, [sp, #15]	@ zero_extendqisi2
 3066              	.LBE353:
 3067              	.LBE352:
1044:Core/Src/stm32f429i_discovery.c ****   {
1045:Core/Src/stm32f429i_discovery.c ****     /* Send dummy byte (0x00) to generate the SPI clock to Gyroscope (Slave device) */
1046:Core/Src/stm32f429i_discovery.c ****     *pBuffer = SPIx_WriteRead(DUMMY_BYTE);
 3068              		.loc 1 1046 14 view .LVU776
 3069 003c 04F8013B 		strb	r3, [r4], #1
 3070              	.LVL192:
1047:Core/Src/stm32f429i_discovery.c ****     NumByteToRead--;
 3071              		.loc 1 1047 5 is_stmt 1 view .LVU777
1048:Core/Src/stm32f429i_discovery.c ****     pBuffer++;
 3072              		.loc 1 1048 5 view .LVU778
1043:Core/Src/stm32f429i_discovery.c ****   {
 3073              		.loc 1 1043 8 view .LVU779
 3074 0040 AC42     		cmp	r4, r5
 3075 0042 20D0     		beq	.L154
 3076              	.L158:
1046:Core/Src/stm32f429i_discovery.c ****     NumByteToRead--;
 3077              		.loc 1 1046 5 view .LVU780
 3078              	.LBB362:
 3079              	.LBB360:
 717:Core/Src/stm32f429i_discovery.c ****   {
 3080              		.loc 1 717 6 is_stmt 0 view .LVU781
 3081 0044 D8F80000 		ldr	r0, [r8]
 3082 0048 0090     		str	r0, [sp]
 3083 004a 0123     		movs	r3, #1
 3084 004c 0DF10F02 		add	r2, sp, #15
 3085 0050 0DF10E01 		add	r1, sp, #14
ARM GAS  /tmp/ccMsMeuK.s 			page 84


 3086 0054 3846     		mov	r0, r7
 3087 0056 8DF80E60 		strb	r6, [sp, #14]
 3088              	.LVL193:
 717:Core/Src/stm32f429i_discovery.c ****   {
 3089              		.loc 1 717 6 view .LVU782
 3090              	.LBE360:
 3091              	.LBI352:
 711:Core/Src/stm32f429i_discovery.c **** {
 3092              		.loc 1 711 16 is_stmt 1 view .LVU783
 3093              	.LBB361:
 713:Core/Src/stm32f429i_discovery.c ****   
 3094              		.loc 1 713 3 view .LVU784
 713:Core/Src/stm32f429i_discovery.c ****   
 3095              		.loc 1 713 11 is_stmt 0 view .LVU785
 3096 005a 8DF80F60 		strb	r6, [sp, #15]
 717:Core/Src/stm32f429i_discovery.c ****   {
 3097              		.loc 1 717 3 is_stmt 1 view .LVU786
 717:Core/Src/stm32f429i_discovery.c ****   {
 3098              		.loc 1 717 6 is_stmt 0 view .LVU787
 3099 005e FFF7FEFF 		bl	HAL_SPI_TransmitReceive
 3100              	.LVL194:
 717:Core/Src/stm32f429i_discovery.c ****   {
 3101              		.loc 1 717 5 view .LVU788
 3102 0062 0028     		cmp	r0, #0
 3103 0064 E8D0     		beq	.L156
 3104              	.LBB354:
 3105              	.LBI354:
 691:Core/Src/stm32f429i_discovery.c **** {
 3106              		.loc 1 691 13 is_stmt 1 view .LVU789
 3107              	.LBB355:
 701:Core/Src/stm32f429i_discovery.c ****   }
 3108              		.loc 1 701 5 view .LVU790
 3109              	.LBB356:
 3110              	.LBI356:
 728:Core/Src/stm32f429i_discovery.c **** {
 3111              		.loc 1 728 13 view .LVU791
 3112              	.LBB357:
 731:Core/Src/stm32f429i_discovery.c ****   
 3113              		.loc 1 731 3 view .LVU792
 3114 0066 3846     		mov	r0, r7
 3115 0068 FFF7FEFF 		bl	HAL_SPI_DeInit
 3116              	.LVL195:
 734:Core/Src/stm32f429i_discovery.c **** }
 3117              		.loc 1 734 3 view .LVU793
 3118              	.LBB358:
 3119              	.LBI358:
 632:Core/Src/stm32f429i_discovery.c **** {
 3120              		.loc 1 632 13 view .LVU794
 3121              	.LBB359:
 634:Core/Src/stm32f429i_discovery.c ****   {
 3122              		.loc 1 634 3 view .LVU795
 634:Core/Src/stm32f429i_discovery.c ****   {
 3123              		.loc 1 634 6 is_stmt 0 view .LVU796
 3124 006c 3846     		mov	r0, r7
 3125 006e FFF7FEFF 		bl	HAL_SPI_GetState
 3126              	.LVL196:
 634:Core/Src/stm32f429i_discovery.c ****   {
ARM GAS  /tmp/ccMsMeuK.s 			page 85


 3127              		.loc 1 634 5 view .LVU797
 3128 0072 0028     		cmp	r0, #0
 3129 0074 E0D1     		bne	.L156
 3130 0076 FFF7FEFF 		bl	SPIx_Init.part.0
 3131              	.LVL197:
 3132              	.LBE359:
 3133              	.LBE358:
 3134              	.LBE357:
 3135              	.LBE356:
 3136              	.LBE355:
 3137              	.LBE354:
 722:Core/Src/stm32f429i_discovery.c **** }
 3138              		.loc 1 722 3 is_stmt 1 view .LVU798
 722:Core/Src/stm32f429i_discovery.c **** }
 3139              		.loc 1 722 10 is_stmt 0 view .LVU799
 3140 007a 9DF80F30 		ldrb	r3, [sp, #15]	@ zero_extendqisi2
 3141              	.LBE361:
 3142              	.LBE362:
1046:Core/Src/stm32f429i_discovery.c ****     NumByteToRead--;
 3143              		.loc 1 1046 14 view .LVU800
 3144 007e 04F8013B 		strb	r3, [r4], #1
 3145              	.LVL198:
1047:Core/Src/stm32f429i_discovery.c ****     pBuffer++;
 3146              		.loc 1 1047 5 is_stmt 1 view .LVU801
 3147              		.loc 1 1048 5 view .LVU802
1043:Core/Src/stm32f429i_discovery.c ****   {
 3148              		.loc 1 1043 8 view .LVU803
 3149 0082 AC42     		cmp	r4, r5
 3150 0084 DED1     		bne	.L158
 3151              	.L154:
1049:Core/Src/stm32f429i_discovery.c ****   }
1050:Core/Src/stm32f429i_discovery.c ****   
1051:Core/Src/stm32f429i_discovery.c ****   /* Set chip select High at the end of the transmission */ 
1052:Core/Src/stm32f429i_discovery.c ****   GYRO_CS_HIGH();
 3152              		.loc 1 1052 3 view .LVU804
 3153 0086 0848     		ldr	r0, .L164
 3154 0088 0122     		movs	r2, #1
 3155 008a 0221     		movs	r1, #2
1053:Core/Src/stm32f429i_discovery.c **** }  
 3156              		.loc 1 1053 1 is_stmt 0 view .LVU805
 3157 008c 04B0     		add	sp, sp, #16
 3158              	.LCFI84:
 3159              		.cfi_remember_state
 3160              		.cfi_def_cfa_offset 24
 3161              		@ sp needed
 3162 008e BDE8F041 		pop	{r4, r5, r6, r7, r8, lr}
 3163              	.LCFI85:
 3164              		.cfi_restore 14
 3165              		.cfi_restore 8
 3166              		.cfi_restore 7
 3167              		.cfi_restore 6
 3168              		.cfi_restore 5
 3169              		.cfi_restore 4
 3170              		.cfi_def_cfa_offset 0
 3171              	.LVL199:
1052:Core/Src/stm32f429i_discovery.c **** }  
 3172              		.loc 1 1052 3 view .LVU806
ARM GAS  /tmp/ccMsMeuK.s 			page 86


 3173 0092 FFF7FEBF 		b	HAL_GPIO_WritePin
 3174              	.LVL200:
 3175              	.L152:
 3176              	.LCFI86:
 3177              		.cfi_restore_state
1034:Core/Src/stm32f429i_discovery.c ****   }
 3178              		.loc 1 1034 5 is_stmt 1 view .LVU807
1037:Core/Src/stm32f429i_discovery.c ****   
 3179              		.loc 1 1037 3 view .LVU808
 3180 0096 FFF7FEFF 		bl	HAL_GPIO_WritePin
 3181              	.LVL201:
1040:Core/Src/stm32f429i_discovery.c ****   
 3182              		.loc 1 1040 3 view .LVU809
 3183 009a 46F08000 		orr	r0, r6, #128
 3184 009e FFF7FEFF 		bl	SPIx_WriteRead
 3185              	.LVL202:
1043:Core/Src/stm32f429i_discovery.c ****   {
 3186              		.loc 1 1043 3 view .LVU810
1043:Core/Src/stm32f429i_discovery.c ****   {
 3187              		.loc 1 1043 8 view .LVU811
 3188 00a2 002D     		cmp	r5, #0
 3189 00a4 BFD1     		bne	.L153
 3190 00a6 EEE7     		b	.L154
 3191              	.L165:
 3192              		.align	2
 3193              	.L164:
 3194 00a8 00080240 		.word	1073874944
 3195 00ac 00000000 		.word	.LANCHOR0
 3196 00b0 00000000 		.word	.LANCHOR2
 3197              		.cfi_endproc
 3198              	.LFE165:
 3200              		.global	I2cHandle
 3201              		.global	SpixTimeout
 3202              		.global	I2cxTimeout
 3203              		.global	BUTTON_IRQn
 3204              		.global	BUTTON_PIN
 3205              		.global	BUTTON_PORT
 3206              		.global	GPIO_PIN
 3207              		.global	GPIO_PORT
 3208              		.section	.bss.I2cHandle,"aw",%nobits
 3209              		.align	2
 3210              		.set	.LANCHOR1,. + 0
 3213              	I2cHandle:
 3214 0000 00000000 		.space	84
 3214      00000000 
 3214      00000000 
 3214      00000000 
 3214      00000000 
 3215              		.section	.bss.Is_LCD_IO_Initialized,"aw",%nobits
 3216              		.set	.LANCHOR6,. + 0
 3219              	Is_LCD_IO_Initialized:
 3220 0000 00       		.space	1
 3221              		.section	.bss.SpiHandle,"aw",%nobits
 3222              		.align	2
 3223              		.set	.LANCHOR0,. + 0
 3226              	SpiHandle:
 3227 0000 00000000 		.space	88
ARM GAS  /tmp/ccMsMeuK.s 			page 87


 3227      00000000 
 3227      00000000 
 3227      00000000 
 3227      00000000 
 3228              		.section	.data.BUTTON_PORT,"aw"
 3229              		.align	2
 3230              		.set	.LANCHOR5,. + 0
 3233              	BUTTON_PORT:
 3234 0000 00000240 		.word	1073872896
 3235              		.section	.data.GPIO_PORT,"aw"
 3236              		.align	2
 3237              		.set	.LANCHOR4,. + 0
 3240              	GPIO_PORT:
 3241 0000 00180240 		.word	1073879040
 3242 0004 00180240 		.word	1073879040
 3243              		.section	.data.I2cxTimeout,"aw"
 3244              		.align	2
 3245              		.set	.LANCHOR7,. + 0
 3248              	I2cxTimeout:
 3249 0000 00300000 		.word	12288
 3250              		.section	.data.SpixTimeout,"aw"
 3251              		.align	2
 3252              		.set	.LANCHOR2,. + 0
 3255              	SpixTimeout:
 3256 0000 00100000 		.word	4096
 3257              		.section	.rodata.BUTTON_IRQn,"a"
 3258              		.align	2
 3261              	BUTTON_IRQn:
 3262 0000 06       		.ascii	"\006"
 3263              		.section	.rodata.BUTTON_PIN,"a"
 3264              		.align	2
 3267              	BUTTON_PIN:
 3268 0000 0100     		.short	1
 3269              		.section	.rodata.GPIO_PIN,"a"
 3270              		.align	2
 3271              		.set	.LANCHOR3,. + 0
 3274              	GPIO_PIN:
 3275 0000 0020     		.short	8192
 3276 0002 0040     		.short	16384
 3277              		.text
 3278              	.Letext0:
 3279              		.file 2 "Drivers/CMSIS/Device/ST/STM32F4xx/Include/stm32f429xx.h"
 3280              		.file 3 "/home/irfan/Desktop/arm/gcc-arm-none-eabi-10.3-2021.10-x86_64-linux/gcc-arm-none-eabi-10.
 3281              		.file 4 "/home/irfan/Desktop/arm/gcc-arm-none-eabi-10.3-2021.10-x86_64-linux/gcc-arm-none-eabi-10.
 3282              		.file 5 "Drivers/STM32F4xx_HAL_Driver/Inc/stm32f4xx_hal_def.h"
 3283              		.file 6 "Drivers/STM32F4xx_HAL_Driver/Inc/stm32f4xx_hal_gpio.h"
 3284              		.file 7 "Drivers/STM32F4xx_HAL_Driver/Inc/stm32f4xx_hal_dma.h"
 3285              		.file 8 "Drivers/STM32F4xx_HAL_Driver/Inc/stm32f4xx_hal_i2c.h"
 3286              		.file 9 "Drivers/STM32F4xx_HAL_Driver/Inc/stm32f4xx_hal_spi.h"
 3287              		.file 10 "Core/Inc/stm32f429i_discovery.h"
 3288              		.file 11 "Drivers/STM32F4xx_HAL_Driver/Inc/stm32f4xx_hal_cortex.h"
 3289              		.file 12 "Drivers/STM32F4xx_HAL_Driver/Inc/stm32f4xx_hal.h"
ARM GAS  /tmp/ccMsMeuK.s 			page 88

