ARM GAS  /tmp/cchFK2Kj.s 			page 1


   1              		.cpu cortex-m4
   2              		.arch armv7e-m
   3              		.fpu fpv4-sp-d16
   4              		.eabi_attribute 27, 1
   5              		.eabi_attribute 28, 1
   6              		.eabi_attribute 20, 1
   7              		.eabi_attribute 21, 1
   8              		.eabi_attribute 23, 3
   9              		.eabi_attribute 24, 1
  10              		.eabi_attribute 25, 1
  11              		.eabi_attribute 26, 1
  12              		.eabi_attribute 30, 2
  13              		.eabi_attribute 34, 1
  14              		.eabi_attribute 18, 4
  15              		.file	"stm32f4xx_hal_dma_ex.c"
  16              		.text
  17              	.Ltext0:
  18              		.cfi_sections	.debug_frame
  19              		.section	.text.HAL_DMAEx_MultiBufferStart,"ax",%progbits
  20              		.align	1
  21              		.p2align 2,,3
  22              		.global	HAL_DMAEx_MultiBufferStart
  23              		.syntax unified
  24              		.thumb
  25              		.thumb_func
  27              	HAL_DMAEx_MultiBufferStart:
  28              	.LVL0:
  29              	.LFB130:
  30              		.file 1 "Drivers/STM32F4xx_HAL_Driver/Src/stm32f4xx_hal_dma_ex.c"
   1:Drivers/STM32F4xx_HAL_Driver/Src/stm32f4xx_hal_dma_ex.c **** /**
   2:Drivers/STM32F4xx_HAL_Driver/Src/stm32f4xx_hal_dma_ex.c ****   ******************************************************************************
   3:Drivers/STM32F4xx_HAL_Driver/Src/stm32f4xx_hal_dma_ex.c ****   * @file    stm32f4xx_hal_dma_ex.c
   4:Drivers/STM32F4xx_HAL_Driver/Src/stm32f4xx_hal_dma_ex.c ****   * @author  MCD Application Team
   5:Drivers/STM32F4xx_HAL_Driver/Src/stm32f4xx_hal_dma_ex.c ****   * @brief   DMA Extension HAL module driver
   6:Drivers/STM32F4xx_HAL_Driver/Src/stm32f4xx_hal_dma_ex.c ****   *         This file provides firmware functions to manage the following 
   7:Drivers/STM32F4xx_HAL_Driver/Src/stm32f4xx_hal_dma_ex.c ****   *         functionalities of the DMA Extension peripheral:
   8:Drivers/STM32F4xx_HAL_Driver/Src/stm32f4xx_hal_dma_ex.c ****   *           + Extended features functions
   9:Drivers/STM32F4xx_HAL_Driver/Src/stm32f4xx_hal_dma_ex.c ****   *
  10:Drivers/STM32F4xx_HAL_Driver/Src/stm32f4xx_hal_dma_ex.c ****   @verbatim
  11:Drivers/STM32F4xx_HAL_Driver/Src/stm32f4xx_hal_dma_ex.c ****   ==============================================================================
  12:Drivers/STM32F4xx_HAL_Driver/Src/stm32f4xx_hal_dma_ex.c ****                         ##### How to use this driver #####
  13:Drivers/STM32F4xx_HAL_Driver/Src/stm32f4xx_hal_dma_ex.c ****   ==============================================================================
  14:Drivers/STM32F4xx_HAL_Driver/Src/stm32f4xx_hal_dma_ex.c ****   [..]
  15:Drivers/STM32F4xx_HAL_Driver/Src/stm32f4xx_hal_dma_ex.c ****   The DMA Extension HAL driver can be used as follows:
  16:Drivers/STM32F4xx_HAL_Driver/Src/stm32f4xx_hal_dma_ex.c ****    (#) Start a multi buffer transfer using the HAL_DMA_MultiBufferStart() function
  17:Drivers/STM32F4xx_HAL_Driver/Src/stm32f4xx_hal_dma_ex.c ****        for polling mode or HAL_DMA_MultiBufferStart_IT() for interrupt mode.
  18:Drivers/STM32F4xx_HAL_Driver/Src/stm32f4xx_hal_dma_ex.c ****                    
  19:Drivers/STM32F4xx_HAL_Driver/Src/stm32f4xx_hal_dma_ex.c ****      -@-  In Memory-to-Memory transfer mode, Multi (Double) Buffer mode is not allowed.
  20:Drivers/STM32F4xx_HAL_Driver/Src/stm32f4xx_hal_dma_ex.c ****      -@-  When Multi (Double) Buffer mode is enabled the, transfer is circular by default.
  21:Drivers/STM32F4xx_HAL_Driver/Src/stm32f4xx_hal_dma_ex.c ****      -@-  In Multi (Double) buffer mode, it is possible to update the base address for 
  22:Drivers/STM32F4xx_HAL_Driver/Src/stm32f4xx_hal_dma_ex.c ****           the AHB memory port on the fly (DMA_SxM0AR or DMA_SxM1AR) when the stream is enabled. 
  23:Drivers/STM32F4xx_HAL_Driver/Src/stm32f4xx_hal_dma_ex.c ****   
  24:Drivers/STM32F4xx_HAL_Driver/Src/stm32f4xx_hal_dma_ex.c ****   @endverbatim
  25:Drivers/STM32F4xx_HAL_Driver/Src/stm32f4xx_hal_dma_ex.c ****   ******************************************************************************
  26:Drivers/STM32F4xx_HAL_Driver/Src/stm32f4xx_hal_dma_ex.c ****   * @attention
  27:Drivers/STM32F4xx_HAL_Driver/Src/stm32f4xx_hal_dma_ex.c ****   *
  28:Drivers/STM32F4xx_HAL_Driver/Src/stm32f4xx_hal_dma_ex.c ****   * <h2><center>&copy; Copyright (c) 2017 STMicroelectronics.
ARM GAS  /tmp/cchFK2Kj.s 			page 2


  29:Drivers/STM32F4xx_HAL_Driver/Src/stm32f4xx_hal_dma_ex.c ****   * All rights reserved.</center></h2>
  30:Drivers/STM32F4xx_HAL_Driver/Src/stm32f4xx_hal_dma_ex.c ****   *
  31:Drivers/STM32F4xx_HAL_Driver/Src/stm32f4xx_hal_dma_ex.c ****   * This software component is licensed by ST under BSD 3-Clause license,
  32:Drivers/STM32F4xx_HAL_Driver/Src/stm32f4xx_hal_dma_ex.c ****   * the "License"; You may not use this file except in compliance with the
  33:Drivers/STM32F4xx_HAL_Driver/Src/stm32f4xx_hal_dma_ex.c ****   * License. You may obtain a copy of the License at:
  34:Drivers/STM32F4xx_HAL_Driver/Src/stm32f4xx_hal_dma_ex.c ****   *                        opensource.org/licenses/BSD-3-Clause
  35:Drivers/STM32F4xx_HAL_Driver/Src/stm32f4xx_hal_dma_ex.c ****   *
  36:Drivers/STM32F4xx_HAL_Driver/Src/stm32f4xx_hal_dma_ex.c ****   ******************************************************************************
  37:Drivers/STM32F4xx_HAL_Driver/Src/stm32f4xx_hal_dma_ex.c ****   */
  38:Drivers/STM32F4xx_HAL_Driver/Src/stm32f4xx_hal_dma_ex.c **** 
  39:Drivers/STM32F4xx_HAL_Driver/Src/stm32f4xx_hal_dma_ex.c **** /* Includes ------------------------------------------------------------------*/
  40:Drivers/STM32F4xx_HAL_Driver/Src/stm32f4xx_hal_dma_ex.c **** #include "stm32f4xx_hal.h"
  41:Drivers/STM32F4xx_HAL_Driver/Src/stm32f4xx_hal_dma_ex.c **** 
  42:Drivers/STM32F4xx_HAL_Driver/Src/stm32f4xx_hal_dma_ex.c **** /** @addtogroup STM32F4xx_HAL_Driver
  43:Drivers/STM32F4xx_HAL_Driver/Src/stm32f4xx_hal_dma_ex.c ****   * @{
  44:Drivers/STM32F4xx_HAL_Driver/Src/stm32f4xx_hal_dma_ex.c ****   */
  45:Drivers/STM32F4xx_HAL_Driver/Src/stm32f4xx_hal_dma_ex.c **** 
  46:Drivers/STM32F4xx_HAL_Driver/Src/stm32f4xx_hal_dma_ex.c **** /** @defgroup DMAEx DMAEx
  47:Drivers/STM32F4xx_HAL_Driver/Src/stm32f4xx_hal_dma_ex.c ****   * @brief DMA Extended HAL module driver
  48:Drivers/STM32F4xx_HAL_Driver/Src/stm32f4xx_hal_dma_ex.c ****   * @{
  49:Drivers/STM32F4xx_HAL_Driver/Src/stm32f4xx_hal_dma_ex.c ****   */
  50:Drivers/STM32F4xx_HAL_Driver/Src/stm32f4xx_hal_dma_ex.c **** 
  51:Drivers/STM32F4xx_HAL_Driver/Src/stm32f4xx_hal_dma_ex.c **** #ifdef HAL_DMA_MODULE_ENABLED
  52:Drivers/STM32F4xx_HAL_Driver/Src/stm32f4xx_hal_dma_ex.c **** 
  53:Drivers/STM32F4xx_HAL_Driver/Src/stm32f4xx_hal_dma_ex.c **** /* Private types -------------------------------------------------------------*/
  54:Drivers/STM32F4xx_HAL_Driver/Src/stm32f4xx_hal_dma_ex.c **** /* Private variables ---------------------------------------------------------*/
  55:Drivers/STM32F4xx_HAL_Driver/Src/stm32f4xx_hal_dma_ex.c **** /* Private Constants ---------------------------------------------------------*/
  56:Drivers/STM32F4xx_HAL_Driver/Src/stm32f4xx_hal_dma_ex.c **** /* Private macros ------------------------------------------------------------*/
  57:Drivers/STM32F4xx_HAL_Driver/Src/stm32f4xx_hal_dma_ex.c **** /* Private functions ---------------------------------------------------------*/
  58:Drivers/STM32F4xx_HAL_Driver/Src/stm32f4xx_hal_dma_ex.c **** /** @addtogroup DMAEx_Private_Functions
  59:Drivers/STM32F4xx_HAL_Driver/Src/stm32f4xx_hal_dma_ex.c ****   * @{
  60:Drivers/STM32F4xx_HAL_Driver/Src/stm32f4xx_hal_dma_ex.c ****   */
  61:Drivers/STM32F4xx_HAL_Driver/Src/stm32f4xx_hal_dma_ex.c **** static void DMA_MultiBufferSetConfig(DMA_HandleTypeDef *hdma, uint32_t SrcAddress, uint32_t DstAddr
  62:Drivers/STM32F4xx_HAL_Driver/Src/stm32f4xx_hal_dma_ex.c **** /**
  63:Drivers/STM32F4xx_HAL_Driver/Src/stm32f4xx_hal_dma_ex.c ****   * @}
  64:Drivers/STM32F4xx_HAL_Driver/Src/stm32f4xx_hal_dma_ex.c ****   */
  65:Drivers/STM32F4xx_HAL_Driver/Src/stm32f4xx_hal_dma_ex.c **** 
  66:Drivers/STM32F4xx_HAL_Driver/Src/stm32f4xx_hal_dma_ex.c **** /* Exported functions ---------------------------------------------------------*/
  67:Drivers/STM32F4xx_HAL_Driver/Src/stm32f4xx_hal_dma_ex.c **** 
  68:Drivers/STM32F4xx_HAL_Driver/Src/stm32f4xx_hal_dma_ex.c **** /** @addtogroup DMAEx_Exported_Functions
  69:Drivers/STM32F4xx_HAL_Driver/Src/stm32f4xx_hal_dma_ex.c ****   * @{
  70:Drivers/STM32F4xx_HAL_Driver/Src/stm32f4xx_hal_dma_ex.c ****   */
  71:Drivers/STM32F4xx_HAL_Driver/Src/stm32f4xx_hal_dma_ex.c **** 
  72:Drivers/STM32F4xx_HAL_Driver/Src/stm32f4xx_hal_dma_ex.c **** 
  73:Drivers/STM32F4xx_HAL_Driver/Src/stm32f4xx_hal_dma_ex.c **** /** @addtogroup DMAEx_Exported_Functions_Group1
  74:Drivers/STM32F4xx_HAL_Driver/Src/stm32f4xx_hal_dma_ex.c ****   *
  75:Drivers/STM32F4xx_HAL_Driver/Src/stm32f4xx_hal_dma_ex.c **** @verbatim   
  76:Drivers/STM32F4xx_HAL_Driver/Src/stm32f4xx_hal_dma_ex.c ****  ===============================================================================
  77:Drivers/STM32F4xx_HAL_Driver/Src/stm32f4xx_hal_dma_ex.c ****                 #####  Extended features functions  #####
  78:Drivers/STM32F4xx_HAL_Driver/Src/stm32f4xx_hal_dma_ex.c ****  ===============================================================================  
  79:Drivers/STM32F4xx_HAL_Driver/Src/stm32f4xx_hal_dma_ex.c ****     [..]  This section provides functions allowing to:
  80:Drivers/STM32F4xx_HAL_Driver/Src/stm32f4xx_hal_dma_ex.c ****       (+) Configure the source, destination address and data length and 
  81:Drivers/STM32F4xx_HAL_Driver/Src/stm32f4xx_hal_dma_ex.c ****           Start MultiBuffer DMA transfer
  82:Drivers/STM32F4xx_HAL_Driver/Src/stm32f4xx_hal_dma_ex.c ****       (+) Configure the source, destination address and data length and 
  83:Drivers/STM32F4xx_HAL_Driver/Src/stm32f4xx_hal_dma_ex.c ****           Start MultiBuffer DMA transfer with interrupt
  84:Drivers/STM32F4xx_HAL_Driver/Src/stm32f4xx_hal_dma_ex.c ****       (+) Change on the fly the memory0 or memory1 address.
  85:Drivers/STM32F4xx_HAL_Driver/Src/stm32f4xx_hal_dma_ex.c ****       
ARM GAS  /tmp/cchFK2Kj.s 			page 3


  86:Drivers/STM32F4xx_HAL_Driver/Src/stm32f4xx_hal_dma_ex.c **** @endverbatim
  87:Drivers/STM32F4xx_HAL_Driver/Src/stm32f4xx_hal_dma_ex.c ****   * @{
  88:Drivers/STM32F4xx_HAL_Driver/Src/stm32f4xx_hal_dma_ex.c ****   */
  89:Drivers/STM32F4xx_HAL_Driver/Src/stm32f4xx_hal_dma_ex.c **** 
  90:Drivers/STM32F4xx_HAL_Driver/Src/stm32f4xx_hal_dma_ex.c **** 
  91:Drivers/STM32F4xx_HAL_Driver/Src/stm32f4xx_hal_dma_ex.c **** /**
  92:Drivers/STM32F4xx_HAL_Driver/Src/stm32f4xx_hal_dma_ex.c ****   * @brief  Starts the multi_buffer DMA Transfer.
  93:Drivers/STM32F4xx_HAL_Driver/Src/stm32f4xx_hal_dma_ex.c ****   * @param  hdma       pointer to a DMA_HandleTypeDef structure that contains
  94:Drivers/STM32F4xx_HAL_Driver/Src/stm32f4xx_hal_dma_ex.c ****   *                     the configuration information for the specified DMA Stream.  
  95:Drivers/STM32F4xx_HAL_Driver/Src/stm32f4xx_hal_dma_ex.c ****   * @param  SrcAddress The source memory Buffer address
  96:Drivers/STM32F4xx_HAL_Driver/Src/stm32f4xx_hal_dma_ex.c ****   * @param  DstAddress The destination memory Buffer address
  97:Drivers/STM32F4xx_HAL_Driver/Src/stm32f4xx_hal_dma_ex.c ****   * @param  SecondMemAddress The second memory Buffer address in case of multi buffer Transfer  
  98:Drivers/STM32F4xx_HAL_Driver/Src/stm32f4xx_hal_dma_ex.c ****   * @param  DataLength The length of data to be transferred from source to destination
  99:Drivers/STM32F4xx_HAL_Driver/Src/stm32f4xx_hal_dma_ex.c ****   * @retval HAL status
 100:Drivers/STM32F4xx_HAL_Driver/Src/stm32f4xx_hal_dma_ex.c ****   */
 101:Drivers/STM32F4xx_HAL_Driver/Src/stm32f4xx_hal_dma_ex.c **** HAL_StatusTypeDef HAL_DMAEx_MultiBufferStart(DMA_HandleTypeDef *hdma, uint32_t SrcAddress, uint32_t
 102:Drivers/STM32F4xx_HAL_Driver/Src/stm32f4xx_hal_dma_ex.c **** {
  31              		.loc 1 102 1 view -0
  32              		.cfi_startproc
  33              		@ args = 4, pretend = 0, frame = 0
  34              		@ frame_needed = 0, uses_anonymous_args = 0
  35              		@ link register save eliminated.
 103:Drivers/STM32F4xx_HAL_Driver/Src/stm32f4xx_hal_dma_ex.c ****   HAL_StatusTypeDef status = HAL_OK;
  36              		.loc 1 103 3 view .LVU1
 104:Drivers/STM32F4xx_HAL_Driver/Src/stm32f4xx_hal_dma_ex.c ****   
 105:Drivers/STM32F4xx_HAL_Driver/Src/stm32f4xx_hal_dma_ex.c ****   /* Check the parameters */
 106:Drivers/STM32F4xx_HAL_Driver/Src/stm32f4xx_hal_dma_ex.c ****   assert_param(IS_DMA_BUFFER_SIZE(DataLength));
  37              		.loc 1 106 3 view .LVU2
 107:Drivers/STM32F4xx_HAL_Driver/Src/stm32f4xx_hal_dma_ex.c ****   
 108:Drivers/STM32F4xx_HAL_Driver/Src/stm32f4xx_hal_dma_ex.c ****   /* Memory-to-memory transfer not supported in double buffering mode */
 109:Drivers/STM32F4xx_HAL_Driver/Src/stm32f4xx_hal_dma_ex.c ****   if (hdma->Init.Direction == DMA_MEMORY_TO_MEMORY)
  38              		.loc 1 109 3 view .LVU3
 102:Drivers/STM32F4xx_HAL_Driver/Src/stm32f4xx_hal_dma_ex.c ****   HAL_StatusTypeDef status = HAL_OK;
  39              		.loc 1 102 1 is_stmt 0 view .LVU4
  40 0000 30B4     		push	{r4, r5}
  41              	.LCFI0:
  42              		.cfi_def_cfa_offset 8
  43              		.cfi_offset 4, -8
  44              		.cfi_offset 5, -4
  45              		.loc 1 109 17 view .LVU5
  46 0002 8568     		ldr	r5, [r0, #8]
  47              		.loc 1 109 6 view .LVU6
  48 0004 802D     		cmp	r5, #128
  49 0006 27D0     		beq	.L10
 110:Drivers/STM32F4xx_HAL_Driver/Src/stm32f4xx_hal_dma_ex.c ****   {
 111:Drivers/STM32F4xx_HAL_Driver/Src/stm32f4xx_hal_dma_ex.c ****     hdma->ErrorCode = HAL_DMA_ERROR_NOT_SUPPORTED;
 112:Drivers/STM32F4xx_HAL_Driver/Src/stm32f4xx_hal_dma_ex.c ****     status = HAL_ERROR;
 113:Drivers/STM32F4xx_HAL_Driver/Src/stm32f4xx_hal_dma_ex.c ****   }
 114:Drivers/STM32F4xx_HAL_Driver/Src/stm32f4xx_hal_dma_ex.c ****   else
 115:Drivers/STM32F4xx_HAL_Driver/Src/stm32f4xx_hal_dma_ex.c ****   {
 116:Drivers/STM32F4xx_HAL_Driver/Src/stm32f4xx_hal_dma_ex.c ****     /* Process Locked */
 117:Drivers/STM32F4xx_HAL_Driver/Src/stm32f4xx_hal_dma_ex.c ****     __HAL_LOCK(hdma);
  50              		.loc 1 117 5 is_stmt 1 view .LVU7
  51              		.loc 1 117 5 view .LVU8
  52 0008 90F83440 		ldrb	r4, [r0, #52]	@ zero_extendqisi2
  53 000c 012C     		cmp	r4, #1
  54 000e 07D0     		beq	.L5
ARM GAS  /tmp/cchFK2Kj.s 			page 4


  55              		.loc 1 117 5 discriminator 2 view .LVU9
 118:Drivers/STM32F4xx_HAL_Driver/Src/stm32f4xx_hal_dma_ex.c ****     
 119:Drivers/STM32F4xx_HAL_Driver/Src/stm32f4xx_hal_dma_ex.c ****     if(HAL_DMA_STATE_READY == hdma->State)
  56              		.loc 1 119 35 is_stmt 0 discriminator 2 view .LVU10
  57 0010 90F83540 		ldrb	r4, [r0, #53]	@ zero_extendqisi2
 117:Drivers/STM32F4xx_HAL_Driver/Src/stm32f4xx_hal_dma_ex.c ****     
  58              		.loc 1 117 5 discriminator 2 view .LVU11
  59 0014 4FF0010C 		mov	ip, #1
  60              		.loc 1 119 7 discriminator 2 view .LVU12
  61 0018 6445     		cmp	r4, ip
 117:Drivers/STM32F4xx_HAL_Driver/Src/stm32f4xx_hal_dma_ex.c ****     
  62              		.loc 1 117 5 discriminator 2 view .LVU13
  63 001a 80F834C0 		strb	ip, [r0, #52]
 117:Drivers/STM32F4xx_HAL_Driver/Src/stm32f4xx_hal_dma_ex.c ****     
  64              		.loc 1 117 5 is_stmt 1 discriminator 2 view .LVU14
  65              		.loc 1 119 5 discriminator 2 view .LVU15
  66              		.loc 1 119 7 is_stmt 0 discriminator 2 view .LVU16
  67 001e 02D0     		beq	.L11
  68              	.L5:
 117:Drivers/STM32F4xx_HAL_Driver/Src/stm32f4xx_hal_dma_ex.c ****     
  69              		.loc 1 117 5 view .LVU17
  70 0020 0220     		movs	r0, #2
  71              	.LVL1:
 120:Drivers/STM32F4xx_HAL_Driver/Src/stm32f4xx_hal_dma_ex.c ****     {
 121:Drivers/STM32F4xx_HAL_Driver/Src/stm32f4xx_hal_dma_ex.c ****       /* Change DMA peripheral state */
 122:Drivers/STM32F4xx_HAL_Driver/Src/stm32f4xx_hal_dma_ex.c ****       hdma->State = HAL_DMA_STATE_BUSY; 
 123:Drivers/STM32F4xx_HAL_Driver/Src/stm32f4xx_hal_dma_ex.c ****       
 124:Drivers/STM32F4xx_HAL_Driver/Src/stm32f4xx_hal_dma_ex.c ****       /* Enable the double buffer mode */
 125:Drivers/STM32F4xx_HAL_Driver/Src/stm32f4xx_hal_dma_ex.c ****       hdma->Instance->CR |= (uint32_t)DMA_SxCR_DBM;
 126:Drivers/STM32F4xx_HAL_Driver/Src/stm32f4xx_hal_dma_ex.c ****       
 127:Drivers/STM32F4xx_HAL_Driver/Src/stm32f4xx_hal_dma_ex.c ****       /* Configure DMA Stream destination address */
 128:Drivers/STM32F4xx_HAL_Driver/Src/stm32f4xx_hal_dma_ex.c ****       hdma->Instance->M1AR = SecondMemAddress;
 129:Drivers/STM32F4xx_HAL_Driver/Src/stm32f4xx_hal_dma_ex.c ****       
 130:Drivers/STM32F4xx_HAL_Driver/Src/stm32f4xx_hal_dma_ex.c ****       /* Configure the source, destination address and the data length */
 131:Drivers/STM32F4xx_HAL_Driver/Src/stm32f4xx_hal_dma_ex.c ****       DMA_MultiBufferSetConfig(hdma, SrcAddress, DstAddress, DataLength);
 132:Drivers/STM32F4xx_HAL_Driver/Src/stm32f4xx_hal_dma_ex.c ****       
 133:Drivers/STM32F4xx_HAL_Driver/Src/stm32f4xx_hal_dma_ex.c ****       /* Enable the peripheral */
 134:Drivers/STM32F4xx_HAL_Driver/Src/stm32f4xx_hal_dma_ex.c ****       __HAL_DMA_ENABLE(hdma);
 135:Drivers/STM32F4xx_HAL_Driver/Src/stm32f4xx_hal_dma_ex.c ****     }
 136:Drivers/STM32F4xx_HAL_Driver/Src/stm32f4xx_hal_dma_ex.c ****     else
 137:Drivers/STM32F4xx_HAL_Driver/Src/stm32f4xx_hal_dma_ex.c ****     {
 138:Drivers/STM32F4xx_HAL_Driver/Src/stm32f4xx_hal_dma_ex.c ****       /* Return error status */
 139:Drivers/STM32F4xx_HAL_Driver/Src/stm32f4xx_hal_dma_ex.c ****       status = HAL_BUSY;
 140:Drivers/STM32F4xx_HAL_Driver/Src/stm32f4xx_hal_dma_ex.c ****     }
 141:Drivers/STM32F4xx_HAL_Driver/Src/stm32f4xx_hal_dma_ex.c ****   }
 142:Drivers/STM32F4xx_HAL_Driver/Src/stm32f4xx_hal_dma_ex.c ****   return status;
 143:Drivers/STM32F4xx_HAL_Driver/Src/stm32f4xx_hal_dma_ex.c **** }
  72              		.loc 1 143 1 view .LVU18
  73 0022 30BC     		pop	{r4, r5}
  74              	.LCFI1:
  75              		.cfi_remember_state
  76              		.cfi_restore 5
  77              		.cfi_restore 4
  78              		.cfi_def_cfa_offset 0
  79              	.LVL2:
  80              		.loc 1 143 1 view .LVU19
  81 0024 7047     		bx	lr
ARM GAS  /tmp/cchFK2Kj.s 			page 5


  82              	.LVL3:
  83              	.L11:
  84              	.LCFI2:
  85              		.cfi_restore_state
 122:Drivers/STM32F4xx_HAL_Driver/Src/stm32f4xx_hal_dma_ex.c ****       
  86              		.loc 1 122 7 is_stmt 1 view .LVU20
 125:Drivers/STM32F4xx_HAL_Driver/Src/stm32f4xx_hal_dma_ex.c ****       
  87              		.loc 1 125 11 is_stmt 0 view .LVU21
  88 0026 0468     		ldr	r4, [r0]
 122:Drivers/STM32F4xx_HAL_Driver/Src/stm32f4xx_hal_dma_ex.c ****       
  89              		.loc 1 122 19 view .LVU22
  90 0028 4FF0020C 		mov	ip, #2
  91 002c 80F835C0 		strb	ip, [r0, #53]
 125:Drivers/STM32F4xx_HAL_Driver/Src/stm32f4xx_hal_dma_ex.c ****       
  92              		.loc 1 125 7 is_stmt 1 view .LVU23
 125:Drivers/STM32F4xx_HAL_Driver/Src/stm32f4xx_hal_dma_ex.c ****       
  93              		.loc 1 125 26 is_stmt 0 view .LVU24
  94 0030 2068     		ldr	r0, [r4]
  95              	.LVL4:
 125:Drivers/STM32F4xx_HAL_Driver/Src/stm32f4xx_hal_dma_ex.c ****       
  96              		.loc 1 125 26 view .LVU25
  97 0032 40F48020 		orr	r0, r0, #262144
  98 0036 2060     		str	r0, [r4]
 128:Drivers/STM32F4xx_HAL_Driver/Src/stm32f4xx_hal_dma_ex.c ****       
  99              		.loc 1 128 7 is_stmt 1 view .LVU26
 100              	.LBB6:
 101              	.LBB7:
 144:Drivers/STM32F4xx_HAL_Driver/Src/stm32f4xx_hal_dma_ex.c **** 
 145:Drivers/STM32F4xx_HAL_Driver/Src/stm32f4xx_hal_dma_ex.c **** /**
 146:Drivers/STM32F4xx_HAL_Driver/Src/stm32f4xx_hal_dma_ex.c ****   * @brief  Starts the multi_buffer DMA Transfer with interrupt enabled.
 147:Drivers/STM32F4xx_HAL_Driver/Src/stm32f4xx_hal_dma_ex.c ****   * @param  hdma       pointer to a DMA_HandleTypeDef structure that contains
 148:Drivers/STM32F4xx_HAL_Driver/Src/stm32f4xx_hal_dma_ex.c ****   *                     the configuration information for the specified DMA Stream.  
 149:Drivers/STM32F4xx_HAL_Driver/Src/stm32f4xx_hal_dma_ex.c ****   * @param  SrcAddress The source memory Buffer address
 150:Drivers/STM32F4xx_HAL_Driver/Src/stm32f4xx_hal_dma_ex.c ****   * @param  DstAddress The destination memory Buffer address
 151:Drivers/STM32F4xx_HAL_Driver/Src/stm32f4xx_hal_dma_ex.c ****   * @param  SecondMemAddress The second memory Buffer address in case of multi buffer Transfer  
 152:Drivers/STM32F4xx_HAL_Driver/Src/stm32f4xx_hal_dma_ex.c ****   * @param  DataLength The length of data to be transferred from source to destination
 153:Drivers/STM32F4xx_HAL_Driver/Src/stm32f4xx_hal_dma_ex.c ****   * @retval HAL status
 154:Drivers/STM32F4xx_HAL_Driver/Src/stm32f4xx_hal_dma_ex.c ****   */
 155:Drivers/STM32F4xx_HAL_Driver/Src/stm32f4xx_hal_dma_ex.c **** HAL_StatusTypeDef HAL_DMAEx_MultiBufferStart_IT(DMA_HandleTypeDef *hdma, uint32_t SrcAddress, uint3
 156:Drivers/STM32F4xx_HAL_Driver/Src/stm32f4xx_hal_dma_ex.c **** {
 157:Drivers/STM32F4xx_HAL_Driver/Src/stm32f4xx_hal_dma_ex.c ****   HAL_StatusTypeDef status = HAL_OK;
 158:Drivers/STM32F4xx_HAL_Driver/Src/stm32f4xx_hal_dma_ex.c ****   
 159:Drivers/STM32F4xx_HAL_Driver/Src/stm32f4xx_hal_dma_ex.c ****   /* Check the parameters */
 160:Drivers/STM32F4xx_HAL_Driver/Src/stm32f4xx_hal_dma_ex.c ****   assert_param(IS_DMA_BUFFER_SIZE(DataLength));
 161:Drivers/STM32F4xx_HAL_Driver/Src/stm32f4xx_hal_dma_ex.c ****   
 162:Drivers/STM32F4xx_HAL_Driver/Src/stm32f4xx_hal_dma_ex.c ****   /* Memory-to-memory transfer not supported in double buffering mode */
 163:Drivers/STM32F4xx_HAL_Driver/Src/stm32f4xx_hal_dma_ex.c ****   if (hdma->Init.Direction == DMA_MEMORY_TO_MEMORY)
 164:Drivers/STM32F4xx_HAL_Driver/Src/stm32f4xx_hal_dma_ex.c ****   {
 165:Drivers/STM32F4xx_HAL_Driver/Src/stm32f4xx_hal_dma_ex.c ****     hdma->ErrorCode = HAL_DMA_ERROR_NOT_SUPPORTED;
 166:Drivers/STM32F4xx_HAL_Driver/Src/stm32f4xx_hal_dma_ex.c ****     return HAL_ERROR;
 167:Drivers/STM32F4xx_HAL_Driver/Src/stm32f4xx_hal_dma_ex.c ****   }
 168:Drivers/STM32F4xx_HAL_Driver/Src/stm32f4xx_hal_dma_ex.c ****   
 169:Drivers/STM32F4xx_HAL_Driver/Src/stm32f4xx_hal_dma_ex.c ****   /* Check callback functions */
 170:Drivers/STM32F4xx_HAL_Driver/Src/stm32f4xx_hal_dma_ex.c ****   if ((NULL == hdma->XferCpltCallback) || (NULL == hdma->XferM1CpltCallback) || (NULL == hdma->Xfer
 171:Drivers/STM32F4xx_HAL_Driver/Src/stm32f4xx_hal_dma_ex.c ****   {
 172:Drivers/STM32F4xx_HAL_Driver/Src/stm32f4xx_hal_dma_ex.c ****     hdma->ErrorCode = HAL_DMA_ERROR_PARAM;
 173:Drivers/STM32F4xx_HAL_Driver/Src/stm32f4xx_hal_dma_ex.c ****     return HAL_ERROR;
ARM GAS  /tmp/cchFK2Kj.s 			page 6


 174:Drivers/STM32F4xx_HAL_Driver/Src/stm32f4xx_hal_dma_ex.c ****   }
 175:Drivers/STM32F4xx_HAL_Driver/Src/stm32f4xx_hal_dma_ex.c ****   
 176:Drivers/STM32F4xx_HAL_Driver/Src/stm32f4xx_hal_dma_ex.c ****   /* Process locked */
 177:Drivers/STM32F4xx_HAL_Driver/Src/stm32f4xx_hal_dma_ex.c ****   __HAL_LOCK(hdma);
 178:Drivers/STM32F4xx_HAL_Driver/Src/stm32f4xx_hal_dma_ex.c ****   
 179:Drivers/STM32F4xx_HAL_Driver/Src/stm32f4xx_hal_dma_ex.c ****   if(HAL_DMA_STATE_READY == hdma->State)
 180:Drivers/STM32F4xx_HAL_Driver/Src/stm32f4xx_hal_dma_ex.c ****   {
 181:Drivers/STM32F4xx_HAL_Driver/Src/stm32f4xx_hal_dma_ex.c ****     /* Change DMA peripheral state */
 182:Drivers/STM32F4xx_HAL_Driver/Src/stm32f4xx_hal_dma_ex.c ****     hdma->State = HAL_DMA_STATE_BUSY;
 183:Drivers/STM32F4xx_HAL_Driver/Src/stm32f4xx_hal_dma_ex.c ****     
 184:Drivers/STM32F4xx_HAL_Driver/Src/stm32f4xx_hal_dma_ex.c ****     /* Initialize the error code */
 185:Drivers/STM32F4xx_HAL_Driver/Src/stm32f4xx_hal_dma_ex.c ****     hdma->ErrorCode = HAL_DMA_ERROR_NONE;
 186:Drivers/STM32F4xx_HAL_Driver/Src/stm32f4xx_hal_dma_ex.c ****     
 187:Drivers/STM32F4xx_HAL_Driver/Src/stm32f4xx_hal_dma_ex.c ****     /* Enable the Double buffer mode */
 188:Drivers/STM32F4xx_HAL_Driver/Src/stm32f4xx_hal_dma_ex.c ****     hdma->Instance->CR |= (uint32_t)DMA_SxCR_DBM;
 189:Drivers/STM32F4xx_HAL_Driver/Src/stm32f4xx_hal_dma_ex.c ****     
 190:Drivers/STM32F4xx_HAL_Driver/Src/stm32f4xx_hal_dma_ex.c ****     /* Configure DMA Stream destination address */
 191:Drivers/STM32F4xx_HAL_Driver/Src/stm32f4xx_hal_dma_ex.c ****     hdma->Instance->M1AR = SecondMemAddress;
 192:Drivers/STM32F4xx_HAL_Driver/Src/stm32f4xx_hal_dma_ex.c ****     
 193:Drivers/STM32F4xx_HAL_Driver/Src/stm32f4xx_hal_dma_ex.c ****     /* Configure the source, destination address and the data length */
 194:Drivers/STM32F4xx_HAL_Driver/Src/stm32f4xx_hal_dma_ex.c ****     DMA_MultiBufferSetConfig(hdma, SrcAddress, DstAddress, DataLength); 
 195:Drivers/STM32F4xx_HAL_Driver/Src/stm32f4xx_hal_dma_ex.c ****     
 196:Drivers/STM32F4xx_HAL_Driver/Src/stm32f4xx_hal_dma_ex.c ****     /* Clear all flags */
 197:Drivers/STM32F4xx_HAL_Driver/Src/stm32f4xx_hal_dma_ex.c ****     __HAL_DMA_CLEAR_FLAG (hdma, __HAL_DMA_GET_TC_FLAG_INDEX(hdma));
 198:Drivers/STM32F4xx_HAL_Driver/Src/stm32f4xx_hal_dma_ex.c ****     __HAL_DMA_CLEAR_FLAG (hdma, __HAL_DMA_GET_HT_FLAG_INDEX(hdma));
 199:Drivers/STM32F4xx_HAL_Driver/Src/stm32f4xx_hal_dma_ex.c ****     __HAL_DMA_CLEAR_FLAG (hdma, __HAL_DMA_GET_TE_FLAG_INDEX(hdma));
 200:Drivers/STM32F4xx_HAL_Driver/Src/stm32f4xx_hal_dma_ex.c ****     __HAL_DMA_CLEAR_FLAG (hdma, __HAL_DMA_GET_DME_FLAG_INDEX(hdma));
 201:Drivers/STM32F4xx_HAL_Driver/Src/stm32f4xx_hal_dma_ex.c ****     __HAL_DMA_CLEAR_FLAG (hdma, __HAL_DMA_GET_FE_FLAG_INDEX(hdma));
 202:Drivers/STM32F4xx_HAL_Driver/Src/stm32f4xx_hal_dma_ex.c **** 
 203:Drivers/STM32F4xx_HAL_Driver/Src/stm32f4xx_hal_dma_ex.c ****     /* Enable Common interrupts*/
 204:Drivers/STM32F4xx_HAL_Driver/Src/stm32f4xx_hal_dma_ex.c ****     hdma->Instance->CR  |= DMA_IT_TC | DMA_IT_TE | DMA_IT_DME;
 205:Drivers/STM32F4xx_HAL_Driver/Src/stm32f4xx_hal_dma_ex.c ****     hdma->Instance->FCR |= DMA_IT_FE;
 206:Drivers/STM32F4xx_HAL_Driver/Src/stm32f4xx_hal_dma_ex.c ****     
 207:Drivers/STM32F4xx_HAL_Driver/Src/stm32f4xx_hal_dma_ex.c ****     if((hdma->XferHalfCpltCallback != NULL) || (hdma->XferM1HalfCpltCallback != NULL))
 208:Drivers/STM32F4xx_HAL_Driver/Src/stm32f4xx_hal_dma_ex.c ****     {
 209:Drivers/STM32F4xx_HAL_Driver/Src/stm32f4xx_hal_dma_ex.c ****       hdma->Instance->CR  |= DMA_IT_HT;
 210:Drivers/STM32F4xx_HAL_Driver/Src/stm32f4xx_hal_dma_ex.c ****     }
 211:Drivers/STM32F4xx_HAL_Driver/Src/stm32f4xx_hal_dma_ex.c ****     
 212:Drivers/STM32F4xx_HAL_Driver/Src/stm32f4xx_hal_dma_ex.c ****     /* Enable the peripheral */
 213:Drivers/STM32F4xx_HAL_Driver/Src/stm32f4xx_hal_dma_ex.c ****     __HAL_DMA_ENABLE(hdma); 
 214:Drivers/STM32F4xx_HAL_Driver/Src/stm32f4xx_hal_dma_ex.c ****   }
 215:Drivers/STM32F4xx_HAL_Driver/Src/stm32f4xx_hal_dma_ex.c ****   else
 216:Drivers/STM32F4xx_HAL_Driver/Src/stm32f4xx_hal_dma_ex.c ****   {     
 217:Drivers/STM32F4xx_HAL_Driver/Src/stm32f4xx_hal_dma_ex.c ****     /* Process unlocked */
 218:Drivers/STM32F4xx_HAL_Driver/Src/stm32f4xx_hal_dma_ex.c ****     __HAL_UNLOCK(hdma);	  
 219:Drivers/STM32F4xx_HAL_Driver/Src/stm32f4xx_hal_dma_ex.c ****     
 220:Drivers/STM32F4xx_HAL_Driver/Src/stm32f4xx_hal_dma_ex.c ****     /* Return error status */
 221:Drivers/STM32F4xx_HAL_Driver/Src/stm32f4xx_hal_dma_ex.c ****     status = HAL_BUSY;
 222:Drivers/STM32F4xx_HAL_Driver/Src/stm32f4xx_hal_dma_ex.c ****   }  
 223:Drivers/STM32F4xx_HAL_Driver/Src/stm32f4xx_hal_dma_ex.c ****   return status; 
 224:Drivers/STM32F4xx_HAL_Driver/Src/stm32f4xx_hal_dma_ex.c **** }
 225:Drivers/STM32F4xx_HAL_Driver/Src/stm32f4xx_hal_dma_ex.c **** 
 226:Drivers/STM32F4xx_HAL_Driver/Src/stm32f4xx_hal_dma_ex.c **** /**
 227:Drivers/STM32F4xx_HAL_Driver/Src/stm32f4xx_hal_dma_ex.c ****   * @brief  Change the memory0 or memory1 address on the fly.
 228:Drivers/STM32F4xx_HAL_Driver/Src/stm32f4xx_hal_dma_ex.c ****   * @param  hdma       pointer to a DMA_HandleTypeDef structure that contains
 229:Drivers/STM32F4xx_HAL_Driver/Src/stm32f4xx_hal_dma_ex.c ****   *                     the configuration information for the specified DMA Stream.  
 230:Drivers/STM32F4xx_HAL_Driver/Src/stm32f4xx_hal_dma_ex.c ****   * @param  Address    The new address
ARM GAS  /tmp/cchFK2Kj.s 			page 7


 231:Drivers/STM32F4xx_HAL_Driver/Src/stm32f4xx_hal_dma_ex.c ****   * @param  memory     the memory to be changed, This parameter can be one of 
 232:Drivers/STM32F4xx_HAL_Driver/Src/stm32f4xx_hal_dma_ex.c ****   *                     the following values:
 233:Drivers/STM32F4xx_HAL_Driver/Src/stm32f4xx_hal_dma_ex.c ****   *                      MEMORY0 /
 234:Drivers/STM32F4xx_HAL_Driver/Src/stm32f4xx_hal_dma_ex.c ****   *                      MEMORY1
 235:Drivers/STM32F4xx_HAL_Driver/Src/stm32f4xx_hal_dma_ex.c ****   * @note   The MEMORY0 address can be changed only when the current transfer use
 236:Drivers/STM32F4xx_HAL_Driver/Src/stm32f4xx_hal_dma_ex.c ****   *         MEMORY1 and the MEMORY1 address can be changed only when the current 
 237:Drivers/STM32F4xx_HAL_Driver/Src/stm32f4xx_hal_dma_ex.c ****   *         transfer use MEMORY0.
 238:Drivers/STM32F4xx_HAL_Driver/Src/stm32f4xx_hal_dma_ex.c ****   * @retval HAL status
 239:Drivers/STM32F4xx_HAL_Driver/Src/stm32f4xx_hal_dma_ex.c ****   */
 240:Drivers/STM32F4xx_HAL_Driver/Src/stm32f4xx_hal_dma_ex.c **** HAL_StatusTypeDef HAL_DMAEx_ChangeMemory(DMA_HandleTypeDef *hdma, uint32_t Address, HAL_DMA_MemoryT
 241:Drivers/STM32F4xx_HAL_Driver/Src/stm32f4xx_hal_dma_ex.c **** {
 242:Drivers/STM32F4xx_HAL_Driver/Src/stm32f4xx_hal_dma_ex.c ****   if(memory == MEMORY0)
 243:Drivers/STM32F4xx_HAL_Driver/Src/stm32f4xx_hal_dma_ex.c ****   {
 244:Drivers/STM32F4xx_HAL_Driver/Src/stm32f4xx_hal_dma_ex.c ****     /* change the memory0 address */
 245:Drivers/STM32F4xx_HAL_Driver/Src/stm32f4xx_hal_dma_ex.c ****     hdma->Instance->M0AR = Address;
 246:Drivers/STM32F4xx_HAL_Driver/Src/stm32f4xx_hal_dma_ex.c ****   }
 247:Drivers/STM32F4xx_HAL_Driver/Src/stm32f4xx_hal_dma_ex.c ****   else
 248:Drivers/STM32F4xx_HAL_Driver/Src/stm32f4xx_hal_dma_ex.c ****   {
 249:Drivers/STM32F4xx_HAL_Driver/Src/stm32f4xx_hal_dma_ex.c ****     /* change the memory1 address */
 250:Drivers/STM32F4xx_HAL_Driver/Src/stm32f4xx_hal_dma_ex.c ****     hdma->Instance->M1AR = Address;
 251:Drivers/STM32F4xx_HAL_Driver/Src/stm32f4xx_hal_dma_ex.c ****   }
 252:Drivers/STM32F4xx_HAL_Driver/Src/stm32f4xx_hal_dma_ex.c **** 
 253:Drivers/STM32F4xx_HAL_Driver/Src/stm32f4xx_hal_dma_ex.c ****   return HAL_OK;
 254:Drivers/STM32F4xx_HAL_Driver/Src/stm32f4xx_hal_dma_ex.c **** }
 255:Drivers/STM32F4xx_HAL_Driver/Src/stm32f4xx_hal_dma_ex.c **** 
 256:Drivers/STM32F4xx_HAL_Driver/Src/stm32f4xx_hal_dma_ex.c **** /**
 257:Drivers/STM32F4xx_HAL_Driver/Src/stm32f4xx_hal_dma_ex.c ****   * @}
 258:Drivers/STM32F4xx_HAL_Driver/Src/stm32f4xx_hal_dma_ex.c ****   */
 259:Drivers/STM32F4xx_HAL_Driver/Src/stm32f4xx_hal_dma_ex.c **** 
 260:Drivers/STM32F4xx_HAL_Driver/Src/stm32f4xx_hal_dma_ex.c **** /**
 261:Drivers/STM32F4xx_HAL_Driver/Src/stm32f4xx_hal_dma_ex.c ****   * @}
 262:Drivers/STM32F4xx_HAL_Driver/Src/stm32f4xx_hal_dma_ex.c ****   */
 263:Drivers/STM32F4xx_HAL_Driver/Src/stm32f4xx_hal_dma_ex.c **** 
 264:Drivers/STM32F4xx_HAL_Driver/Src/stm32f4xx_hal_dma_ex.c **** /** @addtogroup DMAEx_Private_Functions
 265:Drivers/STM32F4xx_HAL_Driver/Src/stm32f4xx_hal_dma_ex.c ****   * @{
 266:Drivers/STM32F4xx_HAL_Driver/Src/stm32f4xx_hal_dma_ex.c ****   */
 267:Drivers/STM32F4xx_HAL_Driver/Src/stm32f4xx_hal_dma_ex.c **** 
 268:Drivers/STM32F4xx_HAL_Driver/Src/stm32f4xx_hal_dma_ex.c **** /**
 269:Drivers/STM32F4xx_HAL_Driver/Src/stm32f4xx_hal_dma_ex.c ****   * @brief  Set the DMA Transfer parameter.
 270:Drivers/STM32F4xx_HAL_Driver/Src/stm32f4xx_hal_dma_ex.c ****   * @param  hdma       pointer to a DMA_HandleTypeDef structure that contains
 271:Drivers/STM32F4xx_HAL_Driver/Src/stm32f4xx_hal_dma_ex.c ****   *                     the configuration information for the specified DMA Stream.  
 272:Drivers/STM32F4xx_HAL_Driver/Src/stm32f4xx_hal_dma_ex.c ****   * @param  SrcAddress The source memory Buffer address
 273:Drivers/STM32F4xx_HAL_Driver/Src/stm32f4xx_hal_dma_ex.c ****   * @param  DstAddress The destination memory Buffer address
 274:Drivers/STM32F4xx_HAL_Driver/Src/stm32f4xx_hal_dma_ex.c ****   * @param  DataLength The length of data to be transferred from source to destination
 275:Drivers/STM32F4xx_HAL_Driver/Src/stm32f4xx_hal_dma_ex.c ****   * @retval HAL status
 276:Drivers/STM32F4xx_HAL_Driver/Src/stm32f4xx_hal_dma_ex.c ****   */
 277:Drivers/STM32F4xx_HAL_Driver/Src/stm32f4xx_hal_dma_ex.c **** static void DMA_MultiBufferSetConfig(DMA_HandleTypeDef *hdma, uint32_t SrcAddress, uint32_t DstAddr
 278:Drivers/STM32F4xx_HAL_Driver/Src/stm32f4xx_hal_dma_ex.c **** {  
 279:Drivers/STM32F4xx_HAL_Driver/Src/stm32f4xx_hal_dma_ex.c ****   /* Configure DMA Stream data length */
 280:Drivers/STM32F4xx_HAL_Driver/Src/stm32f4xx_hal_dma_ex.c ****   hdma->Instance->NDTR = DataLength;
 281:Drivers/STM32F4xx_HAL_Driver/Src/stm32f4xx_hal_dma_ex.c ****   
 282:Drivers/STM32F4xx_HAL_Driver/Src/stm32f4xx_hal_dma_ex.c ****   /* Peripheral to Memory */
 283:Drivers/STM32F4xx_HAL_Driver/Src/stm32f4xx_hal_dma_ex.c ****   if((hdma->Init.Direction) == DMA_MEMORY_TO_PERIPH)
 102              		.loc 1 283 5 is_stmt 0 view .LVU27
 103 0038 402D     		cmp	r5, #64
 104              	.LBE7:
 105              	.LBE6:
ARM GAS  /tmp/cchFK2Kj.s 			page 8


 128:Drivers/STM32F4xx_HAL_Driver/Src/stm32f4xx_hal_dma_ex.c ****       
 106              		.loc 1 128 28 view .LVU28
 107 003a 2361     		str	r3, [r4, #16]
 131:Drivers/STM32F4xx_HAL_Driver/Src/stm32f4xx_hal_dma_ex.c ****       
 108              		.loc 1 131 7 is_stmt 1 view .LVU29
 109              	.LVL5:
 110              	.LBB9:
 111              	.LBI6:
 277:Drivers/STM32F4xx_HAL_Driver/Src/stm32f4xx_hal_dma_ex.c **** {  
 112              		.loc 1 277 13 view .LVU30
 113              	.LBB8:
 280:Drivers/STM32F4xx_HAL_Driver/Src/stm32f4xx_hal_dma_ex.c ****   
 114              		.loc 1 280 3 view .LVU31
 280:Drivers/STM32F4xx_HAL_Driver/Src/stm32f4xx_hal_dma_ex.c ****   
 115              		.loc 1 280 24 is_stmt 0 view .LVU32
 116 003c 029B     		ldr	r3, [sp, #8]
 117              	.LVL6:
 280:Drivers/STM32F4xx_HAL_Driver/Src/stm32f4xx_hal_dma_ex.c ****   
 118              		.loc 1 280 24 view .LVU33
 119 003e 6360     		str	r3, [r4, #4]
 120              	.LVL7:
 121              		.loc 1 283 3 is_stmt 1 view .LVU34
 284:Drivers/STM32F4xx_HAL_Driver/Src/stm32f4xx_hal_dma_ex.c ****   {   
 285:Drivers/STM32F4xx_HAL_Driver/Src/stm32f4xx_hal_dma_ex.c ****     /* Configure DMA Stream destination address */
 286:Drivers/STM32F4xx_HAL_Driver/Src/stm32f4xx_hal_dma_ex.c ****     hdma->Instance->PAR = DstAddress;
 122              		.loc 1 286 5 view .LVU35
 123              		.loc 1 286 25 is_stmt 0 view .LVU36
 124 0040 0BBF     		itete	eq
 125 0042 A260     		streq	r2, [r4, #8]
 287:Drivers/STM32F4xx_HAL_Driver/Src/stm32f4xx_hal_dma_ex.c ****     
 288:Drivers/STM32F4xx_HAL_Driver/Src/stm32f4xx_hal_dma_ex.c ****     /* Configure DMA Stream source address */
 289:Drivers/STM32F4xx_HAL_Driver/Src/stm32f4xx_hal_dma_ex.c ****     hdma->Instance->M0AR = SrcAddress;
 126              		.loc 1 289 5 is_stmt 1 view .LVU37
 290:Drivers/STM32F4xx_HAL_Driver/Src/stm32f4xx_hal_dma_ex.c ****   }
 291:Drivers/STM32F4xx_HAL_Driver/Src/stm32f4xx_hal_dma_ex.c ****   /* Memory to Peripheral */
 292:Drivers/STM32F4xx_HAL_Driver/Src/stm32f4xx_hal_dma_ex.c ****   else
 293:Drivers/STM32F4xx_HAL_Driver/Src/stm32f4xx_hal_dma_ex.c ****   {
 294:Drivers/STM32F4xx_HAL_Driver/Src/stm32f4xx_hal_dma_ex.c ****     /* Configure DMA Stream source address */
 295:Drivers/STM32F4xx_HAL_Driver/Src/stm32f4xx_hal_dma_ex.c ****     hdma->Instance->PAR = SrcAddress;
 127              		.loc 1 295 25 is_stmt 0 view .LVU38
 128 0044 A160     		strne	r1, [r4, #8]
 289:Drivers/STM32F4xx_HAL_Driver/Src/stm32f4xx_hal_dma_ex.c ****   }
 129              		.loc 1 289 26 view .LVU39
 130 0046 E160     		streq	r1, [r4, #12]
 131              		.loc 1 295 5 is_stmt 1 view .LVU40
 296:Drivers/STM32F4xx_HAL_Driver/Src/stm32f4xx_hal_dma_ex.c ****     
 297:Drivers/STM32F4xx_HAL_Driver/Src/stm32f4xx_hal_dma_ex.c ****     /* Configure DMA Stream destination address */
 298:Drivers/STM32F4xx_HAL_Driver/Src/stm32f4xx_hal_dma_ex.c ****     hdma->Instance->M0AR = DstAddress;
 132              		.loc 1 298 5 view .LVU41
 133              		.loc 1 298 26 is_stmt 0 view .LVU42
 134 0048 E260     		strne	r2, [r4, #12]
 135              	.LVL8:
 136              		.loc 1 298 26 view .LVU43
 137              	.LBE8:
 138              	.LBE9:
 134:Drivers/STM32F4xx_HAL_Driver/Src/stm32f4xx_hal_dma_ex.c ****     }
 139              		.loc 1 134 7 is_stmt 1 view .LVU44
ARM GAS  /tmp/cchFK2Kj.s 			page 9


 140 004a 2368     		ldr	r3, [r4]
 141 004c 43F00103 		orr	r3, r3, #1
 103:Drivers/STM32F4xx_HAL_Driver/Src/stm32f4xx_hal_dma_ex.c ****   
 142              		.loc 1 103 21 is_stmt 0 view .LVU45
 143 0050 0020     		movs	r0, #0
 134:Drivers/STM32F4xx_HAL_Driver/Src/stm32f4xx_hal_dma_ex.c ****     }
 144              		.loc 1 134 7 view .LVU46
 145 0052 2360     		str	r3, [r4]
 146              	.LVL9:
 143:Drivers/STM32F4xx_HAL_Driver/Src/stm32f4xx_hal_dma_ex.c **** 
 147              		.loc 1 143 1 view .LVU47
 148 0054 30BC     		pop	{r4, r5}
 149              	.LCFI3:
 150              		.cfi_remember_state
 151              		.cfi_restore 5
 152              		.cfi_restore 4
 153              		.cfi_def_cfa_offset 0
 154              	.LVL10:
 143:Drivers/STM32F4xx_HAL_Driver/Src/stm32f4xx_hal_dma_ex.c **** 
 155              		.loc 1 143 1 view .LVU48
 156 0056 7047     		bx	lr
 157              	.LVL11:
 158              	.L10:
 159              	.LCFI4:
 160              		.cfi_restore_state
 111:Drivers/STM32F4xx_HAL_Driver/Src/stm32f4xx_hal_dma_ex.c ****     status = HAL_ERROR;
 161              		.loc 1 111 5 is_stmt 1 view .LVU49
 111:Drivers/STM32F4xx_HAL_Driver/Src/stm32f4xx_hal_dma_ex.c ****     status = HAL_ERROR;
 162              		.loc 1 111 21 is_stmt 0 view .LVU50
 163 0058 4FF48073 		mov	r3, #256
 164              	.LVL12:
 111:Drivers/STM32F4xx_HAL_Driver/Src/stm32f4xx_hal_dma_ex.c ****     status = HAL_ERROR;
 165              		.loc 1 111 21 view .LVU51
 166 005c 4365     		str	r3, [r0, #84]
 112:Drivers/STM32F4xx_HAL_Driver/Src/stm32f4xx_hal_dma_ex.c ****   }
 167              		.loc 1 112 5 is_stmt 1 view .LVU52
 168              	.LVL13:
 143:Drivers/STM32F4xx_HAL_Driver/Src/stm32f4xx_hal_dma_ex.c **** 
 169              		.loc 1 143 1 is_stmt 0 view .LVU53
 170 005e 30BC     		pop	{r4, r5}
 171              	.LCFI5:
 172              		.cfi_restore 5
 173              		.cfi_restore 4
 174              		.cfi_def_cfa_offset 0
 175              	.LVL14:
 112:Drivers/STM32F4xx_HAL_Driver/Src/stm32f4xx_hal_dma_ex.c ****   }
 176              		.loc 1 112 12 view .LVU54
 177 0060 0120     		movs	r0, #1
 178              	.LVL15:
 143:Drivers/STM32F4xx_HAL_Driver/Src/stm32f4xx_hal_dma_ex.c **** 
 179              		.loc 1 143 1 view .LVU55
 180 0062 7047     		bx	lr
 181              		.cfi_endproc
 182              	.LFE130:
 184              		.section	.text.HAL_DMAEx_MultiBufferStart_IT,"ax",%progbits
 185              		.align	1
 186              		.p2align 2,,3
ARM GAS  /tmp/cchFK2Kj.s 			page 10


 187              		.global	HAL_DMAEx_MultiBufferStart_IT
 188              		.syntax unified
 189              		.thumb
 190              		.thumb_func
 192              	HAL_DMAEx_MultiBufferStart_IT:
 193              	.LVL16:
 194              	.LFB131:
 156:Drivers/STM32F4xx_HAL_Driver/Src/stm32f4xx_hal_dma_ex.c ****   HAL_StatusTypeDef status = HAL_OK;
 195              		.loc 1 156 1 is_stmt 1 view -0
 196              		.cfi_startproc
 197              		@ args = 4, pretend = 0, frame = 0
 198              		@ frame_needed = 0, uses_anonymous_args = 0
 199              		@ link register save eliminated.
 157:Drivers/STM32F4xx_HAL_Driver/Src/stm32f4xx_hal_dma_ex.c ****   
 200              		.loc 1 157 3 view .LVU57
 160:Drivers/STM32F4xx_HAL_Driver/Src/stm32f4xx_hal_dma_ex.c ****   
 201              		.loc 1 160 3 view .LVU58
 163:Drivers/STM32F4xx_HAL_Driver/Src/stm32f4xx_hal_dma_ex.c ****   {
 202              		.loc 1 163 3 view .LVU59
 156:Drivers/STM32F4xx_HAL_Driver/Src/stm32f4xx_hal_dma_ex.c ****   HAL_StatusTypeDef status = HAL_OK;
 203              		.loc 1 156 1 is_stmt 0 view .LVU60
 204 0000 70B4     		push	{r4, r5, r6}
 205              	.LCFI6:
 206              		.cfi_def_cfa_offset 12
 207              		.cfi_offset 4, -12
 208              		.cfi_offset 5, -8
 209              		.cfi_offset 6, -4
 163:Drivers/STM32F4xx_HAL_Driver/Src/stm32f4xx_hal_dma_ex.c ****   {
 210              		.loc 1 163 17 view .LVU61
 211 0002 8568     		ldr	r5, [r0, #8]
 163:Drivers/STM32F4xx_HAL_Driver/Src/stm32f4xx_hal_dma_ex.c ****   {
 212              		.loc 1 163 6 view .LVU62
 213 0004 802D     		cmp	r5, #128
 214 0006 1DD0     		beq	.L98
 170:Drivers/STM32F4xx_HAL_Driver/Src/stm32f4xx_hal_dma_ex.c ****   {
 215              		.loc 1 170 3 is_stmt 1 view .LVU63
 170:Drivers/STM32F4xx_HAL_Driver/Src/stm32f4xx_hal_dma_ex.c ****   {
 216              		.loc 1 170 6 is_stmt 0 view .LVU64
 217 0008 C46B     		ldr	r4, [r0, #60]
 218 000a B4B1     		cbz	r4, .L15
 170:Drivers/STM32F4xx_HAL_Driver/Src/stm32f4xx_hal_dma_ex.c ****   {
 219              		.loc 1 170 40 discriminator 1 view .LVU65
 220 000c 446C     		ldr	r4, [r0, #68]
 221 000e A4B1     		cbz	r4, .L15
 170:Drivers/STM32F4xx_HAL_Driver/Src/stm32f4xx_hal_dma_ex.c ****   {
 222              		.loc 1 170 78 discriminator 2 view .LVU66
 223 0010 C46C     		ldr	r4, [r0, #76]
 224 0012 94B1     		cbz	r4, .L15
 177:Drivers/STM32F4xx_HAL_Driver/Src/stm32f4xx_hal_dma_ex.c ****   
 225              		.loc 1 177 3 is_stmt 1 view .LVU67
 177:Drivers/STM32F4xx_HAL_Driver/Src/stm32f4xx_hal_dma_ex.c ****   
 226              		.loc 1 177 3 view .LVU68
 227 0014 90F83440 		ldrb	r4, [r0, #52]	@ zero_extendqisi2
 228 0018 012C     		cmp	r4, #1
 229 001a 00F0F180 		beq	.L82
 177:Drivers/STM32F4xx_HAL_Driver/Src/stm32f4xx_hal_dma_ex.c ****   
 230              		.loc 1 177 3 discriminator 2 view .LVU69
ARM GAS  /tmp/cchFK2Kj.s 			page 11


 179:Drivers/STM32F4xx_HAL_Driver/Src/stm32f4xx_hal_dma_ex.c ****   {
 231              		.loc 1 179 33 is_stmt 0 discriminator 2 view .LVU70
 232 001e 90F83540 		ldrb	r4, [r0, #53]	@ zero_extendqisi2
 177:Drivers/STM32F4xx_HAL_Driver/Src/stm32f4xx_hal_dma_ex.c ****   
 233              		.loc 1 177 3 discriminator 2 view .LVU71
 234 0022 4FF0010C 		mov	ip, #1
 179:Drivers/STM32F4xx_HAL_Driver/Src/stm32f4xx_hal_dma_ex.c ****   {
 235              		.loc 1 179 5 discriminator 2 view .LVU72
 236 0026 6445     		cmp	r4, ip
 177:Drivers/STM32F4xx_HAL_Driver/Src/stm32f4xx_hal_dma_ex.c ****   
 237              		.loc 1 177 3 discriminator 2 view .LVU73
 238 0028 80F834C0 		strb	ip, [r0, #52]
 177:Drivers/STM32F4xx_HAL_Driver/Src/stm32f4xx_hal_dma_ex.c ****   
 239              		.loc 1 177 3 is_stmt 1 discriminator 2 view .LVU74
 179:Drivers/STM32F4xx_HAL_Driver/Src/stm32f4xx_hal_dma_ex.c ****   {
 240              		.loc 1 179 3 discriminator 2 view .LVU75
 179:Drivers/STM32F4xx_HAL_Driver/Src/stm32f4xx_hal_dma_ex.c ****   {
 241              		.loc 1 179 5 is_stmt 0 discriminator 2 view .LVU76
 242 002c 10D0     		beq	.L99
 218:Drivers/STM32F4xx_HAL_Driver/Src/stm32f4xx_hal_dma_ex.c ****     
 243              		.loc 1 218 5 is_stmt 1 view .LVU77
 218:Drivers/STM32F4xx_HAL_Driver/Src/stm32f4xx_hal_dma_ex.c ****     
 244              		.loc 1 218 5 view .LVU78
 245 002e 0023     		movs	r3, #0
 246              	.LVL17:
 218:Drivers/STM32F4xx_HAL_Driver/Src/stm32f4xx_hal_dma_ex.c ****     
 247              		.loc 1 218 5 is_stmt 0 view .LVU79
 248 0030 80F83430 		strb	r3, [r0, #52]
 218:Drivers/STM32F4xx_HAL_Driver/Src/stm32f4xx_hal_dma_ex.c ****     
 249              		.loc 1 218 5 is_stmt 1 view .LVU80
 221:Drivers/STM32F4xx_HAL_Driver/Src/stm32f4xx_hal_dma_ex.c ****   }  
 250              		.loc 1 221 5 view .LVU81
 251              	.LVL18:
 224:Drivers/STM32F4xx_HAL_Driver/Src/stm32f4xx_hal_dma_ex.c **** 
 252              		.loc 1 224 1 is_stmt 0 view .LVU82
 253 0034 70BC     		pop	{r4, r5, r6}
 254              	.LCFI7:
 255              		.cfi_remember_state
 256              		.cfi_restore 6
 257              		.cfi_restore 5
 258              		.cfi_restore 4
 259              		.cfi_def_cfa_offset 0
 260              	.LVL19:
 221:Drivers/STM32F4xx_HAL_Driver/Src/stm32f4xx_hal_dma_ex.c ****   }  
 261              		.loc 1 221 12 view .LVU83
 262 0036 0220     		movs	r0, #2
 263              	.LVL20:
 224:Drivers/STM32F4xx_HAL_Driver/Src/stm32f4xx_hal_dma_ex.c **** 
 264              		.loc 1 224 1 view .LVU84
 265 0038 7047     		bx	lr
 266              	.LVL21:
 267              	.L15:
 268              	.LCFI8:
 269              		.cfi_restore_state
 172:Drivers/STM32F4xx_HAL_Driver/Src/stm32f4xx_hal_dma_ex.c ****     return HAL_ERROR;
 270              		.loc 1 172 5 is_stmt 1 view .LVU85
 172:Drivers/STM32F4xx_HAL_Driver/Src/stm32f4xx_hal_dma_ex.c ****     return HAL_ERROR;
ARM GAS  /tmp/cchFK2Kj.s 			page 12


 271              		.loc 1 172 21 is_stmt 0 view .LVU86
 272 003a 4023     		movs	r3, #64
 273              	.LVL22:
 172:Drivers/STM32F4xx_HAL_Driver/Src/stm32f4xx_hal_dma_ex.c ****     return HAL_ERROR;
 274              		.loc 1 172 21 view .LVU87
 275 003c 4365     		str	r3, [r0, #84]
 276              	.LVL23:
 173:Drivers/STM32F4xx_HAL_Driver/Src/stm32f4xx_hal_dma_ex.c ****   }
 277              		.loc 1 173 5 is_stmt 1 view .LVU88
 173:Drivers/STM32F4xx_HAL_Driver/Src/stm32f4xx_hal_dma_ex.c ****   }
 278              		.loc 1 173 12 is_stmt 0 view .LVU89
 279 003e 0120     		movs	r0, #1
 280              	.LVL24:
 281              	.L92:
 224:Drivers/STM32F4xx_HAL_Driver/Src/stm32f4xx_hal_dma_ex.c **** 
 282              		.loc 1 224 1 view .LVU90
 283 0040 70BC     		pop	{r4, r5, r6}
 284              	.LCFI9:
 285              		.cfi_remember_state
 286              		.cfi_restore 6
 287              		.cfi_restore 5
 288              		.cfi_restore 4
 289              		.cfi_def_cfa_offset 0
 290 0042 7047     		bx	lr
 291              	.LVL25:
 292              	.L98:
 293              	.LCFI10:
 294              		.cfi_restore_state
 165:Drivers/STM32F4xx_HAL_Driver/Src/stm32f4xx_hal_dma_ex.c ****     return HAL_ERROR;
 295              		.loc 1 165 5 is_stmt 1 view .LVU91
 165:Drivers/STM32F4xx_HAL_Driver/Src/stm32f4xx_hal_dma_ex.c ****     return HAL_ERROR;
 296              		.loc 1 165 21 is_stmt 0 view .LVU92
 297 0044 4FF48073 		mov	r3, #256
 298              	.LVL26:
 165:Drivers/STM32F4xx_HAL_Driver/Src/stm32f4xx_hal_dma_ex.c ****     return HAL_ERROR;
 299              		.loc 1 165 21 view .LVU93
 300 0048 4365     		str	r3, [r0, #84]
 301              	.LVL27:
 166:Drivers/STM32F4xx_HAL_Driver/Src/stm32f4xx_hal_dma_ex.c ****   }
 302              		.loc 1 166 5 is_stmt 1 view .LVU94
 224:Drivers/STM32F4xx_HAL_Driver/Src/stm32f4xx_hal_dma_ex.c **** 
 303              		.loc 1 224 1 is_stmt 0 view .LVU95
 304 004a 70BC     		pop	{r4, r5, r6}
 305              	.LCFI11:
 306              		.cfi_remember_state
 307              		.cfi_restore 6
 308              		.cfi_restore 5
 309              		.cfi_restore 4
 310              		.cfi_def_cfa_offset 0
 166:Drivers/STM32F4xx_HAL_Driver/Src/stm32f4xx_hal_dma_ex.c ****   }
 311              		.loc 1 166 12 view .LVU96
 312 004c 0120     		movs	r0, #1
 313              	.LVL28:
 224:Drivers/STM32F4xx_HAL_Driver/Src/stm32f4xx_hal_dma_ex.c **** 
 314              		.loc 1 224 1 view .LVU97
 315 004e 7047     		bx	lr
 316              	.LVL29:
ARM GAS  /tmp/cchFK2Kj.s 			page 13


 317              	.L99:
 318              	.LCFI12:
 319              		.cfi_restore_state
 182:Drivers/STM32F4xx_HAL_Driver/Src/stm32f4xx_hal_dma_ex.c ****     
 320              		.loc 1 182 5 is_stmt 1 view .LVU98
 182:Drivers/STM32F4xx_HAL_Driver/Src/stm32f4xx_hal_dma_ex.c ****     
 321              		.loc 1 182 17 is_stmt 0 view .LVU99
 322 0050 0226     		movs	r6, #2
 323 0052 80F83560 		strb	r6, [r0, #53]
 185:Drivers/STM32F4xx_HAL_Driver/Src/stm32f4xx_hal_dma_ex.c ****     
 324              		.loc 1 185 5 is_stmt 1 view .LVU100
 188:Drivers/STM32F4xx_HAL_Driver/Src/stm32f4xx_hal_dma_ex.c ****     
 325              		.loc 1 188 9 is_stmt 0 view .LVU101
 326 0056 0468     		ldr	r4, [r0]
 185:Drivers/STM32F4xx_HAL_Driver/Src/stm32f4xx_hal_dma_ex.c ****     
 327              		.loc 1 185 21 view .LVU102
 328 0058 0026     		movs	r6, #0
 329 005a 4665     		str	r6, [r0, #84]
 188:Drivers/STM32F4xx_HAL_Driver/Src/stm32f4xx_hal_dma_ex.c ****     
 330              		.loc 1 188 5 is_stmt 1 view .LVU103
 188:Drivers/STM32F4xx_HAL_Driver/Src/stm32f4xx_hal_dma_ex.c ****     
 331              		.loc 1 188 24 is_stmt 0 view .LVU104
 332 005c 2668     		ldr	r6, [r4]
 333 005e 46F48026 		orr	r6, r6, #262144
 334 0062 2660     		str	r6, [r4]
 191:Drivers/STM32F4xx_HAL_Driver/Src/stm32f4xx_hal_dma_ex.c ****     
 335              		.loc 1 191 5 is_stmt 1 view .LVU105
 191:Drivers/STM32F4xx_HAL_Driver/Src/stm32f4xx_hal_dma_ex.c ****     
 336              		.loc 1 191 26 is_stmt 0 view .LVU106
 337 0064 2361     		str	r3, [r4, #16]
 194:Drivers/STM32F4xx_HAL_Driver/Src/stm32f4xx_hal_dma_ex.c ****     
 338              		.loc 1 194 5 is_stmt 1 view .LVU107
 339              	.LVL30:
 340              	.LBB10:
 341              	.LBI10:
 277:Drivers/STM32F4xx_HAL_Driver/Src/stm32f4xx_hal_dma_ex.c **** {  
 342              		.loc 1 277 13 view .LVU108
 343              	.LBB11:
 280:Drivers/STM32F4xx_HAL_Driver/Src/stm32f4xx_hal_dma_ex.c ****   
 344              		.loc 1 280 3 view .LVU109
 280:Drivers/STM32F4xx_HAL_Driver/Src/stm32f4xx_hal_dma_ex.c ****   
 345              		.loc 1 280 24 is_stmt 0 view .LVU110
 346 0066 039B     		ldr	r3, [sp, #12]
 347              	.LVL31:
 280:Drivers/STM32F4xx_HAL_Driver/Src/stm32f4xx_hal_dma_ex.c ****   
 348              		.loc 1 280 24 view .LVU111
 349 0068 6360     		str	r3, [r4, #4]
 350              	.LVL32:
 283:Drivers/STM32F4xx_HAL_Driver/Src/stm32f4xx_hal_dma_ex.c ****   {   
 351              		.loc 1 283 3 is_stmt 1 view .LVU112
 352              	.LBE11:
 353              	.LBE10:
 197:Drivers/STM32F4xx_HAL_Driver/Src/stm32f4xx_hal_dma_ex.c ****     __HAL_DMA_CLEAR_FLAG (hdma, __HAL_DMA_GET_HT_FLAG_INDEX(hdma));
 354              		.loc 1 197 5 is_stmt 0 view .LVU113
 355 006a B34B     		ldr	r3, .L102
 356              	.LBB13:
 357              	.LBB12:
ARM GAS  /tmp/cchFK2Kj.s 			page 14


 283:Drivers/STM32F4xx_HAL_Driver/Src/stm32f4xx_hal_dma_ex.c ****   {   
 358              		.loc 1 283 5 view .LVU114
 359 006c 402D     		cmp	r5, #64
 286:Drivers/STM32F4xx_HAL_Driver/Src/stm32f4xx_hal_dma_ex.c ****     
 360              		.loc 1 286 5 is_stmt 1 view .LVU115
 286:Drivers/STM32F4xx_HAL_Driver/Src/stm32f4xx_hal_dma_ex.c ****     
 361              		.loc 1 286 25 is_stmt 0 view .LVU116
 362 006e 0BBF     		itete	eq
 363 0070 A260     		streq	r2, [r4, #8]
 289:Drivers/STM32F4xx_HAL_Driver/Src/stm32f4xx_hal_dma_ex.c ****   }
 364              		.loc 1 289 5 is_stmt 1 view .LVU117
 295:Drivers/STM32F4xx_HAL_Driver/Src/stm32f4xx_hal_dma_ex.c ****     
 365              		.loc 1 295 25 is_stmt 0 view .LVU118
 366 0072 A160     		strne	r1, [r4, #8]
 289:Drivers/STM32F4xx_HAL_Driver/Src/stm32f4xx_hal_dma_ex.c ****   }
 367              		.loc 1 289 26 view .LVU119
 368 0074 E160     		streq	r1, [r4, #12]
 295:Drivers/STM32F4xx_HAL_Driver/Src/stm32f4xx_hal_dma_ex.c ****     
 369              		.loc 1 295 5 is_stmt 1 view .LVU120
 370              		.loc 1 298 5 view .LVU121
 371              		.loc 1 298 26 is_stmt 0 view .LVU122
 372 0076 E260     		strne	r2, [r4, #12]
 373              	.LVL33:
 374              		.loc 1 298 26 view .LVU123
 375              	.LBE12:
 376              	.LBE13:
 197:Drivers/STM32F4xx_HAL_Driver/Src/stm32f4xx_hal_dma_ex.c ****     __HAL_DMA_CLEAR_FLAG (hdma, __HAL_DMA_GET_HT_FLAG_INDEX(hdma));
 377              		.loc 1 197 5 is_stmt 1 view .LVU124
 378 0078 9C42     		cmp	r4, r3
 379 007a 69D9     		bls	.L20
 197:Drivers/STM32F4xx_HAL_Driver/Src/stm32f4xx_hal_dma_ex.c ****     __HAL_DMA_CLEAR_FLAG (hdma, __HAL_DMA_GET_HT_FLAG_INDEX(hdma));
 380              		.loc 1 197 5 is_stmt 0 discriminator 1 view .LVU125
 381 007c A3F58963 		sub	r3, r3, #1096
 382 0080 9C42     		cmp	r4, r3
 383 0082 43D0     		beq	.L22
 197:Drivers/STM32F4xx_HAL_Driver/Src/stm32f4xx_hal_dma_ex.c ****     __HAL_DMA_CLEAR_FLAG (hdma, __HAL_DMA_GET_HT_FLAG_INDEX(hdma));
 384              		.loc 1 197 5 discriminator 3 view .LVU126
 385 0084 03F58063 		add	r3, r3, #1024
 386 0088 9C42     		cmp	r4, r3
 387 008a 3FD0     		beq	.L22
 197:Drivers/STM32F4xx_HAL_Driver/Src/stm32f4xx_hal_dma_ex.c ****     __HAL_DMA_CLEAR_FLAG (hdma, __HAL_DMA_GET_HT_FLAG_INDEX(hdma));
 388              		.loc 1 197 5 discriminator 5 view .LVU127
 389 008c A3F56873 		sub	r3, r3, #928
 390 0090 9C42     		cmp	r4, r3
 391 0092 3BD0     		beq	.L22
 197:Drivers/STM32F4xx_HAL_Driver/Src/stm32f4xx_hal_dma_ex.c ****     __HAL_DMA_CLEAR_FLAG (hdma, __HAL_DMA_GET_HT_FLAG_INDEX(hdma));
 392              		.loc 1 197 5 discriminator 7 view .LVU128
 393 0094 03F58063 		add	r3, r3, #1024
 394 0098 9C42     		cmp	r4, r3
 395 009a 37D0     		beq	.L22
 197:Drivers/STM32F4xx_HAL_Driver/Src/stm32f4xx_hal_dma_ex.c ****     __HAL_DMA_CLEAR_FLAG (hdma, __HAL_DMA_GET_HT_FLAG_INDEX(hdma));
 396              		.loc 1 197 5 discriminator 9 view .LVU129
 397 009c A3F58963 		sub	r3, r3, #1096
 398 00a0 9C42     		cmp	r4, r3
 399 00a2 00F06B81 		beq	.L27
 197:Drivers/STM32F4xx_HAL_Driver/Src/stm32f4xx_hal_dma_ex.c ****     __HAL_DMA_CLEAR_FLAG (hdma, __HAL_DMA_GET_HT_FLAG_INDEX(hdma));
 400              		.loc 1 197 5 discriminator 11 view .LVU130
ARM GAS  /tmp/cchFK2Kj.s 			page 15


 401 00a6 03F58063 		add	r3, r3, #1024
 402 00aa 9C42     		cmp	r4, r3
 403 00ac 00F06681 		beq	.L27
 197:Drivers/STM32F4xx_HAL_Driver/Src/stm32f4xx_hal_dma_ex.c ****     __HAL_DMA_CLEAR_FLAG (hdma, __HAL_DMA_GET_HT_FLAG_INDEX(hdma));
 404              		.loc 1 197 5 discriminator 13 view .LVU131
 405 00b0 A3F56873 		sub	r3, r3, #928
 406 00b4 9C42     		cmp	r4, r3
 407 00b6 00F06181 		beq	.L27
 197:Drivers/STM32F4xx_HAL_Driver/Src/stm32f4xx_hal_dma_ex.c ****     __HAL_DMA_CLEAR_FLAG (hdma, __HAL_DMA_GET_HT_FLAG_INDEX(hdma));
 408              		.loc 1 197 5 discriminator 15 view .LVU132
 409 00ba 03F58063 		add	r3, r3, #1024
 410 00be 9C42     		cmp	r4, r3
 411 00c0 00F05C81 		beq	.L27
 197:Drivers/STM32F4xx_HAL_Driver/Src/stm32f4xx_hal_dma_ex.c ****     __HAL_DMA_CLEAR_FLAG (hdma, __HAL_DMA_GET_HT_FLAG_INDEX(hdma));
 412              		.loc 1 197 5 discriminator 17 view .LVU133
 413 00c4 A3F58963 		sub	r3, r3, #1096
 414 00c8 9C42     		cmp	r4, r3
 415 00ca 00F09381 		beq	.L30
 197:Drivers/STM32F4xx_HAL_Driver/Src/stm32f4xx_hal_dma_ex.c ****     __HAL_DMA_CLEAR_FLAG (hdma, __HAL_DMA_GET_HT_FLAG_INDEX(hdma));
 416              		.loc 1 197 5 discriminator 19 view .LVU134
 417 00ce 03F58063 		add	r3, r3, #1024
 418 00d2 9C42     		cmp	r4, r3
 419 00d4 00F08E81 		beq	.L30
 197:Drivers/STM32F4xx_HAL_Driver/Src/stm32f4xx_hal_dma_ex.c ****     __HAL_DMA_CLEAR_FLAG (hdma, __HAL_DMA_GET_HT_FLAG_INDEX(hdma));
 420              		.loc 1 197 5 discriminator 21 view .LVU135
 421 00d8 A3F56873 		sub	r3, r3, #928
 422 00dc 9C42     		cmp	r4, r3
 423 00de 00F08981 		beq	.L30
 197:Drivers/STM32F4xx_HAL_Driver/Src/stm32f4xx_hal_dma_ex.c ****     __HAL_DMA_CLEAR_FLAG (hdma, __HAL_DMA_GET_HT_FLAG_INDEX(hdma));
 424              		.loc 1 197 5 discriminator 23 view .LVU136
 425 00e2 03F58063 		add	r3, r3, #1024
 426 00e6 9C42     		cmp	r4, r3
 427 00e8 00F08481 		beq	.L30
 197:Drivers/STM32F4xx_HAL_Driver/Src/stm32f4xx_hal_dma_ex.c ****     __HAL_DMA_CLEAR_FLAG (hdma, __HAL_DMA_GET_HT_FLAG_INDEX(hdma));
 428              		.loc 1 197 5 view .LVU137
 429 00ec 934B     		ldr	r3, .L102+4
 430 00ee 4FF00061 		mov	r1, #134217728
 431              	.LVL34:
 198:Drivers/STM32F4xx_HAL_Driver/Src/stm32f4xx_hal_dma_ex.c ****     __HAL_DMA_CLEAR_FLAG (hdma, __HAL_DMA_GET_TE_FLAG_INDEX(hdma));
 432              		.loc 1 198 5 view .LVU138
 433 00f2 4FF08062 		mov	r2, #67108864
 434              	.LVL35:
 197:Drivers/STM32F4xx_HAL_Driver/Src/stm32f4xx_hal_dma_ex.c ****     __HAL_DMA_CLEAR_FLAG (hdma, __HAL_DMA_GET_HT_FLAG_INDEX(hdma));
 435              		.loc 1 197 5 view .LVU139
 436 00f6 D960     		str	r1, [r3, #12]
 437              	.LVL36:
 198:Drivers/STM32F4xx_HAL_Driver/Src/stm32f4xx_hal_dma_ex.c ****     __HAL_DMA_CLEAR_FLAG (hdma, __HAL_DMA_GET_TE_FLAG_INDEX(hdma));
 438              		.loc 1 198 5 is_stmt 1 view .LVU140
 439 00f8 DA60     		str	r2, [r3, #12]
 199:Drivers/STM32F4xx_HAL_Driver/Src/stm32f4xx_hal_dma_ex.c ****     __HAL_DMA_CLEAR_FLAG (hdma, __HAL_DMA_GET_DME_FLAG_INDEX(hdma));
 440              		.loc 1 199 5 view .LVU141
 441 00fa 4FF00071 		mov	r1, #33554432
 200:Drivers/STM32F4xx_HAL_Driver/Src/stm32f4xx_hal_dma_ex.c ****     __HAL_DMA_CLEAR_FLAG (hdma, __HAL_DMA_GET_FE_FLAG_INDEX(hdma));
 442              		.loc 1 200 5 is_stmt 0 view .LVU142
 443 00fe 4FF08072 		mov	r2, #16777216
 199:Drivers/STM32F4xx_HAL_Driver/Src/stm32f4xx_hal_dma_ex.c ****     __HAL_DMA_CLEAR_FLAG (hdma, __HAL_DMA_GET_DME_FLAG_INDEX(hdma));
 444              		.loc 1 199 5 view .LVU143
ARM GAS  /tmp/cchFK2Kj.s 			page 16


 445 0102 D960     		str	r1, [r3, #12]
 200:Drivers/STM32F4xx_HAL_Driver/Src/stm32f4xx_hal_dma_ex.c ****     __HAL_DMA_CLEAR_FLAG (hdma, __HAL_DMA_GET_FE_FLAG_INDEX(hdma));
 446              		.loc 1 200 5 is_stmt 1 view .LVU144
 447 0104 DA60     		str	r2, [r3, #12]
 201:Drivers/STM32F4xx_HAL_Driver/Src/stm32f4xx_hal_dma_ex.c **** 
 448              		.loc 1 201 5 view .LVU145
 449 0106 4FF48002 		mov	r2, #4194304
 450 010a 09E0     		b	.L78
 451              	.LVL37:
 452              	.L22:
 197:Drivers/STM32F4xx_HAL_Driver/Src/stm32f4xx_hal_dma_ex.c ****     __HAL_DMA_CLEAR_FLAG (hdma, __HAL_DMA_GET_HT_FLAG_INDEX(hdma));
 453              		.loc 1 197 5 is_stmt 0 view .LVU146
 454 010c 8B4B     		ldr	r3, .L102+4
 455 010e 2021     		movs	r1, #32
 456              	.LVL38:
 198:Drivers/STM32F4xx_HAL_Driver/Src/stm32f4xx_hal_dma_ex.c ****     __HAL_DMA_CLEAR_FLAG (hdma, __HAL_DMA_GET_TE_FLAG_INDEX(hdma));
 457              		.loc 1 198 5 view .LVU147
 458 0110 1022     		movs	r2, #16
 459              	.LVL39:
 197:Drivers/STM32F4xx_HAL_Driver/Src/stm32f4xx_hal_dma_ex.c ****     __HAL_DMA_CLEAR_FLAG (hdma, __HAL_DMA_GET_HT_FLAG_INDEX(hdma));
 460              		.loc 1 197 5 view .LVU148
 461 0112 D960     		str	r1, [r3, #12]
 462              	.LVL40:
 198:Drivers/STM32F4xx_HAL_Driver/Src/stm32f4xx_hal_dma_ex.c ****     __HAL_DMA_CLEAR_FLAG (hdma, __HAL_DMA_GET_TE_FLAG_INDEX(hdma));
 463              		.loc 1 198 5 is_stmt 1 view .LVU149
 464 0114 DA60     		str	r2, [r3, #12]
 199:Drivers/STM32F4xx_HAL_Driver/Src/stm32f4xx_hal_dma_ex.c ****     __HAL_DMA_CLEAR_FLAG (hdma, __HAL_DMA_GET_DME_FLAG_INDEX(hdma));
 465              		.loc 1 199 5 view .LVU150
 466 0116 0821     		movs	r1, #8
 200:Drivers/STM32F4xx_HAL_Driver/Src/stm32f4xx_hal_dma_ex.c ****     __HAL_DMA_CLEAR_FLAG (hdma, __HAL_DMA_GET_FE_FLAG_INDEX(hdma));
 467              		.loc 1 200 5 is_stmt 0 view .LVU151
 468 0118 0422     		movs	r2, #4
 199:Drivers/STM32F4xx_HAL_Driver/Src/stm32f4xx_hal_dma_ex.c ****     __HAL_DMA_CLEAR_FLAG (hdma, __HAL_DMA_GET_DME_FLAG_INDEX(hdma));
 469              		.loc 1 199 5 view .LVU152
 470 011a D960     		str	r1, [r3, #12]
 200:Drivers/STM32F4xx_HAL_Driver/Src/stm32f4xx_hal_dma_ex.c ****     __HAL_DMA_CLEAR_FLAG (hdma, __HAL_DMA_GET_FE_FLAG_INDEX(hdma));
 471              		.loc 1 200 5 is_stmt 1 view .LVU153
 472 011c DA60     		str	r2, [r3, #12]
 201:Drivers/STM32F4xx_HAL_Driver/Src/stm32f4xx_hal_dma_ex.c **** 
 473              		.loc 1 201 5 view .LVU154
 474 011e 0122     		movs	r2, #1
 475              	.L78:
 201:Drivers/STM32F4xx_HAL_Driver/Src/stm32f4xx_hal_dma_ex.c **** 
 476              		.loc 1 201 5 is_stmt 0 discriminator 50 view .LVU155
 477 0120 864B     		ldr	r3, .L102+4
 478 0122 DA60     		str	r2, [r3, #12]
 479              	.L75:
 204:Drivers/STM32F4xx_HAL_Driver/Src/stm32f4xx_hal_dma_ex.c ****     hdma->Instance->FCR |= DMA_IT_FE;
 480              		.loc 1 204 5 is_stmt 1 view .LVU156
 204:Drivers/STM32F4xx_HAL_Driver/Src/stm32f4xx_hal_dma_ex.c ****     hdma->Instance->FCR |= DMA_IT_FE;
 481              		.loc 1 204 25 is_stmt 0 view .LVU157
 482 0124 2368     		ldr	r3, [r4]
 207:Drivers/STM32F4xx_HAL_Driver/Src/stm32f4xx_hal_dma_ex.c ****     {
 483              		.loc 1 207 7 view .LVU158
 484 0126 026C     		ldr	r2, [r0, #64]
 204:Drivers/STM32F4xx_HAL_Driver/Src/stm32f4xx_hal_dma_ex.c ****     hdma->Instance->FCR |= DMA_IT_FE;
 485              		.loc 1 204 25 view .LVU159
ARM GAS  /tmp/cchFK2Kj.s 			page 17


 486 0128 43F01603 		orr	r3, r3, #22
 487 012c 2360     		str	r3, [r4]
 205:Drivers/STM32F4xx_HAL_Driver/Src/stm32f4xx_hal_dma_ex.c ****     
 488              		.loc 1 205 5 is_stmt 1 view .LVU160
 205:Drivers/STM32F4xx_HAL_Driver/Src/stm32f4xx_hal_dma_ex.c ****     
 489              		.loc 1 205 25 is_stmt 0 view .LVU161
 490 012e 6369     		ldr	r3, [r4, #20]
 491 0130 43F08003 		orr	r3, r3, #128
 492 0134 6361     		str	r3, [r4, #20]
 207:Drivers/STM32F4xx_HAL_Driver/Src/stm32f4xx_hal_dma_ex.c ****     {
 493              		.loc 1 207 5 is_stmt 1 view .LVU162
 207:Drivers/STM32F4xx_HAL_Driver/Src/stm32f4xx_hal_dma_ex.c ****     {
 494              		.loc 1 207 7 is_stmt 0 view .LVU163
 495 0136 002A     		cmp	r2, #0
 496 0138 5ED0     		beq	.L100
 497              	.L76:
 209:Drivers/STM32F4xx_HAL_Driver/Src/stm32f4xx_hal_dma_ex.c ****     }
 498              		.loc 1 209 7 is_stmt 1 view .LVU164
 209:Drivers/STM32F4xx_HAL_Driver/Src/stm32f4xx_hal_dma_ex.c ****     }
 499              		.loc 1 209 27 is_stmt 0 view .LVU165
 500 013a 2368     		ldr	r3, [r4]
 501 013c 43F00803 		orr	r3, r3, #8
 502 0140 2360     		str	r3, [r4]
 503              	.L77:
 213:Drivers/STM32F4xx_HAL_Driver/Src/stm32f4xx_hal_dma_ex.c ****   }
 504              		.loc 1 213 5 is_stmt 1 view .LVU166
 505 0142 2368     		ldr	r3, [r4]
 506 0144 43F00103 		orr	r3, r3, #1
 157:Drivers/STM32F4xx_HAL_Driver/Src/stm32f4xx_hal_dma_ex.c ****   
 507              		.loc 1 157 21 is_stmt 0 view .LVU167
 508 0148 0020     		movs	r0, #0
 509              	.LVL41:
 213:Drivers/STM32F4xx_HAL_Driver/Src/stm32f4xx_hal_dma_ex.c ****   }
 510              		.loc 1 213 5 view .LVU168
 511 014a 2360     		str	r3, [r4]
 224:Drivers/STM32F4xx_HAL_Driver/Src/stm32f4xx_hal_dma_ex.c **** 
 512              		.loc 1 224 1 view .LVU169
 513 014c 70BC     		pop	{r4, r5, r6}
 514              	.LCFI13:
 515              		.cfi_remember_state
 516              		.cfi_restore 6
 517              		.cfi_restore 5
 518              		.cfi_restore 4
 519              		.cfi_def_cfa_offset 0
 520 014e 7047     		bx	lr
 521              	.LVL42:
 522              	.L20:
 523              	.LCFI14:
 524              		.cfi_restore_state
 197:Drivers/STM32F4xx_HAL_Driver/Src/stm32f4xx_hal_dma_ex.c ****     __HAL_DMA_CLEAR_FLAG (hdma, __HAL_DMA_GET_HT_FLAG_INDEX(hdma));
 525              		.loc 1 197 5 discriminator 2 view .LVU170
 526 0150 7B4B     		ldr	r3, .L102+8
 527 0152 9C42     		cmp	r4, r3
 528 0154 56D8     		bhi	.L101
 197:Drivers/STM32F4xx_HAL_Driver/Src/stm32f4xx_hal_dma_ex.c ****     __HAL_DMA_CLEAR_FLAG (hdma, __HAL_DMA_GET_HT_FLAG_INDEX(hdma));
 529              		.loc 1 197 5 discriminator 52 view .LVU171
 530 0156 7B4B     		ldr	r3, .L102+12
ARM GAS  /tmp/cchFK2Kj.s 			page 18


 531 0158 9C42     		cmp	r4, r3
 532 015a 40F2A780 		bls	.L48
 197:Drivers/STM32F4xx_HAL_Driver/Src/stm32f4xx_hal_dma_ex.c ****     __HAL_DMA_CLEAR_FLAG (hdma, __HAL_DMA_GET_HT_FLAG_INDEX(hdma));
 533              		.loc 1 197 5 discriminator 102 view .LVU172
 534 015e 483B     		subs	r3, r3, #72
 535 0160 9C42     		cmp	r4, r3
 536 0162 00F0F580 		beq	.L51
 197:Drivers/STM32F4xx_HAL_Driver/Src/stm32f4xx_hal_dma_ex.c ****     __HAL_DMA_CLEAR_FLAG (hdma, __HAL_DMA_GET_HT_FLAG_INDEX(hdma));
 537              		.loc 1 197 5 discriminator 104 view .LVU173
 538 0166 03F58063 		add	r3, r3, #1024
 539 016a 9C42     		cmp	r4, r3
 540 016c 00F0F080 		beq	.L51
 197:Drivers/STM32F4xx_HAL_Driver/Src/stm32f4xx_hal_dma_ex.c ****     __HAL_DMA_CLEAR_FLAG (hdma, __HAL_DMA_GET_HT_FLAG_INDEX(hdma));
 541              		.loc 1 197 5 discriminator 106 view .LVU174
 542 0170 A3F56873 		sub	r3, r3, #928
 543 0174 9C42     		cmp	r4, r3
 544 0176 00F0EB80 		beq	.L51
 197:Drivers/STM32F4xx_HAL_Driver/Src/stm32f4xx_hal_dma_ex.c ****     __HAL_DMA_CLEAR_FLAG (hdma, __HAL_DMA_GET_HT_FLAG_INDEX(hdma));
 545              		.loc 1 197 5 discriminator 108 view .LVU175
 546 017a 03F58063 		add	r3, r3, #1024
 547 017e 9C42     		cmp	r4, r3
 548 0180 00F0E680 		beq	.L51
 197:Drivers/STM32F4xx_HAL_Driver/Src/stm32f4xx_hal_dma_ex.c ****     __HAL_DMA_CLEAR_FLAG (hdma, __HAL_DMA_GET_HT_FLAG_INDEX(hdma));
 549              		.loc 1 197 5 discriminator 110 view .LVU176
 550 0184 A3F58963 		sub	r3, r3, #1096
 551 0188 9C42     		cmp	r4, r3
 552 018a 00F02481 		beq	.L56
 197:Drivers/STM32F4xx_HAL_Driver/Src/stm32f4xx_hal_dma_ex.c ****     __HAL_DMA_CLEAR_FLAG (hdma, __HAL_DMA_GET_HT_FLAG_INDEX(hdma));
 553              		.loc 1 197 5 discriminator 112 view .LVU177
 554 018e 03F58063 		add	r3, r3, #1024
 555 0192 9C42     		cmp	r4, r3
 556 0194 00F01F81 		beq	.L56
 197:Drivers/STM32F4xx_HAL_Driver/Src/stm32f4xx_hal_dma_ex.c ****     __HAL_DMA_CLEAR_FLAG (hdma, __HAL_DMA_GET_HT_FLAG_INDEX(hdma));
 557              		.loc 1 197 5 discriminator 114 view .LVU178
 558 0198 A3F56873 		sub	r3, r3, #928
 559 019c 9C42     		cmp	r4, r3
 560 019e 00F01A81 		beq	.L56
 197:Drivers/STM32F4xx_HAL_Driver/Src/stm32f4xx_hal_dma_ex.c ****     __HAL_DMA_CLEAR_FLAG (hdma, __HAL_DMA_GET_HT_FLAG_INDEX(hdma));
 561              		.loc 1 197 5 discriminator 116 view .LVU179
 562 01a2 03F58063 		add	r3, r3, #1024
 563 01a6 9C42     		cmp	r4, r3
 564 01a8 00F01581 		beq	.L56
 197:Drivers/STM32F4xx_HAL_Driver/Src/stm32f4xx_hal_dma_ex.c ****     __HAL_DMA_CLEAR_FLAG (hdma, __HAL_DMA_GET_HT_FLAG_INDEX(hdma));
 565              		.loc 1 197 5 discriminator 118 view .LVU180
 566 01ac A3F58963 		sub	r3, r3, #1096
 567 01b0 9C42     		cmp	r4, r3
 568 01b2 00F04F81 		beq	.L58
 197:Drivers/STM32F4xx_HAL_Driver/Src/stm32f4xx_hal_dma_ex.c ****     __HAL_DMA_CLEAR_FLAG (hdma, __HAL_DMA_GET_HT_FLAG_INDEX(hdma));
 569              		.loc 1 197 5 discriminator 120 view .LVU181
 570 01b6 03F58063 		add	r3, r3, #1024
 571 01ba 9C42     		cmp	r4, r3
 572 01bc 00F04A81 		beq	.L58
 197:Drivers/STM32F4xx_HAL_Driver/Src/stm32f4xx_hal_dma_ex.c ****     __HAL_DMA_CLEAR_FLAG (hdma, __HAL_DMA_GET_HT_FLAG_INDEX(hdma));
 573              		.loc 1 197 5 discriminator 122 view .LVU182
 574 01c0 A3F56873 		sub	r3, r3, #928
 575 01c4 9C42     		cmp	r4, r3
 576 01c6 00F04581 		beq	.L58
ARM GAS  /tmp/cchFK2Kj.s 			page 19


 197:Drivers/STM32F4xx_HAL_Driver/Src/stm32f4xx_hal_dma_ex.c ****     __HAL_DMA_CLEAR_FLAG (hdma, __HAL_DMA_GET_HT_FLAG_INDEX(hdma));
 577              		.loc 1 197 5 discriminator 124 view .LVU183
 578 01ca 03F58063 		add	r3, r3, #1024
 579 01ce 9C42     		cmp	r4, r3
 580 01d0 00F04081 		beq	.L58
 197:Drivers/STM32F4xx_HAL_Driver/Src/stm32f4xx_hal_dma_ex.c ****     __HAL_DMA_CLEAR_FLAG (hdma, __HAL_DMA_GET_HT_FLAG_INDEX(hdma));
 581              		.loc 1 197 5 view .LVU184
 582 01d4 5C4B     		ldr	r3, .L102+16
 583 01d6 4FF00061 		mov	r1, #134217728
 584              	.LVL43:
 198:Drivers/STM32F4xx_HAL_Driver/Src/stm32f4xx_hal_dma_ex.c ****     __HAL_DMA_CLEAR_FLAG (hdma, __HAL_DMA_GET_TE_FLAG_INDEX(hdma));
 585              		.loc 1 198 5 view .LVU185
 586 01da 4FF08062 		mov	r2, #67108864
 587              	.LVL44:
 197:Drivers/STM32F4xx_HAL_Driver/Src/stm32f4xx_hal_dma_ex.c ****     __HAL_DMA_CLEAR_FLAG (hdma, __HAL_DMA_GET_HT_FLAG_INDEX(hdma));
 588              		.loc 1 197 5 view .LVU186
 589 01de D960     		str	r1, [r3, #12]
 590              	.LVL45:
 198:Drivers/STM32F4xx_HAL_Driver/Src/stm32f4xx_hal_dma_ex.c ****     __HAL_DMA_CLEAR_FLAG (hdma, __HAL_DMA_GET_TE_FLAG_INDEX(hdma));
 591              		.loc 1 198 5 is_stmt 1 view .LVU187
 592 01e0 DA60     		str	r2, [r3, #12]
 199:Drivers/STM32F4xx_HAL_Driver/Src/stm32f4xx_hal_dma_ex.c ****     __HAL_DMA_CLEAR_FLAG (hdma, __HAL_DMA_GET_DME_FLAG_INDEX(hdma));
 593              		.loc 1 199 5 view .LVU188
 594 01e2 4FF00071 		mov	r1, #33554432
 200:Drivers/STM32F4xx_HAL_Driver/Src/stm32f4xx_hal_dma_ex.c ****     __HAL_DMA_CLEAR_FLAG (hdma, __HAL_DMA_GET_FE_FLAG_INDEX(hdma));
 595              		.loc 1 200 5 is_stmt 0 view .LVU189
 596 01e6 4FF08072 		mov	r2, #16777216
 199:Drivers/STM32F4xx_HAL_Driver/Src/stm32f4xx_hal_dma_ex.c ****     __HAL_DMA_CLEAR_FLAG (hdma, __HAL_DMA_GET_DME_FLAG_INDEX(hdma));
 597              		.loc 1 199 5 view .LVU190
 598 01ea D960     		str	r1, [r3, #12]
 200:Drivers/STM32F4xx_HAL_Driver/Src/stm32f4xx_hal_dma_ex.c ****     __HAL_DMA_CLEAR_FLAG (hdma, __HAL_DMA_GET_FE_FLAG_INDEX(hdma));
 599              		.loc 1 200 5 is_stmt 1 view .LVU191
 600 01ec DA60     		str	r2, [r3, #12]
 201:Drivers/STM32F4xx_HAL_Driver/Src/stm32f4xx_hal_dma_ex.c **** 
 601              		.loc 1 201 5 view .LVU192
 602 01ee 4FF48003 		mov	r3, #4194304
 603              	.L80:
 201:Drivers/STM32F4xx_HAL_Driver/Src/stm32f4xx_hal_dma_ex.c **** 
 604              		.loc 1 201 5 is_stmt 0 discriminator 151 view .LVU193
 605 01f2 554A     		ldr	r2, .L102+16
 606 01f4 D360     		str	r3, [r2, #12]
 607 01f6 95E7     		b	.L75
 608              	.L100:
 207:Drivers/STM32F4xx_HAL_Driver/Src/stm32f4xx_hal_dma_ex.c ****     {
 609              		.loc 1 207 45 discriminator 1 view .LVU194
 610 01f8 836C     		ldr	r3, [r0, #72]
 611 01fa 002B     		cmp	r3, #0
 612 01fc 9DD1     		bne	.L76
 613 01fe A0E7     		b	.L77
 614              	.LVL46:
 615              	.L82:
 177:Drivers/STM32F4xx_HAL_Driver/Src/stm32f4xx_hal_dma_ex.c ****   
 616              		.loc 1 177 3 view .LVU195
 617 0200 0220     		movs	r0, #2
 618              	.LVL47:
 177:Drivers/STM32F4xx_HAL_Driver/Src/stm32f4xx_hal_dma_ex.c ****   
 619              		.loc 1 177 3 view .LVU196
ARM GAS  /tmp/cchFK2Kj.s 			page 20


 620 0202 1DE7     		b	.L92
 621              	.LVL48:
 622              	.L101:
 197:Drivers/STM32F4xx_HAL_Driver/Src/stm32f4xx_hal_dma_ex.c ****     __HAL_DMA_CLEAR_FLAG (hdma, __HAL_DMA_GET_HT_FLAG_INDEX(hdma));
 623              		.loc 1 197 5 discriminator 51 view .LVU197
 624 0204 A83B     		subs	r3, r3, #168
 625 0206 9C42     		cmp	r4, r3
 626 0208 45D0     		beq	.L37
 197:Drivers/STM32F4xx_HAL_Driver/Src/stm32f4xx_hal_dma_ex.c ****     __HAL_DMA_CLEAR_FLAG (hdma, __HAL_DMA_GET_HT_FLAG_INDEX(hdma));
 627              		.loc 1 197 5 discriminator 53 view .LVU198
 628 020a 03F58063 		add	r3, r3, #1024
 629 020e 9C42     		cmp	r4, r3
 630 0210 41D0     		beq	.L37
 197:Drivers/STM32F4xx_HAL_Driver/Src/stm32f4xx_hal_dma_ex.c ****     __HAL_DMA_CLEAR_FLAG (hdma, __HAL_DMA_GET_HT_FLAG_INDEX(hdma));
 631              		.loc 1 197 5 discriminator 55 view .LVU199
 632 0212 A3F56873 		sub	r3, r3, #928
 633 0216 9C42     		cmp	r4, r3
 634 0218 3DD0     		beq	.L37
 197:Drivers/STM32F4xx_HAL_Driver/Src/stm32f4xx_hal_dma_ex.c ****     __HAL_DMA_CLEAR_FLAG (hdma, __HAL_DMA_GET_HT_FLAG_INDEX(hdma));
 635              		.loc 1 197 5 discriminator 57 view .LVU200
 636 021a 03F58063 		add	r3, r3, #1024
 637 021e 9C42     		cmp	r4, r3
 638 0220 39D0     		beq	.L37
 197:Drivers/STM32F4xx_HAL_Driver/Src/stm32f4xx_hal_dma_ex.c ****     __HAL_DMA_CLEAR_FLAG (hdma, __HAL_DMA_GET_HT_FLAG_INDEX(hdma));
 639              		.loc 1 197 5 discriminator 59 view .LVU201
 640 0222 A3F58963 		sub	r3, r3, #1096
 641 0226 9C42     		cmp	r4, r3
 642 0228 00F0B780 		beq	.L41
 197:Drivers/STM32F4xx_HAL_Driver/Src/stm32f4xx_hal_dma_ex.c ****     __HAL_DMA_CLEAR_FLAG (hdma, __HAL_DMA_GET_HT_FLAG_INDEX(hdma));
 643              		.loc 1 197 5 discriminator 61 view .LVU202
 644 022c 03F58063 		add	r3, r3, #1024
 645 0230 9C42     		cmp	r4, r3
 646 0232 00F0B280 		beq	.L41
 197:Drivers/STM32F4xx_HAL_Driver/Src/stm32f4xx_hal_dma_ex.c ****     __HAL_DMA_CLEAR_FLAG (hdma, __HAL_DMA_GET_HT_FLAG_INDEX(hdma));
 647              		.loc 1 197 5 discriminator 63 view .LVU203
 648 0236 A3F56873 		sub	r3, r3, #928
 649 023a 9C42     		cmp	r4, r3
 650 023c 00F0AD80 		beq	.L41
 197:Drivers/STM32F4xx_HAL_Driver/Src/stm32f4xx_hal_dma_ex.c ****     __HAL_DMA_CLEAR_FLAG (hdma, __HAL_DMA_GET_HT_FLAG_INDEX(hdma));
 651              		.loc 1 197 5 discriminator 65 view .LVU204
 652 0240 03F58063 		add	r3, r3, #1024
 653 0244 9C42     		cmp	r4, r3
 654 0246 00F0A880 		beq	.L41
 197:Drivers/STM32F4xx_HAL_Driver/Src/stm32f4xx_hal_dma_ex.c ****     __HAL_DMA_CLEAR_FLAG (hdma, __HAL_DMA_GET_HT_FLAG_INDEX(hdma));
 655              		.loc 1 197 5 discriminator 67 view .LVU205
 656 024a A3F58963 		sub	r3, r3, #1096
 657 024e 9C42     		cmp	r4, r3
 658 0250 00F0E080 		beq	.L45
 197:Drivers/STM32F4xx_HAL_Driver/Src/stm32f4xx_hal_dma_ex.c ****     __HAL_DMA_CLEAR_FLAG (hdma, __HAL_DMA_GET_HT_FLAG_INDEX(hdma));
 659              		.loc 1 197 5 discriminator 69 view .LVU206
 660 0254 03F58063 		add	r3, r3, #1024
 661 0258 9C42     		cmp	r4, r3
 662 025a 00F0DB80 		beq	.L45
 197:Drivers/STM32F4xx_HAL_Driver/Src/stm32f4xx_hal_dma_ex.c ****     __HAL_DMA_CLEAR_FLAG (hdma, __HAL_DMA_GET_HT_FLAG_INDEX(hdma));
 663              		.loc 1 197 5 discriminator 71 view .LVU207
 664 025e A3F56873 		sub	r3, r3, #928
 665 0262 9C42     		cmp	r4, r3
ARM GAS  /tmp/cchFK2Kj.s 			page 21


 666 0264 00F0D680 		beq	.L45
 197:Drivers/STM32F4xx_HAL_Driver/Src/stm32f4xx_hal_dma_ex.c ****     __HAL_DMA_CLEAR_FLAG (hdma, __HAL_DMA_GET_HT_FLAG_INDEX(hdma));
 667              		.loc 1 197 5 discriminator 73 view .LVU208
 668 0268 03F58063 		add	r3, r3, #1024
 669 026c 9C42     		cmp	r4, r3
 670 026e 00F0D180 		beq	.L45
 197:Drivers/STM32F4xx_HAL_Driver/Src/stm32f4xx_hal_dma_ex.c ****     __HAL_DMA_CLEAR_FLAG (hdma, __HAL_DMA_GET_HT_FLAG_INDEX(hdma));
 671              		.loc 1 197 5 view .LVU209
 672 0272 324B     		ldr	r3, .L102+4
 673 0274 4FF00061 		mov	r1, #134217728
 674              	.LVL49:
 198:Drivers/STM32F4xx_HAL_Driver/Src/stm32f4xx_hal_dma_ex.c ****     __HAL_DMA_CLEAR_FLAG (hdma, __HAL_DMA_GET_TE_FLAG_INDEX(hdma));
 675              		.loc 1 198 5 view .LVU210
 676 0278 4FF08062 		mov	r2, #67108864
 677              	.LVL50:
 197:Drivers/STM32F4xx_HAL_Driver/Src/stm32f4xx_hal_dma_ex.c ****     __HAL_DMA_CLEAR_FLAG (hdma, __HAL_DMA_GET_HT_FLAG_INDEX(hdma));
 678              		.loc 1 197 5 view .LVU211
 679 027c 9960     		str	r1, [r3, #8]
 680              	.LVL51:
 198:Drivers/STM32F4xx_HAL_Driver/Src/stm32f4xx_hal_dma_ex.c ****     __HAL_DMA_CLEAR_FLAG (hdma, __HAL_DMA_GET_TE_FLAG_INDEX(hdma));
 681              		.loc 1 198 5 is_stmt 1 view .LVU212
 682 027e 9A60     		str	r2, [r3, #8]
 199:Drivers/STM32F4xx_HAL_Driver/Src/stm32f4xx_hal_dma_ex.c ****     __HAL_DMA_CLEAR_FLAG (hdma, __HAL_DMA_GET_DME_FLAG_INDEX(hdma));
 683              		.loc 1 199 5 view .LVU213
 684 0280 4FF00071 		mov	r1, #33554432
 200:Drivers/STM32F4xx_HAL_Driver/Src/stm32f4xx_hal_dma_ex.c ****     __HAL_DMA_CLEAR_FLAG (hdma, __HAL_DMA_GET_FE_FLAG_INDEX(hdma));
 685              		.loc 1 200 5 is_stmt 0 view .LVU214
 686 0284 4FF08072 		mov	r2, #16777216
 199:Drivers/STM32F4xx_HAL_Driver/Src/stm32f4xx_hal_dma_ex.c ****     __HAL_DMA_CLEAR_FLAG (hdma, __HAL_DMA_GET_DME_FLAG_INDEX(hdma));
 687              		.loc 1 199 5 view .LVU215
 688 0288 9960     		str	r1, [r3, #8]
 200:Drivers/STM32F4xx_HAL_Driver/Src/stm32f4xx_hal_dma_ex.c ****     __HAL_DMA_CLEAR_FLAG (hdma, __HAL_DMA_GET_FE_FLAG_INDEX(hdma));
 689              		.loc 1 200 5 is_stmt 1 view .LVU216
 690 028a 9A60     		str	r2, [r3, #8]
 201:Drivers/STM32F4xx_HAL_Driver/Src/stm32f4xx_hal_dma_ex.c **** 
 691              		.loc 1 201 5 view .LVU217
 692 028c 4FF48002 		mov	r2, #4194304
 693              	.L79:
 201:Drivers/STM32F4xx_HAL_Driver/Src/stm32f4xx_hal_dma_ex.c **** 
 694              		.loc 1 201 5 is_stmt 0 discriminator 100 view .LVU218
 695 0290 2A4B     		ldr	r3, .L102+4
 696 0292 9A60     		str	r2, [r3, #8]
 697 0294 46E7     		b	.L75
 698              	.LVL52:
 699              	.L37:
 197:Drivers/STM32F4xx_HAL_Driver/Src/stm32f4xx_hal_dma_ex.c ****     __HAL_DMA_CLEAR_FLAG (hdma, __HAL_DMA_GET_HT_FLAG_INDEX(hdma));
 700              		.loc 1 197 5 view .LVU219
 701 0296 294B     		ldr	r3, .L102+4
 702 0298 2021     		movs	r1, #32
 703              	.LVL53:
 198:Drivers/STM32F4xx_HAL_Driver/Src/stm32f4xx_hal_dma_ex.c ****     __HAL_DMA_CLEAR_FLAG (hdma, __HAL_DMA_GET_TE_FLAG_INDEX(hdma));
 704              		.loc 1 198 5 view .LVU220
 705 029a 1022     		movs	r2, #16
 706              	.LVL54:
 197:Drivers/STM32F4xx_HAL_Driver/Src/stm32f4xx_hal_dma_ex.c ****     __HAL_DMA_CLEAR_FLAG (hdma, __HAL_DMA_GET_HT_FLAG_INDEX(hdma));
 707              		.loc 1 197 5 view .LVU221
 708 029c 9960     		str	r1, [r3, #8]
ARM GAS  /tmp/cchFK2Kj.s 			page 22


 709              	.LVL55:
 198:Drivers/STM32F4xx_HAL_Driver/Src/stm32f4xx_hal_dma_ex.c ****     __HAL_DMA_CLEAR_FLAG (hdma, __HAL_DMA_GET_TE_FLAG_INDEX(hdma));
 710              		.loc 1 198 5 is_stmt 1 view .LVU222
 711 029e 9A60     		str	r2, [r3, #8]
 199:Drivers/STM32F4xx_HAL_Driver/Src/stm32f4xx_hal_dma_ex.c ****     __HAL_DMA_CLEAR_FLAG (hdma, __HAL_DMA_GET_DME_FLAG_INDEX(hdma));
 712              		.loc 1 199 5 view .LVU223
 713 02a0 0821     		movs	r1, #8
 200:Drivers/STM32F4xx_HAL_Driver/Src/stm32f4xx_hal_dma_ex.c ****     __HAL_DMA_CLEAR_FLAG (hdma, __HAL_DMA_GET_FE_FLAG_INDEX(hdma));
 714              		.loc 1 200 5 is_stmt 0 view .LVU224
 715 02a2 0422     		movs	r2, #4
 199:Drivers/STM32F4xx_HAL_Driver/Src/stm32f4xx_hal_dma_ex.c ****     __HAL_DMA_CLEAR_FLAG (hdma, __HAL_DMA_GET_DME_FLAG_INDEX(hdma));
 716              		.loc 1 199 5 view .LVU225
 717 02a4 9960     		str	r1, [r3, #8]
 200:Drivers/STM32F4xx_HAL_Driver/Src/stm32f4xx_hal_dma_ex.c ****     __HAL_DMA_CLEAR_FLAG (hdma, __HAL_DMA_GET_FE_FLAG_INDEX(hdma));
 718              		.loc 1 200 5 is_stmt 1 view .LVU226
 719 02a6 9A60     		str	r2, [r3, #8]
 201:Drivers/STM32F4xx_HAL_Driver/Src/stm32f4xx_hal_dma_ex.c **** 
 720              		.loc 1 201 5 view .LVU227
 721 02a8 0122     		movs	r2, #1
 722 02aa F1E7     		b	.L79
 723              	.LVL56:
 724              	.L48:
 197:Drivers/STM32F4xx_HAL_Driver/Src/stm32f4xx_hal_dma_ex.c ****     __HAL_DMA_CLEAR_FLAG (hdma, __HAL_DMA_GET_HT_FLAG_INDEX(hdma));
 725              		.loc 1 197 5 is_stmt 0 discriminator 103 view .LVU228
 726 02ac 274B     		ldr	r3, .L102+20
 727 02ae 9C42     		cmp	r4, r3
 728 02b0 59D0     		beq	.L63
 197:Drivers/STM32F4xx_HAL_Driver/Src/stm32f4xx_hal_dma_ex.c ****     __HAL_DMA_CLEAR_FLAG (hdma, __HAL_DMA_GET_HT_FLAG_INDEX(hdma));
 729              		.loc 1 197 5 discriminator 153 view .LVU229
 730 02b2 03F58063 		add	r3, r3, #1024
 731 02b6 9C42     		cmp	r4, r3
 732 02b8 55D0     		beq	.L63
 197:Drivers/STM32F4xx_HAL_Driver/Src/stm32f4xx_hal_dma_ex.c ****     __HAL_DMA_CLEAR_FLAG (hdma, __HAL_DMA_GET_HT_FLAG_INDEX(hdma));
 733              		.loc 1 197 5 discriminator 155 view .LVU230
 734 02ba A3F56873 		sub	r3, r3, #928
 735 02be 9C42     		cmp	r4, r3
 736 02c0 51D0     		beq	.L63
 197:Drivers/STM32F4xx_HAL_Driver/Src/stm32f4xx_hal_dma_ex.c ****     __HAL_DMA_CLEAR_FLAG (hdma, __HAL_DMA_GET_HT_FLAG_INDEX(hdma));
 737              		.loc 1 197 5 discriminator 157 view .LVU231
 738 02c2 03F58063 		add	r3, r3, #1024
 739 02c6 9C42     		cmp	r4, r3
 740 02c8 4DD0     		beq	.L63
 197:Drivers/STM32F4xx_HAL_Driver/Src/stm32f4xx_hal_dma_ex.c ****     __HAL_DMA_CLEAR_FLAG (hdma, __HAL_DMA_GET_HT_FLAG_INDEX(hdma));
 741              		.loc 1 197 5 discriminator 159 view .LVU232
 742 02ca A3F58963 		sub	r3, r3, #1096
 743 02ce 9C42     		cmp	r4, r3
 744 02d0 72D0     		beq	.L67
 197:Drivers/STM32F4xx_HAL_Driver/Src/stm32f4xx_hal_dma_ex.c ****     __HAL_DMA_CLEAR_FLAG (hdma, __HAL_DMA_GET_HT_FLAG_INDEX(hdma));
 745              		.loc 1 197 5 discriminator 161 view .LVU233
 746 02d2 03F58063 		add	r3, r3, #1024
 747 02d6 9C42     		cmp	r4, r3
 748 02d8 6ED0     		beq	.L67
 197:Drivers/STM32F4xx_HAL_Driver/Src/stm32f4xx_hal_dma_ex.c ****     __HAL_DMA_CLEAR_FLAG (hdma, __HAL_DMA_GET_HT_FLAG_INDEX(hdma));
 749              		.loc 1 197 5 discriminator 163 view .LVU234
 750 02da A3F56873 		sub	r3, r3, #928
 751 02de 9C42     		cmp	r4, r3
 752 02e0 6AD0     		beq	.L67
ARM GAS  /tmp/cchFK2Kj.s 			page 23


 197:Drivers/STM32F4xx_HAL_Driver/Src/stm32f4xx_hal_dma_ex.c ****     __HAL_DMA_CLEAR_FLAG (hdma, __HAL_DMA_GET_HT_FLAG_INDEX(hdma));
 753              		.loc 1 197 5 discriminator 165 view .LVU235
 754 02e2 03F58063 		add	r3, r3, #1024
 755 02e6 9C42     		cmp	r4, r3
 756 02e8 66D0     		beq	.L67
 197:Drivers/STM32F4xx_HAL_Driver/Src/stm32f4xx_hal_dma_ex.c ****     __HAL_DMA_CLEAR_FLAG (hdma, __HAL_DMA_GET_HT_FLAG_INDEX(hdma));
 757              		.loc 1 197 5 discriminator 167 view .LVU236
 758 02ea A3F58963 		sub	r3, r3, #1096
 759 02ee 9C42     		cmp	r4, r3
 760 02f0 00F0A080 		beq	.L71
 197:Drivers/STM32F4xx_HAL_Driver/Src/stm32f4xx_hal_dma_ex.c ****     __HAL_DMA_CLEAR_FLAG (hdma, __HAL_DMA_GET_HT_FLAG_INDEX(hdma));
 761              		.loc 1 197 5 discriminator 169 view .LVU237
 762 02f4 03F58063 		add	r3, r3, #1024
 763 02f8 9C42     		cmp	r4, r3
 764 02fa 00F09B80 		beq	.L71
 197:Drivers/STM32F4xx_HAL_Driver/Src/stm32f4xx_hal_dma_ex.c ****     __HAL_DMA_CLEAR_FLAG (hdma, __HAL_DMA_GET_HT_FLAG_INDEX(hdma));
 765              		.loc 1 197 5 discriminator 171 view .LVU238
 766 02fe A3F56873 		sub	r3, r3, #928
 767 0302 9C42     		cmp	r4, r3
 768 0304 00F09680 		beq	.L71
 197:Drivers/STM32F4xx_HAL_Driver/Src/stm32f4xx_hal_dma_ex.c ****     __HAL_DMA_CLEAR_FLAG (hdma, __HAL_DMA_GET_HT_FLAG_INDEX(hdma));
 769              		.loc 1 197 5 discriminator 173 view .LVU239
 770 0308 03F58063 		add	r3, r3, #1024
 771 030c 9C42     		cmp	r4, r3
 772 030e 00F09180 		beq	.L71
 197:Drivers/STM32F4xx_HAL_Driver/Src/stm32f4xx_hal_dma_ex.c ****     __HAL_DMA_CLEAR_FLAG (hdma, __HAL_DMA_GET_HT_FLAG_INDEX(hdma));
 773              		.loc 1 197 5 view .LVU240
 774 0312 0D4B     		ldr	r3, .L102+16
 775 0314 4FF00061 		mov	r1, #134217728
 776              	.LVL57:
 198:Drivers/STM32F4xx_HAL_Driver/Src/stm32f4xx_hal_dma_ex.c ****     __HAL_DMA_CLEAR_FLAG (hdma, __HAL_DMA_GET_TE_FLAG_INDEX(hdma));
 777              		.loc 1 198 5 view .LVU241
 778 0318 4FF08062 		mov	r2, #67108864
 779              	.LVL58:
 197:Drivers/STM32F4xx_HAL_Driver/Src/stm32f4xx_hal_dma_ex.c ****     __HAL_DMA_CLEAR_FLAG (hdma, __HAL_DMA_GET_HT_FLAG_INDEX(hdma));
 780              		.loc 1 197 5 view .LVU242
 781 031c 9960     		str	r1, [r3, #8]
 782              	.LVL59:
 198:Drivers/STM32F4xx_HAL_Driver/Src/stm32f4xx_hal_dma_ex.c ****     __HAL_DMA_CLEAR_FLAG (hdma, __HAL_DMA_GET_TE_FLAG_INDEX(hdma));
 783              		.loc 1 198 5 is_stmt 1 view .LVU243
 784 031e 9A60     		str	r2, [r3, #8]
 199:Drivers/STM32F4xx_HAL_Driver/Src/stm32f4xx_hal_dma_ex.c ****     __HAL_DMA_CLEAR_FLAG (hdma, __HAL_DMA_GET_DME_FLAG_INDEX(hdma));
 785              		.loc 1 199 5 view .LVU244
 786 0320 4FF00071 		mov	r1, #33554432
 200:Drivers/STM32F4xx_HAL_Driver/Src/stm32f4xx_hal_dma_ex.c ****     __HAL_DMA_CLEAR_FLAG (hdma, __HAL_DMA_GET_FE_FLAG_INDEX(hdma));
 787              		.loc 1 200 5 is_stmt 0 view .LVU245
 788 0324 4FF08072 		mov	r2, #16777216
 199:Drivers/STM32F4xx_HAL_Driver/Src/stm32f4xx_hal_dma_ex.c ****     __HAL_DMA_CLEAR_FLAG (hdma, __HAL_DMA_GET_DME_FLAG_INDEX(hdma));
 789              		.loc 1 199 5 view .LVU246
 790 0328 9960     		str	r1, [r3, #8]
 200:Drivers/STM32F4xx_HAL_Driver/Src/stm32f4xx_hal_dma_ex.c ****     __HAL_DMA_CLEAR_FLAG (hdma, __HAL_DMA_GET_FE_FLAG_INDEX(hdma));
 791              		.loc 1 200 5 is_stmt 1 view .LVU247
 792 032a 9A60     		str	r2, [r3, #8]
 201:Drivers/STM32F4xx_HAL_Driver/Src/stm32f4xx_hal_dma_ex.c **** 
 793              		.loc 1 201 5 view .LVU248
 794 032c 4FF48003 		mov	r3, #4194304
 795              	.L81:
ARM GAS  /tmp/cchFK2Kj.s 			page 24


 201:Drivers/STM32F4xx_HAL_Driver/Src/stm32f4xx_hal_dma_ex.c **** 
 796              		.loc 1 201 5 is_stmt 0 discriminator 200 view .LVU249
 797 0330 054A     		ldr	r2, .L102+16
 798 0332 9360     		str	r3, [r2, #8]
 799 0334 F6E6     		b	.L75
 800              	.L103:
 801 0336 00BF     		.align	2
 802              	.L102:
 803 0338 58640240 		.word	1073898584
 804 033c 00640240 		.word	1073898496
 805 0340 B8600240 		.word	1073897656
 806 0344 58600240 		.word	1073897560
 807 0348 00600240 		.word	1073897472
 808 034c 10600240 		.word	1073897488
 809              	.LVL60:
 810              	.L51:
 197:Drivers/STM32F4xx_HAL_Driver/Src/stm32f4xx_hal_dma_ex.c ****     __HAL_DMA_CLEAR_FLAG (hdma, __HAL_DMA_GET_HT_FLAG_INDEX(hdma));
 811              		.loc 1 197 5 view .LVU250
 812 0350 484B     		ldr	r3, .L104
 813 0352 2021     		movs	r1, #32
 814              	.LVL61:
 198:Drivers/STM32F4xx_HAL_Driver/Src/stm32f4xx_hal_dma_ex.c ****     __HAL_DMA_CLEAR_FLAG (hdma, __HAL_DMA_GET_TE_FLAG_INDEX(hdma));
 815              		.loc 1 198 5 view .LVU251
 816 0354 1022     		movs	r2, #16
 817              	.LVL62:
 197:Drivers/STM32F4xx_HAL_Driver/Src/stm32f4xx_hal_dma_ex.c ****     __HAL_DMA_CLEAR_FLAG (hdma, __HAL_DMA_GET_HT_FLAG_INDEX(hdma));
 818              		.loc 1 197 5 view .LVU252
 819 0356 D960     		str	r1, [r3, #12]
 820              	.LVL63:
 198:Drivers/STM32F4xx_HAL_Driver/Src/stm32f4xx_hal_dma_ex.c ****     __HAL_DMA_CLEAR_FLAG (hdma, __HAL_DMA_GET_TE_FLAG_INDEX(hdma));
 821              		.loc 1 198 5 is_stmt 1 view .LVU253
 822 0358 DA60     		str	r2, [r3, #12]
 199:Drivers/STM32F4xx_HAL_Driver/Src/stm32f4xx_hal_dma_ex.c ****     __HAL_DMA_CLEAR_FLAG (hdma, __HAL_DMA_GET_DME_FLAG_INDEX(hdma));
 823              		.loc 1 199 5 view .LVU254
 824 035a 0821     		movs	r1, #8
 200:Drivers/STM32F4xx_HAL_Driver/Src/stm32f4xx_hal_dma_ex.c ****     __HAL_DMA_CLEAR_FLAG (hdma, __HAL_DMA_GET_FE_FLAG_INDEX(hdma));
 825              		.loc 1 200 5 is_stmt 0 view .LVU255
 826 035c 0422     		movs	r2, #4
 199:Drivers/STM32F4xx_HAL_Driver/Src/stm32f4xx_hal_dma_ex.c ****     __HAL_DMA_CLEAR_FLAG (hdma, __HAL_DMA_GET_DME_FLAG_INDEX(hdma));
 827              		.loc 1 199 5 view .LVU256
 828 035e D960     		str	r1, [r3, #12]
 200:Drivers/STM32F4xx_HAL_Driver/Src/stm32f4xx_hal_dma_ex.c ****     __HAL_DMA_CLEAR_FLAG (hdma, __HAL_DMA_GET_FE_FLAG_INDEX(hdma));
 829              		.loc 1 200 5 is_stmt 1 view .LVU257
 830 0360 DA60     		str	r2, [r3, #12]
 201:Drivers/STM32F4xx_HAL_Driver/Src/stm32f4xx_hal_dma_ex.c **** 
 831              		.loc 1 201 5 view .LVU258
 832 0362 0123     		movs	r3, #1
 833 0364 45E7     		b	.L80
 834              	.LVL64:
 835              	.L63:
 197:Drivers/STM32F4xx_HAL_Driver/Src/stm32f4xx_hal_dma_ex.c ****     __HAL_DMA_CLEAR_FLAG (hdma, __HAL_DMA_GET_HT_FLAG_INDEX(hdma));
 836              		.loc 1 197 5 is_stmt 0 view .LVU259
 837 0366 434B     		ldr	r3, .L104
 838 0368 2021     		movs	r1, #32
 839              	.LVL65:
 198:Drivers/STM32F4xx_HAL_Driver/Src/stm32f4xx_hal_dma_ex.c ****     __HAL_DMA_CLEAR_FLAG (hdma, __HAL_DMA_GET_TE_FLAG_INDEX(hdma));
 840              		.loc 1 198 5 view .LVU260
ARM GAS  /tmp/cchFK2Kj.s 			page 25


 841 036a 1022     		movs	r2, #16
 842              	.LVL66:
 197:Drivers/STM32F4xx_HAL_Driver/Src/stm32f4xx_hal_dma_ex.c ****     __HAL_DMA_CLEAR_FLAG (hdma, __HAL_DMA_GET_HT_FLAG_INDEX(hdma));
 843              		.loc 1 197 5 view .LVU261
 844 036c 9960     		str	r1, [r3, #8]
 845              	.LVL67:
 198:Drivers/STM32F4xx_HAL_Driver/Src/stm32f4xx_hal_dma_ex.c ****     __HAL_DMA_CLEAR_FLAG (hdma, __HAL_DMA_GET_TE_FLAG_INDEX(hdma));
 846              		.loc 1 198 5 is_stmt 1 view .LVU262
 847 036e 9A60     		str	r2, [r3, #8]
 199:Drivers/STM32F4xx_HAL_Driver/Src/stm32f4xx_hal_dma_ex.c ****     __HAL_DMA_CLEAR_FLAG (hdma, __HAL_DMA_GET_DME_FLAG_INDEX(hdma));
 848              		.loc 1 199 5 view .LVU263
 849 0370 0821     		movs	r1, #8
 200:Drivers/STM32F4xx_HAL_Driver/Src/stm32f4xx_hal_dma_ex.c ****     __HAL_DMA_CLEAR_FLAG (hdma, __HAL_DMA_GET_FE_FLAG_INDEX(hdma));
 850              		.loc 1 200 5 is_stmt 0 view .LVU264
 851 0372 0422     		movs	r2, #4
 199:Drivers/STM32F4xx_HAL_Driver/Src/stm32f4xx_hal_dma_ex.c ****     __HAL_DMA_CLEAR_FLAG (hdma, __HAL_DMA_GET_DME_FLAG_INDEX(hdma));
 852              		.loc 1 199 5 view .LVU265
 853 0374 9960     		str	r1, [r3, #8]
 200:Drivers/STM32F4xx_HAL_Driver/Src/stm32f4xx_hal_dma_ex.c ****     __HAL_DMA_CLEAR_FLAG (hdma, __HAL_DMA_GET_FE_FLAG_INDEX(hdma));
 854              		.loc 1 200 5 is_stmt 1 view .LVU266
 855 0376 9A60     		str	r2, [r3, #8]
 201:Drivers/STM32F4xx_HAL_Driver/Src/stm32f4xx_hal_dma_ex.c **** 
 856              		.loc 1 201 5 view .LVU267
 857 0378 0123     		movs	r3, #1
 858 037a D9E7     		b	.L81
 859              	.LVL68:
 860              	.L27:
 197:Drivers/STM32F4xx_HAL_Driver/Src/stm32f4xx_hal_dma_ex.c ****     __HAL_DMA_CLEAR_FLAG (hdma, __HAL_DMA_GET_HT_FLAG_INDEX(hdma));
 861              		.loc 1 197 5 is_stmt 0 view .LVU268
 862 037c 3E4B     		ldr	r3, .L104+4
 863 037e 4FF40061 		mov	r1, #2048
 864              	.LVL69:
 198:Drivers/STM32F4xx_HAL_Driver/Src/stm32f4xx_hal_dma_ex.c ****     __HAL_DMA_CLEAR_FLAG (hdma, __HAL_DMA_GET_TE_FLAG_INDEX(hdma));
 865              		.loc 1 198 5 view .LVU269
 866 0382 4FF48062 		mov	r2, #1024
 867              	.LVL70:
 197:Drivers/STM32F4xx_HAL_Driver/Src/stm32f4xx_hal_dma_ex.c ****     __HAL_DMA_CLEAR_FLAG (hdma, __HAL_DMA_GET_HT_FLAG_INDEX(hdma));
 868              		.loc 1 197 5 view .LVU270
 869 0386 D960     		str	r1, [r3, #12]
 870              	.LVL71:
 198:Drivers/STM32F4xx_HAL_Driver/Src/stm32f4xx_hal_dma_ex.c ****     __HAL_DMA_CLEAR_FLAG (hdma, __HAL_DMA_GET_TE_FLAG_INDEX(hdma));
 871              		.loc 1 198 5 is_stmt 1 view .LVU271
 872 0388 DA60     		str	r2, [r3, #12]
 199:Drivers/STM32F4xx_HAL_Driver/Src/stm32f4xx_hal_dma_ex.c ****     __HAL_DMA_CLEAR_FLAG (hdma, __HAL_DMA_GET_DME_FLAG_INDEX(hdma));
 873              		.loc 1 199 5 view .LVU272
 874 038a 4FF40071 		mov	r1, #512
 200:Drivers/STM32F4xx_HAL_Driver/Src/stm32f4xx_hal_dma_ex.c ****     __HAL_DMA_CLEAR_FLAG (hdma, __HAL_DMA_GET_FE_FLAG_INDEX(hdma));
 875              		.loc 1 200 5 is_stmt 0 view .LVU273
 876 038e 4FF48072 		mov	r2, #256
 199:Drivers/STM32F4xx_HAL_Driver/Src/stm32f4xx_hal_dma_ex.c ****     __HAL_DMA_CLEAR_FLAG (hdma, __HAL_DMA_GET_DME_FLAG_INDEX(hdma));
 877              		.loc 1 199 5 view .LVU274
 878 0392 D960     		str	r1, [r3, #12]
 200:Drivers/STM32F4xx_HAL_Driver/Src/stm32f4xx_hal_dma_ex.c ****     __HAL_DMA_CLEAR_FLAG (hdma, __HAL_DMA_GET_FE_FLAG_INDEX(hdma));
 879              		.loc 1 200 5 is_stmt 1 view .LVU275
 880 0394 DA60     		str	r2, [r3, #12]
 201:Drivers/STM32F4xx_HAL_Driver/Src/stm32f4xx_hal_dma_ex.c **** 
 881              		.loc 1 201 5 view .LVU276
ARM GAS  /tmp/cchFK2Kj.s 			page 26


 882 0396 4022     		movs	r2, #64
 883 0398 C2E6     		b	.L78
 884              	.LVL72:
 885              	.L41:
 197:Drivers/STM32F4xx_HAL_Driver/Src/stm32f4xx_hal_dma_ex.c ****     __HAL_DMA_CLEAR_FLAG (hdma, __HAL_DMA_GET_HT_FLAG_INDEX(hdma));
 886              		.loc 1 197 5 is_stmt 0 view .LVU277
 887 039a 374B     		ldr	r3, .L104+4
 888 039c 4FF40061 		mov	r1, #2048
 889              	.LVL73:
 198:Drivers/STM32F4xx_HAL_Driver/Src/stm32f4xx_hal_dma_ex.c ****     __HAL_DMA_CLEAR_FLAG (hdma, __HAL_DMA_GET_TE_FLAG_INDEX(hdma));
 890              		.loc 1 198 5 view .LVU278
 891 03a0 4FF48062 		mov	r2, #1024
 892              	.LVL74:
 197:Drivers/STM32F4xx_HAL_Driver/Src/stm32f4xx_hal_dma_ex.c ****     __HAL_DMA_CLEAR_FLAG (hdma, __HAL_DMA_GET_HT_FLAG_INDEX(hdma));
 893              		.loc 1 197 5 view .LVU279
 894 03a4 9960     		str	r1, [r3, #8]
 895              	.LVL75:
 198:Drivers/STM32F4xx_HAL_Driver/Src/stm32f4xx_hal_dma_ex.c ****     __HAL_DMA_CLEAR_FLAG (hdma, __HAL_DMA_GET_TE_FLAG_INDEX(hdma));
 896              		.loc 1 198 5 is_stmt 1 view .LVU280
 897 03a6 9A60     		str	r2, [r3, #8]
 199:Drivers/STM32F4xx_HAL_Driver/Src/stm32f4xx_hal_dma_ex.c ****     __HAL_DMA_CLEAR_FLAG (hdma, __HAL_DMA_GET_DME_FLAG_INDEX(hdma));
 898              		.loc 1 199 5 view .LVU281
 899 03a8 4FF40071 		mov	r1, #512
 200:Drivers/STM32F4xx_HAL_Driver/Src/stm32f4xx_hal_dma_ex.c ****     __HAL_DMA_CLEAR_FLAG (hdma, __HAL_DMA_GET_FE_FLAG_INDEX(hdma));
 900              		.loc 1 200 5 is_stmt 0 view .LVU282
 901 03ac 4FF48072 		mov	r2, #256
 199:Drivers/STM32F4xx_HAL_Driver/Src/stm32f4xx_hal_dma_ex.c ****     __HAL_DMA_CLEAR_FLAG (hdma, __HAL_DMA_GET_DME_FLAG_INDEX(hdma));
 902              		.loc 1 199 5 view .LVU283
 903 03b0 9960     		str	r1, [r3, #8]
 200:Drivers/STM32F4xx_HAL_Driver/Src/stm32f4xx_hal_dma_ex.c ****     __HAL_DMA_CLEAR_FLAG (hdma, __HAL_DMA_GET_FE_FLAG_INDEX(hdma));
 904              		.loc 1 200 5 is_stmt 1 view .LVU284
 905 03b2 9A60     		str	r2, [r3, #8]
 201:Drivers/STM32F4xx_HAL_Driver/Src/stm32f4xx_hal_dma_ex.c **** 
 906              		.loc 1 201 5 view .LVU285
 907 03b4 4022     		movs	r2, #64
 908 03b6 6BE7     		b	.L79
 909              	.LVL76:
 910              	.L67:
 197:Drivers/STM32F4xx_HAL_Driver/Src/stm32f4xx_hal_dma_ex.c ****     __HAL_DMA_CLEAR_FLAG (hdma, __HAL_DMA_GET_HT_FLAG_INDEX(hdma));
 911              		.loc 1 197 5 is_stmt 0 view .LVU286
 912 03b8 2E4B     		ldr	r3, .L104
 913 03ba 4FF40061 		mov	r1, #2048
 914              	.LVL77:
 198:Drivers/STM32F4xx_HAL_Driver/Src/stm32f4xx_hal_dma_ex.c ****     __HAL_DMA_CLEAR_FLAG (hdma, __HAL_DMA_GET_TE_FLAG_INDEX(hdma));
 915              		.loc 1 198 5 view .LVU287
 916 03be 4FF48062 		mov	r2, #1024
 917              	.LVL78:
 197:Drivers/STM32F4xx_HAL_Driver/Src/stm32f4xx_hal_dma_ex.c ****     __HAL_DMA_CLEAR_FLAG (hdma, __HAL_DMA_GET_HT_FLAG_INDEX(hdma));
 918              		.loc 1 197 5 view .LVU288
 919 03c2 9960     		str	r1, [r3, #8]
 920              	.LVL79:
 198:Drivers/STM32F4xx_HAL_Driver/Src/stm32f4xx_hal_dma_ex.c ****     __HAL_DMA_CLEAR_FLAG (hdma, __HAL_DMA_GET_TE_FLAG_INDEX(hdma));
 921              		.loc 1 198 5 is_stmt 1 view .LVU289
 922 03c4 9A60     		str	r2, [r3, #8]
 199:Drivers/STM32F4xx_HAL_Driver/Src/stm32f4xx_hal_dma_ex.c ****     __HAL_DMA_CLEAR_FLAG (hdma, __HAL_DMA_GET_DME_FLAG_INDEX(hdma));
 923              		.loc 1 199 5 view .LVU290
 924 03c6 4FF40071 		mov	r1, #512
ARM GAS  /tmp/cchFK2Kj.s 			page 27


 200:Drivers/STM32F4xx_HAL_Driver/Src/stm32f4xx_hal_dma_ex.c ****     __HAL_DMA_CLEAR_FLAG (hdma, __HAL_DMA_GET_FE_FLAG_INDEX(hdma));
 925              		.loc 1 200 5 is_stmt 0 view .LVU291
 926 03ca 4FF48072 		mov	r2, #256
 199:Drivers/STM32F4xx_HAL_Driver/Src/stm32f4xx_hal_dma_ex.c ****     __HAL_DMA_CLEAR_FLAG (hdma, __HAL_DMA_GET_DME_FLAG_INDEX(hdma));
 927              		.loc 1 199 5 view .LVU292
 928 03ce 9960     		str	r1, [r3, #8]
 200:Drivers/STM32F4xx_HAL_Driver/Src/stm32f4xx_hal_dma_ex.c ****     __HAL_DMA_CLEAR_FLAG (hdma, __HAL_DMA_GET_FE_FLAG_INDEX(hdma));
 929              		.loc 1 200 5 is_stmt 1 view .LVU293
 930 03d0 9A60     		str	r2, [r3, #8]
 201:Drivers/STM32F4xx_HAL_Driver/Src/stm32f4xx_hal_dma_ex.c **** 
 931              		.loc 1 201 5 view .LVU294
 932 03d2 4023     		movs	r3, #64
 933 03d4 ACE7     		b	.L81
 934              	.LVL80:
 935              	.L56:
 197:Drivers/STM32F4xx_HAL_Driver/Src/stm32f4xx_hal_dma_ex.c ****     __HAL_DMA_CLEAR_FLAG (hdma, __HAL_DMA_GET_HT_FLAG_INDEX(hdma));
 936              		.loc 1 197 5 is_stmt 0 view .LVU295
 937 03d6 274B     		ldr	r3, .L104
 938 03d8 4FF40061 		mov	r1, #2048
 939              	.LVL81:
 198:Drivers/STM32F4xx_HAL_Driver/Src/stm32f4xx_hal_dma_ex.c ****     __HAL_DMA_CLEAR_FLAG (hdma, __HAL_DMA_GET_TE_FLAG_INDEX(hdma));
 940              		.loc 1 198 5 view .LVU296
 941 03dc 4FF48062 		mov	r2, #1024
 942              	.LVL82:
 197:Drivers/STM32F4xx_HAL_Driver/Src/stm32f4xx_hal_dma_ex.c ****     __HAL_DMA_CLEAR_FLAG (hdma, __HAL_DMA_GET_HT_FLAG_INDEX(hdma));
 943              		.loc 1 197 5 view .LVU297
 944 03e0 D960     		str	r1, [r3, #12]
 945              	.LVL83:
 198:Drivers/STM32F4xx_HAL_Driver/Src/stm32f4xx_hal_dma_ex.c ****     __HAL_DMA_CLEAR_FLAG (hdma, __HAL_DMA_GET_TE_FLAG_INDEX(hdma));
 946              		.loc 1 198 5 is_stmt 1 view .LVU298
 947 03e2 DA60     		str	r2, [r3, #12]
 199:Drivers/STM32F4xx_HAL_Driver/Src/stm32f4xx_hal_dma_ex.c ****     __HAL_DMA_CLEAR_FLAG (hdma, __HAL_DMA_GET_DME_FLAG_INDEX(hdma));
 948              		.loc 1 199 5 view .LVU299
 949 03e4 4FF40071 		mov	r1, #512
 200:Drivers/STM32F4xx_HAL_Driver/Src/stm32f4xx_hal_dma_ex.c ****     __HAL_DMA_CLEAR_FLAG (hdma, __HAL_DMA_GET_FE_FLAG_INDEX(hdma));
 950              		.loc 1 200 5 is_stmt 0 view .LVU300
 951 03e8 4FF48072 		mov	r2, #256
 199:Drivers/STM32F4xx_HAL_Driver/Src/stm32f4xx_hal_dma_ex.c ****     __HAL_DMA_CLEAR_FLAG (hdma, __HAL_DMA_GET_DME_FLAG_INDEX(hdma));
 952              		.loc 1 199 5 view .LVU301
 953 03ec D960     		str	r1, [r3, #12]
 200:Drivers/STM32F4xx_HAL_Driver/Src/stm32f4xx_hal_dma_ex.c ****     __HAL_DMA_CLEAR_FLAG (hdma, __HAL_DMA_GET_FE_FLAG_INDEX(hdma));
 954              		.loc 1 200 5 is_stmt 1 view .LVU302
 955 03ee DA60     		str	r2, [r3, #12]
 201:Drivers/STM32F4xx_HAL_Driver/Src/stm32f4xx_hal_dma_ex.c **** 
 956              		.loc 1 201 5 view .LVU303
 957 03f0 4023     		movs	r3, #64
 958 03f2 FEE6     		b	.L80
 959              	.LVL84:
 960              	.L30:
 197:Drivers/STM32F4xx_HAL_Driver/Src/stm32f4xx_hal_dma_ex.c ****     __HAL_DMA_CLEAR_FLAG (hdma, __HAL_DMA_GET_HT_FLAG_INDEX(hdma));
 961              		.loc 1 197 5 is_stmt 0 view .LVU304
 962 03f4 204B     		ldr	r3, .L104+4
 963 03f6 4FF40011 		mov	r1, #2097152
 964              	.LVL85:
 198:Drivers/STM32F4xx_HAL_Driver/Src/stm32f4xx_hal_dma_ex.c ****     __HAL_DMA_CLEAR_FLAG (hdma, __HAL_DMA_GET_TE_FLAG_INDEX(hdma));
 965              		.loc 1 198 5 view .LVU305
 966 03fa 4FF48012 		mov	r2, #1048576
ARM GAS  /tmp/cchFK2Kj.s 			page 28


 967              	.LVL86:
 197:Drivers/STM32F4xx_HAL_Driver/Src/stm32f4xx_hal_dma_ex.c ****     __HAL_DMA_CLEAR_FLAG (hdma, __HAL_DMA_GET_HT_FLAG_INDEX(hdma));
 968              		.loc 1 197 5 view .LVU306
 969 03fe D960     		str	r1, [r3, #12]
 970              	.LVL87:
 198:Drivers/STM32F4xx_HAL_Driver/Src/stm32f4xx_hal_dma_ex.c ****     __HAL_DMA_CLEAR_FLAG (hdma, __HAL_DMA_GET_TE_FLAG_INDEX(hdma));
 971              		.loc 1 198 5 is_stmt 1 view .LVU307
 972 0400 DA60     		str	r2, [r3, #12]
 199:Drivers/STM32F4xx_HAL_Driver/Src/stm32f4xx_hal_dma_ex.c ****     __HAL_DMA_CLEAR_FLAG (hdma, __HAL_DMA_GET_DME_FLAG_INDEX(hdma));
 973              		.loc 1 199 5 view .LVU308
 974 0402 4FF40021 		mov	r1, #524288
 200:Drivers/STM32F4xx_HAL_Driver/Src/stm32f4xx_hal_dma_ex.c ****     __HAL_DMA_CLEAR_FLAG (hdma, __HAL_DMA_GET_FE_FLAG_INDEX(hdma));
 975              		.loc 1 200 5 is_stmt 0 view .LVU309
 976 0406 4FF48022 		mov	r2, #262144
 199:Drivers/STM32F4xx_HAL_Driver/Src/stm32f4xx_hal_dma_ex.c ****     __HAL_DMA_CLEAR_FLAG (hdma, __HAL_DMA_GET_DME_FLAG_INDEX(hdma));
 977              		.loc 1 199 5 view .LVU310
 978 040a D960     		str	r1, [r3, #12]
 200:Drivers/STM32F4xx_HAL_Driver/Src/stm32f4xx_hal_dma_ex.c ****     __HAL_DMA_CLEAR_FLAG (hdma, __HAL_DMA_GET_FE_FLAG_INDEX(hdma));
 979              		.loc 1 200 5 is_stmt 1 view .LVU311
 980 040c DA60     		str	r2, [r3, #12]
 201:Drivers/STM32F4xx_HAL_Driver/Src/stm32f4xx_hal_dma_ex.c **** 
 981              		.loc 1 201 5 view .LVU312
 982 040e 4FF48032 		mov	r2, #65536
 983 0412 85E6     		b	.L78
 984              	.LVL88:
 985              	.L45:
 197:Drivers/STM32F4xx_HAL_Driver/Src/stm32f4xx_hal_dma_ex.c ****     __HAL_DMA_CLEAR_FLAG (hdma, __HAL_DMA_GET_HT_FLAG_INDEX(hdma));
 986              		.loc 1 197 5 is_stmt 0 view .LVU313
 987 0414 184B     		ldr	r3, .L104+4
 988 0416 4FF40011 		mov	r1, #2097152
 989              	.LVL89:
 198:Drivers/STM32F4xx_HAL_Driver/Src/stm32f4xx_hal_dma_ex.c ****     __HAL_DMA_CLEAR_FLAG (hdma, __HAL_DMA_GET_TE_FLAG_INDEX(hdma));
 990              		.loc 1 198 5 view .LVU314
 991 041a 4FF48012 		mov	r2, #1048576
 992              	.LVL90:
 197:Drivers/STM32F4xx_HAL_Driver/Src/stm32f4xx_hal_dma_ex.c ****     __HAL_DMA_CLEAR_FLAG (hdma, __HAL_DMA_GET_HT_FLAG_INDEX(hdma));
 993              		.loc 1 197 5 view .LVU315
 994 041e 9960     		str	r1, [r3, #8]
 995              	.LVL91:
 198:Drivers/STM32F4xx_HAL_Driver/Src/stm32f4xx_hal_dma_ex.c ****     __HAL_DMA_CLEAR_FLAG (hdma, __HAL_DMA_GET_TE_FLAG_INDEX(hdma));
 996              		.loc 1 198 5 is_stmt 1 view .LVU316
 997 0420 9A60     		str	r2, [r3, #8]
 199:Drivers/STM32F4xx_HAL_Driver/Src/stm32f4xx_hal_dma_ex.c ****     __HAL_DMA_CLEAR_FLAG (hdma, __HAL_DMA_GET_DME_FLAG_INDEX(hdma));
 998              		.loc 1 199 5 view .LVU317
 999 0422 4FF40021 		mov	r1, #524288
 200:Drivers/STM32F4xx_HAL_Driver/Src/stm32f4xx_hal_dma_ex.c ****     __HAL_DMA_CLEAR_FLAG (hdma, __HAL_DMA_GET_FE_FLAG_INDEX(hdma));
 1000              		.loc 1 200 5 is_stmt 0 view .LVU318
 1001 0426 4FF48022 		mov	r2, #262144
 199:Drivers/STM32F4xx_HAL_Driver/Src/stm32f4xx_hal_dma_ex.c ****     __HAL_DMA_CLEAR_FLAG (hdma, __HAL_DMA_GET_DME_FLAG_INDEX(hdma));
 1002              		.loc 1 199 5 view .LVU319
 1003 042a 9960     		str	r1, [r3, #8]
 200:Drivers/STM32F4xx_HAL_Driver/Src/stm32f4xx_hal_dma_ex.c ****     __HAL_DMA_CLEAR_FLAG (hdma, __HAL_DMA_GET_FE_FLAG_INDEX(hdma));
 1004              		.loc 1 200 5 is_stmt 1 view .LVU320
 1005 042c 9A60     		str	r2, [r3, #8]
 201:Drivers/STM32F4xx_HAL_Driver/Src/stm32f4xx_hal_dma_ex.c **** 
 1006              		.loc 1 201 5 view .LVU321
 1007 042e 4FF48032 		mov	r2, #65536
ARM GAS  /tmp/cchFK2Kj.s 			page 29


 1008 0432 2DE7     		b	.L79
 1009              	.LVL92:
 1010              	.L71:
 197:Drivers/STM32F4xx_HAL_Driver/Src/stm32f4xx_hal_dma_ex.c ****     __HAL_DMA_CLEAR_FLAG (hdma, __HAL_DMA_GET_HT_FLAG_INDEX(hdma));
 1011              		.loc 1 197 5 is_stmt 0 view .LVU322
 1012 0434 0F4B     		ldr	r3, .L104
 1013 0436 4FF40011 		mov	r1, #2097152
 1014              	.LVL93:
 198:Drivers/STM32F4xx_HAL_Driver/Src/stm32f4xx_hal_dma_ex.c ****     __HAL_DMA_CLEAR_FLAG (hdma, __HAL_DMA_GET_TE_FLAG_INDEX(hdma));
 1015              		.loc 1 198 5 view .LVU323
 1016 043a 4FF48012 		mov	r2, #1048576
 1017              	.LVL94:
 197:Drivers/STM32F4xx_HAL_Driver/Src/stm32f4xx_hal_dma_ex.c ****     __HAL_DMA_CLEAR_FLAG (hdma, __HAL_DMA_GET_HT_FLAG_INDEX(hdma));
 1018              		.loc 1 197 5 view .LVU324
 1019 043e 9960     		str	r1, [r3, #8]
 1020              	.LVL95:
 198:Drivers/STM32F4xx_HAL_Driver/Src/stm32f4xx_hal_dma_ex.c ****     __HAL_DMA_CLEAR_FLAG (hdma, __HAL_DMA_GET_TE_FLAG_INDEX(hdma));
 1021              		.loc 1 198 5 is_stmt 1 view .LVU325
 1022 0440 9A60     		str	r2, [r3, #8]
 199:Drivers/STM32F4xx_HAL_Driver/Src/stm32f4xx_hal_dma_ex.c ****     __HAL_DMA_CLEAR_FLAG (hdma, __HAL_DMA_GET_DME_FLAG_INDEX(hdma));
 1023              		.loc 1 199 5 view .LVU326
 1024 0442 4FF40021 		mov	r1, #524288
 200:Drivers/STM32F4xx_HAL_Driver/Src/stm32f4xx_hal_dma_ex.c ****     __HAL_DMA_CLEAR_FLAG (hdma, __HAL_DMA_GET_FE_FLAG_INDEX(hdma));
 1025              		.loc 1 200 5 is_stmt 0 view .LVU327
 1026 0446 4FF48022 		mov	r2, #262144
 199:Drivers/STM32F4xx_HAL_Driver/Src/stm32f4xx_hal_dma_ex.c ****     __HAL_DMA_CLEAR_FLAG (hdma, __HAL_DMA_GET_DME_FLAG_INDEX(hdma));
 1027              		.loc 1 199 5 view .LVU328
 1028 044a 9960     		str	r1, [r3, #8]
 200:Drivers/STM32F4xx_HAL_Driver/Src/stm32f4xx_hal_dma_ex.c ****     __HAL_DMA_CLEAR_FLAG (hdma, __HAL_DMA_GET_FE_FLAG_INDEX(hdma));
 1029              		.loc 1 200 5 is_stmt 1 view .LVU329
 1030 044c 9A60     		str	r2, [r3, #8]
 201:Drivers/STM32F4xx_HAL_Driver/Src/stm32f4xx_hal_dma_ex.c **** 
 1031              		.loc 1 201 5 view .LVU330
 1032 044e 4FF48033 		mov	r3, #65536
 1033 0452 6DE7     		b	.L81
 1034              	.LVL96:
 1035              	.L58:
 197:Drivers/STM32F4xx_HAL_Driver/Src/stm32f4xx_hal_dma_ex.c ****     __HAL_DMA_CLEAR_FLAG (hdma, __HAL_DMA_GET_HT_FLAG_INDEX(hdma));
 1036              		.loc 1 197 5 is_stmt 0 view .LVU331
 1037 0454 074B     		ldr	r3, .L104
 1038 0456 4FF40011 		mov	r1, #2097152
 1039              	.LVL97:
 198:Drivers/STM32F4xx_HAL_Driver/Src/stm32f4xx_hal_dma_ex.c ****     __HAL_DMA_CLEAR_FLAG (hdma, __HAL_DMA_GET_TE_FLAG_INDEX(hdma));
 1040              		.loc 1 198 5 view .LVU332
 1041 045a 4FF48012 		mov	r2, #1048576
 1042              	.LVL98:
 197:Drivers/STM32F4xx_HAL_Driver/Src/stm32f4xx_hal_dma_ex.c ****     __HAL_DMA_CLEAR_FLAG (hdma, __HAL_DMA_GET_HT_FLAG_INDEX(hdma));
 1043              		.loc 1 197 5 view .LVU333
 1044 045e D960     		str	r1, [r3, #12]
 1045              	.LVL99:
 198:Drivers/STM32F4xx_HAL_Driver/Src/stm32f4xx_hal_dma_ex.c ****     __HAL_DMA_CLEAR_FLAG (hdma, __HAL_DMA_GET_TE_FLAG_INDEX(hdma));
 1046              		.loc 1 198 5 is_stmt 1 view .LVU334
 1047 0460 DA60     		str	r2, [r3, #12]
 199:Drivers/STM32F4xx_HAL_Driver/Src/stm32f4xx_hal_dma_ex.c ****     __HAL_DMA_CLEAR_FLAG (hdma, __HAL_DMA_GET_DME_FLAG_INDEX(hdma));
 1048              		.loc 1 199 5 view .LVU335
 1049 0462 4FF40021 		mov	r1, #524288
 200:Drivers/STM32F4xx_HAL_Driver/Src/stm32f4xx_hal_dma_ex.c ****     __HAL_DMA_CLEAR_FLAG (hdma, __HAL_DMA_GET_FE_FLAG_INDEX(hdma));
ARM GAS  /tmp/cchFK2Kj.s 			page 30


 1050              		.loc 1 200 5 is_stmt 0 view .LVU336
 1051 0466 4FF48022 		mov	r2, #262144
 199:Drivers/STM32F4xx_HAL_Driver/Src/stm32f4xx_hal_dma_ex.c ****     __HAL_DMA_CLEAR_FLAG (hdma, __HAL_DMA_GET_DME_FLAG_INDEX(hdma));
 1052              		.loc 1 199 5 view .LVU337
 1053 046a D960     		str	r1, [r3, #12]
 200:Drivers/STM32F4xx_HAL_Driver/Src/stm32f4xx_hal_dma_ex.c ****     __HAL_DMA_CLEAR_FLAG (hdma, __HAL_DMA_GET_FE_FLAG_INDEX(hdma));
 1054              		.loc 1 200 5 is_stmt 1 view .LVU338
 1055 046c DA60     		str	r2, [r3, #12]
 201:Drivers/STM32F4xx_HAL_Driver/Src/stm32f4xx_hal_dma_ex.c **** 
 1056              		.loc 1 201 5 view .LVU339
 1057 046e 4FF48033 		mov	r3, #65536
 1058 0472 BEE6     		b	.L80
 1059              	.L105:
 1060              		.align	2
 1061              	.L104:
 1062 0474 00600240 		.word	1073897472
 1063 0478 00640240 		.word	1073898496
 1064              		.cfi_endproc
 1065              	.LFE131:
 1067              		.section	.text.HAL_DMAEx_ChangeMemory,"ax",%progbits
 1068              		.align	1
 1069              		.p2align 2,,3
 1070              		.global	HAL_DMAEx_ChangeMemory
 1071              		.syntax unified
 1072              		.thumb
 1073              		.thumb_func
 1075              	HAL_DMAEx_ChangeMemory:
 1076              	.LVL100:
 1077              	.LFB132:
 241:Drivers/STM32F4xx_HAL_Driver/Src/stm32f4xx_hal_dma_ex.c ****   if(memory == MEMORY0)
 1078              		.loc 1 241 1 view -0
 1079              		.cfi_startproc
 1080              		@ args = 0, pretend = 0, frame = 0
 1081              		@ frame_needed = 0, uses_anonymous_args = 0
 1082              		@ link register save eliminated.
 242:Drivers/STM32F4xx_HAL_Driver/Src/stm32f4xx_hal_dma_ex.c ****   {
 1083              		.loc 1 242 3 view .LVU341
 245:Drivers/STM32F4xx_HAL_Driver/Src/stm32f4xx_hal_dma_ex.c ****   }
 1084              		.loc 1 245 9 is_stmt 0 view .LVU342
 1085 0000 0368     		ldr	r3, [r0]
 242:Drivers/STM32F4xx_HAL_Driver/Src/stm32f4xx_hal_dma_ex.c ****   {
 1086              		.loc 1 242 5 view .LVU343
 1087 0002 12B9     		cbnz	r2, .L107
 245:Drivers/STM32F4xx_HAL_Driver/Src/stm32f4xx_hal_dma_ex.c ****   }
 1088              		.loc 1 245 5 is_stmt 1 view .LVU344
 245:Drivers/STM32F4xx_HAL_Driver/Src/stm32f4xx_hal_dma_ex.c ****   }
 1089              		.loc 1 245 26 is_stmt 0 view .LVU345
 1090 0004 D960     		str	r1, [r3, #12]
 253:Drivers/STM32F4xx_HAL_Driver/Src/stm32f4xx_hal_dma_ex.c **** }
 1091              		.loc 1 253 3 is_stmt 1 view .LVU346
 254:Drivers/STM32F4xx_HAL_Driver/Src/stm32f4xx_hal_dma_ex.c **** 
 1092              		.loc 1 254 1 is_stmt 0 view .LVU347
 1093 0006 0020     		movs	r0, #0
 1094              	.LVL101:
 254:Drivers/STM32F4xx_HAL_Driver/Src/stm32f4xx_hal_dma_ex.c **** 
 1095              		.loc 1 254 1 view .LVU348
 1096 0008 7047     		bx	lr
ARM GAS  /tmp/cchFK2Kj.s 			page 31


 1097              	.LVL102:
 1098              	.L107:
 250:Drivers/STM32F4xx_HAL_Driver/Src/stm32f4xx_hal_dma_ex.c ****   }
 1099              		.loc 1 250 5 is_stmt 1 view .LVU349
 250:Drivers/STM32F4xx_HAL_Driver/Src/stm32f4xx_hal_dma_ex.c ****   }
 1100              		.loc 1 250 26 is_stmt 0 view .LVU350
 1101 000a 1961     		str	r1, [r3, #16]
 253:Drivers/STM32F4xx_HAL_Driver/Src/stm32f4xx_hal_dma_ex.c **** }
 1102              		.loc 1 253 3 is_stmt 1 view .LVU351
 254:Drivers/STM32F4xx_HAL_Driver/Src/stm32f4xx_hal_dma_ex.c **** 
 1103              		.loc 1 254 1 is_stmt 0 view .LVU352
 1104 000c 0020     		movs	r0, #0
 1105              	.LVL103:
 254:Drivers/STM32F4xx_HAL_Driver/Src/stm32f4xx_hal_dma_ex.c **** 
 1106              		.loc 1 254 1 view .LVU353
 1107 000e 7047     		bx	lr
 1108              		.cfi_endproc
 1109              	.LFE132:
 1111              		.text
 1112              	.Letext0:
 1113              		.file 2 "/home/irfan/Desktop/arm/gcc-arm-none-eabi-10.3-2021.10-x86_64-linux/gcc-arm-none-eabi-10.
 1114              		.file 3 "/home/irfan/Desktop/arm/gcc-arm-none-eabi-10.3-2021.10-x86_64-linux/gcc-arm-none-eabi-10.
 1115              		.file 4 "Drivers/CMSIS/Device/ST/STM32F4xx/Include/stm32f429xx.h"
 1116              		.file 5 "Drivers/STM32F4xx_HAL_Driver/Inc/stm32f4xx_hal_def.h"
 1117              		.file 6 "Drivers/STM32F4xx_HAL_Driver/Inc/stm32f4xx_hal_dma.h"
 1118              		.file 7 "Drivers/STM32F4xx_HAL_Driver/Inc/stm32f4xx_hal_dma_ex.h"
ARM GAS  /tmp/cchFK2Kj.s 			page 32

