ARM GAS  /tmp/ccKP516h.s 			page 1


   1              		.cpu cortex-m3
   2              		.eabi_attribute 20, 1
   3              		.eabi_attribute 21, 1
   4              		.eabi_attribute 23, 3
   5              		.eabi_attribute 24, 1
   6              		.eabi_attribute 25, 1
   7              		.eabi_attribute 26, 1
   8              		.eabi_attribute 30, 2
   9              		.eabi_attribute 34, 1
  10              		.eabi_attribute 18, 4
  11              		.file	"stm32f1xx_hal_dma.c"
  12              		.section	.text.HAL_DMA_Init,"ax",%progbits
  13              		.align	1
  14              		.p2align 2,,3
  15              		.global	HAL_DMA_Init
  16              		.syntax unified
  17              		.thumb
  18              		.thumb_func
  19              		.fpu softvfp
  21              	HAL_DMA_Init:
  22              		@ args = 0, pretend = 0, frame = 0
  23              		@ frame_needed = 0, uses_anonymous_args = 0
  24              		@ link register save eliminated.
  25 0000 50B3     		cbz	r0, .L3
  26 0002 0246     		mov	r2, r0
  27 0004 F0B4     		push	{r4, r5, r6, r7}
  28 0006 0024     		movs	r4, #0
  29 0008 0126     		movs	r6, #1
  30 000a 8768     		ldr	r7, [r0, #8]
  31 000c 4368     		ldr	r3, [r0, #4]
  32 000e 0568     		ldr	r5, [r0]
  33 0010 1249     		ldr	r1, .L9
  34 0012 C068     		ldr	r0, [r0, #12]
  35 0014 3B43     		orrs	r3, r3, r7
  36 0016 124F     		ldr	r7, .L9+4
  37 0018 2944     		add	r1, r1, r5
  38 001a 0343     		orrs	r3, r3, r0
  39 001c 1069     		ldr	r0, [r2, #16]
  40 001e A7FB0171 		umull	r7, r1, r7, r1
  41 0022 5769     		ldr	r7, [r2, #20]
  42 0024 0343     		orrs	r3, r3, r0
  43 0026 3B43     		orrs	r3, r3, r7
  44 0028 9769     		ldr	r7, [r2, #24]
  45 002a 2868     		ldr	r0, [r5]
  46 002c 3B43     		orrs	r3, r3, r7
  47 002e D769     		ldr	r7, [r2, #28]
  48 0030 20F47F50 		bic	r0, r0, #16320
  49 0034 3B43     		orrs	r3, r3, r7
  50 0036 20F03000 		bic	r0, r0, #48
  51 003a 0A4F     		ldr	r7, .L9+8
  52 003c 0909     		lsrs	r1, r1, #4
  53 003e 0343     		orrs	r3, r3, r0
  54 0040 8900     		lsls	r1, r1, #2
  55 0042 D763     		str	r7, [r2, #60]
  56 0044 2046     		mov	r0, r4
  57 0046 1164     		str	r1, [r2, #64]
  58 0048 2B60     		str	r3, [r5]
ARM GAS  /tmp/ccKP516h.s 			page 2


  59 004a 9463     		str	r4, [r2, #56]
  60 004c 82F82040 		strb	r4, [r2, #32]
  61 0050 82F82160 		strb	r6, [r2, #33]
  62 0054 F0BC     		pop	{r4, r5, r6, r7}
  63 0056 7047     		bx	lr
  64              	.L3:
  65 0058 0120     		movs	r0, #1
  66 005a 7047     		bx	lr
  67              	.L10:
  68              		.align	2
  69              	.L9:
  70 005c F8FFFDBF 		.word	-1073872904
  71 0060 CDCCCCCC 		.word	-858993459
  72 0064 00000240 		.word	1073872896
  74              		.section	.text.HAL_DMA_DeInit,"ax",%progbits
  75              		.align	1
  76              		.p2align 2,,3
  77              		.global	HAL_DMA_DeInit
  78              		.syntax unified
  79              		.thumb
  80              		.thumb_func
  81              		.fpu softvfp
  83              	HAL_DMA_DeInit:
  84              		@ args = 0, pretend = 0, frame = 0
  85              		@ frame_needed = 0, uses_anonymous_args = 0
  86              		@ link register save eliminated.
  87 0000 20B3     		cbz	r0, .L13
  88 0002 70B4     		push	{r4, r5, r6}
  89 0004 0125     		movs	r5, #1
  90 0006 0023     		movs	r3, #0
  91 0008 0246     		mov	r2, r0
  92 000a 0468     		ldr	r4, [r0]
  93 000c 1049     		ldr	r1, .L18
  94 000e 1148     		ldr	r0, .L18+4
  95 0010 2144     		add	r1, r1, r4
  96 0012 A0FB0101 		umull	r0, r1, r0, r1
  97 0016 2068     		ldr	r0, [r4]
  98 0018 0909     		lsrs	r1, r1, #4
  99 001a 0F4E     		ldr	r6, .L18+8
 100 001c 8900     		lsls	r1, r1, #2
 101 001e 20F00100 		bic	r0, r0, #1
 102 0022 8D40     		lsls	r5, r5, r1
 103 0024 2060     		str	r0, [r4]
 104 0026 2360     		str	r3, [r4]
 105 0028 1846     		mov	r0, r3
 106 002a 6360     		str	r3, [r4, #4]
 107 002c A360     		str	r3, [r4, #8]
 108 002e E360     		str	r3, [r4, #12]
 109 0030 D663     		str	r6, [r2, #60]
 110 0032 1164     		str	r1, [r2, #64]
 111 0034 7560     		str	r5, [r6, #4]
 112 0036 9362     		str	r3, [r2, #40]
 113 0038 D362     		str	r3, [r2, #44]
 114 003a 1363     		str	r3, [r2, #48]
 115 003c 5363     		str	r3, [r2, #52]
 116 003e 9363     		str	r3, [r2, #56]
 117 0040 82F82130 		strb	r3, [r2, #33]
ARM GAS  /tmp/ccKP516h.s 			page 3


 118 0044 82F82030 		strb	r3, [r2, #32]
 119 0048 70BC     		pop	{r4, r5, r6}
 120 004a 7047     		bx	lr
 121              	.L13:
 122 004c 0120     		movs	r0, #1
 123 004e 7047     		bx	lr
 124              	.L19:
 125              		.align	2
 126              	.L18:
 127 0050 F8FFFDBF 		.word	-1073872904
 128 0054 CDCCCCCC 		.word	-858993459
 129 0058 00000240 		.word	1073872896
 131              		.section	.text.HAL_DMA_Start,"ax",%progbits
 132              		.align	1
 133              		.p2align 2,,3
 134              		.global	HAL_DMA_Start
 135              		.syntax unified
 136              		.thumb
 137              		.thumb_func
 138              		.fpu softvfp
 140              	HAL_DMA_Start:
 141              		@ args = 0, pretend = 0, frame = 0
 142              		@ frame_needed = 0, uses_anonymous_args = 0
 143 0000 F0B5     		push	{r4, r5, r6, r7, lr}
 144 0002 90F82040 		ldrb	r4, [r0, #32]	@ zero_extendqisi2
 145 0006 012C     		cmp	r4, #1
 146 0008 0CD0     		beq	.L25
 147 000a 0125     		movs	r5, #1
 148 000c 90F82140 		ldrb	r4, [r0, #33]	@ zero_extendqisi2
 149 0010 80F82050 		strb	r5, [r0, #32]
 150 0014 AC42     		cmp	r4, r5
 151 0016 08D0     		beq	.L27
 152 0018 0022     		movs	r2, #0
 153 001a 0223     		movs	r3, #2
 154 001c 80F82020 		strb	r2, [r0, #32]
 155              	.L21:
 156 0020 1846     		mov	r0, r3
 157 0022 F0BD     		pop	{r4, r5, r6, r7, pc}
 158              	.L25:
 159 0024 0223     		movs	r3, #2
 160 0026 1846     		mov	r0, r3
 161 0028 F0BD     		pop	{r4, r5, r6, r7, pc}
 162              	.L27:
 163 002a 0026     		movs	r6, #0
 164 002c 4FF0020E 		mov	lr, #2
 165 0030 0568     		ldr	r5, [r0]
 166 0032 076C     		ldr	r7, [r0, #64]
 167 0034 8663     		str	r6, [r0, #56]
 168 0036 2E68     		ldr	r6, [r5]
 169 0038 BC40     		lsls	r4, r4, r7
 170 003a 80F821E0 		strb	lr, [r0, #33]
 171 003e C76B     		ldr	r7, [r0, #60]
 172 0040 4068     		ldr	r0, [r0, #4]
 173 0042 26F00106 		bic	r6, r6, #1
 174 0046 1028     		cmp	r0, #16
 175 0048 2E60     		str	r6, [r5]
 176 004a 7C60     		str	r4, [r7, #4]
ARM GAS  /tmp/ccKP516h.s 			page 4


 177 004c 6B60     		str	r3, [r5, #4]
 178 004e 0BBF     		itete	eq
 179 0050 AA60     		streq	r2, [r5, #8]
 180 0052 A960     		strne	r1, [r5, #8]
 181 0054 E960     		streq	r1, [r5, #12]
 182 0056 EA60     		strne	r2, [r5, #12]
 183 0058 2A68     		ldr	r2, [r5]
 184 005a 0023     		movs	r3, #0
 185 005c 42F00102 		orr	r2, r2, #1
 186 0060 2A60     		str	r2, [r5]
 187 0062 DDE7     		b	.L21
 189              		.section	.text.HAL_DMA_Start_IT,"ax",%progbits
 190              		.align	1
 191              		.p2align 2,,3
 192              		.global	HAL_DMA_Start_IT
 193              		.syntax unified
 194              		.thumb
 195              		.thumb_func
 196              		.fpu softvfp
 198              	HAL_DMA_Start_IT:
 199              		@ args = 0, pretend = 0, frame = 0
 200              		@ frame_needed = 0, uses_anonymous_args = 0
 201 0000 F0B5     		push	{r4, r5, r6, r7, lr}
 202 0002 90F82040 		ldrb	r4, [r0, #32]	@ zero_extendqisi2
 203 0006 012C     		cmp	r4, #1
 204 0008 0CD0     		beq	.L35
 205 000a 0125     		movs	r5, #1
 206 000c 90F82140 		ldrb	r4, [r0, #33]	@ zero_extendqisi2
 207 0010 80F82050 		strb	r5, [r0, #32]
 208 0014 AC42     		cmp	r4, r5
 209 0016 08D0     		beq	.L37
 210 0018 0022     		movs	r2, #0
 211 001a 0223     		movs	r3, #2
 212 001c 80F82020 		strb	r2, [r0, #32]
 213              	.L29:
 214 0020 1846     		mov	r0, r3
 215 0022 F0BD     		pop	{r4, r5, r6, r7, pc}
 216              	.L35:
 217 0024 0223     		movs	r3, #2
 218 0026 1846     		mov	r0, r3
 219 0028 F0BD     		pop	{r4, r5, r6, r7, pc}
 220              	.L37:
 221 002a 0026     		movs	r6, #0
 222 002c 4FF0020C 		mov	ip, #2
 223 0030 0568     		ldr	r5, [r0]
 224 0032 8663     		str	r6, [r0, #56]
 225 0034 2E68     		ldr	r6, [r5]
 226 0036 076C     		ldr	r7, [r0, #64]
 227 0038 D0F83CE0 		ldr	lr, [r0, #60]
 228 003c BC40     		lsls	r4, r4, r7
 229 003e 26F00106 		bic	r6, r6, #1
 230 0042 4768     		ldr	r7, [r0, #4]
 231 0044 80F821C0 		strb	ip, [r0, #33]
 232 0048 2E60     		str	r6, [r5]
 233 004a CEF80440 		str	r4, [lr, #4]
 234 004e 6B60     		str	r3, [r5, #4]
 235 0050 C36A     		ldr	r3, [r0, #44]
ARM GAS  /tmp/ccKP516h.s 			page 5


 236 0052 102F     		cmp	r7, #16
 237 0054 0BBF     		itete	eq
 238 0056 AA60     		streq	r2, [r5, #8]
 239 0058 A960     		strne	r1, [r5, #8]
 240 005a E960     		streq	r1, [r5, #12]
 241 005c EA60     		strne	r2, [r5, #12]
 242 005e 4BB1     		cbz	r3, .L33
 243 0060 2B68     		ldr	r3, [r5]
 244 0062 43F00E03 		orr	r3, r3, #14
 245 0066 2B60     		str	r3, [r5]
 246              	.L34:
 247 0068 2A68     		ldr	r2, [r5]
 248 006a 0023     		movs	r3, #0
 249 006c 42F00102 		orr	r2, r2, #1
 250 0070 2A60     		str	r2, [r5]
 251 0072 D5E7     		b	.L29
 252              	.L33:
 253 0074 2B68     		ldr	r3, [r5]
 254 0076 23F00403 		bic	r3, r3, #4
 255 007a 2B60     		str	r3, [r5]
 256 007c 2B68     		ldr	r3, [r5]
 257 007e 43F00A03 		orr	r3, r3, #10
 258 0082 2B60     		str	r3, [r5]
 259 0084 F0E7     		b	.L34
 261 0086 00BF     		.section	.text.HAL_DMA_Abort,"ax",%progbits
 262              		.align	1
 263              		.p2align 2,,3
 264              		.global	HAL_DMA_Abort
 265              		.syntax unified
 266              		.thumb
 267              		.thumb_func
 268              		.fpu softvfp
 270              	HAL_DMA_Abort:
 271              		@ args = 0, pretend = 0, frame = 0
 272              		@ frame_needed = 0, uses_anonymous_args = 0
 273              		@ link register save eliminated.
 274 0000 0346     		mov	r3, r0
 275 0002 70B4     		push	{r4, r5, r6}
 276 0004 0125     		movs	r5, #1
 277 0006 0024     		movs	r4, #0
 278 0008 0268     		ldr	r2, [r0]
 279 000a 016C     		ldr	r1, [r0, #64]
 280 000c 1068     		ldr	r0, [r2]
 281 000e DE6B     		ldr	r6, [r3, #60]
 282 0010 20F00E00 		bic	r0, r0, #14
 283 0014 1060     		str	r0, [r2]
 284 0016 1068     		ldr	r0, [r2]
 285 0018 05FA01F1 		lsl	r1, r5, r1
 286 001c 20F00100 		bic	r0, r0, #1
 287 0020 1060     		str	r0, [r2]
 288 0022 7160     		str	r1, [r6, #4]
 289 0024 2046     		mov	r0, r4
 290 0026 83F82150 		strb	r5, [r3, #33]
 291 002a 83F82040 		strb	r4, [r3, #32]
 292 002e 70BC     		pop	{r4, r5, r6}
 293 0030 7047     		bx	lr
 295 0032 00BF     		.section	.text.HAL_DMA_Abort_IT,"ax",%progbits
ARM GAS  /tmp/ccKP516h.s 			page 6


 296              		.align	1
 297              		.p2align 2,,3
 298              		.global	HAL_DMA_Abort_IT
 299              		.syntax unified
 300              		.thumb
 301              		.thumb_func
 302              		.fpu softvfp
 304              	HAL_DMA_Abort_IT:
 305              		@ args = 0, pretend = 0, frame = 0
 306              		@ frame_needed = 0, uses_anonymous_args = 0
 307 0000 38B5     		push	{r3, r4, r5, lr}
 308 0002 90F82130 		ldrb	r3, [r0, #33]	@ zero_extendqisi2
 309 0006 022B     		cmp	r3, #2
 310 0008 04D0     		beq	.L41
 311 000a 0422     		movs	r2, #4
 312 000c 0124     		movs	r4, #1
 313 000e 8263     		str	r2, [r0, #56]
 314              	.L42:
 315 0010 2046     		mov	r0, r4
 316 0012 38BD     		pop	{r3, r4, r5, pc}
 317              	.L41:
 318 0014 0368     		ldr	r3, [r0]
 319 0016 1D49     		ldr	r1, .L52
 320 0018 1A68     		ldr	r2, [r3]
 321 001a 8B42     		cmp	r3, r1
 322 001c 22F00E02 		bic	r2, r2, #14
 323 0020 1A60     		str	r2, [r3]
 324 0022 1A68     		ldr	r2, [r3]
 325 0024 22F00102 		bic	r2, r2, #1
 326 0028 1A60     		str	r2, [r3]
 327 002a 21D0     		beq	.L44
 328 002c 184A     		ldr	r2, .L52+4
 329 002e 9342     		cmp	r3, r2
 330 0030 1CD0     		beq	.L45
 331 0032 1432     		adds	r2, r2, #20
 332 0034 9342     		cmp	r3, r2
 333 0036 1FD0     		beq	.L46
 334 0038 1432     		adds	r2, r2, #20
 335 003a 9342     		cmp	r3, r2
 336 003c 1FD0     		beq	.L47
 337 003e 1432     		adds	r2, r2, #20
 338 0040 9342     		cmp	r3, r2
 339 0042 1FD0     		beq	.L48
 340 0044 1432     		adds	r2, r2, #20
 341 0046 9342     		cmp	r3, r2
 342 0048 0CBF     		ite	eq
 343 004a 4FF48013 		moveq	r3, #1048576
 344 004e 4FF08073 		movne	r3, #16777216
 345              	.L43:
 346 0052 0121     		movs	r1, #1
 347 0054 0024     		movs	r4, #0
 348 0056 0F4D     		ldr	r5, .L52+8
 349 0058 426B     		ldr	r2, [r0, #52]
 350 005a 6B60     		str	r3, [r5, #4]
 351 005c 80F82110 		strb	r1, [r0, #33]
 352 0060 80F82040 		strb	r4, [r0, #32]
 353 0064 32B1     		cbz	r2, .L50
ARM GAS  /tmp/ccKP516h.s 			page 7


 354 0066 9047     		blx	r2
 355 0068 2046     		mov	r0, r4
 356 006a 38BD     		pop	{r3, r4, r5, pc}
 357              	.L45:
 358 006c 1023     		movs	r3, #16
 359 006e F0E7     		b	.L43
 360              	.L44:
 361 0070 0123     		movs	r3, #1
 362 0072 EEE7     		b	.L43
 363              	.L50:
 364 0074 1446     		mov	r4, r2
 365 0076 CBE7     		b	.L42
 366              	.L46:
 367 0078 4FF48073 		mov	r3, #256
 368 007c E9E7     		b	.L43
 369              	.L47:
 370 007e 4FF48053 		mov	r3, #4096
 371 0082 E6E7     		b	.L43
 372              	.L48:
 373 0084 4FF48033 		mov	r3, #65536
 374 0088 E3E7     		b	.L43
 375              	.L53:
 376 008a 00BF     		.align	2
 377              	.L52:
 378 008c 08000240 		.word	1073872904
 379 0090 1C000240 		.word	1073872924
 380 0094 00000240 		.word	1073872896
 382              		.section	.text.HAL_DMA_PollForTransfer,"ax",%progbits
 383              		.align	1
 384              		.p2align 2,,3
 385              		.global	HAL_DMA_PollForTransfer
 386              		.syntax unified
 387              		.thumb
 388              		.thumb_func
 389              		.fpu softvfp
 391              	HAL_DMA_PollForTransfer:
 392              		@ args = 0, pretend = 0, frame = 8
 393              		@ frame_needed = 0, uses_anonymous_args = 0
 394 0000 2DE9F04F 		push	{r4, r5, r6, r7, r8, r9, r10, fp, lr}
 395 0004 90F82150 		ldrb	r5, [r0, #33]	@ zero_extendqisi2
 396 0008 83B0     		sub	sp, sp, #12
 397 000a 022D     		cmp	r5, #2
 398 000c 0646     		mov	r6, r0
 399 000e 08D0     		beq	.L55
 400 0010 0422     		movs	r2, #4
 401 0012 0023     		movs	r3, #0
 402 0014 8263     		str	r2, [r0, #56]
 403 0016 80F82030 		strb	r3, [r0, #32]
 404 001a 0120     		movs	r0, #1
 405              	.L56:
 406 001c 03B0     		add	sp, sp, #12
 407              		@ sp needed
 408 001e BDE8F08F 		pop	{r4, r5, r6, r7, r8, r9, r10, fp, pc}
 409              	.L55:
 410 0022 0368     		ldr	r3, [r0]
 411 0024 1868     		ldr	r0, [r3]
 412 0026 8006     		lsls	r0, r0, #26
ARM GAS  /tmp/ccKP516h.s 			page 8


 413 0028 7FD4     		bmi	.L104
 414 002a 8448     		ldr	r0, .L109
 415 002c 0029     		cmp	r1, #0
 416 002e 58D1     		bne	.L58
 417 0030 8342     		cmp	r3, r0
 418 0032 16D0     		beq	.L59
 419 0034 1430     		adds	r0, r0, #20
 420 0036 8342     		cmp	r3, r0
 421 0038 00F0D980 		beq	.L72
 422 003c 1430     		adds	r0, r0, #20
 423 003e 8342     		cmp	r3, r0
 424 0040 00F0CC80 		beq	.L73
 425 0044 1430     		adds	r0, r0, #20
 426 0046 8342     		cmp	r3, r0
 427 0048 00F0D580 		beq	.L74
 428 004c 1430     		adds	r0, r0, #20
 429 004e 8342     		cmp	r3, r0
 430 0050 00F0DB80 		beq	.L75
 431 0054 7A4D     		ldr	r5, .L109+4
 432 0056 AB42     		cmp	r3, r5
 433 0058 14BF     		ite	ne
 434 005a 4FF00075 		movne	r5, #33554432
 435 005e 4FF40015 		moveq	r5, #2097152
 436              	.L59:
 437 0062 1746     		mov	r7, r2
 438 0064 0191     		str	r1, [sp, #4]
 439 0066 FFF7FEFF 		bl	HAL_GetTick
 440 006a 0446     		mov	r4, r0
 441 006c DFF8CC81 		ldr	r8, .L109
 442 0070 DFF8D491 		ldr	r9, .L109+12
 443 0074 DFF8D4A1 		ldr	r10, .L109+16
 444 0078 DFF8D4B1 		ldr	fp, .L109+20
 445              	.L60:
 446 007c 3368     		ldr	r3, [r6]
 447 007e 7149     		ldr	r1, .L109+8
 448 0080 DFF8D0E1 		ldr	lr, .L109+24
 449 0084 DFF8B8C1 		ldr	ip, .L109+4
 450 0088 11E0     		b	.L63
 451              	.L108:
 452 008a 4B45     		cmp	r3, r9
 453 008c 42D0     		beq	.L84
 454 008e 5345     		cmp	r3, r10
 455 0090 42D0     		beq	.L85
 456 0092 5B45     		cmp	r3, fp
 457 0094 43D0     		beq	.L86
 458 0096 7345     		cmp	r3, lr
 459 0098 44D0     		beq	.L87
 460 009a 6345     		cmp	r3, ip
 461 009c 14BF     		ite	ne
 462 009e 4FF00060 		movne	r0, #134217728
 463 00a2 4FF40000 		moveq	r0, #8388608
 464              	.L61:
 465 00a6 1042     		tst	r0, r2
 466 00a8 0AD1     		bne	.L105
 467              	.L62:
 468 00aa 7A1C     		adds	r2, r7, #1
 469 00ac 62D1     		bne	.L106
ARM GAS  /tmp/ccKP516h.s 			page 9


 470              	.L63:
 471 00ae 0A68     		ldr	r2, [r1]
 472 00b0 1542     		tst	r5, r2
 473 00b2 41D1     		bne	.L107
 474 00b4 4345     		cmp	r3, r8
 475 00b6 0A68     		ldr	r2, [r1]
 476 00b8 E7D1     		bne	.L108
 477 00ba 0820     		movs	r0, #8
 478 00bc 1042     		tst	r0, r2
 479 00be F4D0     		beq	.L62
 480              	.L105:
 481 00c0 0120     		movs	r0, #1
 482 00c2 0022     		movs	r2, #0
 483 00c4 336C     		ldr	r3, [r6, #64]
 484 00c6 F16B     		ldr	r1, [r6, #60]
 485 00c8 00FA03F3 		lsl	r3, r0, r3
 486 00cc 4B60     		str	r3, [r1, #4]
 487 00ce B36B     		ldr	r3, [r6, #56]
 488 00d0 86F82100 		strb	r0, [r6, #33]
 489 00d4 0343     		orrs	r3, r3, r0
 490 00d6 B363     		str	r3, [r6, #56]
 491 00d8 86F82020 		strb	r2, [r6, #32]
 492 00dc 03B0     		add	sp, sp, #12
 493              		@ sp needed
 494 00de BDE8F08F 		pop	{r4, r5, r6, r7, r8, r9, r10, fp, pc}
 495              	.L58:
 496 00e2 8342     		cmp	r3, r0
 497 00e4 00F08180 		beq	.L77
 498 00e8 1430     		adds	r0, r0, #20
 499 00ea 8342     		cmp	r3, r0
 500 00ec 00F08180 		beq	.L78
 501 00f0 1430     		adds	r0, r0, #20
 502 00f2 8342     		cmp	r3, r0
 503 00f4 6FD0     		beq	.L79
 504 00f6 1430     		adds	r0, r0, #20
 505 00f8 8342     		cmp	r3, r0
 506 00fa 7FD0     		beq	.L80
 507 00fc 1430     		adds	r0, r0, #20
 508 00fe 8342     		cmp	r3, r0
 509 0100 00F08680 		beq	.L81
 510 0104 4E4D     		ldr	r5, .L109+4
 511 0106 AB42     		cmp	r3, r5
 512 0108 14BF     		ite	ne
 513 010a 4FF08065 		movne	r5, #67108864
 514 010e 4FF48005 		moveq	r5, #4194304
 515 0112 A6E7     		b	.L59
 516              	.L84:
 517 0114 8020     		movs	r0, #128
 518 0116 C6E7     		b	.L61
 519              	.L85:
 520 0118 4FF40060 		mov	r0, #2048
 521 011c C3E7     		b	.L61
 522              	.L86:
 523 011e 4FF40040 		mov	r0, #32768
 524 0122 C0E7     		b	.L61
 525              	.L87:
 526 0124 4FF40020 		mov	r0, #524288
ARM GAS  /tmp/ccKP516h.s 			page 10


 527 0128 BDE7     		b	.L61
 528              	.L104:
 529 012a 4FF48073 		mov	r3, #256
 530 012e 0120     		movs	r0, #1
 531 0130 B363     		str	r3, [r6, #56]
 532 0132 03B0     		add	sp, sp, #12
 533              		@ sp needed
 534 0134 BDE8F08F 		pop	{r4, r5, r6, r7, r8, r9, r10, fp, pc}
 535              	.L107:
 536 0138 019A     		ldr	r2, [sp, #4]
 537 013a 6ABB     		cbnz	r2, .L67
 538 013c 3F4A     		ldr	r2, .L109
 539 013e 9342     		cmp	r3, r2
 540 0140 51D0     		beq	.L89
 541 0142 1432     		adds	r2, r2, #20
 542 0144 9342     		cmp	r3, r2
 543 0146 5CD0     		beq	.L90
 544 0148 1432     		adds	r2, r2, #20
 545 014a 9342     		cmp	r3, r2
 546 014c 63D0     		beq	.L91
 547 014e 1432     		adds	r2, r2, #20
 548 0150 9342     		cmp	r3, r2
 549 0152 66D0     		beq	.L92
 550 0154 1432     		adds	r2, r2, #20
 551 0156 9342     		cmp	r3, r2
 552 0158 69D0     		beq	.L93
 553 015a 1432     		adds	r2, r2, #20
 554 015c 9342     		cmp	r3, r2
 555 015e 14BF     		ite	ne
 556 0160 4FF00073 		movne	r3, #33554432
 557 0164 4FF40013 		moveq	r3, #2097152
 558              	.L68:
 559 0168 0122     		movs	r2, #1
 560 016a 3649     		ldr	r1, .L109+8
 561 016c 4B60     		str	r3, [r1, #4]
 562 016e 86F82120 		strb	r2, [r6, #33]
 563 0172 29E0     		b	.L69
 564              	.L106:
 565 0174 2FB1     		cbz	r7, .L65
 566 0176 FFF7FEFF 		bl	HAL_GetTick
 567 017a 001B     		subs	r0, r0, r4
 568 017c 8742     		cmp	r7, r0
 569 017e BFF47DAF 		bcs	.L60
 570              	.L65:
 571 0182 0120     		movs	r0, #1
 572 0184 0022     		movs	r2, #0
 573 0186 B36B     		ldr	r3, [r6, #56]
 574 0188 86F82100 		strb	r0, [r6, #33]
 575 018c 43F02003 		orr	r3, r3, #32
 576 0190 B363     		str	r3, [r6, #56]
 577 0192 86F82020 		strb	r2, [r6, #32]
 578 0196 41E7     		b	.L56
 579              	.L67:
 580 0198 284A     		ldr	r2, .L109
 581 019a 9342     		cmp	r3, r2
 582 019c 21D0     		beq	.L95
 583 019e 1432     		adds	r2, r2, #20
ARM GAS  /tmp/ccKP516h.s 			page 11


 584 01a0 9342     		cmp	r3, r2
 585 01a2 30D0     		beq	.L96
 586 01a4 1432     		adds	r2, r2, #20
 587 01a6 9342     		cmp	r3, r2
 588 01a8 38D0     		beq	.L97
 589 01aa 1432     		adds	r2, r2, #20
 590 01ac 9342     		cmp	r3, r2
 591 01ae 3BD0     		beq	.L98
 592 01b0 1432     		adds	r2, r2, #20
 593 01b2 9342     		cmp	r3, r2
 594 01b4 3ED0     		beq	.L99
 595 01b6 1432     		adds	r2, r2, #20
 596 01b8 9342     		cmp	r3, r2
 597 01ba 14BF     		ite	ne
 598 01bc 4FF08063 		movne	r3, #67108864
 599 01c0 4FF48003 		moveq	r3, #4194304
 600              	.L70:
 601 01c4 1F4A     		ldr	r2, .L109+8
 602 01c6 5360     		str	r3, [r2, #4]
 603              	.L69:
 604 01c8 0023     		movs	r3, #0
 605 01ca 1846     		mov	r0, r3
 606 01cc 86F82030 		strb	r3, [r6, #32]
 607 01d0 03B0     		add	sp, sp, #12
 608              		@ sp needed
 609 01d2 BDE8F08F 		pop	{r4, r5, r6, r7, r8, r9, r10, fp, pc}
 610              	.L79:
 611 01d6 4FF48065 		mov	r5, #1024
 612 01da 42E7     		b	.L59
 613              	.L73:
 614 01dc 4FF40075 		mov	r5, #512
 615 01e0 3FE7     		b	.L59
 616              	.L95:
 617 01e2 0423     		movs	r3, #4
 618 01e4 EEE7     		b	.L70
 619              	.L89:
 620 01e6 0223     		movs	r3, #2
 621 01e8 BEE7     		b	.L68
 622              	.L77:
 623 01ea 0425     		movs	r5, #4
 624 01ec 39E7     		b	.L59
 625              	.L72:
 626 01ee 2025     		movs	r5, #32
 627 01f0 37E7     		b	.L59
 628              	.L78:
 629 01f2 4025     		movs	r5, #64
 630 01f4 35E7     		b	.L59
 631              	.L74:
 632 01f6 4FF40055 		mov	r5, #8192
 633 01fa 32E7     		b	.L59
 634              	.L80:
 635 01fc 4FF48045 		mov	r5, #16384
 636 0200 2FE7     		b	.L59
 637              	.L90:
 638 0202 2023     		movs	r3, #32
 639 0204 B0E7     		b	.L68
 640              	.L96:
ARM GAS  /tmp/ccKP516h.s 			page 12


 641 0206 4023     		movs	r3, #64
 642 0208 DCE7     		b	.L70
 643              	.L75:
 644 020a 4FF40035 		mov	r5, #131072
 645 020e 28E7     		b	.L59
 646              	.L81:
 647 0210 4FF48025 		mov	r5, #262144
 648 0214 25E7     		b	.L59
 649              	.L91:
 650 0216 4FF40073 		mov	r3, #512
 651 021a A5E7     		b	.L68
 652              	.L97:
 653 021c 4FF48063 		mov	r3, #1024
 654 0220 D0E7     		b	.L70
 655              	.L92:
 656 0222 4FF40053 		mov	r3, #8192
 657 0226 9FE7     		b	.L68
 658              	.L98:
 659 0228 4FF48043 		mov	r3, #16384
 660 022c CAE7     		b	.L70
 661              	.L93:
 662 022e 4FF40033 		mov	r3, #131072
 663 0232 99E7     		b	.L68
 664              	.L99:
 665 0234 4FF48023 		mov	r3, #262144
 666 0238 C4E7     		b	.L70
 667              	.L110:
 668 023a 00BF     		.align	2
 669              	.L109:
 670 023c 08000240 		.word	1073872904
 671 0240 6C000240 		.word	1073873004
 672 0244 00000240 		.word	1073872896
 673 0248 1C000240 		.word	1073872924
 674 024c 30000240 		.word	1073872944
 675 0250 44000240 		.word	1073872964
 676 0254 58000240 		.word	1073872984
 678              		.section	.text.HAL_DMA_IRQHandler,"ax",%progbits
 679              		.align	1
 680              		.p2align 2,,3
 681              		.global	HAL_DMA_IRQHandler
 682              		.syntax unified
 683              		.thumb
 684              		.thumb_func
 685              		.fpu softvfp
 687              	HAL_DMA_IRQHandler:
 688              		@ args = 0, pretend = 0, frame = 0
 689              		@ frame_needed = 0, uses_anonymous_args = 0
 690              		@ link register save eliminated.
 691 0000 0422     		movs	r2, #4
 692 0002 F0B4     		push	{r4, r5, r6, r7}
 693 0004 C66B     		ldr	r6, [r0, #60]
 694 0006 016C     		ldr	r1, [r0, #64]
 695 0008 3468     		ldr	r4, [r6]
 696 000a 0368     		ldr	r3, [r0]
 697 000c 8A40     		lsls	r2, r2, r1
 698 000e 2242     		tst	r2, r4
 699 0010 1D68     		ldr	r5, [r3]
ARM GAS  /tmp/ccKP516h.s 			page 13


 700 0012 1FD0     		beq	.L112
 701 0014 6F07     		lsls	r7, r5, #29
 702 0016 1DD5     		bpl	.L112
 703 0018 1A68     		ldr	r2, [r3]
 704 001a 9206     		lsls	r2, r2, #26
 705 001c 03D4     		bmi	.L113
 706 001e 1A68     		ldr	r2, [r3]
 707 0020 22F00402 		bic	r2, r2, #4
 708 0024 1A60     		str	r2, [r3]
 709              	.L113:
 710 0026 3F4A     		ldr	r2, .L159
 711 0028 9342     		cmp	r3, r2
 712 002a 5DD0     		beq	.L121
 713 002c 1432     		adds	r2, r2, #20
 714 002e 9342     		cmp	r3, r2
 715 0030 62D0     		beq	.L122
 716 0032 1432     		adds	r2, r2, #20
 717 0034 9342     		cmp	r3, r2
 718 0036 69D0     		beq	.L123
 719 0038 1432     		adds	r2, r2, #20
 720 003a 9342     		cmp	r3, r2
 721 003c 6CD0     		beq	.L124
 722 003e 1432     		adds	r2, r2, #20
 723 0040 9342     		cmp	r3, r2
 724 0042 5BD0     		beq	.L125
 725 0044 1432     		adds	r2, r2, #20
 726 0046 9342     		cmp	r3, r2
 727 0048 0CBF     		ite	eq
 728 004a 4FF48003 		moveq	r3, #4194304
 729 004e 4FF08063 		movne	r3, #67108864
 730 0052 4AE0     		b	.L114
 731              	.L112:
 732 0054 0222     		movs	r2, #2
 733 0056 8A40     		lsls	r2, r2, r1
 734 0058 2242     		tst	r2, r4
 735 005a 22D0     		beq	.L117
 736 005c AF07     		lsls	r7, r5, #30
 737 005e 20D5     		bpl	.L117
 738 0060 1A68     		ldr	r2, [r3]
 739 0062 9106     		lsls	r1, r2, #26
 740 0064 06D4     		bmi	.L118
 741 0066 0121     		movs	r1, #1
 742 0068 1A68     		ldr	r2, [r3]
 743 006a 22F00A02 		bic	r2, r2, #10
 744 006e 1A60     		str	r2, [r3]
 745 0070 80F82110 		strb	r1, [r0, #33]
 746              	.L118:
 747 0074 2B4A     		ldr	r2, .L159
 748 0076 9342     		cmp	r3, r2
 749 0078 2CD0     		beq	.L127
 750 007a 1432     		adds	r2, r2, #20
 751 007c 9342     		cmp	r3, r2
 752 007e 43D0     		beq	.L128
 753 0080 1432     		adds	r2, r2, #20
 754 0082 9342     		cmp	r3, r2
 755 0084 45D0     		beq	.L129
 756 0086 1432     		adds	r2, r2, #20
ARM GAS  /tmp/ccKP516h.s 			page 14


 757 0088 9342     		cmp	r3, r2
 758 008a 48D0     		beq	.L130
 759 008c 1432     		adds	r2, r2, #20
 760 008e 9342     		cmp	r3, r2
 761 0090 37D0     		beq	.L131
 762 0092 1432     		adds	r2, r2, #20
 763 0094 9342     		cmp	r3, r2
 764 0096 0CBF     		ite	eq
 765 0098 4FF40013 		moveq	r3, #2097152
 766 009c 4FF00073 		movne	r3, #33554432
 767 00a0 19E0     		b	.L119
 768              	.L117:
 769 00a2 0822     		movs	r2, #8
 770 00a4 8A40     		lsls	r2, r2, r1
 771 00a6 2242     		tst	r2, r4
 772 00a8 1CD0     		beq	.L111
 773 00aa 2A07     		lsls	r2, r5, #28
 774 00ac 1AD5     		bpl	.L111
 775 00ae 0122     		movs	r2, #1
 776 00b0 0027     		movs	r7, #0
 777 00b2 1C68     		ldr	r4, [r3]
 778 00b4 056B     		ldr	r5, [r0, #48]
 779 00b6 24F00E04 		bic	r4, r4, #14
 780 00ba 02FA01F1 		lsl	r1, r2, r1
 781 00be 1C60     		str	r4, [r3]
 782 00c0 7160     		str	r1, [r6, #4]
 783 00c2 8263     		str	r2, [r0, #56]
 784 00c4 80F82120 		strb	r2, [r0, #33]
 785 00c8 80F82070 		strb	r7, [r0, #32]
 786 00cc 55B1     		cbz	r5, .L111
 787 00ce 2B46     		mov	r3, r5
 788 00d0 F0BC     		pop	{r4, r5, r6, r7}
 789 00d2 1847     		bx	r3	@ indirect register sibling call
 790              	.L127:
 791 00d4 0223     		movs	r3, #2
 792              	.L119:
 793 00d6 0021     		movs	r1, #0
 794 00d8 134C     		ldr	r4, .L159+4
 795 00da 826A     		ldr	r2, [r0, #40]
 796 00dc 6360     		str	r3, [r4, #4]
 797 00de 80F82010 		strb	r1, [r0, #32]
 798 00e2 3AB9     		cbnz	r2, .L158
 799              	.L111:
 800 00e4 F0BC     		pop	{r4, r5, r6, r7}
 801 00e6 7047     		bx	lr
 802              	.L121:
 803 00e8 0423     		movs	r3, #4
 804              	.L114:
 805 00ea 0F49     		ldr	r1, .L159+4
 806 00ec C26A     		ldr	r2, [r0, #44]
 807 00ee 4B60     		str	r3, [r1, #4]
 808 00f0 002A     		cmp	r2, #0
 809 00f2 F7D0     		beq	.L111
 810              	.L158:
 811 00f4 F0BC     		pop	{r4, r5, r6, r7}
 812 00f6 1047     		bx	r2	@ indirect register sibling call
 813              	.L122:
ARM GAS  /tmp/ccKP516h.s 			page 15


 814 00f8 4023     		movs	r3, #64
 815 00fa F6E7     		b	.L114
 816              	.L125:
 817 00fc 4FF48023 		mov	r3, #262144
 818 0100 F3E7     		b	.L114
 819              	.L131:
 820 0102 4FF40033 		mov	r3, #131072
 821 0106 E6E7     		b	.L119
 822              	.L128:
 823 0108 2023     		movs	r3, #32
 824 010a E4E7     		b	.L119
 825              	.L123:
 826 010c 4FF48063 		mov	r3, #1024
 827 0110 EBE7     		b	.L114
 828              	.L129:
 829 0112 4FF40073 		mov	r3, #512
 830 0116 DEE7     		b	.L119
 831              	.L124:
 832 0118 4FF48043 		mov	r3, #16384
 833 011c E5E7     		b	.L114
 834              	.L130:
 835 011e 4FF40053 		mov	r3, #8192
 836 0122 D8E7     		b	.L119
 837              	.L160:
 838              		.align	2
 839              	.L159:
 840 0124 08000240 		.word	1073872904
 841 0128 00000240 		.word	1073872896
 843              		.section	.text.HAL_DMA_RegisterCallback,"ax",%progbits
 844              		.align	1
 845              		.p2align 2,,3
 846              		.global	HAL_DMA_RegisterCallback
 847              		.syntax unified
 848              		.thumb
 849              		.thumb_func
 850              		.fpu softvfp
 852              	HAL_DMA_RegisterCallback:
 853              		@ args = 0, pretend = 0, frame = 0
 854              		@ frame_needed = 0, uses_anonymous_args = 0
 855              		@ link register save eliminated.
 856 0000 0346     		mov	r3, r0
 857 0002 90F82000 		ldrb	r0, [r0, #32]	@ zero_extendqisi2
 858 0006 0128     		cmp	r0, #1
 859 0008 0CD0     		beq	.L169
 860 000a 0120     		movs	r0, #1
 861 000c 10B4     		push	{r4}
 862 000e 93F82140 		ldrb	r4, [r3, #33]	@ zero_extendqisi2
 863 0012 83F82000 		strb	r0, [r3, #32]
 864 0016 8442     		cmp	r4, r0
 865 0018 06D0     		beq	.L176
 866              	.L163:
 867 001a 0022     		movs	r2, #0
 868 001c 10BC     		pop	{r4}
 869 001e 83F82020 		strb	r2, [r3, #32]
 870 0022 7047     		bx	lr
 871              	.L169:
 872 0024 0220     		movs	r0, #2
ARM GAS  /tmp/ccKP516h.s 			page 16


 873 0026 7047     		bx	lr
 874              	.L176:
 875 0028 0329     		cmp	r1, #3
 876 002a 0FD8     		bhi	.L171
 877 002c DFE801F0 		tbb	[pc, r1]
 878              	.L165:
 879 0030 0B       		.byte	(.L164-.L165)/2
 880 0031 08       		.byte	(.L166-.L165)/2
 881 0032 05       		.byte	(.L167-.L165)/2
 882 0033 02       		.byte	(.L168-.L165)/2
 883              		.p2align 1
 884              	.L168:
 885 0034 5A63     		str	r2, [r3, #52]
 886 0036 0020     		movs	r0, #0
 887 0038 EFE7     		b	.L163
 888              	.L167:
 889 003a 1A63     		str	r2, [r3, #48]
 890 003c 0020     		movs	r0, #0
 891 003e ECE7     		b	.L163
 892              	.L166:
 893 0040 DA62     		str	r2, [r3, #44]
 894 0042 0020     		movs	r0, #0
 895 0044 E9E7     		b	.L163
 896              	.L164:
 897 0046 9A62     		str	r2, [r3, #40]
 898 0048 0020     		movs	r0, #0
 899 004a E6E7     		b	.L163
 900              	.L171:
 901 004c 0120     		movs	r0, #1
 902 004e E4E7     		b	.L163
 904              		.section	.text.HAL_DMA_UnRegisterCallback,"ax",%progbits
 905              		.align	1
 906              		.p2align 2,,3
 907              		.global	HAL_DMA_UnRegisterCallback
 908              		.syntax unified
 909              		.thumb
 910              		.thumb_func
 911              		.fpu softvfp
 913              	HAL_DMA_UnRegisterCallback:
 914              		@ args = 0, pretend = 0, frame = 0
 915              		@ frame_needed = 0, uses_anonymous_args = 0
 916              		@ link register save eliminated.
 917 0000 90F82030 		ldrb	r3, [r0, #32]	@ zero_extendqisi2
 918 0004 0246     		mov	r2, r0
 919 0006 012B     		cmp	r3, #1
 920 0008 0BD0     		beq	.L186
 921 000a 0123     		movs	r3, #1
 922 000c 90F82100 		ldrb	r0, [r0, #33]	@ zero_extendqisi2
 923 0010 82F82030 		strb	r3, [r2, #32]
 924 0014 9842     		cmp	r0, r3
 925 0016 06D0     		beq	.L189
 926              	.L188:
 927 0018 0120     		movs	r0, #1
 928              	.L179:
 929 001a 0023     		movs	r3, #0
 930 001c 82F82030 		strb	r3, [r2, #32]
 931 0020 7047     		bx	lr
ARM GAS  /tmp/ccKP516h.s 			page 17


 932              	.L186:
 933 0022 0220     		movs	r0, #2
 934 0024 7047     		bx	lr
 935              	.L189:
 936 0026 0429     		cmp	r1, #4
 937 0028 F6D8     		bhi	.L188
 938 002a DFE801F0 		tbb	[pc, r1]
 939              	.L181:
 940 002e 12       		.byte	(.L180-.L181)/2
 941 002f 0F       		.byte	(.L182-.L181)/2
 942 0030 0C       		.byte	(.L183-.L181)/2
 943 0031 09       		.byte	(.L184-.L181)/2
 944 0032 03       		.byte	(.L185-.L181)/2
 945 0033 00       		.p2align 1
 946              	.L185:
 947 0034 0020     		movs	r0, #0
 948 0036 9062     		str	r0, [r2, #40]
 949 0038 D062     		str	r0, [r2, #44]
 950 003a 1063     		str	r0, [r2, #48]
 951 003c 5063     		str	r0, [r2, #52]
 952 003e ECE7     		b	.L179
 953              	.L184:
 954 0040 0020     		movs	r0, #0
 955 0042 5063     		str	r0, [r2, #52]
 956 0044 E9E7     		b	.L179
 957              	.L183:
 958 0046 0020     		movs	r0, #0
 959 0048 1063     		str	r0, [r2, #48]
 960 004a E6E7     		b	.L179
 961              	.L182:
 962 004c 0020     		movs	r0, #0
 963 004e D062     		str	r0, [r2, #44]
 964 0050 E3E7     		b	.L179
 965              	.L180:
 966 0052 0020     		movs	r0, #0
 967 0054 9062     		str	r0, [r2, #40]
 968 0056 E0E7     		b	.L179
 970              		.section	.text.HAL_DMA_GetState,"ax",%progbits
 971              		.align	1
 972              		.p2align 2,,3
 973              		.global	HAL_DMA_GetState
 974              		.syntax unified
 975              		.thumb
 976              		.thumb_func
 977              		.fpu softvfp
 979              	HAL_DMA_GetState:
 980              		@ args = 0, pretend = 0, frame = 0
 981              		@ frame_needed = 0, uses_anonymous_args = 0
 982              		@ link register save eliminated.
 983 0000 90F82100 		ldrb	r0, [r0, #33]	@ zero_extendqisi2
 984 0004 7047     		bx	lr
 986 0006 00BF     		.section	.text.HAL_DMA_GetError,"ax",%progbits
 987              		.align	1
 988              		.p2align 2,,3
 989              		.global	HAL_DMA_GetError
 990              		.syntax unified
 991              		.thumb
ARM GAS  /tmp/ccKP516h.s 			page 18


 992              		.thumb_func
 993              		.fpu softvfp
 995              	HAL_DMA_GetError:
 996              		@ args = 0, pretend = 0, frame = 0
 997              		@ frame_needed = 0, uses_anonymous_args = 0
 998              		@ link register save eliminated.
 999 0000 806B     		ldr	r0, [r0, #56]
 1000 0002 7047     		bx	lr
 1002              		.ident	"GCC: (15:6.3.1+svn253039-1build1) 6.3.1 20170620"
ARM GAS  /tmp/ccKP516h.s 			page 19

