ARM GAS  /tmp/ccazbEny.s 			page 1


   1              		.cpu cortex-m3
   2              		.eabi_attribute 20, 1
   3              		.eabi_attribute 21, 1
   4              		.eabi_attribute 23, 3
   5              		.eabi_attribute 24, 1
   6              		.eabi_attribute 25, 1
   7              		.eabi_attribute 26, 1
   8              		.eabi_attribute 30, 2
   9              		.eabi_attribute 34, 1
  10              		.eabi_attribute 18, 4
  11              		.file	"stm32f1xx_hal_flash.c"
  12              		.section	.text.FLASH_SetErrorCode,"ax",%progbits
  13              		.align	1
  14              		.p2align 2,,3
  15              		.syntax unified
  16              		.thumb
  17              		.thumb_func
  18              		.fpu softvfp
  20              	FLASH_SetErrorCode:
  21              		@ args = 0, pretend = 0, frame = 0
  22              		@ frame_needed = 0, uses_anonymous_args = 0
  23              		@ link register save eliminated.
  24 0000 124B     		ldr	r3, .L13
  25 0002 DB68     		ldr	r3, [r3, #12]
  26 0004 13F01003 		ands	r3, r3, #16
  27 0008 05D0     		beq	.L2
  28 000a 1023     		movs	r3, #16
  29 000c 1049     		ldr	r1, .L13+4
  30 000e CA69     		ldr	r2, [r1, #28]
  31 0010 42F00202 		orr	r2, r2, #2
  32 0014 CA61     		str	r2, [r1, #28]
  33              	.L2:
  34 0016 0D4A     		ldr	r2, .L13
  35 0018 D268     		ldr	r2, [r2, #12]
  36 001a 5007     		lsls	r0, r2, #29
  37 001c 06D5     		bpl	.L3
  38 001e 0C49     		ldr	r1, .L13+4
  39 0020 43F00403 		orr	r3, r3, #4
  40 0024 CA69     		ldr	r2, [r1, #28]
  41 0026 42F00102 		orr	r2, r2, #1
  42 002a CA61     		str	r2, [r1, #28]
  43              	.L3:
  44 002c 074A     		ldr	r2, .L13
  45 002e D169     		ldr	r1, [r2, #28]
  46 0030 C907     		lsls	r1, r1, #31
  47 0032 08D5     		bpl	.L4
  48 0034 0648     		ldr	r0, .L13+4
  49 0036 C169     		ldr	r1, [r0, #28]
  50 0038 41F00401 		orr	r1, r1, #4
  51 003c C161     		str	r1, [r0, #28]
  52 003e D169     		ldr	r1, [r2, #28]
  53 0040 21F00101 		bic	r1, r1, #1
  54 0044 D161     		str	r1, [r2, #28]
  55              	.L4:
  56 0046 014A     		ldr	r2, .L13
  57 0048 D360     		str	r3, [r2, #12]
  58 004a 7047     		bx	lr
ARM GAS  /tmp/ccazbEny.s 			page 2


  59              	.L14:
  60              		.align	2
  61              	.L13:
  62 004c 00200240 		.word	1073881088
  63 0050 00000000 		.word	pFlash
  65              		.section	.text.HAL_FLASH_Program_IT,"ax",%progbits
  66              		.align	1
  67              		.p2align 2,,3
  68              		.global	HAL_FLASH_Program_IT
  69              		.syntax unified
  70              		.thumb
  71              		.thumb_func
  72              		.fpu softvfp
  74              	HAL_FLASH_Program_IT:
  75              		@ args = 0, pretend = 0, frame = 0
  76              		@ frame_needed = 0, uses_anonymous_args = 0
  77              		@ link register save eliminated.
  78 0000 70B4     		push	{r4, r5, r6}
  79 0002 144C     		ldr	r4, .L23
  80 0004 257E     		ldrb	r5, [r4, #24]	@ zero_extendqisi2
  81 0006 012D     		cmp	r5, #1
  82 0008 1DD0     		beq	.L20
  83 000a 0125     		movs	r5, #1
  84 000c 124E     		ldr	r6, .L23+4
  85 000e 2576     		strb	r5, [r4, #24]
  86 0010 3569     		ldr	r5, [r6, #16]
  87 0012 0128     		cmp	r0, #1
  88 0014 45F4A055 		orr	r5, r5, #5120
  89 0018 3561     		str	r5, [r6, #16]
  90 001a A160     		str	r1, [r4, #8]
  91 001c C4E90423 		strd	r2, [r4, #16]
  92 0020 14D0     		beq	.L22
  93 0022 0228     		cmp	r0, #2
  94 0024 0EBF     		itee	eq
  95 0026 0425     		moveq	r5, #4
  96 0028 0525     		movne	r5, #5
  97 002a 0420     		movne	r0, #4
  98 002c 2570     		strb	r5, [r4]
  99 002e 6060     		str	r0, [r4, #4]
 100              	.L18:
 101 0030 0020     		movs	r0, #0
 102 0032 094D     		ldr	r5, .L23+4
 103 0034 E061     		str	r0, [r4, #28]
 104 0036 2B69     		ldr	r3, [r5, #16]
 105 0038 92B2     		uxth	r2, r2
 106 003a 43F00103 		orr	r3, r3, #1
 107 003e 2B61     		str	r3, [r5, #16]
 108 0040 0A80     		strh	r2, [r1]	@ movhi
 109 0042 70BC     		pop	{r4, r5, r6}
 110 0044 7047     		bx	lr
 111              	.L20:
 112 0046 0220     		movs	r0, #2
 113 0048 70BC     		pop	{r4, r5, r6}
 114 004a 7047     		bx	lr
 115              	.L22:
 116 004c 0325     		movs	r5, #3
 117 004e 2570     		strb	r5, [r4]
ARM GAS  /tmp/ccazbEny.s 			page 3


 118 0050 6060     		str	r0, [r4, #4]
 119 0052 EDE7     		b	.L18
 120              	.L24:
 121              		.align	2
 122              	.L23:
 123 0054 00000000 		.word	pFlash
 124 0058 00200240 		.word	1073881088
 126              		.section	.text.HAL_FLASH_EndOfOperationCallback,"ax",%progbits
 127              		.align	1
 128              		.p2align 2,,3
 129              		.weak	HAL_FLASH_EndOfOperationCallback
 130              		.syntax unified
 131              		.thumb
 132              		.thumb_func
 133              		.fpu softvfp
 135              	HAL_FLASH_EndOfOperationCallback:
 136              		@ args = 0, pretend = 0, frame = 0
 137              		@ frame_needed = 0, uses_anonymous_args = 0
 138              		@ link register save eliminated.
 139 0000 7047     		bx	lr
 141 0002 00BF     		.section	.text.HAL_FLASH_OperationErrorCallback,"ax",%progbits
 142              		.align	1
 143              		.p2align 2,,3
 144              		.weak	HAL_FLASH_OperationErrorCallback
 145              		.syntax unified
 146              		.thumb
 147              		.thumb_func
 148              		.fpu softvfp
 150              	HAL_FLASH_OperationErrorCallback:
 151              		@ args = 0, pretend = 0, frame = 0
 152              		@ frame_needed = 0, uses_anonymous_args = 0
 153              		@ link register save eliminated.
 154 0000 7047     		bx	lr
 156 0002 00BF     		.section	.text.HAL_FLASH_IRQHandler,"ax",%progbits
 157              		.align	1
 158              		.p2align 2,,3
 159              		.global	HAL_FLASH_IRQHandler
 160              		.syntax unified
 161              		.thumb
 162              		.thumb_func
 163              		.fpu softvfp
 165              	HAL_FLASH_IRQHandler:
 166              		@ args = 0, pretend = 0, frame = 0
 167              		@ frame_needed = 0, uses_anonymous_args = 0
 168 0000 F8B5     		push	{r3, r4, r5, r6, r7, lr}
 169 0002 464B     		ldr	r3, .L52
 170 0004 DA68     		ldr	r2, [r3, #12]
 171 0006 D106     		lsls	r1, r2, #27
 172 0008 02D4     		bmi	.L28
 173 000a DB68     		ldr	r3, [r3, #12]
 174 000c 5A07     		lsls	r2, r3, #29
 175 000e 22D5     		bpl	.L47
 176              	.L28:
 177 0010 4FF0FF33 		mov	r3, #-1
 178 0014 424C     		ldr	r4, .L52+4
 179 0016 A568     		ldr	r5, [r4, #8]
 180 0018 A360     		str	r3, [r4, #8]
ARM GAS  /tmp/ccazbEny.s 			page 4


 181 001a FFF7FEFF 		bl	FLASH_SetErrorCode
 182 001e 2846     		mov	r0, r5
 183 0020 FFF7FEFF 		bl	HAL_FLASH_OperationErrorCallback
 184 0024 0023     		movs	r3, #0
 185 0026 2370     		strb	r3, [r4]
 186              	.L29:
 187 0028 3C4D     		ldr	r5, .L52
 188 002a EB68     		ldr	r3, [r5, #12]
 189 002c 9B06     		lsls	r3, r3, #26
 190 002e 03D5     		bpl	.L31
 191 0030 2023     		movs	r3, #32
 192 0032 EB60     		str	r3, [r5, #12]
 193 0034 2378     		ldrb	r3, [r4]	@ zero_extendqisi2
 194 0036 83B9     		cbnz	r3, .L48
 195              	.L31:
 196 0038 2378     		ldrb	r3, [r4]	@ zero_extendqisi2
 197 003a 03F0FF01 		and	r1, r3, #255
 198 003e 4BB9     		cbnz	r3, .L27
 199 0040 364B     		ldr	r3, .L52
 200 0042 1A69     		ldr	r2, [r3, #16]
 201 0044 22F00702 		bic	r2, r2, #7
 202 0048 1A61     		str	r2, [r3, #16]
 203 004a 1A69     		ldr	r2, [r3, #16]
 204 004c 22F4A052 		bic	r2, r2, #5120
 205 0050 1A61     		str	r2, [r3, #16]
 206 0052 2176     		strb	r1, [r4, #24]
 207              	.L27:
 208 0054 F8BD     		pop	{r3, r4, r5, r6, r7, pc}
 209              	.L47:
 210 0056 324C     		ldr	r4, .L52+4
 211 0058 E6E7     		b	.L29
 212              	.L48:
 213 005a 2378     		ldrb	r3, [r4]	@ zero_extendqisi2
 214 005c 012B     		cmp	r3, #1
 215 005e 23D0     		beq	.L49
 216 0060 2378     		ldrb	r3, [r4]	@ zero_extendqisi2
 217 0062 022B     		cmp	r3, #2
 218 0064 4CD0     		beq	.L50
 219 0066 6368     		ldr	r3, [r4, #4]
 220 0068 013B     		subs	r3, r3, #1
 221 006a 6360     		str	r3, [r4, #4]
 222 006c 6368     		ldr	r3, [r4, #4]
 223 006e 002B     		cmp	r3, #0
 224 0070 2DD0     		beq	.L36
 225 0072 0027     		movs	r7, #0
 226 0074 A168     		ldr	r1, [r4, #8]
 227 0076 0231     		adds	r1, r1, #2
 228 0078 A160     		str	r1, [r4, #8]
 229 007a A668     		ldr	r6, [r4, #8]
 230 007c D4E90401 		ldrd	r0, [r4, #16]
 231 0080 020C     		lsrs	r2, r0, #16
 232 0082 42EA0142 		orr	r2, r2, r1, lsl #16
 233 0086 0B0C     		lsrs	r3, r1, #16
 234 0088 C4E90423 		strd	r2, [r4, #16]
 235 008c 2B69     		ldr	r3, [r5, #16]
 236 008e 23F00103 		bic	r3, r3, #1
 237 0092 2B61     		str	r3, [r5, #16]
ARM GAS  /tmp/ccazbEny.s 			page 5


 238 0094 D4E90423 		ldrd	r2, [r4, #16]
 239 0098 E761     		str	r7, [r4, #28]
 240 009a 2B69     		ldr	r3, [r5, #16]
 241 009c 92B2     		uxth	r2, r2
 242 009e 43F00103 		orr	r3, r3, #1
 243 00a2 2B61     		str	r3, [r5, #16]
 244 00a4 3280     		strh	r2, [r6]	@ movhi
 245 00a6 C7E7     		b	.L31
 246              	.L49:
 247 00a8 6368     		ldr	r3, [r4, #4]
 248 00aa 013B     		subs	r3, r3, #1
 249 00ac 6360     		str	r3, [r4, #4]
 250 00ae 6368     		ldr	r3, [r4, #4]
 251 00b0 F3B1     		cbz	r3, .L34
 252 00b2 A068     		ldr	r0, [r4, #8]
 253 00b4 FFF7FEFF 		bl	HAL_FLASH_EndOfOperationCallback
 254 00b8 A068     		ldr	r0, [r4, #8]
 255 00ba 00F58060 		add	r0, r0, #1024
 256 00be A060     		str	r0, [r4, #8]
 257 00c0 2B69     		ldr	r3, [r5, #16]
 258 00c2 23F00203 		bic	r3, r3, #2
 259 00c6 2B61     		str	r3, [r5, #16]
 260 00c8 FFF7FEFF 		bl	FLASH_PageErase
 261 00cc B4E7     		b	.L31
 262              	.L36:
 263 00ce 2378     		ldrb	r3, [r4]	@ zero_extendqisi2
 264 00d0 032B     		cmp	r3, #3
 265 00d2 1FD0     		beq	.L51
 266 00d4 2378     		ldrb	r3, [r4]	@ zero_extendqisi2
 267 00d6 A068     		ldr	r0, [r4, #8]
 268 00d8 042B     		cmp	r3, #4
 269 00da 0CBF     		ite	eq
 270 00dc 0238     		subeq	r0, r0, #2
 271 00de 0638     		subne	r0, r0, #6
 272 00e0 FFF7FEFF 		bl	HAL_FLASH_EndOfOperationCallback
 273              	.L38:
 274 00e4 4FF0FF32 		mov	r2, #-1
 275 00e8 0023     		movs	r3, #0
 276 00ea A260     		str	r2, [r4, #8]
 277 00ec 2370     		strb	r3, [r4]
 278 00ee A3E7     		b	.L31
 279              	.L34:
 280 00f0 4FF0FF32 		mov	r2, #-1
 281 00f4 1046     		mov	r0, r2
 282 00f6 A260     		str	r2, [r4, #8]
 283 00f8 2370     		strb	r3, [r4]
 284 00fa FFF7FEFF 		bl	HAL_FLASH_EndOfOperationCallback
 285 00fe 9BE7     		b	.L31
 286              	.L50:
 287 0100 2B69     		ldr	r3, [r5, #16]
 288 0102 0020     		movs	r0, #0
 289 0104 23F00403 		bic	r3, r3, #4
 290 0108 2B61     		str	r3, [r5, #16]
 291 010a FFF7FEFF 		bl	HAL_FLASH_EndOfOperationCallback
 292 010e 0023     		movs	r3, #0
 293 0110 2370     		strb	r3, [r4]
 294 0112 91E7     		b	.L31
ARM GAS  /tmp/ccazbEny.s 			page 6


 295              	.L51:
 296 0114 A068     		ldr	r0, [r4, #8]
 297 0116 FFF7FEFF 		bl	HAL_FLASH_EndOfOperationCallback
 298 011a E3E7     		b	.L38
 299              	.L53:
 300              		.align	2
 301              	.L52:
 302 011c 00200240 		.word	1073881088
 303 0120 00000000 		.word	pFlash
 305              		.section	.text.HAL_FLASH_Unlock,"ax",%progbits
 306              		.align	1
 307              		.p2align 2,,3
 308              		.global	HAL_FLASH_Unlock
 309              		.syntax unified
 310              		.thumb
 311              		.thumb_func
 312              		.fpu softvfp
 314              	HAL_FLASH_Unlock:
 315              		@ args = 0, pretend = 0, frame = 0
 316              		@ frame_needed = 0, uses_anonymous_args = 0
 317              		@ link register save eliminated.
 318 0000 064B     		ldr	r3, .L57
 319 0002 1869     		ldr	r0, [r3, #16]
 320 0004 10F08000 		ands	r0, r0, #128
 321 0008 06D0     		beq	.L55
 322 000a 0549     		ldr	r1, .L57+4
 323 000c 054A     		ldr	r2, .L57+8
 324 000e 5960     		str	r1, [r3, #4]
 325 0010 5A60     		str	r2, [r3, #4]
 326 0012 1869     		ldr	r0, [r3, #16]
 327 0014 C0F3C010 		ubfx	r0, r0, #7, #1
 328              	.L55:
 329 0018 7047     		bx	lr
 330              	.L58:
 331 001a 00BF     		.align	2
 332              	.L57:
 333 001c 00200240 		.word	1073881088
 334 0020 23016745 		.word	1164378403
 335 0024 AB89EFCD 		.word	-839939669
 337              		.section	.text.HAL_FLASH_Lock,"ax",%progbits
 338              		.align	1
 339              		.p2align 2,,3
 340              		.global	HAL_FLASH_Lock
 341              		.syntax unified
 342              		.thumb
 343              		.thumb_func
 344              		.fpu softvfp
 346              	HAL_FLASH_Lock:
 347              		@ args = 0, pretend = 0, frame = 0
 348              		@ frame_needed = 0, uses_anonymous_args = 0
 349              		@ link register save eliminated.
 350 0000 034A     		ldr	r2, .L60
 351 0002 0020     		movs	r0, #0
 352 0004 1369     		ldr	r3, [r2, #16]
 353 0006 43F08003 		orr	r3, r3, #128
 354 000a 1361     		str	r3, [r2, #16]
 355 000c 7047     		bx	lr
ARM GAS  /tmp/ccazbEny.s 			page 7


 356              	.L61:
 357 000e 00BF     		.align	2
 358              	.L60:
 359 0010 00200240 		.word	1073881088
 361              		.section	.text.HAL_FLASH_OB_Unlock,"ax",%progbits
 362              		.align	1
 363              		.p2align 2,,3
 364              		.global	HAL_FLASH_OB_Unlock
 365              		.syntax unified
 366              		.thumb
 367              		.thumb_func
 368              		.fpu softvfp
 370              	HAL_FLASH_OB_Unlock:
 371              		@ args = 0, pretend = 0, frame = 0
 372              		@ frame_needed = 0, uses_anonymous_args = 0
 373              		@ link register save eliminated.
 374 0000 054B     		ldr	r3, .L65
 375 0002 1869     		ldr	r0, [r3, #16]
 376 0004 10F40070 		ands	r0, r0, #512
 377 0008 04D1     		bne	.L64
 378 000a 0449     		ldr	r1, .L65+4
 379 000c 044A     		ldr	r2, .L65+8
 380 000e 9960     		str	r1, [r3, #8]
 381 0010 9A60     		str	r2, [r3, #8]
 382 0012 7047     		bx	lr
 383              	.L64:
 384 0014 0120     		movs	r0, #1
 385 0016 7047     		bx	lr
 386              	.L66:
 387              		.align	2
 388              	.L65:
 389 0018 00200240 		.word	1073881088
 390 001c 23016745 		.word	1164378403
 391 0020 AB89EFCD 		.word	-839939669
 393              		.section	.text.HAL_FLASH_OB_Lock,"ax",%progbits
 394              		.align	1
 395              		.p2align 2,,3
 396              		.global	HAL_FLASH_OB_Lock
 397              		.syntax unified
 398              		.thumb
 399              		.thumb_func
 400              		.fpu softvfp
 402              	HAL_FLASH_OB_Lock:
 403              		@ args = 0, pretend = 0, frame = 0
 404              		@ frame_needed = 0, uses_anonymous_args = 0
 405              		@ link register save eliminated.
 406 0000 034A     		ldr	r2, .L68
 407 0002 0020     		movs	r0, #0
 408 0004 1369     		ldr	r3, [r2, #16]
 409 0006 23F40073 		bic	r3, r3, #512
 410 000a 1361     		str	r3, [r2, #16]
 411 000c 7047     		bx	lr
 412              	.L69:
 413 000e 00BF     		.align	2
 414              	.L68:
 415 0010 00200240 		.word	1073881088
 417              		.section	.text.HAL_FLASH_OB_Launch,"ax",%progbits
ARM GAS  /tmp/ccazbEny.s 			page 8


 418              		.align	1
 419              		.p2align 2,,3
 420              		.global	HAL_FLASH_OB_Launch
 421              		.syntax unified
 422              		.thumb
 423              		.thumb_func
 424              		.fpu softvfp
 426              	HAL_FLASH_OB_Launch:
 427              		@ args = 0, pretend = 0, frame = 0
 428              		@ frame_needed = 0, uses_anonymous_args = 0
 429              		@ link register save eliminated.
 430 0000 FFF7FEBF 		b	HAL_NVIC_SystemReset
 432              		.section	.text.HAL_FLASH_GetError,"ax",%progbits
 433              		.align	1
 434              		.p2align 2,,3
 435              		.global	HAL_FLASH_GetError
 436              		.syntax unified
 437              		.thumb
 438              		.thumb_func
 439              		.fpu softvfp
 441              	HAL_FLASH_GetError:
 442              		@ args = 0, pretend = 0, frame = 0
 443              		@ frame_needed = 0, uses_anonymous_args = 0
 444              		@ link register save eliminated.
 445 0000 014B     		ldr	r3, .L72
 446 0002 D869     		ldr	r0, [r3, #28]
 447 0004 7047     		bx	lr
 448              	.L73:
 449 0006 00BF     		.align	2
 450              	.L72:
 451 0008 00000000 		.word	pFlash
 453              		.section	.text.FLASH_WaitForLastOperation,"ax",%progbits
 454              		.align	1
 455              		.p2align 2,,3
 456              		.global	FLASH_WaitForLastOperation
 457              		.syntax unified
 458              		.thumb
 459              		.thumb_func
 460              		.fpu softvfp
 462              	FLASH_WaitForLastOperation:
 463              		@ args = 0, pretend = 0, frame = 0
 464              		@ frame_needed = 0, uses_anonymous_args = 0
 465 0000 70B5     		push	{r4, r5, r6, lr}
 466 0002 0546     		mov	r5, r0
 467 0004 FFF7FEFF 		bl	HAL_GetTick
 468 0008 124C     		ldr	r4, .L93
 469 000a 0646     		mov	r6, r0
 470 000c 01E0     		b	.L76
 471              	.L80:
 472 000e 6A1C     		adds	r2, r5, #1
 473 0010 12D1     		bne	.L91
 474              	.L76:
 475 0012 E368     		ldr	r3, [r4, #12]
 476 0014 DB07     		lsls	r3, r3, #31
 477 0016 FAD4     		bmi	.L80
 478 0018 E368     		ldr	r3, [r4, #12]
 479 001a 9806     		lsls	r0, r3, #26
ARM GAS  /tmp/ccazbEny.s 			page 9


 480 001c 44BF     		itt	mi
 481 001e 2023     		movmi	r3, #32
 482 0020 E360     		strmi	r3, [r4, #12]
 483 0022 0C4B     		ldr	r3, .L93
 484 0024 DA68     		ldr	r2, [r3, #12]
 485 0026 D106     		lsls	r1, r2, #27
 486 0028 02D4     		bmi	.L82
 487 002a DA69     		ldr	r2, [r3, #28]
 488 002c D207     		lsls	r2, r2, #31
 489 002e 0BD5     		bpl	.L92
 490              	.L82:
 491 0030 FFF7FEFF 		bl	FLASH_SetErrorCode
 492 0034 0120     		movs	r0, #1
 493 0036 70BD     		pop	{r4, r5, r6, pc}
 494              	.L91:
 495 0038 25B1     		cbz	r5, .L79
 496 003a FFF7FEFF 		bl	HAL_GetTick
 497 003e 801B     		subs	r0, r0, r6
 498 0040 8542     		cmp	r5, r0
 499 0042 E6D2     		bcs	.L76
 500              	.L79:
 501 0044 0320     		movs	r0, #3
 502 0046 70BD     		pop	{r4, r5, r6, pc}
 503              	.L92:
 504 0048 D868     		ldr	r0, [r3, #12]
 505 004a 10F00400 		ands	r0, r0, #4
 506 004e EFD1     		bne	.L82
 507 0050 70BD     		pop	{r4, r5, r6, pc}
 508              	.L94:
 509 0052 00BF     		.align	2
 510              	.L93:
 511 0054 00200240 		.word	1073881088
 513              		.section	.text.HAL_FLASH_Program,"ax",%progbits
 514              		.align	1
 515              		.p2align 2,,3
 516              		.global	HAL_FLASH_Program
 517              		.syntax unified
 518              		.thumb
 519              		.thumb_func
 520              		.fpu softvfp
 522              	HAL_FLASH_Program:
 523              		@ args = 0, pretend = 0, frame = 0
 524              		@ frame_needed = 0, uses_anonymous_args = 0
 525 0000 2DE9F84F 		push	{r3, r4, r5, r6, r7, r8, r9, r10, fp, lr}
 526 0004 274E     		ldr	r6, .L106
 527 0006 347E     		ldrb	r4, [r6, #24]	@ zero_extendqisi2
 528 0008 012C     		cmp	r4, #1
 529 000a 02D1     		bne	.L105
 530 000c 0220     		movs	r0, #2
 531 000e BDE8F88F 		pop	{r3, r4, r5, r6, r7, r8, r9, r10, fp, pc}
 532              	.L105:
 533 0012 1D46     		mov	r5, r3
 534 0014 0123     		movs	r3, #1
 535 0016 0446     		mov	r4, r0
 536 0018 4CF25030 		movw	r0, #50000
 537 001c 9046     		mov	r8, r2
 538 001e 0F46     		mov	r7, r1
ARM GAS  /tmp/ccazbEny.s 			page 10


 539 0020 3376     		strb	r3, [r6, #24]
 540 0022 FFF7FEFF 		bl	FLASH_WaitForLastOperation
 541 0026 B0BB     		cbnz	r0, .L97
 542 0028 012C     		cmp	r4, #1
 543 002a 38D0     		beq	.L101
 544 002c 022C     		cmp	r4, #2
 545 002e 0CBF     		ite	eq
 546 0030 0220     		moveq	r0, #2
 547 0032 0420     		movne	r0, #4
 548              	.L98:
 549 0034 0024     		movs	r4, #0
 550 0036 A146     		mov	r9, r4
 551 0038 0138     		subs	r0, r0, #1
 552 003a BB46     		mov	fp, r7
 553 003c C0B2     		uxtb	r0, r0
 554 003e 0237     		adds	r7, r7, #2
 555 0040 DFF864A0 		ldr	r10, .L106+4
 556 0044 07EB4007 		add	r7, r7, r0, lsl #1
 557              	.L99:
 558 0048 C4F12003 		rsb	r3, r4, #32
 559 004c C6F81C90 		str	r9, [r6, #28]
 560 0050 05FA03F3 		lsl	r3, r5, r3
 561 0054 28FA04F1 		lsr	r1, r8, r4
 562 0058 A4F12002 		sub	r2, r4, #32
 563 005c 1943     		orrs	r1, r1, r3
 564 005e 25FA02F2 		lsr	r2, r5, r2
 565 0062 DAF81030 		ldr	r3, [r10, #16]
 566 0066 1143     		orrs	r1, r1, r2
 567 0068 43F00103 		orr	r3, r3, #1
 568 006c 89B2     		uxth	r1, r1
 569 006e CAF81030 		str	r3, [r10, #16]
 570 0072 4CF25030 		movw	r0, #50000
 571 0076 ABF80010 		strh	r1, [fp]	@ movhi
 572 007a FFF7FEFF 		bl	FLASH_WaitForLastOperation
 573 007e DAF81030 		ldr	r3, [r10, #16]
 574 0082 0BF1020B 		add	fp, fp, #2
 575 0086 23F00103 		bic	r3, r3, #1
 576 008a 1034     		adds	r4, r4, #16
 577 008c CAF81030 		str	r3, [r10, #16]
 578 0090 08B9     		cbnz	r0, .L97
 579 0092 BB45     		cmp	fp, r7
 580 0094 D8D1     		bne	.L99
 581              	.L97:
 582 0096 0023     		movs	r3, #0
 583 0098 3376     		strb	r3, [r6, #24]
 584 009a BDE8F88F 		pop	{r3, r4, r5, r6, r7, r8, r9, r10, fp, pc}
 585              	.L101:
 586 009e 2046     		mov	r0, r4
 587 00a0 C8E7     		b	.L98
 588              	.L107:
 589 00a2 00BF     		.align	2
 590              	.L106:
 591 00a4 00000000 		.word	pFlash
 592 00a8 00200240 		.word	1073881088
 594              		.comm	pFlash,32,8
 595              		.ident	"GCC: (15:6.3.1+svn253039-1build1) 6.3.1 20170620"
ARM GAS  /tmp/ccazbEny.s 			page 11

