ARM GAS  /tmp/ccRHpad4.s 			page 1


   1              		.cpu cortex-m4
   2              		.arch armv7e-m
   3              		.fpu fpv4-sp-d16
   4              		.eabi_attribute 27, 1
   5              		.eabi_attribute 28, 1
   6              		.eabi_attribute 20, 1
   7              		.eabi_attribute 21, 1
   8              		.eabi_attribute 23, 3
   9              		.eabi_attribute 24, 1
  10              		.eabi_attribute 25, 1
  11              		.eabi_attribute 26, 1
  12              		.eabi_attribute 30, 1
  13              		.eabi_attribute 34, 1
  14              		.eabi_attribute 18, 4
  15              		.file	"ili9341.c"
  16              		.text
  17              	.Ltext0:
  18              		.cfi_sections	.debug_frame
  19              		.section	.text.ili9341_GetLcdPixelWidth,"ax",%progbits
  20              		.align	1
  21              		.global	ili9341_GetLcdPixelWidth
  22              		.syntax unified
  23              		.thumb
  24              		.thumb_func
  26              	ili9341_GetLcdPixelWidth:
  27              	.LFB7:
  28              		.file 1 "Src/ili9341.c"
   1:Src/ili9341.c **** /**
   2:Src/ili9341.c ****   ******************************************************************************
   3:Src/ili9341.c ****   * @file    ili9341.c
   4:Src/ili9341.c ****   * @author  MCD Application Team
   5:Src/ili9341.c ****   * @version V1.0.2
   6:Src/ili9341.c ****   * @date    02-December-2014
   7:Src/ili9341.c ****   * @brief   This file includes the LCD driver for ILI9341 LCD.
   8:Src/ili9341.c ****   ******************************************************************************
   9:Src/ili9341.c ****   * @attention
  10:Src/ili9341.c ****   *
  11:Src/ili9341.c ****   * <h2><center>&copy; COPYRIGHT(c) 2014 STMicroelectronics</center></h2>
  12:Src/ili9341.c ****   *
  13:Src/ili9341.c ****   * Redistribution and use in source and binary forms, with or without modification,
  14:Src/ili9341.c ****   * are permitted provided that the following conditions are met:
  15:Src/ili9341.c ****   *   1. Redistributions of source code must retain the above copyright notice,
  16:Src/ili9341.c ****   *      this list of conditions and the following disclaimer.
  17:Src/ili9341.c ****   *   2. Redistributions in binary form must reproduce the above copyright notice,
  18:Src/ili9341.c ****   *      this list of conditions and the following disclaimer in the documentation
  19:Src/ili9341.c ****   *      and/or other materials provided with the distribution.
  20:Src/ili9341.c ****   *   3. Neither the name of STMicroelectronics nor the names of its contributors
  21:Src/ili9341.c ****   *      may be used to endorse or promote products derived from this software
  22:Src/ili9341.c ****   *      without specific prior written permission.
  23:Src/ili9341.c ****   *
  24:Src/ili9341.c ****   * THIS SOFTWARE IS PROVIDED BY THE COPYRIGHT HOLDERS AND CONTRIBUTORS "AS IS"
  25:Src/ili9341.c ****   * AND ANY EXPRESS OR IMPLIED WARRANTIES, INCLUDING, BUT NOT LIMITED TO, THE
  26:Src/ili9341.c ****   * IMPLIED WARRANTIES OF MERCHANTABILITY AND FITNESS FOR A PARTICULAR PURPOSE ARE
  27:Src/ili9341.c ****   * DISCLAIMED. IN NO EVENT SHALL THE COPYRIGHT HOLDER OR CONTRIBUTORS BE LIABLE
  28:Src/ili9341.c ****   * FOR ANY DIRECT, INDIRECT, INCIDENTAL, SPECIAL, EXEMPLARY, OR CONSEQUENTIAL
  29:Src/ili9341.c ****   * DAMAGES (INCLUDING, BUT NOT LIMITED TO, PROCUREMENT OF SUBSTITUTE GOODS OR
  30:Src/ili9341.c ****   * SERVICES; LOSS OF USE, DATA, OR PROFITS; OR BUSINESS INTERRUPTION) HOWEVER
ARM GAS  /tmp/ccRHpad4.s 			page 2


  31:Src/ili9341.c ****   * CAUSED AND ON ANY THEORY OF LIABILITY, WHETHER IN CONTRACT, STRICT LIABILITY,
  32:Src/ili9341.c ****   * OR TORT (INCLUDING NEGLIGENCE OR OTHERWISE) ARISING IN ANY WAY OUT OF THE USE
  33:Src/ili9341.c ****   * OF THIS SOFTWARE, EVEN IF ADVISED OF THE POSSIBILITY OF SUCH DAMAGE.
  34:Src/ili9341.c ****   *
  35:Src/ili9341.c ****   ******************************************************************************
  36:Src/ili9341.c ****   */ 
  37:Src/ili9341.c **** 
  38:Src/ili9341.c **** /* Includes ------------------------------------------------------------------*/
  39:Src/ili9341.c **** #include "ili9341.h"
  40:Src/ili9341.c **** 
  41:Src/ili9341.c **** /** @addtogroup BSP
  42:Src/ili9341.c ****   * @{
  43:Src/ili9341.c ****   */ 
  44:Src/ili9341.c **** 
  45:Src/ili9341.c **** /** @addtogroup Components
  46:Src/ili9341.c ****   * @{
  47:Src/ili9341.c ****   */ 
  48:Src/ili9341.c ****   
  49:Src/ili9341.c **** /** @addtogroup ILI9341
  50:Src/ili9341.c ****   * @brief This file provides a set of functions needed to drive the 
  51:Src/ili9341.c ****   *        ILI9341 LCD.
  52:Src/ili9341.c ****   * @{
  53:Src/ili9341.c ****   */
  54:Src/ili9341.c **** 
  55:Src/ili9341.c **** /** @defgroup ILI9341_Private_TypesDefinitions
  56:Src/ili9341.c ****   * @{
  57:Src/ili9341.c ****   */ 
  58:Src/ili9341.c **** /**
  59:Src/ili9341.c ****   * @}
  60:Src/ili9341.c ****   */ 
  61:Src/ili9341.c **** 
  62:Src/ili9341.c **** /** @defgroup ILI9341_Private_Defines
  63:Src/ili9341.c ****   * @{
  64:Src/ili9341.c ****   */
  65:Src/ili9341.c **** /**
  66:Src/ili9341.c ****   * @}
  67:Src/ili9341.c ****   */ 
  68:Src/ili9341.c ****   
  69:Src/ili9341.c **** /** @defgroup ILI9341_Private_Macros
  70:Src/ili9341.c ****   * @{
  71:Src/ili9341.c ****   */
  72:Src/ili9341.c **** /**
  73:Src/ili9341.c ****   * @}
  74:Src/ili9341.c ****   */  
  75:Src/ili9341.c **** 
  76:Src/ili9341.c **** /** @defgroup ILI9341_Private_Variables
  77:Src/ili9341.c ****   * @{
  78:Src/ili9341.c ****   */ 
  79:Src/ili9341.c **** 
  80:Src/ili9341.c **** LCD_DrvTypeDef   ili9341_drv = 
  81:Src/ili9341.c **** {
  82:Src/ili9341.c ****   ili9341_Init,
  83:Src/ili9341.c ****   ili9341_ReadID,
  84:Src/ili9341.c ****   ili9341_DisplayOn,
  85:Src/ili9341.c ****   ili9341_DisplayOff,
  86:Src/ili9341.c ****   0,
  87:Src/ili9341.c ****   0,
ARM GAS  /tmp/ccRHpad4.s 			page 3


  88:Src/ili9341.c ****   0,
  89:Src/ili9341.c ****   0,
  90:Src/ili9341.c ****   0,
  91:Src/ili9341.c ****   0,
  92:Src/ili9341.c ****   ili9341_GetLcdPixelWidth,
  93:Src/ili9341.c ****   ili9341_GetLcdPixelHeight,
  94:Src/ili9341.c ****   0,
  95:Src/ili9341.c ****   0,    
  96:Src/ili9341.c **** };
  97:Src/ili9341.c **** 
  98:Src/ili9341.c **** /**
  99:Src/ili9341.c ****   * @}
 100:Src/ili9341.c ****   */ 
 101:Src/ili9341.c ****   
 102:Src/ili9341.c **** /** @defgroup ILI9341_Private_FunctionPrototypes
 103:Src/ili9341.c ****   * @{
 104:Src/ili9341.c ****   */
 105:Src/ili9341.c **** 
 106:Src/ili9341.c **** /**
 107:Src/ili9341.c ****   * @}
 108:Src/ili9341.c ****   */ 
 109:Src/ili9341.c ****   
 110:Src/ili9341.c **** /** @defgroup ILI9341_Private_Functions
 111:Src/ili9341.c ****   * @{
 112:Src/ili9341.c ****   */   
 113:Src/ili9341.c **** 
 114:Src/ili9341.c **** /**
 115:Src/ili9341.c ****   * @brief  Power on the LCD.
 116:Src/ili9341.c ****   * @param  None
 117:Src/ili9341.c ****   * @retval None
 118:Src/ili9341.c ****   */
 119:Src/ili9341.c **** void ili9341_Init(void)
 120:Src/ili9341.c **** {
 121:Src/ili9341.c ****   /* Initialize ILI9341 low level bus layer ----------------------------------*/
 122:Src/ili9341.c ****   LCD_IO_Init();
 123:Src/ili9341.c ****   
 124:Src/ili9341.c ****   /* Configure LCD */
 125:Src/ili9341.c ****   ili9341_WriteReg(0xCA);
 126:Src/ili9341.c ****   ili9341_WriteData(0xC3);
 127:Src/ili9341.c ****   ili9341_WriteData(0x08);
 128:Src/ili9341.c ****   ili9341_WriteData(0x50);
 129:Src/ili9341.c ****   ili9341_WriteReg(LCD_POWERB);
 130:Src/ili9341.c ****   ili9341_WriteData(0x00);
 131:Src/ili9341.c ****   ili9341_WriteData(0xC1);
 132:Src/ili9341.c ****   ili9341_WriteData(0x30);
 133:Src/ili9341.c ****   ili9341_WriteReg(LCD_POWER_SEQ);
 134:Src/ili9341.c ****   ili9341_WriteData(0x64);
 135:Src/ili9341.c ****   ili9341_WriteData(0x03);
 136:Src/ili9341.c ****   ili9341_WriteData(0x12);
 137:Src/ili9341.c ****   ili9341_WriteData(0x81);
 138:Src/ili9341.c ****   ili9341_WriteReg(LCD_DTCA);
 139:Src/ili9341.c ****   ili9341_WriteData(0x85);
 140:Src/ili9341.c ****   ili9341_WriteData(0x00);
 141:Src/ili9341.c ****   ili9341_WriteData(0x78);
 142:Src/ili9341.c ****   ili9341_WriteReg(LCD_POWERA);
 143:Src/ili9341.c ****   ili9341_WriteData(0x39);
 144:Src/ili9341.c ****   ili9341_WriteData(0x2C);
ARM GAS  /tmp/ccRHpad4.s 			page 4


 145:Src/ili9341.c ****   ili9341_WriteData(0x00);
 146:Src/ili9341.c ****   ili9341_WriteData(0x34);
 147:Src/ili9341.c ****   ili9341_WriteData(0x02);
 148:Src/ili9341.c ****   ili9341_WriteReg(LCD_PRC);
 149:Src/ili9341.c ****   ili9341_WriteData(0x20);
 150:Src/ili9341.c ****   ili9341_WriteReg(LCD_DTCB);
 151:Src/ili9341.c ****   ili9341_WriteData(0x00);
 152:Src/ili9341.c ****   ili9341_WriteData(0x00);
 153:Src/ili9341.c ****   ili9341_WriteReg(LCD_FRMCTR1);
 154:Src/ili9341.c ****   ili9341_WriteData(0x00);
 155:Src/ili9341.c ****   ili9341_WriteData(0x1B);
 156:Src/ili9341.c ****   ili9341_WriteReg(LCD_DFC);
 157:Src/ili9341.c ****   ili9341_WriteData(0x0A);
 158:Src/ili9341.c ****   ili9341_WriteData(0xA2);
 159:Src/ili9341.c ****   ili9341_WriteReg(LCD_POWER1);
 160:Src/ili9341.c ****   ili9341_WriteData(0x10);
 161:Src/ili9341.c ****   ili9341_WriteReg(LCD_POWER2);
 162:Src/ili9341.c ****   ili9341_WriteData(0x10);
 163:Src/ili9341.c ****   ili9341_WriteReg(LCD_VCOM1);
 164:Src/ili9341.c ****   ili9341_WriteData(0x45);
 165:Src/ili9341.c ****   ili9341_WriteData(0x15);
 166:Src/ili9341.c ****   ili9341_WriteReg(LCD_VCOM2);
 167:Src/ili9341.c ****   ili9341_WriteData(0x90);
 168:Src/ili9341.c ****   ili9341_WriteReg(LCD_MAC);
 169:Src/ili9341.c ****   ili9341_WriteData(0xC8);
 170:Src/ili9341.c ****   ili9341_WriteReg(LCD_3GAMMA_EN);
 171:Src/ili9341.c ****   ili9341_WriteData(0x00);
 172:Src/ili9341.c ****   ili9341_WriteReg(LCD_RGB_INTERFACE);
 173:Src/ili9341.c ****   ili9341_WriteData(0xC2);
 174:Src/ili9341.c ****   ili9341_WriteReg(LCD_DFC);
 175:Src/ili9341.c ****   ili9341_WriteData(0x0A);
 176:Src/ili9341.c ****   ili9341_WriteData(0xA7);
 177:Src/ili9341.c ****   ili9341_WriteData(0x27);
 178:Src/ili9341.c ****   ili9341_WriteData(0x04);
 179:Src/ili9341.c ****   
 180:Src/ili9341.c ****   /* Colomn address set */
 181:Src/ili9341.c ****   ili9341_WriteReg(LCD_COLUMN_ADDR);
 182:Src/ili9341.c ****   ili9341_WriteData(0x00);
 183:Src/ili9341.c ****   ili9341_WriteData(0x00);
 184:Src/ili9341.c ****   ili9341_WriteData(0x00);
 185:Src/ili9341.c ****   ili9341_WriteData(0xEF);
 186:Src/ili9341.c ****   /* Page address set */
 187:Src/ili9341.c ****   ili9341_WriteReg(LCD_PAGE_ADDR);
 188:Src/ili9341.c ****   ili9341_WriteData(0x00);
 189:Src/ili9341.c ****   ili9341_WriteData(0x00);
 190:Src/ili9341.c ****   ili9341_WriteData(0x01);
 191:Src/ili9341.c ****   ili9341_WriteData(0x3F);
 192:Src/ili9341.c ****   ili9341_WriteReg(LCD_INTERFACE);
 193:Src/ili9341.c ****   ili9341_WriteData(0x01);
 194:Src/ili9341.c ****   ili9341_WriteData(0x00);
 195:Src/ili9341.c ****   ili9341_WriteData(0x06);
 196:Src/ili9341.c ****   
 197:Src/ili9341.c ****   ili9341_WriteReg(LCD_GRAM);
 198:Src/ili9341.c ****   LCD_Delay(200);
 199:Src/ili9341.c ****   
 200:Src/ili9341.c ****   ili9341_WriteReg(LCD_GAMMA);
 201:Src/ili9341.c ****   ili9341_WriteData(0x01);
ARM GAS  /tmp/ccRHpad4.s 			page 5


 202:Src/ili9341.c ****   
 203:Src/ili9341.c ****   ili9341_WriteReg(LCD_PGAMMA);
 204:Src/ili9341.c ****   ili9341_WriteData(0x0F);
 205:Src/ili9341.c ****   ili9341_WriteData(0x29);
 206:Src/ili9341.c ****   ili9341_WriteData(0x24);
 207:Src/ili9341.c ****   ili9341_WriteData(0x0C);
 208:Src/ili9341.c ****   ili9341_WriteData(0x0E);
 209:Src/ili9341.c ****   ili9341_WriteData(0x09);
 210:Src/ili9341.c ****   ili9341_WriteData(0x4E);
 211:Src/ili9341.c ****   ili9341_WriteData(0x78);
 212:Src/ili9341.c ****   ili9341_WriteData(0x3C);
 213:Src/ili9341.c ****   ili9341_WriteData(0x09);
 214:Src/ili9341.c ****   ili9341_WriteData(0x13);
 215:Src/ili9341.c ****   ili9341_WriteData(0x05);
 216:Src/ili9341.c ****   ili9341_WriteData(0x17);
 217:Src/ili9341.c ****   ili9341_WriteData(0x11);
 218:Src/ili9341.c ****   ili9341_WriteData(0x00);
 219:Src/ili9341.c ****   ili9341_WriteReg(LCD_NGAMMA);
 220:Src/ili9341.c ****   ili9341_WriteData(0x00);
 221:Src/ili9341.c ****   ili9341_WriteData(0x16);
 222:Src/ili9341.c ****   ili9341_WriteData(0x1B);
 223:Src/ili9341.c ****   ili9341_WriteData(0x04);
 224:Src/ili9341.c ****   ili9341_WriteData(0x11);
 225:Src/ili9341.c ****   ili9341_WriteData(0x07);
 226:Src/ili9341.c ****   ili9341_WriteData(0x31);
 227:Src/ili9341.c ****   ili9341_WriteData(0x33);
 228:Src/ili9341.c ****   ili9341_WriteData(0x42);
 229:Src/ili9341.c ****   ili9341_WriteData(0x05);
 230:Src/ili9341.c ****   ili9341_WriteData(0x0C);
 231:Src/ili9341.c ****   ili9341_WriteData(0x0A);
 232:Src/ili9341.c ****   ili9341_WriteData(0x28);
 233:Src/ili9341.c ****   ili9341_WriteData(0x2F);
 234:Src/ili9341.c ****   ili9341_WriteData(0x0F);
 235:Src/ili9341.c ****   
 236:Src/ili9341.c ****   ili9341_WriteReg(LCD_SLEEP_OUT);
 237:Src/ili9341.c ****   LCD_Delay(200);
 238:Src/ili9341.c ****   ili9341_WriteReg(LCD_DISPLAY_ON);
 239:Src/ili9341.c ****   /* GRAM start writing */
 240:Src/ili9341.c ****   ili9341_WriteReg(LCD_GRAM);
 241:Src/ili9341.c **** }
 242:Src/ili9341.c **** 
 243:Src/ili9341.c **** /**
 244:Src/ili9341.c ****   * @brief  Disables the Display.
 245:Src/ili9341.c ****   * @param  None
 246:Src/ili9341.c ****   * @retval LCD Register Value.
 247:Src/ili9341.c ****   */
 248:Src/ili9341.c **** uint16_t ili9341_ReadID(void)
 249:Src/ili9341.c **** {
 250:Src/ili9341.c ****   LCD_IO_Init();
 251:Src/ili9341.c ****   return ((uint16_t)ili9341_ReadData(LCD_READ_ID4, LCD_READ_ID4_SIZE));
 252:Src/ili9341.c **** }
 253:Src/ili9341.c **** 
 254:Src/ili9341.c **** /**
 255:Src/ili9341.c ****   * @brief  Enables the Display.
 256:Src/ili9341.c ****   * @param  None
 257:Src/ili9341.c ****   * @retval None
 258:Src/ili9341.c ****   */
ARM GAS  /tmp/ccRHpad4.s 			page 6


 259:Src/ili9341.c **** void ili9341_DisplayOn(void)
 260:Src/ili9341.c **** {
 261:Src/ili9341.c ****   /* Display On */
 262:Src/ili9341.c ****   ili9341_WriteReg(LCD_DISPLAY_ON);
 263:Src/ili9341.c **** }
 264:Src/ili9341.c **** 
 265:Src/ili9341.c **** /**
 266:Src/ili9341.c ****   * @brief  Disables the Display.
 267:Src/ili9341.c ****   * @param  None
 268:Src/ili9341.c ****   * @retval None
 269:Src/ili9341.c ****   */
 270:Src/ili9341.c **** void ili9341_DisplayOff(void)
 271:Src/ili9341.c **** {
 272:Src/ili9341.c ****   /* Display Off */
 273:Src/ili9341.c ****   ili9341_WriteReg(LCD_DISPLAY_OFF);
 274:Src/ili9341.c **** }
 275:Src/ili9341.c **** 
 276:Src/ili9341.c **** /**
 277:Src/ili9341.c ****   * @brief  Writes  to the selected LCD register.
 278:Src/ili9341.c ****   * @param  LCD_Reg: address of the selected register.
 279:Src/ili9341.c ****   * @retval None
 280:Src/ili9341.c ****   */
 281:Src/ili9341.c **** void ili9341_WriteReg(uint8_t LCD_Reg)
 282:Src/ili9341.c **** {
 283:Src/ili9341.c ****   LCD_IO_WriteReg(LCD_Reg);
 284:Src/ili9341.c **** }
 285:Src/ili9341.c **** 
 286:Src/ili9341.c **** /**
 287:Src/ili9341.c ****   * @brief  Writes data to the selected LCD register.
 288:Src/ili9341.c ****   * @param  LCD_Reg: address of the selected register.
 289:Src/ili9341.c ****   * @retval None
 290:Src/ili9341.c ****   */
 291:Src/ili9341.c **** void ili9341_WriteData(uint16_t RegValue)
 292:Src/ili9341.c **** {
 293:Src/ili9341.c ****   LCD_IO_WriteData(RegValue);
 294:Src/ili9341.c **** }
 295:Src/ili9341.c **** 
 296:Src/ili9341.c **** /**
 297:Src/ili9341.c ****   * @brief  Reads the selected LCD Register.
 298:Src/ili9341.c ****   * @param  RegValue: Address of the register to read
 299:Src/ili9341.c ****   * @param  ReadSize: Number of bytes to read
 300:Src/ili9341.c ****   * @retval LCD Register Value.
 301:Src/ili9341.c ****   */
 302:Src/ili9341.c **** uint32_t ili9341_ReadData(uint16_t RegValue, uint8_t ReadSize)
 303:Src/ili9341.c **** {
 304:Src/ili9341.c ****   /* Read a max of 4 bytes */
 305:Src/ili9341.c ****   return (LCD_IO_ReadData(RegValue, ReadSize));
 306:Src/ili9341.c **** }
 307:Src/ili9341.c **** 
 308:Src/ili9341.c **** /**
 309:Src/ili9341.c ****   * @brief  Get LCD PIXEL WIDTH.
 310:Src/ili9341.c ****   * @param  None
 311:Src/ili9341.c ****   * @retval LCD PIXEL WIDTH.
 312:Src/ili9341.c ****   */
 313:Src/ili9341.c **** uint16_t ili9341_GetLcdPixelWidth(void)
 314:Src/ili9341.c **** {
  29              		.loc 1 314 1 view -0
ARM GAS  /tmp/ccRHpad4.s 			page 7


  30              		.cfi_startproc
  31              		@ args = 0, pretend = 0, frame = 0
  32              		@ frame_needed = 0, uses_anonymous_args = 0
  33              		@ link register save eliminated.
 315:Src/ili9341.c ****   /* Return LCD PIXEL WIDTH */
 316:Src/ili9341.c ****   return ILI9341_LCD_PIXEL_WIDTH;
  34              		.loc 1 316 3 view .LVU1
 317:Src/ili9341.c **** }
  35              		.loc 1 317 1 is_stmt 0 view .LVU2
  36 0000 F020     		movs	r0, #240
  37 0002 7047     		bx	lr
  38              		.cfi_endproc
  39              	.LFE7:
  41              		.section	.text.ili9341_GetLcdPixelHeight,"ax",%progbits
  42              		.align	1
  43              		.global	ili9341_GetLcdPixelHeight
  44              		.syntax unified
  45              		.thumb
  46              		.thumb_func
  48              	ili9341_GetLcdPixelHeight:
  49              	.LFB8:
 318:Src/ili9341.c **** 
 319:Src/ili9341.c **** /**
 320:Src/ili9341.c ****   * @brief  Get LCD PIXEL HEIGHT.
 321:Src/ili9341.c ****   * @param  None
 322:Src/ili9341.c ****   * @retval LCD PIXEL HEIGHT.
 323:Src/ili9341.c ****   */
 324:Src/ili9341.c **** uint16_t ili9341_GetLcdPixelHeight(void)
 325:Src/ili9341.c **** {
  50              		.loc 1 325 1 is_stmt 1 view -0
  51              		.cfi_startproc
  52              		@ args = 0, pretend = 0, frame = 0
  53              		@ frame_needed = 0, uses_anonymous_args = 0
  54              		@ link register save eliminated.
 326:Src/ili9341.c ****   /* Return LCD PIXEL HEIGHT */
 327:Src/ili9341.c ****   return ILI9341_LCD_PIXEL_HEIGHT;
  55              		.loc 1 327 3 view .LVU4
 328:Src/ili9341.c **** }
  56              		.loc 1 328 1 is_stmt 0 view .LVU5
  57 0000 4FF4A070 		mov	r0, #320
  58 0004 7047     		bx	lr
  59              		.cfi_endproc
  60              	.LFE8:
  62              		.section	.text.ili9341_WriteReg,"ax",%progbits
  63              		.align	1
  64              		.global	ili9341_WriteReg
  65              		.syntax unified
  66              		.thumb
  67              		.thumb_func
  69              	ili9341_WriteReg:
  70              	.LVL0:
  71              	.LFB4:
 282:Src/ili9341.c ****   LCD_IO_WriteReg(LCD_Reg);
  72              		.loc 1 282 1 is_stmt 1 view -0
  73              		.cfi_startproc
  74              		@ args = 0, pretend = 0, frame = 0
  75              		@ frame_needed = 0, uses_anonymous_args = 0
ARM GAS  /tmp/ccRHpad4.s 			page 8


 282:Src/ili9341.c ****   LCD_IO_WriteReg(LCD_Reg);
  76              		.loc 1 282 1 is_stmt 0 view .LVU7
  77 0000 08B5     		push	{r3, lr}
  78              	.LCFI0:
  79              		.cfi_def_cfa_offset 8
  80              		.cfi_offset 3, -8
  81              		.cfi_offset 14, -4
 283:Src/ili9341.c **** }
  82              		.loc 1 283 3 is_stmt 1 view .LVU8
  83 0002 FFF7FEFF 		bl	LCD_IO_WriteReg
  84              	.LVL1:
 284:Src/ili9341.c **** 
  85              		.loc 1 284 1 is_stmt 0 view .LVU9
  86 0006 08BD     		pop	{r3, pc}
  87              		.cfi_endproc
  88              	.LFE4:
  90              		.section	.text.ili9341_DisplayOn,"ax",%progbits
  91              		.align	1
  92              		.global	ili9341_DisplayOn
  93              		.syntax unified
  94              		.thumb
  95              		.thumb_func
  97              	ili9341_DisplayOn:
  98              	.LFB2:
 260:Src/ili9341.c ****   /* Display On */
  99              		.loc 1 260 1 is_stmt 1 view -0
 100              		.cfi_startproc
 101              		@ args = 0, pretend = 0, frame = 0
 102              		@ frame_needed = 0, uses_anonymous_args = 0
 103 0000 08B5     		push	{r3, lr}
 104              	.LCFI1:
 105              		.cfi_def_cfa_offset 8
 106              		.cfi_offset 3, -8
 107              		.cfi_offset 14, -4
 262:Src/ili9341.c **** }
 108              		.loc 1 262 3 view .LVU11
 109 0002 2920     		movs	r0, #41
 110 0004 FFF7FEFF 		bl	ili9341_WriteReg
 111              	.LVL2:
 263:Src/ili9341.c **** 
 112              		.loc 1 263 1 is_stmt 0 view .LVU12
 113 0008 08BD     		pop	{r3, pc}
 114              		.cfi_endproc
 115              	.LFE2:
 117              		.section	.text.ili9341_DisplayOff,"ax",%progbits
 118              		.align	1
 119              		.global	ili9341_DisplayOff
 120              		.syntax unified
 121              		.thumb
 122              		.thumb_func
 124              	ili9341_DisplayOff:
 125              	.LFB3:
 271:Src/ili9341.c ****   /* Display Off */
 126              		.loc 1 271 1 is_stmt 1 view -0
 127              		.cfi_startproc
 128              		@ args = 0, pretend = 0, frame = 0
 129              		@ frame_needed = 0, uses_anonymous_args = 0
ARM GAS  /tmp/ccRHpad4.s 			page 9


 130 0000 08B5     		push	{r3, lr}
 131              	.LCFI2:
 132              		.cfi_def_cfa_offset 8
 133              		.cfi_offset 3, -8
 134              		.cfi_offset 14, -4
 273:Src/ili9341.c **** }
 135              		.loc 1 273 3 view .LVU14
 136 0002 2820     		movs	r0, #40
 137 0004 FFF7FEFF 		bl	ili9341_WriteReg
 138              	.LVL3:
 274:Src/ili9341.c **** 
 139              		.loc 1 274 1 is_stmt 0 view .LVU15
 140 0008 08BD     		pop	{r3, pc}
 141              		.cfi_endproc
 142              	.LFE3:
 144              		.section	.text.ili9341_WriteData,"ax",%progbits
 145              		.align	1
 146              		.global	ili9341_WriteData
 147              		.syntax unified
 148              		.thumb
 149              		.thumb_func
 151              	ili9341_WriteData:
 152              	.LVL4:
 153              	.LFB5:
 292:Src/ili9341.c ****   LCD_IO_WriteData(RegValue);
 154              		.loc 1 292 1 is_stmt 1 view -0
 155              		.cfi_startproc
 156              		@ args = 0, pretend = 0, frame = 0
 157              		@ frame_needed = 0, uses_anonymous_args = 0
 292:Src/ili9341.c ****   LCD_IO_WriteData(RegValue);
 158              		.loc 1 292 1 is_stmt 0 view .LVU17
 159 0000 08B5     		push	{r3, lr}
 160              	.LCFI3:
 161              		.cfi_def_cfa_offset 8
 162              		.cfi_offset 3, -8
 163              		.cfi_offset 14, -4
 293:Src/ili9341.c **** }
 164              		.loc 1 293 3 is_stmt 1 view .LVU18
 165 0002 FFF7FEFF 		bl	LCD_IO_WriteData
 166              	.LVL5:
 294:Src/ili9341.c **** 
 167              		.loc 1 294 1 is_stmt 0 view .LVU19
 168 0006 08BD     		pop	{r3, pc}
 169              		.cfi_endproc
 170              	.LFE5:
 172              		.section	.text.ili9341_Init,"ax",%progbits
 173              		.align	1
 174              		.global	ili9341_Init
 175              		.syntax unified
 176              		.thumb
 177              		.thumb_func
 179              	ili9341_Init:
 180              	.LFB0:
 120:Src/ili9341.c ****   /* Initialize ILI9341 low level bus layer ----------------------------------*/
 181              		.loc 1 120 1 is_stmt 1 view -0
 182              		.cfi_startproc
 183              		@ args = 0, pretend = 0, frame = 0
ARM GAS  /tmp/ccRHpad4.s 			page 10


 184              		@ frame_needed = 0, uses_anonymous_args = 0
 185 0000 08B5     		push	{r3, lr}
 186              	.LCFI4:
 187              		.cfi_def_cfa_offset 8
 188              		.cfi_offset 3, -8
 189              		.cfi_offset 14, -4
 122:Src/ili9341.c ****   
 190              		.loc 1 122 3 view .LVU21
 191 0002 FFF7FEFF 		bl	LCD_IO_Init
 192              	.LVL6:
 125:Src/ili9341.c ****   ili9341_WriteData(0xC3);
 193              		.loc 1 125 3 view .LVU22
 194 0006 CA20     		movs	r0, #202
 195 0008 FFF7FEFF 		bl	ili9341_WriteReg
 196              	.LVL7:
 126:Src/ili9341.c ****   ili9341_WriteData(0x08);
 197              		.loc 1 126 3 view .LVU23
 198 000c C320     		movs	r0, #195
 199 000e FFF7FEFF 		bl	ili9341_WriteData
 200              	.LVL8:
 127:Src/ili9341.c ****   ili9341_WriteData(0x50);
 201              		.loc 1 127 3 view .LVU24
 202 0012 0820     		movs	r0, #8
 203 0014 FFF7FEFF 		bl	ili9341_WriteData
 204              	.LVL9:
 128:Src/ili9341.c ****   ili9341_WriteReg(LCD_POWERB);
 205              		.loc 1 128 3 view .LVU25
 206 0018 5020     		movs	r0, #80
 207 001a FFF7FEFF 		bl	ili9341_WriteData
 208              	.LVL10:
 129:Src/ili9341.c ****   ili9341_WriteData(0x00);
 209              		.loc 1 129 3 view .LVU26
 210 001e CF20     		movs	r0, #207
 211 0020 FFF7FEFF 		bl	ili9341_WriteReg
 212              	.LVL11:
 130:Src/ili9341.c ****   ili9341_WriteData(0xC1);
 213              		.loc 1 130 3 view .LVU27
 214 0024 0020     		movs	r0, #0
 215 0026 FFF7FEFF 		bl	ili9341_WriteData
 216              	.LVL12:
 131:Src/ili9341.c ****   ili9341_WriteData(0x30);
 217              		.loc 1 131 3 view .LVU28
 218 002a C120     		movs	r0, #193
 219 002c FFF7FEFF 		bl	ili9341_WriteData
 220              	.LVL13:
 132:Src/ili9341.c ****   ili9341_WriteReg(LCD_POWER_SEQ);
 221              		.loc 1 132 3 view .LVU29
 222 0030 3020     		movs	r0, #48
 223 0032 FFF7FEFF 		bl	ili9341_WriteData
 224              	.LVL14:
 133:Src/ili9341.c ****   ili9341_WriteData(0x64);
 225              		.loc 1 133 3 view .LVU30
 226 0036 ED20     		movs	r0, #237
 227 0038 FFF7FEFF 		bl	ili9341_WriteReg
 228              	.LVL15:
 134:Src/ili9341.c ****   ili9341_WriteData(0x03);
 229              		.loc 1 134 3 view .LVU31
ARM GAS  /tmp/ccRHpad4.s 			page 11


 230 003c 6420     		movs	r0, #100
 231 003e FFF7FEFF 		bl	ili9341_WriteData
 232              	.LVL16:
 135:Src/ili9341.c ****   ili9341_WriteData(0x12);
 233              		.loc 1 135 3 view .LVU32
 234 0042 0320     		movs	r0, #3
 235 0044 FFF7FEFF 		bl	ili9341_WriteData
 236              	.LVL17:
 136:Src/ili9341.c ****   ili9341_WriteData(0x81);
 237              		.loc 1 136 3 view .LVU33
 238 0048 1220     		movs	r0, #18
 239 004a FFF7FEFF 		bl	ili9341_WriteData
 240              	.LVL18:
 137:Src/ili9341.c ****   ili9341_WriteReg(LCD_DTCA);
 241              		.loc 1 137 3 view .LVU34
 242 004e 8120     		movs	r0, #129
 243 0050 FFF7FEFF 		bl	ili9341_WriteData
 244              	.LVL19:
 138:Src/ili9341.c ****   ili9341_WriteData(0x85);
 245              		.loc 1 138 3 view .LVU35
 246 0054 E820     		movs	r0, #232
 247 0056 FFF7FEFF 		bl	ili9341_WriteReg
 248              	.LVL20:
 139:Src/ili9341.c ****   ili9341_WriteData(0x00);
 249              		.loc 1 139 3 view .LVU36
 250 005a 8520     		movs	r0, #133
 251 005c FFF7FEFF 		bl	ili9341_WriteData
 252              	.LVL21:
 140:Src/ili9341.c ****   ili9341_WriteData(0x78);
 253              		.loc 1 140 3 view .LVU37
 254 0060 0020     		movs	r0, #0
 255 0062 FFF7FEFF 		bl	ili9341_WriteData
 256              	.LVL22:
 141:Src/ili9341.c ****   ili9341_WriteReg(LCD_POWERA);
 257              		.loc 1 141 3 view .LVU38
 258 0066 7820     		movs	r0, #120
 259 0068 FFF7FEFF 		bl	ili9341_WriteData
 260              	.LVL23:
 142:Src/ili9341.c ****   ili9341_WriteData(0x39);
 261              		.loc 1 142 3 view .LVU39
 262 006c CB20     		movs	r0, #203
 263 006e FFF7FEFF 		bl	ili9341_WriteReg
 264              	.LVL24:
 143:Src/ili9341.c ****   ili9341_WriteData(0x2C);
 265              		.loc 1 143 3 view .LVU40
 266 0072 3920     		movs	r0, #57
 267 0074 FFF7FEFF 		bl	ili9341_WriteData
 268              	.LVL25:
 144:Src/ili9341.c ****   ili9341_WriteData(0x00);
 269              		.loc 1 144 3 view .LVU41
 270 0078 2C20     		movs	r0, #44
 271 007a FFF7FEFF 		bl	ili9341_WriteData
 272              	.LVL26:
 145:Src/ili9341.c ****   ili9341_WriteData(0x34);
 273              		.loc 1 145 3 view .LVU42
 274 007e 0020     		movs	r0, #0
 275 0080 FFF7FEFF 		bl	ili9341_WriteData
ARM GAS  /tmp/ccRHpad4.s 			page 12


 276              	.LVL27:
 146:Src/ili9341.c ****   ili9341_WriteData(0x02);
 277              		.loc 1 146 3 view .LVU43
 278 0084 3420     		movs	r0, #52
 279 0086 FFF7FEFF 		bl	ili9341_WriteData
 280              	.LVL28:
 147:Src/ili9341.c ****   ili9341_WriteReg(LCD_PRC);
 281              		.loc 1 147 3 view .LVU44
 282 008a 0220     		movs	r0, #2
 283 008c FFF7FEFF 		bl	ili9341_WriteData
 284              	.LVL29:
 148:Src/ili9341.c ****   ili9341_WriteData(0x20);
 285              		.loc 1 148 3 view .LVU45
 286 0090 F720     		movs	r0, #247
 287 0092 FFF7FEFF 		bl	ili9341_WriteReg
 288              	.LVL30:
 149:Src/ili9341.c ****   ili9341_WriteReg(LCD_DTCB);
 289              		.loc 1 149 3 view .LVU46
 290 0096 2020     		movs	r0, #32
 291 0098 FFF7FEFF 		bl	ili9341_WriteData
 292              	.LVL31:
 150:Src/ili9341.c ****   ili9341_WriteData(0x00);
 293              		.loc 1 150 3 view .LVU47
 294 009c EA20     		movs	r0, #234
 295 009e FFF7FEFF 		bl	ili9341_WriteReg
 296              	.LVL32:
 151:Src/ili9341.c ****   ili9341_WriteData(0x00);
 297              		.loc 1 151 3 view .LVU48
 298 00a2 0020     		movs	r0, #0
 299 00a4 FFF7FEFF 		bl	ili9341_WriteData
 300              	.LVL33:
 152:Src/ili9341.c ****   ili9341_WriteReg(LCD_FRMCTR1);
 301              		.loc 1 152 3 view .LVU49
 302 00a8 0020     		movs	r0, #0
 303 00aa FFF7FEFF 		bl	ili9341_WriteData
 304              	.LVL34:
 153:Src/ili9341.c ****   ili9341_WriteData(0x00);
 305              		.loc 1 153 3 view .LVU50
 306 00ae B120     		movs	r0, #177
 307 00b0 FFF7FEFF 		bl	ili9341_WriteReg
 308              	.LVL35:
 154:Src/ili9341.c ****   ili9341_WriteData(0x1B);
 309              		.loc 1 154 3 view .LVU51
 310 00b4 0020     		movs	r0, #0
 311 00b6 FFF7FEFF 		bl	ili9341_WriteData
 312              	.LVL36:
 155:Src/ili9341.c ****   ili9341_WriteReg(LCD_DFC);
 313              		.loc 1 155 3 view .LVU52
 314 00ba 1B20     		movs	r0, #27
 315 00bc FFF7FEFF 		bl	ili9341_WriteData
 316              	.LVL37:
 156:Src/ili9341.c ****   ili9341_WriteData(0x0A);
 317              		.loc 1 156 3 view .LVU53
 318 00c0 B620     		movs	r0, #182
 319 00c2 FFF7FEFF 		bl	ili9341_WriteReg
 320              	.LVL38:
 157:Src/ili9341.c ****   ili9341_WriteData(0xA2);
ARM GAS  /tmp/ccRHpad4.s 			page 13


 321              		.loc 1 157 3 view .LVU54
 322 00c6 0A20     		movs	r0, #10
 323 00c8 FFF7FEFF 		bl	ili9341_WriteData
 324              	.LVL39:
 158:Src/ili9341.c ****   ili9341_WriteReg(LCD_POWER1);
 325              		.loc 1 158 3 view .LVU55
 326 00cc A220     		movs	r0, #162
 327 00ce FFF7FEFF 		bl	ili9341_WriteData
 328              	.LVL40:
 159:Src/ili9341.c ****   ili9341_WriteData(0x10);
 329              		.loc 1 159 3 view .LVU56
 330 00d2 C020     		movs	r0, #192
 331 00d4 FFF7FEFF 		bl	ili9341_WriteReg
 332              	.LVL41:
 160:Src/ili9341.c ****   ili9341_WriteReg(LCD_POWER2);
 333              		.loc 1 160 3 view .LVU57
 334 00d8 1020     		movs	r0, #16
 335 00da FFF7FEFF 		bl	ili9341_WriteData
 336              	.LVL42:
 161:Src/ili9341.c ****   ili9341_WriteData(0x10);
 337              		.loc 1 161 3 view .LVU58
 338 00de C120     		movs	r0, #193
 339 00e0 FFF7FEFF 		bl	ili9341_WriteReg
 340              	.LVL43:
 162:Src/ili9341.c ****   ili9341_WriteReg(LCD_VCOM1);
 341              		.loc 1 162 3 view .LVU59
 342 00e4 1020     		movs	r0, #16
 343 00e6 FFF7FEFF 		bl	ili9341_WriteData
 344              	.LVL44:
 163:Src/ili9341.c ****   ili9341_WriteData(0x45);
 345              		.loc 1 163 3 view .LVU60
 346 00ea C520     		movs	r0, #197
 347 00ec FFF7FEFF 		bl	ili9341_WriteReg
 348              	.LVL45:
 164:Src/ili9341.c ****   ili9341_WriteData(0x15);
 349              		.loc 1 164 3 view .LVU61
 350 00f0 4520     		movs	r0, #69
 351 00f2 FFF7FEFF 		bl	ili9341_WriteData
 352              	.LVL46:
 165:Src/ili9341.c ****   ili9341_WriteReg(LCD_VCOM2);
 353              		.loc 1 165 3 view .LVU62
 354 00f6 1520     		movs	r0, #21
 355 00f8 FFF7FEFF 		bl	ili9341_WriteData
 356              	.LVL47:
 166:Src/ili9341.c ****   ili9341_WriteData(0x90);
 357              		.loc 1 166 3 view .LVU63
 358 00fc C720     		movs	r0, #199
 359 00fe FFF7FEFF 		bl	ili9341_WriteReg
 360              	.LVL48:
 167:Src/ili9341.c ****   ili9341_WriteReg(LCD_MAC);
 361              		.loc 1 167 3 view .LVU64
 362 0102 9020     		movs	r0, #144
 363 0104 FFF7FEFF 		bl	ili9341_WriteData
 364              	.LVL49:
 168:Src/ili9341.c ****   ili9341_WriteData(0xC8);
 365              		.loc 1 168 3 view .LVU65
 366 0108 3620     		movs	r0, #54
ARM GAS  /tmp/ccRHpad4.s 			page 14


 367 010a FFF7FEFF 		bl	ili9341_WriteReg
 368              	.LVL50:
 169:Src/ili9341.c ****   ili9341_WriteReg(LCD_3GAMMA_EN);
 369              		.loc 1 169 3 view .LVU66
 370 010e C820     		movs	r0, #200
 371 0110 FFF7FEFF 		bl	ili9341_WriteData
 372              	.LVL51:
 170:Src/ili9341.c ****   ili9341_WriteData(0x00);
 373              		.loc 1 170 3 view .LVU67
 374 0114 F220     		movs	r0, #242
 375 0116 FFF7FEFF 		bl	ili9341_WriteReg
 376              	.LVL52:
 171:Src/ili9341.c ****   ili9341_WriteReg(LCD_RGB_INTERFACE);
 377              		.loc 1 171 3 view .LVU68
 378 011a 0020     		movs	r0, #0
 379 011c FFF7FEFF 		bl	ili9341_WriteData
 380              	.LVL53:
 172:Src/ili9341.c ****   ili9341_WriteData(0xC2);
 381              		.loc 1 172 3 view .LVU69
 382 0120 B020     		movs	r0, #176
 383 0122 FFF7FEFF 		bl	ili9341_WriteReg
 384              	.LVL54:
 173:Src/ili9341.c ****   ili9341_WriteReg(LCD_DFC);
 385              		.loc 1 173 3 view .LVU70
 386 0126 C220     		movs	r0, #194
 387 0128 FFF7FEFF 		bl	ili9341_WriteData
 388              	.LVL55:
 174:Src/ili9341.c ****   ili9341_WriteData(0x0A);
 389              		.loc 1 174 3 view .LVU71
 390 012c B620     		movs	r0, #182
 391 012e FFF7FEFF 		bl	ili9341_WriteReg
 392              	.LVL56:
 175:Src/ili9341.c ****   ili9341_WriteData(0xA7);
 393              		.loc 1 175 3 view .LVU72
 394 0132 0A20     		movs	r0, #10
 395 0134 FFF7FEFF 		bl	ili9341_WriteData
 396              	.LVL57:
 176:Src/ili9341.c ****   ili9341_WriteData(0x27);
 397              		.loc 1 176 3 view .LVU73
 398 0138 A720     		movs	r0, #167
 399 013a FFF7FEFF 		bl	ili9341_WriteData
 400              	.LVL58:
 177:Src/ili9341.c ****   ili9341_WriteData(0x04);
 401              		.loc 1 177 3 view .LVU74
 402 013e 2720     		movs	r0, #39
 403 0140 FFF7FEFF 		bl	ili9341_WriteData
 404              	.LVL59:
 178:Src/ili9341.c ****   
 405              		.loc 1 178 3 view .LVU75
 406 0144 0420     		movs	r0, #4
 407 0146 FFF7FEFF 		bl	ili9341_WriteData
 408              	.LVL60:
 181:Src/ili9341.c ****   ili9341_WriteData(0x00);
 409              		.loc 1 181 3 view .LVU76
 410 014a 2A20     		movs	r0, #42
 411 014c FFF7FEFF 		bl	ili9341_WriteReg
 412              	.LVL61:
ARM GAS  /tmp/ccRHpad4.s 			page 15


 182:Src/ili9341.c ****   ili9341_WriteData(0x00);
 413              		.loc 1 182 3 view .LVU77
 414 0150 0020     		movs	r0, #0
 415 0152 FFF7FEFF 		bl	ili9341_WriteData
 416              	.LVL62:
 183:Src/ili9341.c ****   ili9341_WriteData(0x00);
 417              		.loc 1 183 3 view .LVU78
 418 0156 0020     		movs	r0, #0
 419 0158 FFF7FEFF 		bl	ili9341_WriteData
 420              	.LVL63:
 184:Src/ili9341.c ****   ili9341_WriteData(0xEF);
 421              		.loc 1 184 3 view .LVU79
 422 015c 0020     		movs	r0, #0
 423 015e FFF7FEFF 		bl	ili9341_WriteData
 424              	.LVL64:
 185:Src/ili9341.c ****   /* Page address set */
 425              		.loc 1 185 3 view .LVU80
 426 0162 EF20     		movs	r0, #239
 427 0164 FFF7FEFF 		bl	ili9341_WriteData
 428              	.LVL65:
 187:Src/ili9341.c ****   ili9341_WriteData(0x00);
 429              		.loc 1 187 3 view .LVU81
 430 0168 2B20     		movs	r0, #43
 431 016a FFF7FEFF 		bl	ili9341_WriteReg
 432              	.LVL66:
 188:Src/ili9341.c ****   ili9341_WriteData(0x00);
 433              		.loc 1 188 3 view .LVU82
 434 016e 0020     		movs	r0, #0
 435 0170 FFF7FEFF 		bl	ili9341_WriteData
 436              	.LVL67:
 189:Src/ili9341.c ****   ili9341_WriteData(0x01);
 437              		.loc 1 189 3 view .LVU83
 438 0174 0020     		movs	r0, #0
 439 0176 FFF7FEFF 		bl	ili9341_WriteData
 440              	.LVL68:
 190:Src/ili9341.c ****   ili9341_WriteData(0x3F);
 441              		.loc 1 190 3 view .LVU84
 442 017a 0120     		movs	r0, #1
 443 017c FFF7FEFF 		bl	ili9341_WriteData
 444              	.LVL69:
 191:Src/ili9341.c ****   ili9341_WriteReg(LCD_INTERFACE);
 445              		.loc 1 191 3 view .LVU85
 446 0180 3F20     		movs	r0, #63
 447 0182 FFF7FEFF 		bl	ili9341_WriteData
 448              	.LVL70:
 192:Src/ili9341.c ****   ili9341_WriteData(0x01);
 449              		.loc 1 192 3 view .LVU86
 450 0186 F620     		movs	r0, #246
 451 0188 FFF7FEFF 		bl	ili9341_WriteReg
 452              	.LVL71:
 193:Src/ili9341.c ****   ili9341_WriteData(0x00);
 453              		.loc 1 193 3 view .LVU87
 454 018c 0120     		movs	r0, #1
 455 018e FFF7FEFF 		bl	ili9341_WriteData
 456              	.LVL72:
 194:Src/ili9341.c ****   ili9341_WriteData(0x06);
 457              		.loc 1 194 3 view .LVU88
ARM GAS  /tmp/ccRHpad4.s 			page 16


 458 0192 0020     		movs	r0, #0
 459 0194 FFF7FEFF 		bl	ili9341_WriteData
 460              	.LVL73:
 195:Src/ili9341.c ****   
 461              		.loc 1 195 3 view .LVU89
 462 0198 0620     		movs	r0, #6
 463 019a FFF7FEFF 		bl	ili9341_WriteData
 464              	.LVL74:
 197:Src/ili9341.c ****   LCD_Delay(200);
 465              		.loc 1 197 3 view .LVU90
 466 019e 2C20     		movs	r0, #44
 467 01a0 FFF7FEFF 		bl	ili9341_WriteReg
 468              	.LVL75:
 198:Src/ili9341.c ****   
 469              		.loc 1 198 3 view .LVU91
 470 01a4 C820     		movs	r0, #200
 471 01a6 FFF7FEFF 		bl	LCD_Delay
 472              	.LVL76:
 200:Src/ili9341.c ****   ili9341_WriteData(0x01);
 473              		.loc 1 200 3 view .LVU92
 474 01aa 2620     		movs	r0, #38
 475 01ac FFF7FEFF 		bl	ili9341_WriteReg
 476              	.LVL77:
 201:Src/ili9341.c ****   
 477              		.loc 1 201 3 view .LVU93
 478 01b0 0120     		movs	r0, #1
 479 01b2 FFF7FEFF 		bl	ili9341_WriteData
 480              	.LVL78:
 203:Src/ili9341.c ****   ili9341_WriteData(0x0F);
 481              		.loc 1 203 3 view .LVU94
 482 01b6 E020     		movs	r0, #224
 483 01b8 FFF7FEFF 		bl	ili9341_WriteReg
 484              	.LVL79:
 204:Src/ili9341.c ****   ili9341_WriteData(0x29);
 485              		.loc 1 204 3 view .LVU95
 486 01bc 0F20     		movs	r0, #15
 487 01be FFF7FEFF 		bl	ili9341_WriteData
 488              	.LVL80:
 205:Src/ili9341.c ****   ili9341_WriteData(0x24);
 489              		.loc 1 205 3 view .LVU96
 490 01c2 2920     		movs	r0, #41
 491 01c4 FFF7FEFF 		bl	ili9341_WriteData
 492              	.LVL81:
 206:Src/ili9341.c ****   ili9341_WriteData(0x0C);
 493              		.loc 1 206 3 view .LVU97
 494 01c8 2420     		movs	r0, #36
 495 01ca FFF7FEFF 		bl	ili9341_WriteData
 496              	.LVL82:
 207:Src/ili9341.c ****   ili9341_WriteData(0x0E);
 497              		.loc 1 207 3 view .LVU98
 498 01ce 0C20     		movs	r0, #12
 499 01d0 FFF7FEFF 		bl	ili9341_WriteData
 500              	.LVL83:
 208:Src/ili9341.c ****   ili9341_WriteData(0x09);
 501              		.loc 1 208 3 view .LVU99
 502 01d4 0E20     		movs	r0, #14
 503 01d6 FFF7FEFF 		bl	ili9341_WriteData
ARM GAS  /tmp/ccRHpad4.s 			page 17


 504              	.LVL84:
 209:Src/ili9341.c ****   ili9341_WriteData(0x4E);
 505              		.loc 1 209 3 view .LVU100
 506 01da 0920     		movs	r0, #9
 507 01dc FFF7FEFF 		bl	ili9341_WriteData
 508              	.LVL85:
 210:Src/ili9341.c ****   ili9341_WriteData(0x78);
 509              		.loc 1 210 3 view .LVU101
 510 01e0 4E20     		movs	r0, #78
 511 01e2 FFF7FEFF 		bl	ili9341_WriteData
 512              	.LVL86:
 211:Src/ili9341.c ****   ili9341_WriteData(0x3C);
 513              		.loc 1 211 3 view .LVU102
 514 01e6 7820     		movs	r0, #120
 515 01e8 FFF7FEFF 		bl	ili9341_WriteData
 516              	.LVL87:
 212:Src/ili9341.c ****   ili9341_WriteData(0x09);
 517              		.loc 1 212 3 view .LVU103
 518 01ec 3C20     		movs	r0, #60
 519 01ee FFF7FEFF 		bl	ili9341_WriteData
 520              	.LVL88:
 213:Src/ili9341.c ****   ili9341_WriteData(0x13);
 521              		.loc 1 213 3 view .LVU104
 522 01f2 0920     		movs	r0, #9
 523 01f4 FFF7FEFF 		bl	ili9341_WriteData
 524              	.LVL89:
 214:Src/ili9341.c ****   ili9341_WriteData(0x05);
 525              		.loc 1 214 3 view .LVU105
 526 01f8 1320     		movs	r0, #19
 527 01fa FFF7FEFF 		bl	ili9341_WriteData
 528              	.LVL90:
 215:Src/ili9341.c ****   ili9341_WriteData(0x17);
 529              		.loc 1 215 3 view .LVU106
 530 01fe 0520     		movs	r0, #5
 531 0200 FFF7FEFF 		bl	ili9341_WriteData
 532              	.LVL91:
 216:Src/ili9341.c ****   ili9341_WriteData(0x11);
 533              		.loc 1 216 3 view .LVU107
 534 0204 1720     		movs	r0, #23
 535 0206 FFF7FEFF 		bl	ili9341_WriteData
 536              	.LVL92:
 217:Src/ili9341.c ****   ili9341_WriteData(0x00);
 537              		.loc 1 217 3 view .LVU108
 538 020a 1120     		movs	r0, #17
 539 020c FFF7FEFF 		bl	ili9341_WriteData
 540              	.LVL93:
 218:Src/ili9341.c ****   ili9341_WriteReg(LCD_NGAMMA);
 541              		.loc 1 218 3 view .LVU109
 542 0210 0020     		movs	r0, #0
 543 0212 FFF7FEFF 		bl	ili9341_WriteData
 544              	.LVL94:
 219:Src/ili9341.c ****   ili9341_WriteData(0x00);
 545              		.loc 1 219 3 view .LVU110
 546 0216 E120     		movs	r0, #225
 547 0218 FFF7FEFF 		bl	ili9341_WriteReg
 548              	.LVL95:
 220:Src/ili9341.c ****   ili9341_WriteData(0x16);
ARM GAS  /tmp/ccRHpad4.s 			page 18


 549              		.loc 1 220 3 view .LVU111
 550 021c 0020     		movs	r0, #0
 551 021e FFF7FEFF 		bl	ili9341_WriteData
 552              	.LVL96:
 221:Src/ili9341.c ****   ili9341_WriteData(0x1B);
 553              		.loc 1 221 3 view .LVU112
 554 0222 1620     		movs	r0, #22
 555 0224 FFF7FEFF 		bl	ili9341_WriteData
 556              	.LVL97:
 222:Src/ili9341.c ****   ili9341_WriteData(0x04);
 557              		.loc 1 222 3 view .LVU113
 558 0228 1B20     		movs	r0, #27
 559 022a FFF7FEFF 		bl	ili9341_WriteData
 560              	.LVL98:
 223:Src/ili9341.c ****   ili9341_WriteData(0x11);
 561              		.loc 1 223 3 view .LVU114
 562 022e 0420     		movs	r0, #4
 563 0230 FFF7FEFF 		bl	ili9341_WriteData
 564              	.LVL99:
 224:Src/ili9341.c ****   ili9341_WriteData(0x07);
 565              		.loc 1 224 3 view .LVU115
 566 0234 1120     		movs	r0, #17
 567 0236 FFF7FEFF 		bl	ili9341_WriteData
 568              	.LVL100:
 225:Src/ili9341.c ****   ili9341_WriteData(0x31);
 569              		.loc 1 225 3 view .LVU116
 570 023a 0720     		movs	r0, #7
 571 023c FFF7FEFF 		bl	ili9341_WriteData
 572              	.LVL101:
 226:Src/ili9341.c ****   ili9341_WriteData(0x33);
 573              		.loc 1 226 3 view .LVU117
 574 0240 3120     		movs	r0, #49
 575 0242 FFF7FEFF 		bl	ili9341_WriteData
 576              	.LVL102:
 227:Src/ili9341.c ****   ili9341_WriteData(0x42);
 577              		.loc 1 227 3 view .LVU118
 578 0246 3320     		movs	r0, #51
 579 0248 FFF7FEFF 		bl	ili9341_WriteData
 580              	.LVL103:
 228:Src/ili9341.c ****   ili9341_WriteData(0x05);
 581              		.loc 1 228 3 view .LVU119
 582 024c 4220     		movs	r0, #66
 583 024e FFF7FEFF 		bl	ili9341_WriteData
 584              	.LVL104:
 229:Src/ili9341.c ****   ili9341_WriteData(0x0C);
 585              		.loc 1 229 3 view .LVU120
 586 0252 0520     		movs	r0, #5
 587 0254 FFF7FEFF 		bl	ili9341_WriteData
 588              	.LVL105:
 230:Src/ili9341.c ****   ili9341_WriteData(0x0A);
 589              		.loc 1 230 3 view .LVU121
 590 0258 0C20     		movs	r0, #12
 591 025a FFF7FEFF 		bl	ili9341_WriteData
 592              	.LVL106:
 231:Src/ili9341.c ****   ili9341_WriteData(0x28);
 593              		.loc 1 231 3 view .LVU122
 594 025e 0A20     		movs	r0, #10
ARM GAS  /tmp/ccRHpad4.s 			page 19


 595 0260 FFF7FEFF 		bl	ili9341_WriteData
 596              	.LVL107:
 232:Src/ili9341.c ****   ili9341_WriteData(0x2F);
 597              		.loc 1 232 3 view .LVU123
 598 0264 2820     		movs	r0, #40
 599 0266 FFF7FEFF 		bl	ili9341_WriteData
 600              	.LVL108:
 233:Src/ili9341.c ****   ili9341_WriteData(0x0F);
 601              		.loc 1 233 3 view .LVU124
 602 026a 2F20     		movs	r0, #47
 603 026c FFF7FEFF 		bl	ili9341_WriteData
 604              	.LVL109:
 234:Src/ili9341.c ****   
 605              		.loc 1 234 3 view .LVU125
 606 0270 0F20     		movs	r0, #15
 607 0272 FFF7FEFF 		bl	ili9341_WriteData
 608              	.LVL110:
 236:Src/ili9341.c ****   LCD_Delay(200);
 609              		.loc 1 236 3 view .LVU126
 610 0276 1120     		movs	r0, #17
 611 0278 FFF7FEFF 		bl	ili9341_WriteReg
 612              	.LVL111:
 237:Src/ili9341.c ****   ili9341_WriteReg(LCD_DISPLAY_ON);
 613              		.loc 1 237 3 view .LVU127
 614 027c C820     		movs	r0, #200
 615 027e FFF7FEFF 		bl	LCD_Delay
 616              	.LVL112:
 238:Src/ili9341.c ****   /* GRAM start writing */
 617              		.loc 1 238 3 view .LVU128
 618 0282 2920     		movs	r0, #41
 619 0284 FFF7FEFF 		bl	ili9341_WriteReg
 620              	.LVL113:
 240:Src/ili9341.c **** }
 621              		.loc 1 240 3 view .LVU129
 622 0288 2C20     		movs	r0, #44
 623 028a FFF7FEFF 		bl	ili9341_WriteReg
 624              	.LVL114:
 241:Src/ili9341.c **** 
 625              		.loc 1 241 1 is_stmt 0 view .LVU130
 626 028e 08BD     		pop	{r3, pc}
 627              		.cfi_endproc
 628              	.LFE0:
 630              		.section	.text.ili9341_ReadData,"ax",%progbits
 631              		.align	1
 632              		.global	ili9341_ReadData
 633              		.syntax unified
 634              		.thumb
 635              		.thumb_func
 637              	ili9341_ReadData:
 638              	.LVL115:
 639              	.LFB6:
 303:Src/ili9341.c ****   /* Read a max of 4 bytes */
 640              		.loc 1 303 1 is_stmt 1 view -0
 641              		.cfi_startproc
 642              		@ args = 0, pretend = 0, frame = 0
 643              		@ frame_needed = 0, uses_anonymous_args = 0
 303:Src/ili9341.c ****   /* Read a max of 4 bytes */
ARM GAS  /tmp/ccRHpad4.s 			page 20


 644              		.loc 1 303 1 is_stmt 0 view .LVU132
 645 0000 08B5     		push	{r3, lr}
 646              	.LCFI5:
 647              		.cfi_def_cfa_offset 8
 648              		.cfi_offset 3, -8
 649              		.cfi_offset 14, -4
 305:Src/ili9341.c **** }
 650              		.loc 1 305 3 is_stmt 1 view .LVU133
 305:Src/ili9341.c **** }
 651              		.loc 1 305 11 is_stmt 0 view .LVU134
 652 0002 FFF7FEFF 		bl	LCD_IO_ReadData
 653              	.LVL116:
 306:Src/ili9341.c **** 
 654              		.loc 1 306 1 view .LVU135
 655 0006 08BD     		pop	{r3, pc}
 656              		.cfi_endproc
 657              	.LFE6:
 659              		.section	.text.ili9341_ReadID,"ax",%progbits
 660              		.align	1
 661              		.global	ili9341_ReadID
 662              		.syntax unified
 663              		.thumb
 664              		.thumb_func
 666              	ili9341_ReadID:
 667              	.LFB1:
 249:Src/ili9341.c ****   LCD_IO_Init();
 668              		.loc 1 249 1 is_stmt 1 view -0
 669              		.cfi_startproc
 670              		@ args = 0, pretend = 0, frame = 0
 671              		@ frame_needed = 0, uses_anonymous_args = 0
 672 0000 08B5     		push	{r3, lr}
 673              	.LCFI6:
 674              		.cfi_def_cfa_offset 8
 675              		.cfi_offset 3, -8
 676              		.cfi_offset 14, -4
 250:Src/ili9341.c ****   return ((uint16_t)ili9341_ReadData(LCD_READ_ID4, LCD_READ_ID4_SIZE));
 677              		.loc 1 250 3 view .LVU137
 678 0002 FFF7FEFF 		bl	LCD_IO_Init
 679              	.LVL117:
 251:Src/ili9341.c **** }
 680              		.loc 1 251 3 view .LVU138
 251:Src/ili9341.c **** }
 681              		.loc 1 251 21 is_stmt 0 view .LVU139
 682 0006 0321     		movs	r1, #3
 683 0008 D320     		movs	r0, #211
 684 000a FFF7FEFF 		bl	ili9341_ReadData
 685              	.LVL118:
 252:Src/ili9341.c **** 
 686              		.loc 1 252 1 view .LVU140
 687 000e 80B2     		uxth	r0, r0
 688 0010 08BD     		pop	{r3, pc}
 689              		.cfi_endproc
 690              	.LFE1:
 692              		.global	ili9341_drv
 693              		.section	.data.ili9341_drv,"aw"
 694              		.align	2
 697              	ili9341_drv:
ARM GAS  /tmp/ccRHpad4.s 			page 21


 698 0000 00000000 		.word	ili9341_Init
 699 0004 00000000 		.word	ili9341_ReadID
 700 0008 00000000 		.word	ili9341_DisplayOn
 701 000c 00000000 		.word	ili9341_DisplayOff
 702 0010 00000000 		.word	0
 703 0014 00000000 		.word	0
 704 0018 00000000 		.word	0
 705 001c 00000000 		.word	0
 706 0020 00000000 		.word	0
 707 0024 00000000 		.word	0
 708 0028 00000000 		.word	ili9341_GetLcdPixelWidth
 709 002c 00000000 		.word	ili9341_GetLcdPixelHeight
 710 0030 00000000 		.word	0
 711 0034 00000000 		.word	0
 712              		.text
 713              	.Letext0:
 714              		.file 2 "/home/irfan/Desktop/arm/gcc-arm-none-eabi-10.3-2021.10-x86_64-linux/gcc-arm-none-eabi-10.
 715              		.file 3 "/home/irfan/Desktop/arm/gcc-arm-none-eabi-10.3-2021.10-x86_64-linux/gcc-arm-none-eabi-10.
 716              		.file 4 "Inc/lcd.h"
 717              		.file 5 "Inc/ili9341.h"
ARM GAS  /tmp/ccRHpad4.s 			page 22

