ARM GAS  /tmp/ccky5mPs.s 			page 1


   1              		.cpu cortex-m4
   2              		.arch armv7e-m
   3              		.fpu fpv4-sp-d16
   4              		.eabi_attribute 27, 1
   5              		.eabi_attribute 28, 1
   6              		.eabi_attribute 20, 1
   7              		.eabi_attribute 21, 1
   8              		.eabi_attribute 23, 3
   9              		.eabi_attribute 24, 1
  10              		.eabi_attribute 25, 1
  11              		.eabi_attribute 26, 1
  12              		.eabi_attribute 30, 1
  13              		.eabi_attribute 34, 1
  14              		.eabi_attribute 18, 4
  15              		.file	"stm32f429i_discovery_lcd.c"
  16              		.text
  17              	.Ltext0:
  18              		.cfi_sections	.debug_frame
  19              		.section	.text.FillBuffer,"ax",%progbits
  20              		.align	1
  21              		.syntax unified
  22              		.thumb
  23              		.thumb_func
  25              	FillBuffer:
  26              	.LVL0:
  27              	.LFB178:
  28              		.file 1 "Src/stm32f429i_discovery_lcd.c"
   1:Src/stm32f429i_discovery_lcd.c **** /**
   2:Src/stm32f429i_discovery_lcd.c ****   ******************************************************************************
   3:Src/stm32f429i_discovery_lcd.c ****   * @file    stm32f429i_discovery_lcd.c
   4:Src/stm32f429i_discovery_lcd.c ****   * @author  MCD Application Team
   5:Src/stm32f429i_discovery_lcd.c ****   * @brief   This file includes the LCD driver for ILI9341 Liquid Crystal 
   6:Src/stm32f429i_discovery_lcd.c ****   *          Display Modules of STM32F429I-Discovery kit (MB1075).
   7:Src/stm32f429i_discovery_lcd.c ****   ******************************************************************************
   8:Src/stm32f429i_discovery_lcd.c ****   * @attention
   9:Src/stm32f429i_discovery_lcd.c ****   *
  10:Src/stm32f429i_discovery_lcd.c ****   * <h2><center>&copy; COPYRIGHT(c) 2017 STMicroelectronics</center></h2>
  11:Src/stm32f429i_discovery_lcd.c ****   *
  12:Src/stm32f429i_discovery_lcd.c ****   * Redistribution and use in source and binary forms, with or without modification,
  13:Src/stm32f429i_discovery_lcd.c ****   * are permitted provided that the following conditions are met:
  14:Src/stm32f429i_discovery_lcd.c ****   *   1. Redistributions of source code must retain the above copyright notice,
  15:Src/stm32f429i_discovery_lcd.c ****   *      this list of conditions and the following disclaimer.
  16:Src/stm32f429i_discovery_lcd.c ****   *   2. Redistributions in binary form must reproduce the above copyright notice,
  17:Src/stm32f429i_discovery_lcd.c ****   *      this list of conditions and the following disclaimer in the documentation
  18:Src/stm32f429i_discovery_lcd.c ****   *      and/or other materials provided with the distribution.
  19:Src/stm32f429i_discovery_lcd.c ****   *   3. Neither the name of STMicroelectronics nor the names of its contributors
  20:Src/stm32f429i_discovery_lcd.c ****   *      may be used to endorse or promote products derived from this software
  21:Src/stm32f429i_discovery_lcd.c ****   *      without specific prior written permission.
  22:Src/stm32f429i_discovery_lcd.c ****   *
  23:Src/stm32f429i_discovery_lcd.c ****   * THIS SOFTWARE IS PROVIDED BY THE COPYRIGHT HOLDERS AND CONTRIBUTORS "AS IS"
  24:Src/stm32f429i_discovery_lcd.c ****   * AND ANY EXPRESS OR IMPLIED WARRANTIES, INCLUDING, BUT NOT LIMITED TO, THE
  25:Src/stm32f429i_discovery_lcd.c ****   * IMPLIED WARRANTIES OF MERCHANTABILITY AND FITNESS FOR A PARTICULAR PURPOSE ARE
  26:Src/stm32f429i_discovery_lcd.c ****   * DISCLAIMED. IN NO EVENT SHALL THE COPYRIGHT HOLDER OR CONTRIBUTORS BE LIABLE
  27:Src/stm32f429i_discovery_lcd.c ****   * FOR ANY DIRECT, INDIRECT, INCIDENTAL, SPECIAL, EXEMPLARY, OR CONSEQUENTIAL
  28:Src/stm32f429i_discovery_lcd.c ****   * DAMAGES (INCLUDING, BUT NOT LIMITED TO, PROCUREMENT OF SUBSTITUTE GOODS OR
  29:Src/stm32f429i_discovery_lcd.c ****   * SERVICES; LOSS OF USE, DATA, OR PROFITS; OR BUSINESS INTERRUPTION) HOWEVER
  30:Src/stm32f429i_discovery_lcd.c ****   * CAUSED AND ON ANY THEORY OF LIABILITY, WHETHER IN CONTRACT, STRICT LIABILITY,
ARM GAS  /tmp/ccky5mPs.s 			page 2


  31:Src/stm32f429i_discovery_lcd.c ****   * OR TORT (INCLUDING NEGLIGENCE OR OTHERWISE) ARISING IN ANY WAY OUT OF THE USE
  32:Src/stm32f429i_discovery_lcd.c ****   * OF THIS SOFTWARE, EVEN IF ADVISED OF THE POSSIBILITY OF SUCH DAMAGE.
  33:Src/stm32f429i_discovery_lcd.c ****   *
  34:Src/stm32f429i_discovery_lcd.c ****   ******************************************************************************
  35:Src/stm32f429i_discovery_lcd.c ****   */
  36:Src/stm32f429i_discovery_lcd.c **** 
  37:Src/stm32f429i_discovery_lcd.c **** /* File Info : -----------------------------------------------------------------
  38:Src/stm32f429i_discovery_lcd.c ****                                    User NOTES
  39:Src/stm32f429i_discovery_lcd.c **** 1. How To use this driver:
  40:Src/stm32f429i_discovery_lcd.c **** --------------------------
  41:Src/stm32f429i_discovery_lcd.c ****    - This driver is used to drive directly an LCD TFT using LTDC controller.
  42:Src/stm32f429i_discovery_lcd.c ****    - This driver select dynamically the mounted LCD, ILI9341 240x320 LCD mounted 
  43:Src/stm32f429i_discovery_lcd.c ****      on MB1075B discovery board, and use the adequate timing and setting for 
  44:Src/stm32f429i_discovery_lcd.c **** 	 the specified LCD using device ID of the ILI9341 mounted on MB1075B discovery board           
  45:Src/stm32f429i_discovery_lcd.c **** 
  46:Src/stm32f429i_discovery_lcd.c **** 2. Driver description:
  47:Src/stm32f429i_discovery_lcd.c **** ---------------------
  48:Src/stm32f429i_discovery_lcd.c ****   + Initialization steps :
  49:Src/stm32f429i_discovery_lcd.c ****      o Initialize the LCD using the LCD_Init() function.
  50:Src/stm32f429i_discovery_lcd.c ****      o Apply the Layer configuration using LCD_LayerDefaultInit() function    
  51:Src/stm32f429i_discovery_lcd.c ****      o Select the LCD layer to be used using LCD_SelectLayer() function.
  52:Src/stm32f429i_discovery_lcd.c ****      o Enable the LCD display using LCD_DisplayOn() function.
  53:Src/stm32f429i_discovery_lcd.c **** 
  54:Src/stm32f429i_discovery_lcd.c ****   + Options
  55:Src/stm32f429i_discovery_lcd.c ****      o Configure and enable the color keying functionality using LCD_SetColorKeying()
  56:Src/stm32f429i_discovery_lcd.c ****        function.
  57:Src/stm32f429i_discovery_lcd.c ****      o Modify in the fly the transparency and/or the frame buffer address
  58:Src/stm32f429i_discovery_lcd.c ****        using the following functions :
  59:Src/stm32f429i_discovery_lcd.c ****        - LCD_SetTransparency()
  60:Src/stm32f429i_discovery_lcd.c ****        - LCD_SetLayerAddress() 
  61:Src/stm32f429i_discovery_lcd.c ****   
  62:Src/stm32f429i_discovery_lcd.c ****   + Display on LCD
  63:Src/stm32f429i_discovery_lcd.c ****       o Clear the hole LCD using LCD_Clear() function or only one specified string
  64:Src/stm32f429i_discovery_lcd.c ****         line using LCD_ClearStringLine() function.
  65:Src/stm32f429i_discovery_lcd.c ****       o Display a character on the specified line and column using LCD_DisplayChar()
  66:Src/stm32f429i_discovery_lcd.c ****         function or a complete string line using LCD_DisplayStringAtLine() function.
  67:Src/stm32f429i_discovery_lcd.c ****       o Display a string line on the specified position (x,y in pixel) and align mode
  68:Src/stm32f429i_discovery_lcd.c ****         using LCD_DisplayStringAtLine() function.          
  69:Src/stm32f429i_discovery_lcd.c ****       o Draw and fill a basic shapes (dot, line, rectangle, circle, ellipse, .. bitmap) 
  70:Src/stm32f429i_discovery_lcd.c ****         on LCD using the available set of functions     
  71:Src/stm32f429i_discovery_lcd.c ****  
  72:Src/stm32f429i_discovery_lcd.c **** ------------------------------------------------------------------------------*/
  73:Src/stm32f429i_discovery_lcd.c **** 
  74:Src/stm32f429i_discovery_lcd.c **** /* Includes ------------------------------------------------------------------*/
  75:Src/stm32f429i_discovery_lcd.c **** #include "stm32f429i_discovery_lcd.h"
  76:Src/stm32f429i_discovery_lcd.c **** #include "../../../Utilities/Fonts/fonts.h"
  77:Src/stm32f429i_discovery_lcd.c **** #include "../../../Utilities/Fonts/font24.c"
  78:Src/stm32f429i_discovery_lcd.c **** #include "../../../Utilities/Fonts/font20.c"
  79:Src/stm32f429i_discovery_lcd.c **** #include "../../../Utilities/Fonts/font16.c"
  80:Src/stm32f429i_discovery_lcd.c **** #include "../../../Utilities/Fonts/font12.c"
  81:Src/stm32f429i_discovery_lcd.c **** #include "../../../Utilities/Fonts/font8.c"
  82:Src/stm32f429i_discovery_lcd.c **** 
  83:Src/stm32f429i_discovery_lcd.c **** /** @addtogroup BSP
  84:Src/stm32f429i_discovery_lcd.c ****   * @{
  85:Src/stm32f429i_discovery_lcd.c ****   */ 
  86:Src/stm32f429i_discovery_lcd.c **** 
  87:Src/stm32f429i_discovery_lcd.c **** /** @addtogroup STM32F429I_DISCOVERY
ARM GAS  /tmp/ccky5mPs.s 			page 3


  88:Src/stm32f429i_discovery_lcd.c ****   * @{
  89:Src/stm32f429i_discovery_lcd.c ****   */
  90:Src/stm32f429i_discovery_lcd.c ****     
  91:Src/stm32f429i_discovery_lcd.c **** /** @defgroup STM32F429I_DISCOVERY_LCD STM32F429I DISCOVERY LCD
  92:Src/stm32f429i_discovery_lcd.c ****   * @brief This file includes the LCD driver for (ILI9341) 
  93:Src/stm32f429i_discovery_lcd.c ****   * @{
  94:Src/stm32f429i_discovery_lcd.c ****   */ 
  95:Src/stm32f429i_discovery_lcd.c **** 
  96:Src/stm32f429i_discovery_lcd.c **** /** @defgroup STM32F429I_DISCOVERY_LCD_Private_TypesDefinitions STM32F429I DISCOVERY LCD Private Ty
  97:Src/stm32f429i_discovery_lcd.c ****   * @{
  98:Src/stm32f429i_discovery_lcd.c ****   */ 
  99:Src/stm32f429i_discovery_lcd.c **** /**
 100:Src/stm32f429i_discovery_lcd.c ****   * @}
 101:Src/stm32f429i_discovery_lcd.c ****   */ 
 102:Src/stm32f429i_discovery_lcd.c **** 
 103:Src/stm32f429i_discovery_lcd.c **** /** @defgroup STM32F429I_DISCOVERY_LCD_Private_Defines STM32F429I DISCOVERY LCD Private Defines
 104:Src/stm32f429i_discovery_lcd.c ****   * @{
 105:Src/stm32f429i_discovery_lcd.c ****   */
 106:Src/stm32f429i_discovery_lcd.c **** #define POLY_X(Z)              ((int32_t)((Points + Z)->X))
 107:Src/stm32f429i_discovery_lcd.c **** #define POLY_Y(Z)              ((int32_t)((Points + Z)->Y))
 108:Src/stm32f429i_discovery_lcd.c **** /**
 109:Src/stm32f429i_discovery_lcd.c ****   * @}
 110:Src/stm32f429i_discovery_lcd.c ****   */ 
 111:Src/stm32f429i_discovery_lcd.c **** 
 112:Src/stm32f429i_discovery_lcd.c **** /** @defgroup STM32F429I_DISCOVERY_LCD_Private_Macros STM32F429I DISCOVERY LCD Private Macros
 113:Src/stm32f429i_discovery_lcd.c ****   * @{
 114:Src/stm32f429i_discovery_lcd.c ****   */
 115:Src/stm32f429i_discovery_lcd.c **** #define ABS(X)  ((X) > 0 ? (X) : -(X))
 116:Src/stm32f429i_discovery_lcd.c **** /**
 117:Src/stm32f429i_discovery_lcd.c ****   * @}
 118:Src/stm32f429i_discovery_lcd.c ****   */ 
 119:Src/stm32f429i_discovery_lcd.c ****   
 120:Src/stm32f429i_discovery_lcd.c **** /** @defgroup STM32F429I_DISCOVERY_LCD_Private_Variables STM32F429I DISCOVERY LCD Private Variables
 121:Src/stm32f429i_discovery_lcd.c ****   * @{
 122:Src/stm32f429i_discovery_lcd.c ****   */ 
 123:Src/stm32f429i_discovery_lcd.c **** LTDC_HandleTypeDef  LtdcHandler;
 124:Src/stm32f429i_discovery_lcd.c **** static DMA2D_HandleTypeDef Dma2dHandler;
 125:Src/stm32f429i_discovery_lcd.c **** static RCC_PeriphCLKInitTypeDef  PeriphClkInitStruct;
 126:Src/stm32f429i_discovery_lcd.c **** 
 127:Src/stm32f429i_discovery_lcd.c **** /* Default LCD configuration with LCD Layer 1 */
 128:Src/stm32f429i_discovery_lcd.c **** static uint32_t ActiveLayer = 0;
 129:Src/stm32f429i_discovery_lcd.c **** static LCD_DrawPropTypeDef DrawProp[MAX_LAYER_NUMBER];
 130:Src/stm32f429i_discovery_lcd.c **** LCD_DrvTypeDef  *LcdDrv;
 131:Src/stm32f429i_discovery_lcd.c **** /**
 132:Src/stm32f429i_discovery_lcd.c ****   * @}
 133:Src/stm32f429i_discovery_lcd.c ****   */ 
 134:Src/stm32f429i_discovery_lcd.c **** 
 135:Src/stm32f429i_discovery_lcd.c **** /** @defgroup STM32F429I_DISCOVERY_LCD_Private_FunctionPrototypes STM32F429I DISCOVERY LCD Private 
 136:Src/stm32f429i_discovery_lcd.c ****   * @{
 137:Src/stm32f429i_discovery_lcd.c ****   */ 
 138:Src/stm32f429i_discovery_lcd.c **** static void DrawChar(uint16_t Xpos, uint16_t Ypos, const uint8_t *c);
 139:Src/stm32f429i_discovery_lcd.c **** static void FillBuffer(uint32_t LayerIndex, void *pDst, uint32_t xSize, uint32_t ySize, uint32_t Of
 140:Src/stm32f429i_discovery_lcd.c **** static void ConvertLineToARGB8888(void *pSrc, void *pDst, uint32_t xSize, uint32_t ColorMode);
 141:Src/stm32f429i_discovery_lcd.c **** /**
 142:Src/stm32f429i_discovery_lcd.c ****   * @}
 143:Src/stm32f429i_discovery_lcd.c ****   */ 
 144:Src/stm32f429i_discovery_lcd.c **** 
ARM GAS  /tmp/ccky5mPs.s 			page 4


 145:Src/stm32f429i_discovery_lcd.c **** /** @defgroup STM32F429I_DISCOVERY_LCD_Private_Functions STM32F429I DISCOVERY LCD Private Functions
 146:Src/stm32f429i_discovery_lcd.c ****   * @{
 147:Src/stm32f429i_discovery_lcd.c ****   */ 
 148:Src/stm32f429i_discovery_lcd.c **** 
 149:Src/stm32f429i_discovery_lcd.c **** /**
 150:Src/stm32f429i_discovery_lcd.c ****   * @brief  Initializes the LCD.
 151:Src/stm32f429i_discovery_lcd.c ****   * @retval LCD state
 152:Src/stm32f429i_discovery_lcd.c ****   */
 153:Src/stm32f429i_discovery_lcd.c **** uint8_t BSP_LCD_Init(void)
 154:Src/stm32f429i_discovery_lcd.c **** { 
 155:Src/stm32f429i_discovery_lcd.c ****   /* On STM32F429I-DISCO, it is not possible to read ILI9341 ID because */
 156:Src/stm32f429i_discovery_lcd.c ****   /* PIN EXTC is not connected to VDD and then LCD_READ_ID4 is not accessible. */
 157:Src/stm32f429i_discovery_lcd.c ****   /* In this case, ReadID function is bypassed.*/  
 158:Src/stm32f429i_discovery_lcd.c ****   /*if(ili9341_drv.ReadID() == ILI9341_ID)*/
 159:Src/stm32f429i_discovery_lcd.c **** 
 160:Src/stm32f429i_discovery_lcd.c ****     /* LTDC Configuration ----------------------------------------------------*/
 161:Src/stm32f429i_discovery_lcd.c ****     LtdcHandler.Instance = LTDC;
 162:Src/stm32f429i_discovery_lcd.c ****     
 163:Src/stm32f429i_discovery_lcd.c ****     /* Timing configuration  (Typical configuration from ILI9341 datasheet)
 164:Src/stm32f429i_discovery_lcd.c ****           HSYNC=10 (9+1)
 165:Src/stm32f429i_discovery_lcd.c ****           HBP=20 (29-10+1)
 166:Src/stm32f429i_discovery_lcd.c ****           ActiveW=240 (269-20-10+1)
 167:Src/stm32f429i_discovery_lcd.c ****           HFP=10 (279-240-20-10+1)
 168:Src/stm32f429i_discovery_lcd.c ****     
 169:Src/stm32f429i_discovery_lcd.c ****           VSYNC=2 (1+1)
 170:Src/stm32f429i_discovery_lcd.c ****           VBP=2 (3-2+1)
 171:Src/stm32f429i_discovery_lcd.c ****           ActiveH=320 (323-2-2+1)
 172:Src/stm32f429i_discovery_lcd.c ****           VFP=4 (327-320-2-2+1)
 173:Src/stm32f429i_discovery_lcd.c ****       */
 174:Src/stm32f429i_discovery_lcd.c ****     
 175:Src/stm32f429i_discovery_lcd.c ****     /* Configure horizontal synchronization width */
 176:Src/stm32f429i_discovery_lcd.c ****     LtdcHandler.Init.HorizontalSync = ILI9341_HSYNC;
 177:Src/stm32f429i_discovery_lcd.c ****     /* Configure vertical synchronization height */
 178:Src/stm32f429i_discovery_lcd.c ****     LtdcHandler.Init.VerticalSync = ILI9341_VSYNC;
 179:Src/stm32f429i_discovery_lcd.c ****     /* Configure accumulated horizontal back porch */
 180:Src/stm32f429i_discovery_lcd.c ****     LtdcHandler.Init.AccumulatedHBP = ILI9341_HBP;
 181:Src/stm32f429i_discovery_lcd.c ****     /* Configure accumulated vertical back porch */
 182:Src/stm32f429i_discovery_lcd.c ****     LtdcHandler.Init.AccumulatedVBP = ILI9341_VBP;
 183:Src/stm32f429i_discovery_lcd.c ****     /* Configure accumulated active width */
 184:Src/stm32f429i_discovery_lcd.c ****     LtdcHandler.Init.AccumulatedActiveW = 269;
 185:Src/stm32f429i_discovery_lcd.c ****     /* Configure accumulated active height */
 186:Src/stm32f429i_discovery_lcd.c ****     LtdcHandler.Init.AccumulatedActiveH = 323;
 187:Src/stm32f429i_discovery_lcd.c ****     /* Configure total width */
 188:Src/stm32f429i_discovery_lcd.c ****     LtdcHandler.Init.TotalWidth = 279;
 189:Src/stm32f429i_discovery_lcd.c ****     /* Configure total height */
 190:Src/stm32f429i_discovery_lcd.c ****     LtdcHandler.Init.TotalHeigh = 327;
 191:Src/stm32f429i_discovery_lcd.c ****     
 192:Src/stm32f429i_discovery_lcd.c ****     /* Configure R,G,B component values for LCD background color */
 193:Src/stm32f429i_discovery_lcd.c ****     LtdcHandler.Init.Backcolor.Red= 0;
 194:Src/stm32f429i_discovery_lcd.c ****     LtdcHandler.Init.Backcolor.Blue= 0;
 195:Src/stm32f429i_discovery_lcd.c ****     LtdcHandler.Init.Backcolor.Green= 0;
 196:Src/stm32f429i_discovery_lcd.c ****     
 197:Src/stm32f429i_discovery_lcd.c ****     /* LCD clock configuration */
 198:Src/stm32f429i_discovery_lcd.c ****     /* PLLSAI_VCO Input = HSE_VALUE/PLL_M = 1 Mhz */
 199:Src/stm32f429i_discovery_lcd.c ****     /* PLLSAI_VCO Output = PLLSAI_VCO Input * PLLSAIN = 192 Mhz */
 200:Src/stm32f429i_discovery_lcd.c ****     /* PLLLCDCLK = PLLSAI_VCO Output/PLLSAIR = 192/4 = 48 Mhz */
 201:Src/stm32f429i_discovery_lcd.c ****     /* LTDC clock frequency = PLLLCDCLK / LTDC_PLLSAI_DIVR_8 = 48/4 = 6Mhz */
ARM GAS  /tmp/ccky5mPs.s 			page 5


 202:Src/stm32f429i_discovery_lcd.c ****     PeriphClkInitStruct.PeriphClockSelection = RCC_PERIPHCLK_LTDC;
 203:Src/stm32f429i_discovery_lcd.c ****     PeriphClkInitStruct.PLLSAI.PLLSAIN = 192;
 204:Src/stm32f429i_discovery_lcd.c ****     PeriphClkInitStruct.PLLSAI.PLLSAIR = 4;
 205:Src/stm32f429i_discovery_lcd.c ****     PeriphClkInitStruct.PLLSAIDivR = RCC_PLLSAIDIVR_8;
 206:Src/stm32f429i_discovery_lcd.c ****     HAL_RCCEx_PeriphCLKConfig(&PeriphClkInitStruct); 
 207:Src/stm32f429i_discovery_lcd.c ****     
 208:Src/stm32f429i_discovery_lcd.c ****     /* Polarity */
 209:Src/stm32f429i_discovery_lcd.c ****     LtdcHandler.Init.HSPolarity = LTDC_HSPOLARITY_AL;
 210:Src/stm32f429i_discovery_lcd.c ****     LtdcHandler.Init.VSPolarity = LTDC_VSPOLARITY_AL;
 211:Src/stm32f429i_discovery_lcd.c ****     LtdcHandler.Init.DEPolarity = LTDC_DEPOLARITY_AL;
 212:Src/stm32f429i_discovery_lcd.c ****     LtdcHandler.Init.PCPolarity = LTDC_PCPOLARITY_IPC;
 213:Src/stm32f429i_discovery_lcd.c ****     
 214:Src/stm32f429i_discovery_lcd.c ****     BSP_LCD_MspInit();
 215:Src/stm32f429i_discovery_lcd.c ****     HAL_LTDC_Init(&LtdcHandler); 
 216:Src/stm32f429i_discovery_lcd.c ****     
 217:Src/stm32f429i_discovery_lcd.c ****     /* Select the device */
 218:Src/stm32f429i_discovery_lcd.c ****     LcdDrv = &ili9341_drv;
 219:Src/stm32f429i_discovery_lcd.c **** 
 220:Src/stm32f429i_discovery_lcd.c ****     /* LCD Init */	 
 221:Src/stm32f429i_discovery_lcd.c ****     LcdDrv->Init();
 222:Src/stm32f429i_discovery_lcd.c **** 
 223:Src/stm32f429i_discovery_lcd.c ****     /* Initialize the SDRAM */
 224:Src/stm32f429i_discovery_lcd.c ****     BSP_SDRAM_Init();
 225:Src/stm32f429i_discovery_lcd.c **** 
 226:Src/stm32f429i_discovery_lcd.c ****     /* Initialize the font */
 227:Src/stm32f429i_discovery_lcd.c ****     BSP_LCD_SetFont(&LCD_DEFAULT_FONT);
 228:Src/stm32f429i_discovery_lcd.c **** 
 229:Src/stm32f429i_discovery_lcd.c ****   return LCD_OK;
 230:Src/stm32f429i_discovery_lcd.c **** }  
 231:Src/stm32f429i_discovery_lcd.c **** 
 232:Src/stm32f429i_discovery_lcd.c **** /**
 233:Src/stm32f429i_discovery_lcd.c ****   * @brief  Gets the LCD X size.  
 234:Src/stm32f429i_discovery_lcd.c ****   * @retval The used LCD X size
 235:Src/stm32f429i_discovery_lcd.c ****   */
 236:Src/stm32f429i_discovery_lcd.c **** uint32_t BSP_LCD_GetXSize(void)
 237:Src/stm32f429i_discovery_lcd.c **** {
 238:Src/stm32f429i_discovery_lcd.c ****   return LcdDrv->GetLcdPixelWidth();
 239:Src/stm32f429i_discovery_lcd.c **** }
 240:Src/stm32f429i_discovery_lcd.c **** 
 241:Src/stm32f429i_discovery_lcd.c **** /**
 242:Src/stm32f429i_discovery_lcd.c ****   * @brief  Gets the LCD Y size.  
 243:Src/stm32f429i_discovery_lcd.c ****   * @retval The used LCD Y size
 244:Src/stm32f429i_discovery_lcd.c ****   */
 245:Src/stm32f429i_discovery_lcd.c **** uint32_t BSP_LCD_GetYSize(void)
 246:Src/stm32f429i_discovery_lcd.c **** {
 247:Src/stm32f429i_discovery_lcd.c ****   return LcdDrv->GetLcdPixelHeight();
 248:Src/stm32f429i_discovery_lcd.c **** }
 249:Src/stm32f429i_discovery_lcd.c **** 
 250:Src/stm32f429i_discovery_lcd.c **** /**
 251:Src/stm32f429i_discovery_lcd.c ****   * @brief  Initializes the LCD layers.
 252:Src/stm32f429i_discovery_lcd.c ****   * @param  LayerIndex: the layer foreground or background. 
 253:Src/stm32f429i_discovery_lcd.c ****   * @param  FB_Address: the layer frame buffer.
 254:Src/stm32f429i_discovery_lcd.c ****   */
 255:Src/stm32f429i_discovery_lcd.c **** void BSP_LCD_LayerDefaultInit(uint16_t LayerIndex, uint32_t FB_Address)
 256:Src/stm32f429i_discovery_lcd.c **** {     
 257:Src/stm32f429i_discovery_lcd.c ****   LCD_LayerCfgTypeDef   Layercfg;
 258:Src/stm32f429i_discovery_lcd.c **** 
ARM GAS  /tmp/ccky5mPs.s 			page 6


 259:Src/stm32f429i_discovery_lcd.c ****  /* Layer Init */
 260:Src/stm32f429i_discovery_lcd.c ****   Layercfg.WindowX0 = 0;
 261:Src/stm32f429i_discovery_lcd.c ****   Layercfg.WindowX1 = BSP_LCD_GetXSize();
 262:Src/stm32f429i_discovery_lcd.c ****   Layercfg.WindowY0 = 0;
 263:Src/stm32f429i_discovery_lcd.c ****   Layercfg.WindowY1 = BSP_LCD_GetYSize(); 
 264:Src/stm32f429i_discovery_lcd.c ****   Layercfg.PixelFormat = LTDC_PIXEL_FORMAT_RGB565;//ARGB8888;
 265:Src/stm32f429i_discovery_lcd.c ****   Layercfg.FBStartAdress = FB_Address;
 266:Src/stm32f429i_discovery_lcd.c ****   Layercfg.Alpha = 255;
 267:Src/stm32f429i_discovery_lcd.c ****   Layercfg.Alpha0 = 0;
 268:Src/stm32f429i_discovery_lcd.c ****   Layercfg.Backcolor.Blue = 0;
 269:Src/stm32f429i_discovery_lcd.c ****   Layercfg.Backcolor.Green = 0;
 270:Src/stm32f429i_discovery_lcd.c ****   Layercfg.Backcolor.Red = 0;
 271:Src/stm32f429i_discovery_lcd.c ****   Layercfg.BlendingFactor1 = LTDC_BLENDING_FACTOR1_PAxCA;
 272:Src/stm32f429i_discovery_lcd.c ****   Layercfg.BlendingFactor2 = LTDC_BLENDING_FACTOR2_PAxCA;
 273:Src/stm32f429i_discovery_lcd.c ****   Layercfg.ImageWidth = BSP_LCD_GetXSize();
 274:Src/stm32f429i_discovery_lcd.c ****   Layercfg.ImageHeight = BSP_LCD_GetYSize();
 275:Src/stm32f429i_discovery_lcd.c ****   
 276:Src/stm32f429i_discovery_lcd.c ****   HAL_LTDC_ConfigLayer(&LtdcHandler, &Layercfg, LayerIndex); 
 277:Src/stm32f429i_discovery_lcd.c **** 
 278:Src/stm32f429i_discovery_lcd.c ****   DrawProp[LayerIndex].BackColor = LCD_COLOR_WHITE;
 279:Src/stm32f429i_discovery_lcd.c ****   DrawProp[LayerIndex].pFont     = &Font24;
 280:Src/stm32f429i_discovery_lcd.c ****   DrawProp[LayerIndex].TextColor = LCD_COLOR_BLACK; 
 281:Src/stm32f429i_discovery_lcd.c **** 
 282:Src/stm32f429i_discovery_lcd.c ****   /* Dithering activation */
 283:Src/stm32f429i_discovery_lcd.c ****   HAL_LTDC_EnableDither(&LtdcHandler);
 284:Src/stm32f429i_discovery_lcd.c **** }
 285:Src/stm32f429i_discovery_lcd.c **** 
 286:Src/stm32f429i_discovery_lcd.c **** /**
 287:Src/stm32f429i_discovery_lcd.c ****   * @brief  Selects the LCD Layer.
 288:Src/stm32f429i_discovery_lcd.c ****   * @param  LayerIndex: the Layer foreground or background.
 289:Src/stm32f429i_discovery_lcd.c ****   */
 290:Src/stm32f429i_discovery_lcd.c **** void BSP_LCD_SelectLayer(uint32_t LayerIndex)
 291:Src/stm32f429i_discovery_lcd.c **** {
 292:Src/stm32f429i_discovery_lcd.c ****   ActiveLayer = LayerIndex;
 293:Src/stm32f429i_discovery_lcd.c **** }
 294:Src/stm32f429i_discovery_lcd.c **** 
 295:Src/stm32f429i_discovery_lcd.c **** /**
 296:Src/stm32f429i_discovery_lcd.c ****   * @brief  Sets a LCD Layer visible.
 297:Src/stm32f429i_discovery_lcd.c ****   * @param  LayerIndex: the visible Layer.
 298:Src/stm32f429i_discovery_lcd.c ****   * @param  state: new state of the specified layer.
 299:Src/stm32f429i_discovery_lcd.c ****   *    This parameter can be: ENABLE or DISABLE.  
 300:Src/stm32f429i_discovery_lcd.c ****   */
 301:Src/stm32f429i_discovery_lcd.c **** void BSP_LCD_SetLayerVisible(uint32_t LayerIndex, FunctionalState state)
 302:Src/stm32f429i_discovery_lcd.c **** {
 303:Src/stm32f429i_discovery_lcd.c ****   if(state == ENABLE)
 304:Src/stm32f429i_discovery_lcd.c ****   {
 305:Src/stm32f429i_discovery_lcd.c ****     __HAL_LTDC_LAYER_ENABLE(&LtdcHandler, LayerIndex);
 306:Src/stm32f429i_discovery_lcd.c ****   }
 307:Src/stm32f429i_discovery_lcd.c ****   else
 308:Src/stm32f429i_discovery_lcd.c ****   {
 309:Src/stm32f429i_discovery_lcd.c ****     __HAL_LTDC_LAYER_DISABLE(&LtdcHandler, LayerIndex);
 310:Src/stm32f429i_discovery_lcd.c ****   }
 311:Src/stm32f429i_discovery_lcd.c ****   __HAL_LTDC_RELOAD_CONFIG(&LtdcHandler);
 312:Src/stm32f429i_discovery_lcd.c **** }
 313:Src/stm32f429i_discovery_lcd.c **** 
 314:Src/stm32f429i_discovery_lcd.c **** /**
 315:Src/stm32f429i_discovery_lcd.c ****   * @brief  Sets an LCD Layer visible without reloading.
ARM GAS  /tmp/ccky5mPs.s 			page 7


 316:Src/stm32f429i_discovery_lcd.c ****   * @param  LayerIndex: Visible Layer
 317:Src/stm32f429i_discovery_lcd.c ****   * @param  State: New state of the specified layer
 318:Src/stm32f429i_discovery_lcd.c ****   *          This parameter can be one of the following values:
 319:Src/stm32f429i_discovery_lcd.c ****   *            @arg  ENABLE
 320:Src/stm32f429i_discovery_lcd.c ****   *            @arg  DISABLE 
 321:Src/stm32f429i_discovery_lcd.c ****   * @retval None
 322:Src/stm32f429i_discovery_lcd.c ****   */
 323:Src/stm32f429i_discovery_lcd.c **** void BSP_LCD_SetLayerVisible_NoReload(uint32_t LayerIndex, FunctionalState State)
 324:Src/stm32f429i_discovery_lcd.c **** {
 325:Src/stm32f429i_discovery_lcd.c ****   if(State == ENABLE)
 326:Src/stm32f429i_discovery_lcd.c ****   {
 327:Src/stm32f429i_discovery_lcd.c ****     __HAL_LTDC_LAYER_ENABLE(&LtdcHandler, LayerIndex);
 328:Src/stm32f429i_discovery_lcd.c ****   }
 329:Src/stm32f429i_discovery_lcd.c ****   else
 330:Src/stm32f429i_discovery_lcd.c ****   {
 331:Src/stm32f429i_discovery_lcd.c ****     __HAL_LTDC_LAYER_DISABLE(&LtdcHandler, LayerIndex);
 332:Src/stm32f429i_discovery_lcd.c ****   }
 333:Src/stm32f429i_discovery_lcd.c ****   /* Do not Sets the Reload  */
 334:Src/stm32f429i_discovery_lcd.c **** }
 335:Src/stm32f429i_discovery_lcd.c **** 
 336:Src/stm32f429i_discovery_lcd.c **** /**
 337:Src/stm32f429i_discovery_lcd.c ****   * @brief  Configures the Transparency.
 338:Src/stm32f429i_discovery_lcd.c ****   * @param  LayerIndex: the Layer foreground or background.
 339:Src/stm32f429i_discovery_lcd.c ****   * @param  Transparency: the Transparency, 
 340:Src/stm32f429i_discovery_lcd.c ****   *    This parameter must range from 0x00 to 0xFF.
 341:Src/stm32f429i_discovery_lcd.c ****   */
 342:Src/stm32f429i_discovery_lcd.c **** void BSP_LCD_SetTransparency(uint32_t LayerIndex, uint8_t Transparency)
 343:Src/stm32f429i_discovery_lcd.c **** {     
 344:Src/stm32f429i_discovery_lcd.c ****   HAL_LTDC_SetAlpha(&LtdcHandler, Transparency, LayerIndex);
 345:Src/stm32f429i_discovery_lcd.c **** }
 346:Src/stm32f429i_discovery_lcd.c **** 
 347:Src/stm32f429i_discovery_lcd.c **** /**
 348:Src/stm32f429i_discovery_lcd.c ****   * @brief  Configures the transparency without reloading.
 349:Src/stm32f429i_discovery_lcd.c ****   * @param  LayerIndex: Layer foreground or background.
 350:Src/stm32f429i_discovery_lcd.c ****   * @param  Transparency: Transparency
 351:Src/stm32f429i_discovery_lcd.c ****   *           This parameter must be a number between Min_Data = 0x00 and Max_Data = 0xFF 
 352:Src/stm32f429i_discovery_lcd.c ****   * @retval None
 353:Src/stm32f429i_discovery_lcd.c ****   */
 354:Src/stm32f429i_discovery_lcd.c **** void BSP_LCD_SetTransparency_NoReload(uint32_t LayerIndex, uint8_t Transparency)
 355:Src/stm32f429i_discovery_lcd.c **** {    
 356:Src/stm32f429i_discovery_lcd.c ****   HAL_LTDC_SetAlpha_NoReload(&LtdcHandler, Transparency, LayerIndex);
 357:Src/stm32f429i_discovery_lcd.c **** }
 358:Src/stm32f429i_discovery_lcd.c **** 
 359:Src/stm32f429i_discovery_lcd.c **** /**
 360:Src/stm32f429i_discovery_lcd.c ****   * @brief  Sets a LCD layer frame buffer address.
 361:Src/stm32f429i_discovery_lcd.c ****   * @param  LayerIndex: specifies the Layer foreground or background
 362:Src/stm32f429i_discovery_lcd.c ****   * @param  Address: new LCD frame buffer value      
 363:Src/stm32f429i_discovery_lcd.c ****   */
 364:Src/stm32f429i_discovery_lcd.c **** void BSP_LCD_SetLayerAddress(uint32_t LayerIndex, uint32_t Address)
 365:Src/stm32f429i_discovery_lcd.c **** {     
 366:Src/stm32f429i_discovery_lcd.c ****   HAL_LTDC_SetAddress(&LtdcHandler, Address, LayerIndex);
 367:Src/stm32f429i_discovery_lcd.c **** }
 368:Src/stm32f429i_discovery_lcd.c **** 
 369:Src/stm32f429i_discovery_lcd.c **** /**
 370:Src/stm32f429i_discovery_lcd.c ****   * @brief  Sets an LCD layer frame buffer address without reloading.
 371:Src/stm32f429i_discovery_lcd.c ****   * @param  LayerIndex: Layer foreground or background
 372:Src/stm32f429i_discovery_lcd.c ****   * @param  Address: New LCD frame buffer value      
ARM GAS  /tmp/ccky5mPs.s 			page 8


 373:Src/stm32f429i_discovery_lcd.c ****   * @retval None
 374:Src/stm32f429i_discovery_lcd.c ****   */
 375:Src/stm32f429i_discovery_lcd.c **** void BSP_LCD_SetLayerAddress_NoReload(uint32_t LayerIndex, uint32_t Address)
 376:Src/stm32f429i_discovery_lcd.c **** {
 377:Src/stm32f429i_discovery_lcd.c ****   HAL_LTDC_SetAddress_NoReload(&LtdcHandler, Address, LayerIndex);
 378:Src/stm32f429i_discovery_lcd.c **** }
 379:Src/stm32f429i_discovery_lcd.c **** 
 380:Src/stm32f429i_discovery_lcd.c **** /**
 381:Src/stm32f429i_discovery_lcd.c ****   * @brief  Sets the Display window.
 382:Src/stm32f429i_discovery_lcd.c ****   * @param  LayerIndex: layer index
 383:Src/stm32f429i_discovery_lcd.c ****   * @param  Xpos: LCD X position
 384:Src/stm32f429i_discovery_lcd.c ****   * @param  Ypos: LCD Y position
 385:Src/stm32f429i_discovery_lcd.c ****   * @param  Width: LCD window width
 386:Src/stm32f429i_discovery_lcd.c ****   * @param  Height: LCD window height  
 387:Src/stm32f429i_discovery_lcd.c ****   */
 388:Src/stm32f429i_discovery_lcd.c **** void BSP_LCD_SetLayerWindow(uint16_t LayerIndex, uint16_t Xpos, uint16_t Ypos, uint16_t Width, uint
 389:Src/stm32f429i_discovery_lcd.c **** {
 390:Src/stm32f429i_discovery_lcd.c ****   /* reconfigure the layer size */
 391:Src/stm32f429i_discovery_lcd.c ****   HAL_LTDC_SetWindowSize(&LtdcHandler, Width, Height, LayerIndex);
 392:Src/stm32f429i_discovery_lcd.c ****   
 393:Src/stm32f429i_discovery_lcd.c ****   /* reconfigure the layer position */
 394:Src/stm32f429i_discovery_lcd.c ****   HAL_LTDC_SetWindowPosition(&LtdcHandler, Xpos, Ypos, LayerIndex);
 395:Src/stm32f429i_discovery_lcd.c **** }
 396:Src/stm32f429i_discovery_lcd.c **** 
 397:Src/stm32f429i_discovery_lcd.c **** /**
 398:Src/stm32f429i_discovery_lcd.c ****   * @brief  Sets display window without reloading.
 399:Src/stm32f429i_discovery_lcd.c ****   * @param  LayerIndex: Layer index
 400:Src/stm32f429i_discovery_lcd.c ****   * @param  Xpos: LCD X position
 401:Src/stm32f429i_discovery_lcd.c ****   * @param  Ypos: LCD Y position
 402:Src/stm32f429i_discovery_lcd.c ****   * @param  Width: LCD window width
 403:Src/stm32f429i_discovery_lcd.c ****   * @param  Height: LCD window height  
 404:Src/stm32f429i_discovery_lcd.c ****   * @retval None
 405:Src/stm32f429i_discovery_lcd.c ****   */
 406:Src/stm32f429i_discovery_lcd.c **** void BSP_LCD_SetLayerWindow_NoReload(uint16_t LayerIndex, uint16_t Xpos, uint16_t Ypos, uint16_t Wi
 407:Src/stm32f429i_discovery_lcd.c **** {
 408:Src/stm32f429i_discovery_lcd.c ****   /* Reconfigure the layer size */
 409:Src/stm32f429i_discovery_lcd.c ****   HAL_LTDC_SetWindowSize_NoReload(&LtdcHandler, Width, Height, LayerIndex);
 410:Src/stm32f429i_discovery_lcd.c ****   
 411:Src/stm32f429i_discovery_lcd.c ****   /* Reconfigure the layer position */
 412:Src/stm32f429i_discovery_lcd.c ****   HAL_LTDC_SetWindowPosition_NoReload(&LtdcHandler, Xpos, Ypos, LayerIndex); 
 413:Src/stm32f429i_discovery_lcd.c **** }
 414:Src/stm32f429i_discovery_lcd.c **** 
 415:Src/stm32f429i_discovery_lcd.c **** /**
 416:Src/stm32f429i_discovery_lcd.c ****   * @brief  Configures and sets the color Keying.
 417:Src/stm32f429i_discovery_lcd.c ****   * @param  LayerIndex: the Layer foreground or background
 418:Src/stm32f429i_discovery_lcd.c ****   * @param  RGBValue: the Color reference
 419:Src/stm32f429i_discovery_lcd.c ****   */
 420:Src/stm32f429i_discovery_lcd.c **** void BSP_LCD_SetColorKeying(uint32_t LayerIndex, uint32_t RGBValue)
 421:Src/stm32f429i_discovery_lcd.c **** {  
 422:Src/stm32f429i_discovery_lcd.c ****   /* Configure and Enable the color Keying for LCD Layer */
 423:Src/stm32f429i_discovery_lcd.c ****   HAL_LTDC_ConfigColorKeying(&LtdcHandler, RGBValue, LayerIndex);
 424:Src/stm32f429i_discovery_lcd.c ****   HAL_LTDC_EnableColorKeying(&LtdcHandler, LayerIndex);
 425:Src/stm32f429i_discovery_lcd.c **** }
 426:Src/stm32f429i_discovery_lcd.c **** 
 427:Src/stm32f429i_discovery_lcd.c **** /**
 428:Src/stm32f429i_discovery_lcd.c ****   * @brief  Configures and sets the color keying without reloading.
 429:Src/stm32f429i_discovery_lcd.c ****   * @param  LayerIndex: Layer foreground or background
ARM GAS  /tmp/ccky5mPs.s 			page 9


 430:Src/stm32f429i_discovery_lcd.c ****   * @param  RGBValue: Color reference
 431:Src/stm32f429i_discovery_lcd.c ****   * @retval None
 432:Src/stm32f429i_discovery_lcd.c ****   */
 433:Src/stm32f429i_discovery_lcd.c **** void BSP_LCD_SetColorKeying_NoReload(uint32_t LayerIndex, uint32_t RGBValue)
 434:Src/stm32f429i_discovery_lcd.c **** {  
 435:Src/stm32f429i_discovery_lcd.c ****   /* Configure and Enable the color Keying for LCD Layer */
 436:Src/stm32f429i_discovery_lcd.c ****   HAL_LTDC_ConfigColorKeying_NoReload(&LtdcHandler, RGBValue, LayerIndex);
 437:Src/stm32f429i_discovery_lcd.c ****   HAL_LTDC_EnableColorKeying_NoReload(&LtdcHandler, LayerIndex);
 438:Src/stm32f429i_discovery_lcd.c **** }
 439:Src/stm32f429i_discovery_lcd.c **** 
 440:Src/stm32f429i_discovery_lcd.c **** /**
 441:Src/stm32f429i_discovery_lcd.c ****   * @brief  Disables the color Keying.
 442:Src/stm32f429i_discovery_lcd.c ****   * @param  LayerIndex: the Layer foreground or background
 443:Src/stm32f429i_discovery_lcd.c ****   */
 444:Src/stm32f429i_discovery_lcd.c **** void BSP_LCD_ResetColorKeying(uint32_t LayerIndex)
 445:Src/stm32f429i_discovery_lcd.c **** {
 446:Src/stm32f429i_discovery_lcd.c ****   /* Disable the color Keying for LCD Layer */
 447:Src/stm32f429i_discovery_lcd.c ****   HAL_LTDC_DisableColorKeying(&LtdcHandler, LayerIndex);
 448:Src/stm32f429i_discovery_lcd.c **** }
 449:Src/stm32f429i_discovery_lcd.c **** 
 450:Src/stm32f429i_discovery_lcd.c **** /**
 451:Src/stm32f429i_discovery_lcd.c ****   * @brief  Disables the color keying without reloading.
 452:Src/stm32f429i_discovery_lcd.c ****   * @param  LayerIndex: Layer foreground or background
 453:Src/stm32f429i_discovery_lcd.c ****   * @retval None
 454:Src/stm32f429i_discovery_lcd.c ****   */
 455:Src/stm32f429i_discovery_lcd.c **** void BSP_LCD_ResetColorKeying_NoReload(uint32_t LayerIndex)
 456:Src/stm32f429i_discovery_lcd.c **** {   
 457:Src/stm32f429i_discovery_lcd.c ****   /* Disable the color Keying for LCD Layer */
 458:Src/stm32f429i_discovery_lcd.c ****   HAL_LTDC_DisableColorKeying_NoReload(&LtdcHandler, LayerIndex);
 459:Src/stm32f429i_discovery_lcd.c **** }
 460:Src/stm32f429i_discovery_lcd.c **** 
 461:Src/stm32f429i_discovery_lcd.c **** /**
 462:Src/stm32f429i_discovery_lcd.c ****   * @brief  Disables the color keying without reloading.
 463:Src/stm32f429i_discovery_lcd.c ****   * @param  ReloadType: can be one of the following values
 464:Src/stm32f429i_discovery_lcd.c ****   *         - LCD_RELOAD_IMMEDIATE
 465:Src/stm32f429i_discovery_lcd.c ****   *         - LCD_RELOAD_VERTICAL_BLANKING
 466:Src/stm32f429i_discovery_lcd.c ****   * @retval None
 467:Src/stm32f429i_discovery_lcd.c ****   */
 468:Src/stm32f429i_discovery_lcd.c **** void BSP_LCD_Relaod(uint32_t ReloadType)
 469:Src/stm32f429i_discovery_lcd.c **** {
 470:Src/stm32f429i_discovery_lcd.c ****   HAL_LTDC_Relaod (&LtdcHandler, ReloadType);
 471:Src/stm32f429i_discovery_lcd.c **** }
 472:Src/stm32f429i_discovery_lcd.c **** 
 473:Src/stm32f429i_discovery_lcd.c **** /**
 474:Src/stm32f429i_discovery_lcd.c ****   * @brief  Gets the LCD Text color.
 475:Src/stm32f429i_discovery_lcd.c ****   * @retval Text color
 476:Src/stm32f429i_discovery_lcd.c ****   */
 477:Src/stm32f429i_discovery_lcd.c **** uint32_t BSP_LCD_GetTextColor(void)
 478:Src/stm32f429i_discovery_lcd.c **** {
 479:Src/stm32f429i_discovery_lcd.c ****   return DrawProp[ActiveLayer].TextColor;
 480:Src/stm32f429i_discovery_lcd.c **** }
 481:Src/stm32f429i_discovery_lcd.c **** 
 482:Src/stm32f429i_discovery_lcd.c **** /**
 483:Src/stm32f429i_discovery_lcd.c ****   * @brief  Gets the LCD Background color. 
 484:Src/stm32f429i_discovery_lcd.c ****   * @retval Background color  
 485:Src/stm32f429i_discovery_lcd.c ****   */
 486:Src/stm32f429i_discovery_lcd.c **** uint32_t BSP_LCD_GetBackColor(void)
ARM GAS  /tmp/ccky5mPs.s 			page 10


 487:Src/stm32f429i_discovery_lcd.c **** {
 488:Src/stm32f429i_discovery_lcd.c ****   return DrawProp[ActiveLayer].BackColor;
 489:Src/stm32f429i_discovery_lcd.c **** }
 490:Src/stm32f429i_discovery_lcd.c **** 
 491:Src/stm32f429i_discovery_lcd.c **** /**
 492:Src/stm32f429i_discovery_lcd.c ****   * @brief  Sets the Text color.
 493:Src/stm32f429i_discovery_lcd.c ****   * @param  Color: the Text color code ARGB(8-8-8-8)
 494:Src/stm32f429i_discovery_lcd.c ****   */
 495:Src/stm32f429i_discovery_lcd.c **** void BSP_LCD_SetTextColor(uint32_t Color)
 496:Src/stm32f429i_discovery_lcd.c **** {
 497:Src/stm32f429i_discovery_lcd.c ****   DrawProp[ActiveLayer].TextColor = Color;
 498:Src/stm32f429i_discovery_lcd.c **** }
 499:Src/stm32f429i_discovery_lcd.c **** 
 500:Src/stm32f429i_discovery_lcd.c **** /**
 501:Src/stm32f429i_discovery_lcd.c ****   * @brief  Sets the Background color.
 502:Src/stm32f429i_discovery_lcd.c ****   * @param  Color: the layer Background color code ARGB(8-8-8-8)
 503:Src/stm32f429i_discovery_lcd.c ****   */
 504:Src/stm32f429i_discovery_lcd.c **** void BSP_LCD_SetBackColor(uint32_t Color)
 505:Src/stm32f429i_discovery_lcd.c **** {
 506:Src/stm32f429i_discovery_lcd.c ****   DrawProp[ActiveLayer].BackColor = Color;
 507:Src/stm32f429i_discovery_lcd.c **** }
 508:Src/stm32f429i_discovery_lcd.c **** 
 509:Src/stm32f429i_discovery_lcd.c **** /**
 510:Src/stm32f429i_discovery_lcd.c ****   * @brief  Sets the Text Font.
 511:Src/stm32f429i_discovery_lcd.c ****   * @param  pFonts: the layer font to be used
 512:Src/stm32f429i_discovery_lcd.c ****   */
 513:Src/stm32f429i_discovery_lcd.c **** void BSP_LCD_SetFont(sFONT *pFonts)
 514:Src/stm32f429i_discovery_lcd.c **** {
 515:Src/stm32f429i_discovery_lcd.c ****   DrawProp[ActiveLayer].pFont = pFonts;
 516:Src/stm32f429i_discovery_lcd.c **** }
 517:Src/stm32f429i_discovery_lcd.c **** 
 518:Src/stm32f429i_discovery_lcd.c **** /**
 519:Src/stm32f429i_discovery_lcd.c ****   * @brief  Gets the Text Font.
 520:Src/stm32f429i_discovery_lcd.c ****   * @retval Layer font
 521:Src/stm32f429i_discovery_lcd.c ****   */
 522:Src/stm32f429i_discovery_lcd.c **** sFONT *BSP_LCD_GetFont(void)
 523:Src/stm32f429i_discovery_lcd.c **** {
 524:Src/stm32f429i_discovery_lcd.c ****   return DrawProp[ActiveLayer].pFont;
 525:Src/stm32f429i_discovery_lcd.c **** }
 526:Src/stm32f429i_discovery_lcd.c **** 
 527:Src/stm32f429i_discovery_lcd.c **** /**
 528:Src/stm32f429i_discovery_lcd.c ****   * @brief  Reads Pixel.
 529:Src/stm32f429i_discovery_lcd.c ****   * @param  Xpos: the X position
 530:Src/stm32f429i_discovery_lcd.c ****   * @param  Ypos: the Y position 
 531:Src/stm32f429i_discovery_lcd.c ****   * @retval RGB pixel color
 532:Src/stm32f429i_discovery_lcd.c ****   */
 533:Src/stm32f429i_discovery_lcd.c **** uint32_t BSP_LCD_ReadPixel(uint16_t Xpos, uint16_t Ypos)
 534:Src/stm32f429i_discovery_lcd.c **** {
 535:Src/stm32f429i_discovery_lcd.c ****   uint32_t ret = 0;
 536:Src/stm32f429i_discovery_lcd.c ****   
 537:Src/stm32f429i_discovery_lcd.c ****   if(LtdcHandler.LayerCfg[ActiveLayer].PixelFormat == LTDC_PIXEL_FORMAT_ARGB8888)
 538:Src/stm32f429i_discovery_lcd.c ****   {
 539:Src/stm32f429i_discovery_lcd.c ****     /* Read data value from SDRAM memory */
 540:Src/stm32f429i_discovery_lcd.c ****     ret = *(__IO uint32_t*) (LtdcHandler.LayerCfg[ActiveLayer].FBStartAdress + (4*(Ypos*BSP_LCD_Get
 541:Src/stm32f429i_discovery_lcd.c ****   }
 542:Src/stm32f429i_discovery_lcd.c ****   else if(LtdcHandler.LayerCfg[ActiveLayer].PixelFormat == LTDC_PIXEL_FORMAT_RGB888)
 543:Src/stm32f429i_discovery_lcd.c ****   {
ARM GAS  /tmp/ccky5mPs.s 			page 11


 544:Src/stm32f429i_discovery_lcd.c ****     /* Read data value from SDRAM memory */
 545:Src/stm32f429i_discovery_lcd.c ****     ret = (*(__IO uint32_t*) (LtdcHandler.LayerCfg[ActiveLayer].FBStartAdress + (4*(Ypos*BSP_LCD_Ge
 546:Src/stm32f429i_discovery_lcd.c ****   }
 547:Src/stm32f429i_discovery_lcd.c ****   else if((LtdcHandler.LayerCfg[ActiveLayer].PixelFormat == LTDC_PIXEL_FORMAT_RGB565) || \
 548:Src/stm32f429i_discovery_lcd.c ****           (LtdcHandler.LayerCfg[ActiveLayer].PixelFormat == LTDC_PIXEL_FORMAT_ARGB4444) || \
 549:Src/stm32f429i_discovery_lcd.c ****           (LtdcHandler.LayerCfg[ActiveLayer].PixelFormat == LTDC_PIXEL_FORMAT_AL88))  
 550:Src/stm32f429i_discovery_lcd.c ****   {
 551:Src/stm32f429i_discovery_lcd.c ****     /* Read data value from SDRAM memory */
 552:Src/stm32f429i_discovery_lcd.c ****     ret = *(__IO uint16_t*) (LtdcHandler.LayerCfg[ActiveLayer].FBStartAdress + (2*(Ypos*BSP_LCD_Get
 553:Src/stm32f429i_discovery_lcd.c ****   }
 554:Src/stm32f429i_discovery_lcd.c ****   else
 555:Src/stm32f429i_discovery_lcd.c ****   {
 556:Src/stm32f429i_discovery_lcd.c ****     /* Read data value from SDRAM memory */
 557:Src/stm32f429i_discovery_lcd.c ****     ret = *(__IO uint8_t*) (LtdcHandler.LayerCfg[ActiveLayer].FBStartAdress + (2*(Ypos*BSP_LCD_GetX
 558:Src/stm32f429i_discovery_lcd.c ****   }
 559:Src/stm32f429i_discovery_lcd.c **** 
 560:Src/stm32f429i_discovery_lcd.c ****   return ret;
 561:Src/stm32f429i_discovery_lcd.c **** }
 562:Src/stm32f429i_discovery_lcd.c **** 
 563:Src/stm32f429i_discovery_lcd.c **** /**
 564:Src/stm32f429i_discovery_lcd.c ****   * @brief  Clears the hole LCD.
 565:Src/stm32f429i_discovery_lcd.c ****   * @param  Color: the color of the background
 566:Src/stm32f429i_discovery_lcd.c ****   */
 567:Src/stm32f429i_discovery_lcd.c **** void BSP_LCD_Clear(uint32_t Color)
 568:Src/stm32f429i_discovery_lcd.c **** { 
 569:Src/stm32f429i_discovery_lcd.c ****   /* Clear the LCD */ 
 570:Src/stm32f429i_discovery_lcd.c ****   FillBuffer(ActiveLayer, (uint32_t *)(LtdcHandler.LayerCfg[ActiveLayer].FBStartAdress), BSP_LCD_Ge
 571:Src/stm32f429i_discovery_lcd.c **** }
 572:Src/stm32f429i_discovery_lcd.c **** 
 573:Src/stm32f429i_discovery_lcd.c **** /**
 574:Src/stm32f429i_discovery_lcd.c ****   * @brief  Clears the selected line.
 575:Src/stm32f429i_discovery_lcd.c ****   * @param  Line: the line to be cleared
 576:Src/stm32f429i_discovery_lcd.c ****   */
 577:Src/stm32f429i_discovery_lcd.c **** void BSP_LCD_ClearStringLine(uint32_t Line)
 578:Src/stm32f429i_discovery_lcd.c **** {
 579:Src/stm32f429i_discovery_lcd.c ****   uint32_t colorbackup = DrawProp[ActiveLayer].TextColor;
 580:Src/stm32f429i_discovery_lcd.c ****   DrawProp[ActiveLayer].TextColor = DrawProp[ActiveLayer].BackColor;
 581:Src/stm32f429i_discovery_lcd.c **** 
 582:Src/stm32f429i_discovery_lcd.c ****   /* Draw rectangle with background color */
 583:Src/stm32f429i_discovery_lcd.c ****   BSP_LCD_FillRect(0, (Line * DrawProp[ActiveLayer].pFont->Height), BSP_LCD_GetXSize(), DrawProp[Ac
 584:Src/stm32f429i_discovery_lcd.c ****   
 585:Src/stm32f429i_discovery_lcd.c ****   DrawProp[ActiveLayer].TextColor = colorbackup;
 586:Src/stm32f429i_discovery_lcd.c ****   BSP_LCD_SetTextColor(DrawProp[ActiveLayer].TextColor);  
 587:Src/stm32f429i_discovery_lcd.c **** }
 588:Src/stm32f429i_discovery_lcd.c **** 
 589:Src/stm32f429i_discovery_lcd.c **** /**
 590:Src/stm32f429i_discovery_lcd.c ****   * @brief  Displays one character.
 591:Src/stm32f429i_discovery_lcd.c ****   * @param  Xpos: start column address
 592:Src/stm32f429i_discovery_lcd.c ****   * @param  Ypos: the Line where to display the character shape
 593:Src/stm32f429i_discovery_lcd.c ****   * @param  Ascii: character ascii code, must be between 0x20 and 0x7E
 594:Src/stm32f429i_discovery_lcd.c ****   */
 595:Src/stm32f429i_discovery_lcd.c **** void BSP_LCD_DisplayChar(uint16_t Xpos, uint16_t Ypos, uint8_t Ascii)
 596:Src/stm32f429i_discovery_lcd.c **** {
 597:Src/stm32f429i_discovery_lcd.c ****   DrawChar(Xpos, Ypos, &DrawProp[ActiveLayer].pFont->table[(Ascii-' ') *\
 598:Src/stm32f429i_discovery_lcd.c ****               DrawProp[ActiveLayer].pFont->Height * ((DrawProp[ActiveLayer].pFont->Width + 7) / 8)]
 599:Src/stm32f429i_discovery_lcd.c **** }
 600:Src/stm32f429i_discovery_lcd.c **** 
ARM GAS  /tmp/ccky5mPs.s 			page 12


 601:Src/stm32f429i_discovery_lcd.c **** /**
 602:Src/stm32f429i_discovery_lcd.c ****   * @brief  Displays a maximum of 60 char on the LCD.
 603:Src/stm32f429i_discovery_lcd.c ****   * @param  X: pointer to x position (in pixel)
 604:Src/stm32f429i_discovery_lcd.c ****   * @param  Y: pointer to y position (in pixel)    
 605:Src/stm32f429i_discovery_lcd.c ****   * @param  pText: pointer to string to display on LCD
 606:Src/stm32f429i_discovery_lcd.c ****   * @param  mode: The display mode
 607:Src/stm32f429i_discovery_lcd.c ****   *    This parameter can be one of the following values:
 608:Src/stm32f429i_discovery_lcd.c ****   *                @arg CENTER_MODE 
 609:Src/stm32f429i_discovery_lcd.c ****   *                @arg RIGHT_MODE
 610:Src/stm32f429i_discovery_lcd.c ****   *                @arg LEFT_MODE   
 611:Src/stm32f429i_discovery_lcd.c ****   */
 612:Src/stm32f429i_discovery_lcd.c **** void BSP_LCD_DisplayStringAt(uint16_t X, uint16_t Y, uint8_t *pText, Text_AlignModeTypdef mode)
 613:Src/stm32f429i_discovery_lcd.c **** {
 614:Src/stm32f429i_discovery_lcd.c ****   uint16_t refcolumn = 1, i = 0;
 615:Src/stm32f429i_discovery_lcd.c ****   uint32_t size = 0, xsize = 0; 
 616:Src/stm32f429i_discovery_lcd.c ****   uint8_t  *ptr = pText;
 617:Src/stm32f429i_discovery_lcd.c ****   
 618:Src/stm32f429i_discovery_lcd.c ****   /* Get the text size */
 619:Src/stm32f429i_discovery_lcd.c ****   while (*ptr++) size ++ ;
 620:Src/stm32f429i_discovery_lcd.c ****   
 621:Src/stm32f429i_discovery_lcd.c ****   /* Characters number per line */
 622:Src/stm32f429i_discovery_lcd.c ****   xsize = (BSP_LCD_GetXSize()/DrawProp[ActiveLayer].pFont->Width);
 623:Src/stm32f429i_discovery_lcd.c ****   
 624:Src/stm32f429i_discovery_lcd.c ****   switch (mode)
 625:Src/stm32f429i_discovery_lcd.c ****   {
 626:Src/stm32f429i_discovery_lcd.c ****   case CENTER_MODE:
 627:Src/stm32f429i_discovery_lcd.c ****     {
 628:Src/stm32f429i_discovery_lcd.c ****       refcolumn = X+ ((xsize - size)* DrawProp[ActiveLayer].pFont->Width) / 2;
 629:Src/stm32f429i_discovery_lcd.c ****       break;
 630:Src/stm32f429i_discovery_lcd.c ****     }
 631:Src/stm32f429i_discovery_lcd.c ****   case LEFT_MODE:
 632:Src/stm32f429i_discovery_lcd.c ****     {
 633:Src/stm32f429i_discovery_lcd.c ****       refcolumn = X;
 634:Src/stm32f429i_discovery_lcd.c ****       break;
 635:Src/stm32f429i_discovery_lcd.c ****     }
 636:Src/stm32f429i_discovery_lcd.c ****   case RIGHT_MODE:
 637:Src/stm32f429i_discovery_lcd.c ****     {
 638:Src/stm32f429i_discovery_lcd.c ****       refcolumn = X + ((xsize - size)*DrawProp[ActiveLayer].pFont->Width);
 639:Src/stm32f429i_discovery_lcd.c ****       break;
 640:Src/stm32f429i_discovery_lcd.c ****     }
 641:Src/stm32f429i_discovery_lcd.c ****   default:
 642:Src/stm32f429i_discovery_lcd.c ****     {
 643:Src/stm32f429i_discovery_lcd.c ****       refcolumn = X;
 644:Src/stm32f429i_discovery_lcd.c ****       break;
 645:Src/stm32f429i_discovery_lcd.c ****     }
 646:Src/stm32f429i_discovery_lcd.c ****   }
 647:Src/stm32f429i_discovery_lcd.c **** 
 648:Src/stm32f429i_discovery_lcd.c ****   /* Send the string character by character on LCD */
 649:Src/stm32f429i_discovery_lcd.c ****   while ((*pText != 0) & (((BSP_LCD_GetXSize() - (i*DrawProp[ActiveLayer].pFont->Width)) & 0xFFFF) 
 650:Src/stm32f429i_discovery_lcd.c ****   {
 651:Src/stm32f429i_discovery_lcd.c ****     /* Display one character on LCD */
 652:Src/stm32f429i_discovery_lcd.c ****     BSP_LCD_DisplayChar(refcolumn, Y, *pText);
 653:Src/stm32f429i_discovery_lcd.c ****     /* Decrement the column position by 16 */
 654:Src/stm32f429i_discovery_lcd.c ****     refcolumn += DrawProp[ActiveLayer].pFont->Width;
 655:Src/stm32f429i_discovery_lcd.c ****     /* Point on the next character */
 656:Src/stm32f429i_discovery_lcd.c ****     pText++;
 657:Src/stm32f429i_discovery_lcd.c ****     i++;
ARM GAS  /tmp/ccky5mPs.s 			page 13


 658:Src/stm32f429i_discovery_lcd.c ****   }  
 659:Src/stm32f429i_discovery_lcd.c **** }
 660:Src/stm32f429i_discovery_lcd.c **** 
 661:Src/stm32f429i_discovery_lcd.c **** /**
 662:Src/stm32f429i_discovery_lcd.c ****   * @brief  Displays a maximum of 20 char on the LCD.
 663:Src/stm32f429i_discovery_lcd.c ****   * @param  Line: the Line where to display the character shape
 664:Src/stm32f429i_discovery_lcd.c ****   * @param  ptr: pointer to string to display on LCD
 665:Src/stm32f429i_discovery_lcd.c ****   */
 666:Src/stm32f429i_discovery_lcd.c **** void BSP_LCD_DisplayStringAtLine(uint16_t Line, uint8_t *ptr)
 667:Src/stm32f429i_discovery_lcd.c **** {
 668:Src/stm32f429i_discovery_lcd.c ****   BSP_LCD_DisplayStringAt(0, LINE(Line), ptr, LEFT_MODE);
 669:Src/stm32f429i_discovery_lcd.c **** }
 670:Src/stm32f429i_discovery_lcd.c **** 
 671:Src/stm32f429i_discovery_lcd.c **** /**
 672:Src/stm32f429i_discovery_lcd.c ****   * @brief  Displays an horizontal line.
 673:Src/stm32f429i_discovery_lcd.c ****   * @param  Xpos: the X position
 674:Src/stm32f429i_discovery_lcd.c ****   * @param  Ypos: the Y position
 675:Src/stm32f429i_discovery_lcd.c ****   * @param  Length: line length
 676:Src/stm32f429i_discovery_lcd.c ****   */
 677:Src/stm32f429i_discovery_lcd.c **** void BSP_LCD_DrawHLine(uint16_t Xpos, uint16_t Ypos, uint16_t Length)
 678:Src/stm32f429i_discovery_lcd.c **** {
 679:Src/stm32f429i_discovery_lcd.c ****   uint32_t xaddress = 0;
 680:Src/stm32f429i_discovery_lcd.c ****   
 681:Src/stm32f429i_discovery_lcd.c ****   /* Get the line address */
 682:Src/stm32f429i_discovery_lcd.c ****   xaddress = (LtdcHandler.LayerCfg[ActiveLayer].FBStartAdress) + 4*(BSP_LCD_GetXSize()*Ypos + Xpos)
 683:Src/stm32f429i_discovery_lcd.c **** 
 684:Src/stm32f429i_discovery_lcd.c ****   /* Write line */
 685:Src/stm32f429i_discovery_lcd.c ****   FillBuffer(ActiveLayer, (uint32_t *)xaddress, Length, 1, 0, DrawProp[ActiveLayer].TextColor);
 686:Src/stm32f429i_discovery_lcd.c **** }
 687:Src/stm32f429i_discovery_lcd.c **** 
 688:Src/stm32f429i_discovery_lcd.c **** /**
 689:Src/stm32f429i_discovery_lcd.c ****   * @brief  Displays a vertical line.
 690:Src/stm32f429i_discovery_lcd.c ****   * @param  Xpos: the X position
 691:Src/stm32f429i_discovery_lcd.c ****   * @param  Ypos: the Y position
 692:Src/stm32f429i_discovery_lcd.c ****   * @param  Length: line length
 693:Src/stm32f429i_discovery_lcd.c ****   */
 694:Src/stm32f429i_discovery_lcd.c **** void BSP_LCD_DrawVLine(uint16_t Xpos, uint16_t Ypos, uint16_t Length)
 695:Src/stm32f429i_discovery_lcd.c **** {
 696:Src/stm32f429i_discovery_lcd.c ****   uint32_t xaddress = 0;
 697:Src/stm32f429i_discovery_lcd.c ****   
 698:Src/stm32f429i_discovery_lcd.c ****   /* Get the line address */
 699:Src/stm32f429i_discovery_lcd.c ****   xaddress = (LtdcHandler.LayerCfg[ActiveLayer].FBStartAdress) + 4*(BSP_LCD_GetXSize()*Ypos + Xpos)
 700:Src/stm32f429i_discovery_lcd.c ****   
 701:Src/stm32f429i_discovery_lcd.c ****   /* Write line */
 702:Src/stm32f429i_discovery_lcd.c ****   FillBuffer(ActiveLayer, (uint32_t *)xaddress, 1, Length, (BSP_LCD_GetXSize() - 1), DrawProp[Activ
 703:Src/stm32f429i_discovery_lcd.c **** }
 704:Src/stm32f429i_discovery_lcd.c **** 
 705:Src/stm32f429i_discovery_lcd.c **** /**
 706:Src/stm32f429i_discovery_lcd.c ****   * @brief  Displays an uni-line (between two points).
 707:Src/stm32f429i_discovery_lcd.c ****   * @param  X1: the point 1 X position
 708:Src/stm32f429i_discovery_lcd.c ****   * @param  Y1: the point 1 Y position
 709:Src/stm32f429i_discovery_lcd.c ****   * @param  X2: the point 2 X position
 710:Src/stm32f429i_discovery_lcd.c ****   * @param  Y2: the point 2 Y position
 711:Src/stm32f429i_discovery_lcd.c ****   */
 712:Src/stm32f429i_discovery_lcd.c **** void BSP_LCD_DrawLine(uint16_t X1, uint16_t Y1, uint16_t X2, uint16_t Y2)
 713:Src/stm32f429i_discovery_lcd.c **** {
 714:Src/stm32f429i_discovery_lcd.c ****   int16_t deltax = 0, deltay = 0, x = 0, y = 0, xinc1 = 0, xinc2 = 0, 
ARM GAS  /tmp/ccky5mPs.s 			page 14


 715:Src/stm32f429i_discovery_lcd.c ****   yinc1 = 0, yinc2 = 0, den = 0, num = 0, numadd = 0, numpixels = 0, 
 716:Src/stm32f429i_discovery_lcd.c ****   curpixel = 0;
 717:Src/stm32f429i_discovery_lcd.c ****   
 718:Src/stm32f429i_discovery_lcd.c ****   deltax = ABS(X2 - X1);        /* The difference between the x's */
 719:Src/stm32f429i_discovery_lcd.c ****   deltay = ABS(Y2 - Y1);        /* The difference between the y's */
 720:Src/stm32f429i_discovery_lcd.c ****   x = X1;                       /* Start x off at the first pixel */
 721:Src/stm32f429i_discovery_lcd.c ****   y = Y1;                       /* Start y off at the first pixel */
 722:Src/stm32f429i_discovery_lcd.c ****   
 723:Src/stm32f429i_discovery_lcd.c ****   if (X2 >= X1)                 /* The x-values are increasing */
 724:Src/stm32f429i_discovery_lcd.c ****   {
 725:Src/stm32f429i_discovery_lcd.c ****     xinc1 = 1;
 726:Src/stm32f429i_discovery_lcd.c ****     xinc2 = 1;
 727:Src/stm32f429i_discovery_lcd.c ****   }
 728:Src/stm32f429i_discovery_lcd.c ****   else                          /* The x-values are decreasing */
 729:Src/stm32f429i_discovery_lcd.c ****   {
 730:Src/stm32f429i_discovery_lcd.c ****     xinc1 = -1;
 731:Src/stm32f429i_discovery_lcd.c ****     xinc2 = -1;
 732:Src/stm32f429i_discovery_lcd.c ****   }
 733:Src/stm32f429i_discovery_lcd.c ****   
 734:Src/stm32f429i_discovery_lcd.c ****   if (Y2 >= Y1)                 /* The y-values are increasing */
 735:Src/stm32f429i_discovery_lcd.c ****   {
 736:Src/stm32f429i_discovery_lcd.c ****     yinc1 = 1;
 737:Src/stm32f429i_discovery_lcd.c ****     yinc2 = 1;
 738:Src/stm32f429i_discovery_lcd.c ****   }
 739:Src/stm32f429i_discovery_lcd.c ****   else                          /* The y-values are decreasing */
 740:Src/stm32f429i_discovery_lcd.c ****   {
 741:Src/stm32f429i_discovery_lcd.c ****     yinc1 = -1;
 742:Src/stm32f429i_discovery_lcd.c ****     yinc2 = -1;
 743:Src/stm32f429i_discovery_lcd.c ****   }
 744:Src/stm32f429i_discovery_lcd.c ****   
 745:Src/stm32f429i_discovery_lcd.c ****   if (deltax >= deltay)         /* There is at least one x-value for every y-value */
 746:Src/stm32f429i_discovery_lcd.c ****   {
 747:Src/stm32f429i_discovery_lcd.c ****     xinc1 = 0;                  /* Don't change the x when numerator >= denominator */
 748:Src/stm32f429i_discovery_lcd.c ****     yinc2 = 0;                  /* Don't change the y for every iteration */
 749:Src/stm32f429i_discovery_lcd.c ****     den = deltax;
 750:Src/stm32f429i_discovery_lcd.c ****     num = deltax / 2;
 751:Src/stm32f429i_discovery_lcd.c ****     numadd = deltay;
 752:Src/stm32f429i_discovery_lcd.c ****     numpixels = deltax;         /* There are more x-values than y-values */
 753:Src/stm32f429i_discovery_lcd.c ****   }
 754:Src/stm32f429i_discovery_lcd.c ****   else                          /* There is at least one y-value for every x-value */
 755:Src/stm32f429i_discovery_lcd.c ****   {
 756:Src/stm32f429i_discovery_lcd.c ****     xinc2 = 0;                  /* Don't change the x for every iteration */
 757:Src/stm32f429i_discovery_lcd.c ****     yinc1 = 0;                  /* Don't change the y when numerator >= denominator */
 758:Src/stm32f429i_discovery_lcd.c ****     den = deltay;
 759:Src/stm32f429i_discovery_lcd.c ****     num = deltay / 2;
 760:Src/stm32f429i_discovery_lcd.c ****     numadd = deltax;
 761:Src/stm32f429i_discovery_lcd.c ****     numpixels = deltay;         /* There are more y-values than x-values */
 762:Src/stm32f429i_discovery_lcd.c ****   }
 763:Src/stm32f429i_discovery_lcd.c ****   
 764:Src/stm32f429i_discovery_lcd.c ****   for (curpixel = 0; curpixel <= numpixels; curpixel++)
 765:Src/stm32f429i_discovery_lcd.c ****   {
 766:Src/stm32f429i_discovery_lcd.c ****     BSP_LCD_DrawPixel(x, y, DrawProp[ActiveLayer].TextColor);   /* Draw the current pixel */
 767:Src/stm32f429i_discovery_lcd.c ****     num += numadd;                            /* Increase the numerator by the top of the fraction 
 768:Src/stm32f429i_discovery_lcd.c ****     if (num >= den)                           /* Check if numerator >= denominator */
 769:Src/stm32f429i_discovery_lcd.c ****     {
 770:Src/stm32f429i_discovery_lcd.c ****       num -= den;                             /* Calculate the new numerator value */
 771:Src/stm32f429i_discovery_lcd.c ****       x += xinc1;                             /* Change the x as appropriate */
ARM GAS  /tmp/ccky5mPs.s 			page 15


 772:Src/stm32f429i_discovery_lcd.c ****       y += yinc1;                             /* Change the y as appropriate */
 773:Src/stm32f429i_discovery_lcd.c ****     }
 774:Src/stm32f429i_discovery_lcd.c ****     x += xinc2;                               /* Change the x as appropriate */
 775:Src/stm32f429i_discovery_lcd.c ****     y += yinc2;                               /* Change the y as appropriate */
 776:Src/stm32f429i_discovery_lcd.c ****   }
 777:Src/stm32f429i_discovery_lcd.c **** }
 778:Src/stm32f429i_discovery_lcd.c **** 
 779:Src/stm32f429i_discovery_lcd.c **** /**
 780:Src/stm32f429i_discovery_lcd.c ****   * @brief  Displays a rectangle.
 781:Src/stm32f429i_discovery_lcd.c ****   * @param  Xpos: the X position
 782:Src/stm32f429i_discovery_lcd.c ****   * @param  Ypos: the Y position
 783:Src/stm32f429i_discovery_lcd.c ****   * @param  Height: display rectangle height
 784:Src/stm32f429i_discovery_lcd.c ****   * @param  Width: display rectangle width
 785:Src/stm32f429i_discovery_lcd.c ****   */
 786:Src/stm32f429i_discovery_lcd.c **** void BSP_LCD_DrawRect(uint16_t Xpos, uint16_t Ypos, uint16_t Width, uint16_t Height)
 787:Src/stm32f429i_discovery_lcd.c **** {
 788:Src/stm32f429i_discovery_lcd.c ****   /* Draw horizontal lines */
 789:Src/stm32f429i_discovery_lcd.c ****   BSP_LCD_DrawHLine(Xpos, Ypos, Width);
 790:Src/stm32f429i_discovery_lcd.c ****   BSP_LCD_DrawHLine(Xpos, (Ypos+ Height), Width);
 791:Src/stm32f429i_discovery_lcd.c ****   
 792:Src/stm32f429i_discovery_lcd.c ****   /* Draw vertical lines */
 793:Src/stm32f429i_discovery_lcd.c ****   BSP_LCD_DrawVLine(Xpos, Ypos, Height);
 794:Src/stm32f429i_discovery_lcd.c ****   BSP_LCD_DrawVLine((Xpos + Width), Ypos, Height);
 795:Src/stm32f429i_discovery_lcd.c **** }
 796:Src/stm32f429i_discovery_lcd.c **** 
 797:Src/stm32f429i_discovery_lcd.c **** /**
 798:Src/stm32f429i_discovery_lcd.c ****   * @brief  Displays a circle.
 799:Src/stm32f429i_discovery_lcd.c ****   * @param  Xpos: the X position
 800:Src/stm32f429i_discovery_lcd.c ****   * @param  Ypos: the Y position
 801:Src/stm32f429i_discovery_lcd.c ****   * @param  Radius: the circle radius
 802:Src/stm32f429i_discovery_lcd.c ****   */
 803:Src/stm32f429i_discovery_lcd.c **** void BSP_LCD_DrawCircle(uint16_t Xpos, uint16_t Ypos, uint16_t Radius)
 804:Src/stm32f429i_discovery_lcd.c **** {
 805:Src/stm32f429i_discovery_lcd.c ****   int32_t  d;/* Decision Variable */ 
 806:Src/stm32f429i_discovery_lcd.c ****   uint32_t  curx;/* Current X Value */
 807:Src/stm32f429i_discovery_lcd.c ****   uint32_t  cury;/* Current Y Value */ 
 808:Src/stm32f429i_discovery_lcd.c ****   
 809:Src/stm32f429i_discovery_lcd.c ****   d = 3 - (Radius << 1);
 810:Src/stm32f429i_discovery_lcd.c ****   curx = 0;
 811:Src/stm32f429i_discovery_lcd.c ****   cury = Radius;
 812:Src/stm32f429i_discovery_lcd.c ****   
 813:Src/stm32f429i_discovery_lcd.c ****   while (curx <= cury)
 814:Src/stm32f429i_discovery_lcd.c ****   {
 815:Src/stm32f429i_discovery_lcd.c ****     BSP_LCD_DrawPixel((Xpos + curx), (Ypos - cury), DrawProp[ActiveLayer].TextColor);
 816:Src/stm32f429i_discovery_lcd.c ****     BSP_LCD_DrawPixel((Xpos - curx), (Ypos - cury), DrawProp[ActiveLayer].TextColor);
 817:Src/stm32f429i_discovery_lcd.c ****     BSP_LCD_DrawPixel((Xpos + cury), (Ypos - curx), DrawProp[ActiveLayer].TextColor);
 818:Src/stm32f429i_discovery_lcd.c ****     BSP_LCD_DrawPixel((Xpos - cury), (Ypos - curx), DrawProp[ActiveLayer].TextColor);
 819:Src/stm32f429i_discovery_lcd.c ****     BSP_LCD_DrawPixel((Xpos + curx), (Ypos + cury), DrawProp[ActiveLayer].TextColor);
 820:Src/stm32f429i_discovery_lcd.c ****     BSP_LCD_DrawPixel((Xpos - curx), (Ypos + cury), DrawProp[ActiveLayer].TextColor);
 821:Src/stm32f429i_discovery_lcd.c ****     BSP_LCD_DrawPixel((Xpos + cury), (Ypos + curx), DrawProp[ActiveLayer].TextColor);
 822:Src/stm32f429i_discovery_lcd.c ****     BSP_LCD_DrawPixel((Xpos - cury), (Ypos + curx), DrawProp[ActiveLayer].TextColor);   
 823:Src/stm32f429i_discovery_lcd.c **** 
 824:Src/stm32f429i_discovery_lcd.c ****     if (d < 0)
 825:Src/stm32f429i_discovery_lcd.c ****     { 
 826:Src/stm32f429i_discovery_lcd.c ****       d += (curx << 2) + 6;
 827:Src/stm32f429i_discovery_lcd.c ****     }
 828:Src/stm32f429i_discovery_lcd.c ****     else
ARM GAS  /tmp/ccky5mPs.s 			page 16


 829:Src/stm32f429i_discovery_lcd.c ****     {
 830:Src/stm32f429i_discovery_lcd.c ****       d += ((curx - cury) << 2) + 10;
 831:Src/stm32f429i_discovery_lcd.c ****       cury--;
 832:Src/stm32f429i_discovery_lcd.c ****     }
 833:Src/stm32f429i_discovery_lcd.c ****     curx++;
 834:Src/stm32f429i_discovery_lcd.c ****   } 
 835:Src/stm32f429i_discovery_lcd.c **** }
 836:Src/stm32f429i_discovery_lcd.c **** 
 837:Src/stm32f429i_discovery_lcd.c **** /**
 838:Src/stm32f429i_discovery_lcd.c ****   * @brief  Displays an poly-line (between many points).
 839:Src/stm32f429i_discovery_lcd.c ****   * @param  Points: pointer to the points array
 840:Src/stm32f429i_discovery_lcd.c ****   * @param  PointCount: Number of points
 841:Src/stm32f429i_discovery_lcd.c ****   */
 842:Src/stm32f429i_discovery_lcd.c **** void BSP_LCD_DrawPolygon(pPoint Points, uint16_t PointCount)
 843:Src/stm32f429i_discovery_lcd.c **** {
 844:Src/stm32f429i_discovery_lcd.c ****   int16_t x = 0, y = 0;
 845:Src/stm32f429i_discovery_lcd.c **** 
 846:Src/stm32f429i_discovery_lcd.c ****   if(PointCount < 2)
 847:Src/stm32f429i_discovery_lcd.c ****   {
 848:Src/stm32f429i_discovery_lcd.c ****     return;
 849:Src/stm32f429i_discovery_lcd.c ****   }
 850:Src/stm32f429i_discovery_lcd.c **** 
 851:Src/stm32f429i_discovery_lcd.c ****   BSP_LCD_DrawLine(Points->X, Points->Y, (Points+PointCount-1)->X, (Points+PointCount-1)->Y);
 852:Src/stm32f429i_discovery_lcd.c ****   
 853:Src/stm32f429i_discovery_lcd.c ****   while(--PointCount)
 854:Src/stm32f429i_discovery_lcd.c ****   {
 855:Src/stm32f429i_discovery_lcd.c ****     x = Points->X;
 856:Src/stm32f429i_discovery_lcd.c ****     y = Points->Y;
 857:Src/stm32f429i_discovery_lcd.c ****     Points++;
 858:Src/stm32f429i_discovery_lcd.c ****     BSP_LCD_DrawLine(x, y, Points->X, Points->Y);
 859:Src/stm32f429i_discovery_lcd.c ****   }
 860:Src/stm32f429i_discovery_lcd.c **** }
 861:Src/stm32f429i_discovery_lcd.c **** 
 862:Src/stm32f429i_discovery_lcd.c **** /**
 863:Src/stm32f429i_discovery_lcd.c ****   * @brief  Displays an Ellipse.
 864:Src/stm32f429i_discovery_lcd.c ****   * @param  Xpos: the X position
 865:Src/stm32f429i_discovery_lcd.c ****   * @param  Ypos: the Y position
 866:Src/stm32f429i_discovery_lcd.c ****   * @param  XRadius: the X radius of ellipse
 867:Src/stm32f429i_discovery_lcd.c ****   * @param  YRadius: the Y radius of ellipse
 868:Src/stm32f429i_discovery_lcd.c ****   */
 869:Src/stm32f429i_discovery_lcd.c **** void BSP_LCD_DrawEllipse(int Xpos, int Ypos, int XRadius, int YRadius)
 870:Src/stm32f429i_discovery_lcd.c **** {
 871:Src/stm32f429i_discovery_lcd.c ****   int x = 0, y = -YRadius, err = 2-2*XRadius, e2;
 872:Src/stm32f429i_discovery_lcd.c ****   float k = 0, rad1 = 0, rad2 = 0;
 873:Src/stm32f429i_discovery_lcd.c ****   
 874:Src/stm32f429i_discovery_lcd.c ****   rad1 = XRadius;
 875:Src/stm32f429i_discovery_lcd.c ****   rad2 = YRadius;
 876:Src/stm32f429i_discovery_lcd.c ****   
 877:Src/stm32f429i_discovery_lcd.c ****   k = (float)(rad2/rad1);
 878:Src/stm32f429i_discovery_lcd.c ****   
 879:Src/stm32f429i_discovery_lcd.c ****   do { 
 880:Src/stm32f429i_discovery_lcd.c ****     BSP_LCD_DrawPixel((Xpos-(uint16_t)(x/k)), (Ypos+y), DrawProp[ActiveLayer].TextColor);
 881:Src/stm32f429i_discovery_lcd.c ****     BSP_LCD_DrawPixel((Xpos+(uint16_t)(x/k)), (Ypos+y), DrawProp[ActiveLayer].TextColor);
 882:Src/stm32f429i_discovery_lcd.c ****     BSP_LCD_DrawPixel((Xpos+(uint16_t)(x/k)), (Ypos-y), DrawProp[ActiveLayer].TextColor);
 883:Src/stm32f429i_discovery_lcd.c ****     BSP_LCD_DrawPixel((Xpos-(uint16_t)(x/k)), (Ypos-y), DrawProp[ActiveLayer].TextColor);      
 884:Src/stm32f429i_discovery_lcd.c ****     
 885:Src/stm32f429i_discovery_lcd.c ****     e2 = err;
ARM GAS  /tmp/ccky5mPs.s 			page 17


 886:Src/stm32f429i_discovery_lcd.c ****     if (e2 <= x) {
 887:Src/stm32f429i_discovery_lcd.c ****       err += ++x*2+1;
 888:Src/stm32f429i_discovery_lcd.c ****       if (-y == x && e2 <= y) e2 = 0;
 889:Src/stm32f429i_discovery_lcd.c ****     }
 890:Src/stm32f429i_discovery_lcd.c ****     if (e2 > y) err += ++y*2+1;
 891:Src/stm32f429i_discovery_lcd.c ****   }
 892:Src/stm32f429i_discovery_lcd.c ****   while (y <= 0);
 893:Src/stm32f429i_discovery_lcd.c **** }
 894:Src/stm32f429i_discovery_lcd.c **** 
 895:Src/stm32f429i_discovery_lcd.c **** /**
 896:Src/stm32f429i_discovery_lcd.c ****   * @brief  Displays a bitmap picture loaded in the internal Flash (32 bpp).
 897:Src/stm32f429i_discovery_lcd.c ****   * @param  X: the bmp x position in the LCD
 898:Src/stm32f429i_discovery_lcd.c ****   * @param  Y: the bmp Y position in the LCD
 899:Src/stm32f429i_discovery_lcd.c ****   * @param  pBmp: Bmp picture address in the internal Flash
 900:Src/stm32f429i_discovery_lcd.c ****   */
 901:Src/stm32f429i_discovery_lcd.c **** void BSP_LCD_DrawBitmap(uint32_t X, uint32_t Y, uint8_t *pBmp)
 902:Src/stm32f429i_discovery_lcd.c **** {
 903:Src/stm32f429i_discovery_lcd.c ****   uint32_t index = 0, width = 0, height = 0, bitpixel = 0;
 904:Src/stm32f429i_discovery_lcd.c ****   uint32_t address;
 905:Src/stm32f429i_discovery_lcd.c ****   uint32_t inputcolormode = 0;
 906:Src/stm32f429i_discovery_lcd.c ****   
 907:Src/stm32f429i_discovery_lcd.c ****   /* Get bitmap data address offset */
 908:Src/stm32f429i_discovery_lcd.c ****   index = pBmp[10] + (pBmp[11] << 8) + (pBmp[12] << 16)  + (pBmp[13] << 24);
 909:Src/stm32f429i_discovery_lcd.c **** 
 910:Src/stm32f429i_discovery_lcd.c ****   /* Read bitmap width */
 911:Src/stm32f429i_discovery_lcd.c ****   width = pBmp[18] + (pBmp[19] << 8) + (pBmp[20] << 16)  + (pBmp[21] << 24);
 912:Src/stm32f429i_discovery_lcd.c **** 
 913:Src/stm32f429i_discovery_lcd.c ****   /* Read bitmap height */
 914:Src/stm32f429i_discovery_lcd.c ****   height = pBmp[22] + (pBmp[23] << 8) + (pBmp[24] << 16)  + (pBmp[25] << 24);
 915:Src/stm32f429i_discovery_lcd.c **** 
 916:Src/stm32f429i_discovery_lcd.c ****   /* Read bit/pixel */
 917:Src/stm32f429i_discovery_lcd.c ****   bitpixel = pBmp[28] + (pBmp[29] << 8);   
 918:Src/stm32f429i_discovery_lcd.c ****  
 919:Src/stm32f429i_discovery_lcd.c ****   /* Set Address */
 920:Src/stm32f429i_discovery_lcd.c ****   address = LtdcHandler.LayerCfg[ActiveLayer].FBStartAdress + (((BSP_LCD_GetXSize()*Y) + X)*(4));
 921:Src/stm32f429i_discovery_lcd.c **** 
 922:Src/stm32f429i_discovery_lcd.c ****   /* Get the Layer pixel format */    
 923:Src/stm32f429i_discovery_lcd.c ****   if ((bitpixel/8) == 4)
 924:Src/stm32f429i_discovery_lcd.c ****   {
 925:Src/stm32f429i_discovery_lcd.c ****     inputcolormode = CM_ARGB8888;
 926:Src/stm32f429i_discovery_lcd.c ****   }
 927:Src/stm32f429i_discovery_lcd.c ****   else if ((bitpixel/8) == 2)
 928:Src/stm32f429i_discovery_lcd.c ****   {
 929:Src/stm32f429i_discovery_lcd.c ****     inputcolormode = CM_RGB565;
 930:Src/stm32f429i_discovery_lcd.c ****   }
 931:Src/stm32f429i_discovery_lcd.c ****   else
 932:Src/stm32f429i_discovery_lcd.c ****   {
 933:Src/stm32f429i_discovery_lcd.c ****     inputcolormode = CM_RGB888;
 934:Src/stm32f429i_discovery_lcd.c ****   }
 935:Src/stm32f429i_discovery_lcd.c ****  
 936:Src/stm32f429i_discovery_lcd.c ****   /* bypass the bitmap header */
 937:Src/stm32f429i_discovery_lcd.c ****   pBmp += (index + (width * (height - 1) * (bitpixel/8)));
 938:Src/stm32f429i_discovery_lcd.c **** 
 939:Src/stm32f429i_discovery_lcd.c ****   /* Convert picture to ARGB8888 pixel format */
 940:Src/stm32f429i_discovery_lcd.c ****   for(index=0; index < height; index++)
 941:Src/stm32f429i_discovery_lcd.c ****   {
 942:Src/stm32f429i_discovery_lcd.c ****   /* Pixel format conversion */
ARM GAS  /tmp/ccky5mPs.s 			page 18


 943:Src/stm32f429i_discovery_lcd.c ****   ConvertLineToARGB8888((uint32_t *)pBmp, (uint32_t *)address, width, inputcolormode);
 944:Src/stm32f429i_discovery_lcd.c **** 
 945:Src/stm32f429i_discovery_lcd.c ****   /* Increment the source and destination buffers */
 946:Src/stm32f429i_discovery_lcd.c ****   address+=  ((BSP_LCD_GetXSize() - width + width)*4);
 947:Src/stm32f429i_discovery_lcd.c ****   pBmp -= width*(bitpixel/8);
 948:Src/stm32f429i_discovery_lcd.c ****   }
 949:Src/stm32f429i_discovery_lcd.c **** }
 950:Src/stm32f429i_discovery_lcd.c **** 
 951:Src/stm32f429i_discovery_lcd.c **** /**
 952:Src/stm32f429i_discovery_lcd.c ****   * @brief  Displays a full rectangle.
 953:Src/stm32f429i_discovery_lcd.c ****   * @param  Xpos: the X position
 954:Src/stm32f429i_discovery_lcd.c ****   * @param  Ypos: the Y position
 955:Src/stm32f429i_discovery_lcd.c ****   * @param  Height: rectangle height
 956:Src/stm32f429i_discovery_lcd.c ****   * @param  Width: rectangle width
 957:Src/stm32f429i_discovery_lcd.c ****   */
 958:Src/stm32f429i_discovery_lcd.c **** void BSP_LCD_FillRect(uint16_t Xpos, uint16_t Ypos, uint16_t Width, uint16_t Height)
 959:Src/stm32f429i_discovery_lcd.c **** {
 960:Src/stm32f429i_discovery_lcd.c ****   uint32_t xaddress = 0;
 961:Src/stm32f429i_discovery_lcd.c **** 
 962:Src/stm32f429i_discovery_lcd.c ****   /* Set the text color */
 963:Src/stm32f429i_discovery_lcd.c ****   BSP_LCD_SetTextColor(DrawProp[ActiveLayer].TextColor);
 964:Src/stm32f429i_discovery_lcd.c **** 
 965:Src/stm32f429i_discovery_lcd.c ****   /* Get the rectangle start address */
 966:Src/stm32f429i_discovery_lcd.c ****   xaddress = (LtdcHandler.LayerCfg[ActiveLayer].FBStartAdress) + 4*(BSP_LCD_GetXSize()*Ypos + Xpos)
 967:Src/stm32f429i_discovery_lcd.c **** 
 968:Src/stm32f429i_discovery_lcd.c ****   /* Fill the rectangle */
 969:Src/stm32f429i_discovery_lcd.c ****   FillBuffer(ActiveLayer, (uint32_t *)xaddress, Width, Height, (BSP_LCD_GetXSize() - Width), DrawPr
 970:Src/stm32f429i_discovery_lcd.c **** }
 971:Src/stm32f429i_discovery_lcd.c **** 
 972:Src/stm32f429i_discovery_lcd.c **** /**
 973:Src/stm32f429i_discovery_lcd.c ****   * @brief  Displays a full circle.
 974:Src/stm32f429i_discovery_lcd.c ****   * @param  Xpos: the X position
 975:Src/stm32f429i_discovery_lcd.c ****   * @param  Ypos: the Y position
 976:Src/stm32f429i_discovery_lcd.c ****   * @param  Radius: the circle radius
 977:Src/stm32f429i_discovery_lcd.c ****   */
 978:Src/stm32f429i_discovery_lcd.c **** void BSP_LCD_FillCircle(uint16_t Xpos, uint16_t Ypos, uint16_t Radius)
 979:Src/stm32f429i_discovery_lcd.c **** {
 980:Src/stm32f429i_discovery_lcd.c ****   int32_t  d;    /* Decision Variable */ 
 981:Src/stm32f429i_discovery_lcd.c ****   uint32_t  curx;/* Current X Value */
 982:Src/stm32f429i_discovery_lcd.c ****   uint32_t  cury;/* Current Y Value */ 
 983:Src/stm32f429i_discovery_lcd.c ****   
 984:Src/stm32f429i_discovery_lcd.c ****   d = 3 - (Radius << 1);
 985:Src/stm32f429i_discovery_lcd.c **** 
 986:Src/stm32f429i_discovery_lcd.c ****   curx = 0;
 987:Src/stm32f429i_discovery_lcd.c ****   cury = Radius;
 988:Src/stm32f429i_discovery_lcd.c ****   
 989:Src/stm32f429i_discovery_lcd.c ****   BSP_LCD_SetTextColor(DrawProp[ActiveLayer].TextColor);
 990:Src/stm32f429i_discovery_lcd.c **** 
 991:Src/stm32f429i_discovery_lcd.c ****   while (curx <= cury)
 992:Src/stm32f429i_discovery_lcd.c ****   {
 993:Src/stm32f429i_discovery_lcd.c ****     if(cury > 0) 
 994:Src/stm32f429i_discovery_lcd.c ****     {
 995:Src/stm32f429i_discovery_lcd.c ****       BSP_LCD_DrawHLine(Xpos - cury, Ypos + curx, 2*cury);
 996:Src/stm32f429i_discovery_lcd.c ****       BSP_LCD_DrawHLine(Xpos - cury, Ypos - curx, 2*cury);
 997:Src/stm32f429i_discovery_lcd.c ****     }
 998:Src/stm32f429i_discovery_lcd.c **** 
 999:Src/stm32f429i_discovery_lcd.c ****     if(curx > 0) 
ARM GAS  /tmp/ccky5mPs.s 			page 19


1000:Src/stm32f429i_discovery_lcd.c ****     {
1001:Src/stm32f429i_discovery_lcd.c ****       BSP_LCD_DrawHLine(Xpos - curx, Ypos - cury, 2*curx);
1002:Src/stm32f429i_discovery_lcd.c ****       BSP_LCD_DrawHLine(Xpos - curx, Ypos + cury, 2*curx);
1003:Src/stm32f429i_discovery_lcd.c ****     }
1004:Src/stm32f429i_discovery_lcd.c ****     if (d < 0)
1005:Src/stm32f429i_discovery_lcd.c ****     { 
1006:Src/stm32f429i_discovery_lcd.c ****       d += (curx << 2) + 6;
1007:Src/stm32f429i_discovery_lcd.c ****     }
1008:Src/stm32f429i_discovery_lcd.c ****     else
1009:Src/stm32f429i_discovery_lcd.c ****     {
1010:Src/stm32f429i_discovery_lcd.c ****       d += ((curx - cury) << 2) + 10;
1011:Src/stm32f429i_discovery_lcd.c ****       cury--;
1012:Src/stm32f429i_discovery_lcd.c ****     }
1013:Src/stm32f429i_discovery_lcd.c ****     curx++;
1014:Src/stm32f429i_discovery_lcd.c ****   }
1015:Src/stm32f429i_discovery_lcd.c **** 
1016:Src/stm32f429i_discovery_lcd.c ****   BSP_LCD_SetTextColor(DrawProp[ActiveLayer].TextColor);
1017:Src/stm32f429i_discovery_lcd.c ****   BSP_LCD_DrawCircle(Xpos, Ypos, Radius);
1018:Src/stm32f429i_discovery_lcd.c **** }
1019:Src/stm32f429i_discovery_lcd.c **** 
1020:Src/stm32f429i_discovery_lcd.c **** /**
1021:Src/stm32f429i_discovery_lcd.c ****   * @brief  Fill triangle.
1022:Src/stm32f429i_discovery_lcd.c ****   * @param  X1: the point 1 x position
1023:Src/stm32f429i_discovery_lcd.c ****   * @param  Y1: the point 1 y position
1024:Src/stm32f429i_discovery_lcd.c ****   * @param  X2: the point 2 x position
1025:Src/stm32f429i_discovery_lcd.c ****   * @param  Y2: the point 2 y position
1026:Src/stm32f429i_discovery_lcd.c ****   * @param  X3: the point 3 x position
1027:Src/stm32f429i_discovery_lcd.c ****   * @param  Y3: the point 3 y position
1028:Src/stm32f429i_discovery_lcd.c ****   */
1029:Src/stm32f429i_discovery_lcd.c **** void BSP_LCD_FillTriangle(uint16_t X1, uint16_t X2, uint16_t X3, uint16_t Y1, uint16_t Y2, uint16_t
1030:Src/stm32f429i_discovery_lcd.c **** { 
1031:Src/stm32f429i_discovery_lcd.c ****   int16_t deltax = 0, deltay = 0, x = 0, y = 0, xinc1 = 0, xinc2 = 0, 
1032:Src/stm32f429i_discovery_lcd.c ****   yinc1 = 0, yinc2 = 0, den = 0, num = 0, numadd = 0, numpixels = 0, 
1033:Src/stm32f429i_discovery_lcd.c ****   curpixel = 0;
1034:Src/stm32f429i_discovery_lcd.c ****   
1035:Src/stm32f429i_discovery_lcd.c ****   deltax = ABS(X2 - X1);        /* The difference between the x's */
1036:Src/stm32f429i_discovery_lcd.c ****   deltay = ABS(Y2 - Y1);        /* The difference between the y's */
1037:Src/stm32f429i_discovery_lcd.c ****   x = X1;                       /* Start x off at the first pixel */
1038:Src/stm32f429i_discovery_lcd.c ****   y = Y1;                       /* Start y off at the first pixel */
1039:Src/stm32f429i_discovery_lcd.c ****   
1040:Src/stm32f429i_discovery_lcd.c ****   if (X2 >= X1)                 /* The x-values are increasing */
1041:Src/stm32f429i_discovery_lcd.c ****   {
1042:Src/stm32f429i_discovery_lcd.c ****     xinc1 = 1;
1043:Src/stm32f429i_discovery_lcd.c ****     xinc2 = 1;
1044:Src/stm32f429i_discovery_lcd.c ****   }
1045:Src/stm32f429i_discovery_lcd.c ****   else                          /* The x-values are decreasing */
1046:Src/stm32f429i_discovery_lcd.c ****   {
1047:Src/stm32f429i_discovery_lcd.c ****     xinc1 = -1;
1048:Src/stm32f429i_discovery_lcd.c ****     xinc2 = -1;
1049:Src/stm32f429i_discovery_lcd.c ****   }
1050:Src/stm32f429i_discovery_lcd.c ****   
1051:Src/stm32f429i_discovery_lcd.c ****   if (Y2 >= Y1)                 /* The y-values are increasing */
1052:Src/stm32f429i_discovery_lcd.c ****   {
1053:Src/stm32f429i_discovery_lcd.c ****     yinc1 = 1;
1054:Src/stm32f429i_discovery_lcd.c ****     yinc2 = 1;
1055:Src/stm32f429i_discovery_lcd.c ****   }
1056:Src/stm32f429i_discovery_lcd.c ****   else                          /* The y-values are decreasing */
ARM GAS  /tmp/ccky5mPs.s 			page 20


1057:Src/stm32f429i_discovery_lcd.c ****   {
1058:Src/stm32f429i_discovery_lcd.c ****     yinc1 = -1;
1059:Src/stm32f429i_discovery_lcd.c ****     yinc2 = -1;
1060:Src/stm32f429i_discovery_lcd.c ****   }
1061:Src/stm32f429i_discovery_lcd.c ****   
1062:Src/stm32f429i_discovery_lcd.c ****   if (deltax >= deltay)         /* There is at least one x-value for every y-value */
1063:Src/stm32f429i_discovery_lcd.c ****   {
1064:Src/stm32f429i_discovery_lcd.c ****     xinc1 = 0;                  /* Don't change the x when numerator >= denominator */
1065:Src/stm32f429i_discovery_lcd.c ****     yinc2 = 0;                  /* Don't change the y for every iteration */
1066:Src/stm32f429i_discovery_lcd.c ****     den = deltax;
1067:Src/stm32f429i_discovery_lcd.c ****     num = deltax / 2;
1068:Src/stm32f429i_discovery_lcd.c ****     numadd = deltay;
1069:Src/stm32f429i_discovery_lcd.c ****     numpixels = deltax;         /* There are more x-values than y-values */
1070:Src/stm32f429i_discovery_lcd.c ****   }
1071:Src/stm32f429i_discovery_lcd.c ****   else                          /* There is at least one y-value for every x-value */
1072:Src/stm32f429i_discovery_lcd.c ****   {
1073:Src/stm32f429i_discovery_lcd.c ****     xinc2 = 0;                  /* Don't change the x for every iteration */
1074:Src/stm32f429i_discovery_lcd.c ****     yinc1 = 0;                  /* Don't change the y when numerator >= denominator */
1075:Src/stm32f429i_discovery_lcd.c ****     den = deltay;
1076:Src/stm32f429i_discovery_lcd.c ****     num = deltay / 2;
1077:Src/stm32f429i_discovery_lcd.c ****     numadd = deltax;
1078:Src/stm32f429i_discovery_lcd.c ****     numpixels = deltay;         /* There are more y-values than x-values */
1079:Src/stm32f429i_discovery_lcd.c ****   }
1080:Src/stm32f429i_discovery_lcd.c ****   
1081:Src/stm32f429i_discovery_lcd.c ****   for (curpixel = 0; curpixel <= numpixels; curpixel++)
1082:Src/stm32f429i_discovery_lcd.c ****   {
1083:Src/stm32f429i_discovery_lcd.c ****     BSP_LCD_DrawLine(x, y, X3, Y3);
1084:Src/stm32f429i_discovery_lcd.c ****     
1085:Src/stm32f429i_discovery_lcd.c ****     num += numadd;              /* Increase the numerator by the top of the fraction */
1086:Src/stm32f429i_discovery_lcd.c ****     if (num >= den)             /* Check if numerator >= denominator */
1087:Src/stm32f429i_discovery_lcd.c ****     {
1088:Src/stm32f429i_discovery_lcd.c ****       num -= den;               /* Calculate the new numerator value */
1089:Src/stm32f429i_discovery_lcd.c ****       x += xinc1;               /* Change the x as appropriate */
1090:Src/stm32f429i_discovery_lcd.c ****       y += yinc1;               /* Change the y as appropriate */
1091:Src/stm32f429i_discovery_lcd.c ****     }
1092:Src/stm32f429i_discovery_lcd.c ****     x += xinc2;                 /* Change the x as appropriate */
1093:Src/stm32f429i_discovery_lcd.c ****     y += yinc2;                 /* Change the y as appropriate */
1094:Src/stm32f429i_discovery_lcd.c ****   } 
1095:Src/stm32f429i_discovery_lcd.c **** }
1096:Src/stm32f429i_discovery_lcd.c **** 
1097:Src/stm32f429i_discovery_lcd.c **** /**
1098:Src/stm32f429i_discovery_lcd.c ****   * @brief  Displays a full poly-line (between many points).
1099:Src/stm32f429i_discovery_lcd.c ****   * @param  Points: pointer to the points array
1100:Src/stm32f429i_discovery_lcd.c ****   * @param  PointCount: Number of points
1101:Src/stm32f429i_discovery_lcd.c ****   */
1102:Src/stm32f429i_discovery_lcd.c **** void BSP_LCD_FillPolygon(pPoint Points, uint16_t PointCount)
1103:Src/stm32f429i_discovery_lcd.c **** {
1104:Src/stm32f429i_discovery_lcd.c ****   
1105:Src/stm32f429i_discovery_lcd.c ****   int16_t x = 0, y = 0, x2 = 0, y2 = 0, xcenter = 0, ycenter = 0, xfirst = 0, yfirst = 0, pixelx = 
1106:Src/stm32f429i_discovery_lcd.c ****   uint16_t  imageleft = 0, imageright = 0, imagetop = 0, imagebottom = 0;  
1107:Src/stm32f429i_discovery_lcd.c **** 
1108:Src/stm32f429i_discovery_lcd.c ****   imageleft = imageright = Points->X;
1109:Src/stm32f429i_discovery_lcd.c ****   imagetop= imagebottom = Points->Y;
1110:Src/stm32f429i_discovery_lcd.c **** 
1111:Src/stm32f429i_discovery_lcd.c ****   for(counter = 1; counter < PointCount; counter++)
1112:Src/stm32f429i_discovery_lcd.c ****   {
1113:Src/stm32f429i_discovery_lcd.c ****     pixelx = POLY_X(counter);
ARM GAS  /tmp/ccky5mPs.s 			page 21


1114:Src/stm32f429i_discovery_lcd.c ****     if(pixelx < imageleft)
1115:Src/stm32f429i_discovery_lcd.c ****     {
1116:Src/stm32f429i_discovery_lcd.c ****       imageleft = pixelx;
1117:Src/stm32f429i_discovery_lcd.c ****     }
1118:Src/stm32f429i_discovery_lcd.c ****     if(pixelx > imageright)
1119:Src/stm32f429i_discovery_lcd.c ****     {
1120:Src/stm32f429i_discovery_lcd.c ****       imageright = pixelx;
1121:Src/stm32f429i_discovery_lcd.c ****     }
1122:Src/stm32f429i_discovery_lcd.c **** 
1123:Src/stm32f429i_discovery_lcd.c ****     pixely = POLY_Y(counter);
1124:Src/stm32f429i_discovery_lcd.c ****     if(pixely < imagetop)
1125:Src/stm32f429i_discovery_lcd.c ****     { 
1126:Src/stm32f429i_discovery_lcd.c ****       imagetop = pixely;
1127:Src/stm32f429i_discovery_lcd.c ****     }
1128:Src/stm32f429i_discovery_lcd.c ****     if(pixely > imagebottom)
1129:Src/stm32f429i_discovery_lcd.c ****     {
1130:Src/stm32f429i_discovery_lcd.c ****       imagebottom = pixely;
1131:Src/stm32f429i_discovery_lcd.c ****     }
1132:Src/stm32f429i_discovery_lcd.c ****   }  
1133:Src/stm32f429i_discovery_lcd.c **** 
1134:Src/stm32f429i_discovery_lcd.c ****   if(PointCount < 2)
1135:Src/stm32f429i_discovery_lcd.c ****   {
1136:Src/stm32f429i_discovery_lcd.c ****     return;
1137:Src/stm32f429i_discovery_lcd.c ****   }
1138:Src/stm32f429i_discovery_lcd.c **** 
1139:Src/stm32f429i_discovery_lcd.c ****   xcenter = (imageleft + imageright)/2;
1140:Src/stm32f429i_discovery_lcd.c ****   ycenter = (imagebottom + imagetop)/2;
1141:Src/stm32f429i_discovery_lcd.c ****  
1142:Src/stm32f429i_discovery_lcd.c ****   xfirst = Points->X;
1143:Src/stm32f429i_discovery_lcd.c ****   yfirst = Points->Y;
1144:Src/stm32f429i_discovery_lcd.c **** 
1145:Src/stm32f429i_discovery_lcd.c ****   while(--PointCount)
1146:Src/stm32f429i_discovery_lcd.c ****   {
1147:Src/stm32f429i_discovery_lcd.c ****     x = Points->X;
1148:Src/stm32f429i_discovery_lcd.c ****     y = Points->Y;
1149:Src/stm32f429i_discovery_lcd.c ****     Points++;
1150:Src/stm32f429i_discovery_lcd.c ****     x2 = Points->X;
1151:Src/stm32f429i_discovery_lcd.c ****     y2 = Points->Y;    
1152:Src/stm32f429i_discovery_lcd.c ****   
1153:Src/stm32f429i_discovery_lcd.c ****     BSP_LCD_FillTriangle(x, x2, xcenter, y, y2, ycenter);
1154:Src/stm32f429i_discovery_lcd.c ****     BSP_LCD_FillTriangle(x, xcenter, x2, y, ycenter, y2);
1155:Src/stm32f429i_discovery_lcd.c ****     BSP_LCD_FillTriangle(xcenter, x2, x, ycenter, y2, y);   
1156:Src/stm32f429i_discovery_lcd.c ****   }
1157:Src/stm32f429i_discovery_lcd.c ****   
1158:Src/stm32f429i_discovery_lcd.c ****   BSP_LCD_FillTriangle(xfirst, x2, xcenter, yfirst, y2, ycenter);
1159:Src/stm32f429i_discovery_lcd.c ****   BSP_LCD_FillTriangle(xfirst, xcenter, x2, yfirst, ycenter, y2);
1160:Src/stm32f429i_discovery_lcd.c ****   BSP_LCD_FillTriangle(xcenter, x2, xfirst, ycenter, y2, yfirst);   
1161:Src/stm32f429i_discovery_lcd.c **** }
1162:Src/stm32f429i_discovery_lcd.c **** 
1163:Src/stm32f429i_discovery_lcd.c **** /**
1164:Src/stm32f429i_discovery_lcd.c ****   * @brief  Draw a full ellipse.
1165:Src/stm32f429i_discovery_lcd.c ****   * @param  Xpos: the X position
1166:Src/stm32f429i_discovery_lcd.c ****   * @param  Ypos: the Y position
1167:Src/stm32f429i_discovery_lcd.c ****   * @param  XRadius: X radius of ellipse
1168:Src/stm32f429i_discovery_lcd.c ****   * @param  YRadius: Y radius of ellipse. 
1169:Src/stm32f429i_discovery_lcd.c ****   */
1170:Src/stm32f429i_discovery_lcd.c **** void BSP_LCD_FillEllipse(int Xpos, int Ypos, int XRadius, int YRadius)
ARM GAS  /tmp/ccky5mPs.s 			page 22


1171:Src/stm32f429i_discovery_lcd.c **** {
1172:Src/stm32f429i_discovery_lcd.c ****   int x = 0, y = -YRadius, err = 2-2*XRadius, e2;
1173:Src/stm32f429i_discovery_lcd.c ****   float K = 0, rad1 = 0, rad2 = 0;
1174:Src/stm32f429i_discovery_lcd.c ****   
1175:Src/stm32f429i_discovery_lcd.c ****   rad1 = XRadius;
1176:Src/stm32f429i_discovery_lcd.c ****   rad2 = YRadius;
1177:Src/stm32f429i_discovery_lcd.c ****   K = (float)(rad2/rad1);
1178:Src/stm32f429i_discovery_lcd.c ****   
1179:Src/stm32f429i_discovery_lcd.c ****   do 
1180:Src/stm32f429i_discovery_lcd.c ****   { 
1181:Src/stm32f429i_discovery_lcd.c ****     BSP_LCD_DrawHLine((Xpos-(uint16_t)(x/K)), (Ypos+y), (2*(uint16_t)(x/K) + 1));
1182:Src/stm32f429i_discovery_lcd.c ****     BSP_LCD_DrawHLine((Xpos-(uint16_t)(x/K)), (Ypos-y), (2*(uint16_t)(x/K) + 1));
1183:Src/stm32f429i_discovery_lcd.c ****     
1184:Src/stm32f429i_discovery_lcd.c ****     e2 = err;
1185:Src/stm32f429i_discovery_lcd.c ****     if (e2 <= x) 
1186:Src/stm32f429i_discovery_lcd.c ****     {
1187:Src/stm32f429i_discovery_lcd.c ****       err += ++x*2+1;
1188:Src/stm32f429i_discovery_lcd.c ****       if (-y == x && e2 <= y) e2 = 0;
1189:Src/stm32f429i_discovery_lcd.c ****     }
1190:Src/stm32f429i_discovery_lcd.c ****     if (e2 > y) err += ++y*2+1;
1191:Src/stm32f429i_discovery_lcd.c ****   }
1192:Src/stm32f429i_discovery_lcd.c ****   while (y <= 0);
1193:Src/stm32f429i_discovery_lcd.c **** }
1194:Src/stm32f429i_discovery_lcd.c **** 
1195:Src/stm32f429i_discovery_lcd.c **** /**
1196:Src/stm32f429i_discovery_lcd.c ****   * @brief  Enables the Display.
1197:Src/stm32f429i_discovery_lcd.c ****   */
1198:Src/stm32f429i_discovery_lcd.c **** void BSP_LCD_DisplayOn(void)
1199:Src/stm32f429i_discovery_lcd.c **** {
1200:Src/stm32f429i_discovery_lcd.c ****   if(LcdDrv->DisplayOn != NULL)
1201:Src/stm32f429i_discovery_lcd.c ****   {
1202:Src/stm32f429i_discovery_lcd.c ****     LcdDrv->DisplayOn();
1203:Src/stm32f429i_discovery_lcd.c ****   }
1204:Src/stm32f429i_discovery_lcd.c **** }
1205:Src/stm32f429i_discovery_lcd.c **** 
1206:Src/stm32f429i_discovery_lcd.c **** /**
1207:Src/stm32f429i_discovery_lcd.c ****   * @brief  Disables the Display.
1208:Src/stm32f429i_discovery_lcd.c ****   */
1209:Src/stm32f429i_discovery_lcd.c **** void BSP_LCD_DisplayOff(void)
1210:Src/stm32f429i_discovery_lcd.c **** {
1211:Src/stm32f429i_discovery_lcd.c ****   if(LcdDrv->DisplayOff != NULL)
1212:Src/stm32f429i_discovery_lcd.c ****   {
1213:Src/stm32f429i_discovery_lcd.c ****     LcdDrv->DisplayOff();
1214:Src/stm32f429i_discovery_lcd.c ****   }
1215:Src/stm32f429i_discovery_lcd.c **** }
1216:Src/stm32f429i_discovery_lcd.c **** 
1217:Src/stm32f429i_discovery_lcd.c **** /*******************************************************************************
1218:Src/stm32f429i_discovery_lcd.c ****                        LTDC and DMA2D BSP Routines
1219:Src/stm32f429i_discovery_lcd.c **** *******************************************************************************/
1220:Src/stm32f429i_discovery_lcd.c **** 
1221:Src/stm32f429i_discovery_lcd.c **** /**
1222:Src/stm32f429i_discovery_lcd.c ****   * @brief  Initializes the LTDC MSP.
1223:Src/stm32f429i_discovery_lcd.c ****   */
1224:Src/stm32f429i_discovery_lcd.c **** __weak void BSP_LCD_MspInit(void)
1225:Src/stm32f429i_discovery_lcd.c **** {
1226:Src/stm32f429i_discovery_lcd.c ****   GPIO_InitTypeDef GPIO_InitStructure;
1227:Src/stm32f429i_discovery_lcd.c ****   
ARM GAS  /tmp/ccky5mPs.s 			page 23


1228:Src/stm32f429i_discovery_lcd.c ****   /* Enable the LTDC and DMA2D Clock */
1229:Src/stm32f429i_discovery_lcd.c ****   __HAL_RCC_LTDC_CLK_ENABLE();
1230:Src/stm32f429i_discovery_lcd.c ****   __HAL_RCC_DMA2D_CLK_ENABLE(); 
1231:Src/stm32f429i_discovery_lcd.c ****   
1232:Src/stm32f429i_discovery_lcd.c ****   /* Enable GPIOs clock */
1233:Src/stm32f429i_discovery_lcd.c ****   __HAL_RCC_GPIOA_CLK_ENABLE();
1234:Src/stm32f429i_discovery_lcd.c ****   __HAL_RCC_GPIOB_CLK_ENABLE();
1235:Src/stm32f429i_discovery_lcd.c ****   __HAL_RCC_GPIOC_CLK_ENABLE();
1236:Src/stm32f429i_discovery_lcd.c ****   __HAL_RCC_GPIOD_CLK_ENABLE();
1237:Src/stm32f429i_discovery_lcd.c ****   __HAL_RCC_GPIOF_CLK_ENABLE();
1238:Src/stm32f429i_discovery_lcd.c ****   __HAL_RCC_GPIOG_CLK_ENABLE();
1239:Src/stm32f429i_discovery_lcd.c **** 
1240:Src/stm32f429i_discovery_lcd.c ****   /* GPIOs Configuration */
1241:Src/stm32f429i_discovery_lcd.c ****   /*
1242:Src/stm32f429i_discovery_lcd.c ****    +------------------------+-----------------------+----------------------------+
1243:Src/stm32f429i_discovery_lcd.c ****    +                       LCD pins assignment                                   +
1244:Src/stm32f429i_discovery_lcd.c ****    +------------------------+-----------------------+----------------------------+
1245:Src/stm32f429i_discovery_lcd.c ****    |  LCD_TFT R2 <-> PC.10  |  LCD_TFT G2 <-> PA.06 |  LCD_TFT B2 <-> PD.06      |
1246:Src/stm32f429i_discovery_lcd.c ****    |  LCD_TFT R3 <-> PB.00  |  LCD_TFT G3 <-> PG.10 |  LCD_TFT B3 <-> PG.11      |
1247:Src/stm32f429i_discovery_lcd.c ****    |  LCD_TFT R4 <-> PA.11  |  LCD_TFT G4 <-> PB.10 |  LCD_TFT B4 <-> PG.12      |
1248:Src/stm32f429i_discovery_lcd.c ****    |  LCD_TFT R5 <-> PA.12  |  LCD_TFT G5 <-> PB.11 |  LCD_TFT B5 <-> PA.03      |
1249:Src/stm32f429i_discovery_lcd.c ****    |  LCD_TFT R6 <-> PB.01  |  LCD_TFT G6 <-> PC.07 |  LCD_TFT B6 <-> PB.08      |
1250:Src/stm32f429i_discovery_lcd.c ****    |  LCD_TFT R7 <-> PG.06  |  LCD_TFT G7 <-> PD.03 |  LCD_TFT B7 <-> PB.09      |
1251:Src/stm32f429i_discovery_lcd.c ****    -------------------------------------------------------------------------------
1252:Src/stm32f429i_discovery_lcd.c ****             |  LCD_TFT HSYNC <-> PC.06  | LCDTFT VSYNC <->  PA.04 |
1253:Src/stm32f429i_discovery_lcd.c ****             |  LCD_TFT CLK   <-> PG.07  | LCD_TFT DE   <->  PF.10 |
1254:Src/stm32f429i_discovery_lcd.c ****              -----------------------------------------------------
1255:Src/stm32f429i_discovery_lcd.c ****   */
1256:Src/stm32f429i_discovery_lcd.c **** 
1257:Src/stm32f429i_discovery_lcd.c ****   /* GPIOA configuration */
1258:Src/stm32f429i_discovery_lcd.c ****   GPIO_InitStructure.Pin = GPIO_PIN_3 | GPIO_PIN_4 | GPIO_PIN_6 |
1259:Src/stm32f429i_discovery_lcd.c ****                            GPIO_PIN_11 | GPIO_PIN_12;
1260:Src/stm32f429i_discovery_lcd.c ****   GPIO_InitStructure.Mode = GPIO_MODE_AF_PP;
1261:Src/stm32f429i_discovery_lcd.c ****   GPIO_InitStructure.Pull = GPIO_NOPULL;
1262:Src/stm32f429i_discovery_lcd.c ****   GPIO_InitStructure.Speed = GPIO_SPEED_FAST;
1263:Src/stm32f429i_discovery_lcd.c ****   GPIO_InitStructure.Alternate= GPIO_AF14_LTDC;
1264:Src/stm32f429i_discovery_lcd.c ****   HAL_GPIO_Init(GPIOA, &GPIO_InitStructure);
1265:Src/stm32f429i_discovery_lcd.c **** 
1266:Src/stm32f429i_discovery_lcd.c ****  /* GPIOB configuration */
1267:Src/stm32f429i_discovery_lcd.c ****   GPIO_InitStructure.Pin = GPIO_PIN_8 | \
1268:Src/stm32f429i_discovery_lcd.c ****                            GPIO_PIN_9 | GPIO_PIN_10 | GPIO_PIN_11;
1269:Src/stm32f429i_discovery_lcd.c ****   HAL_GPIO_Init(GPIOB, &GPIO_InitStructure);
1270:Src/stm32f429i_discovery_lcd.c **** 
1271:Src/stm32f429i_discovery_lcd.c ****  /* GPIOC configuration */
1272:Src/stm32f429i_discovery_lcd.c ****   GPIO_InitStructure.Pin = GPIO_PIN_6 | GPIO_PIN_7 | GPIO_PIN_10;
1273:Src/stm32f429i_discovery_lcd.c ****   HAL_GPIO_Init(GPIOC, &GPIO_InitStructure);
1274:Src/stm32f429i_discovery_lcd.c **** 
1275:Src/stm32f429i_discovery_lcd.c ****  /* GPIOD configuration */
1276:Src/stm32f429i_discovery_lcd.c ****   GPIO_InitStructure.Pin = GPIO_PIN_3 | GPIO_PIN_6;
1277:Src/stm32f429i_discovery_lcd.c ****   HAL_GPIO_Init(GPIOD, &GPIO_InitStructure);
1278:Src/stm32f429i_discovery_lcd.c ****   
1279:Src/stm32f429i_discovery_lcd.c ****  /* GPIOF configuration */
1280:Src/stm32f429i_discovery_lcd.c ****   GPIO_InitStructure.Pin = GPIO_PIN_10;
1281:Src/stm32f429i_discovery_lcd.c ****   HAL_GPIO_Init(GPIOF, &GPIO_InitStructure);     
1282:Src/stm32f429i_discovery_lcd.c **** 
1283:Src/stm32f429i_discovery_lcd.c ****  /* GPIOG configuration */  
1284:Src/stm32f429i_discovery_lcd.c ****   GPIO_InitStructure.Pin = GPIO_PIN_6 | GPIO_PIN_7 | \
ARM GAS  /tmp/ccky5mPs.s 			page 24


1285:Src/stm32f429i_discovery_lcd.c ****                            GPIO_PIN_11;
1286:Src/stm32f429i_discovery_lcd.c ****   HAL_GPIO_Init(GPIOG, &GPIO_InitStructure);
1287:Src/stm32f429i_discovery_lcd.c ****  
1288:Src/stm32f429i_discovery_lcd.c ****   /* GPIOB configuration */  
1289:Src/stm32f429i_discovery_lcd.c ****   GPIO_InitStructure.Pin = GPIO_PIN_0 | GPIO_PIN_1;
1290:Src/stm32f429i_discovery_lcd.c ****   GPIO_InitStructure.Alternate= GPIO_AF9_LTDC;
1291:Src/stm32f429i_discovery_lcd.c ****   HAL_GPIO_Init(GPIOB, &GPIO_InitStructure);
1292:Src/stm32f429i_discovery_lcd.c **** 
1293:Src/stm32f429i_discovery_lcd.c ****   /* GPIOG configuration */  
1294:Src/stm32f429i_discovery_lcd.c ****   GPIO_InitStructure.Pin = GPIO_PIN_10 | GPIO_PIN_12;
1295:Src/stm32f429i_discovery_lcd.c ****   HAL_GPIO_Init(GPIOG, &GPIO_InitStructure);
1296:Src/stm32f429i_discovery_lcd.c **** }
1297:Src/stm32f429i_discovery_lcd.c **** 
1298:Src/stm32f429i_discovery_lcd.c **** /*******************************************************************************
1299:Src/stm32f429i_discovery_lcd.c ****                             Static Functions
1300:Src/stm32f429i_discovery_lcd.c **** *******************************************************************************/
1301:Src/stm32f429i_discovery_lcd.c **** 
1302:Src/stm32f429i_discovery_lcd.c **** /**
1303:Src/stm32f429i_discovery_lcd.c ****   * @brief  Writes Pixel.
1304:Src/stm32f429i_discovery_lcd.c ****   * @param  Xpos: the X position
1305:Src/stm32f429i_discovery_lcd.c ****   * @param  Ypos: the Y position
1306:Src/stm32f429i_discovery_lcd.c ****   * @param  RGB_Code: the pixel color in ARGB mode (8-8-8-8)  
1307:Src/stm32f429i_discovery_lcd.c ****   */
1308:Src/stm32f429i_discovery_lcd.c **** void BSP_LCD_DrawPixel(uint16_t Xpos, uint16_t Ypos, uint32_t RGB_Code)
1309:Src/stm32f429i_discovery_lcd.c **** {
1310:Src/stm32f429i_discovery_lcd.c ****   /* Write data value to all SDRAM memory */
1311:Src/stm32f429i_discovery_lcd.c ****   *(__IO uint32_t*) (LtdcHandler.LayerCfg[ActiveLayer].FBStartAdress + (4*(Ypos*BSP_LCD_GetXSize() 
1312:Src/stm32f429i_discovery_lcd.c **** }
1313:Src/stm32f429i_discovery_lcd.c **** 
1314:Src/stm32f429i_discovery_lcd.c **** /**
1315:Src/stm32f429i_discovery_lcd.c ****   * @brief  Draws a character on LCD.
1316:Src/stm32f429i_discovery_lcd.c ****   * @param  Xpos: the Line where to display the character shape
1317:Src/stm32f429i_discovery_lcd.c ****   * @param  Ypos: start column address
1318:Src/stm32f429i_discovery_lcd.c ****   * @param  c: pointer to the character data
1319:Src/stm32f429i_discovery_lcd.c ****   */
1320:Src/stm32f429i_discovery_lcd.c **** static void DrawChar(uint16_t Xpos, uint16_t Ypos, const uint8_t *c)
1321:Src/stm32f429i_discovery_lcd.c **** {
1322:Src/stm32f429i_discovery_lcd.c ****   uint32_t i = 0, j = 0;
1323:Src/stm32f429i_discovery_lcd.c ****   uint16_t height, width;
1324:Src/stm32f429i_discovery_lcd.c ****   uint8_t offset;
1325:Src/stm32f429i_discovery_lcd.c ****   uint8_t *pchar;
1326:Src/stm32f429i_discovery_lcd.c ****   uint32_t line=0;
1327:Src/stm32f429i_discovery_lcd.c **** 
1328:Src/stm32f429i_discovery_lcd.c ****   height = DrawProp[ActiveLayer].pFont->Height;
1329:Src/stm32f429i_discovery_lcd.c ****   width  = DrawProp[ActiveLayer].pFont->Width;
1330:Src/stm32f429i_discovery_lcd.c **** 
1331:Src/stm32f429i_discovery_lcd.c ****   offset = 8 *((width + 7)/8) -  width ;
1332:Src/stm32f429i_discovery_lcd.c **** 
1333:Src/stm32f429i_discovery_lcd.c ****   for(i = 0; i < height; i++)
1334:Src/stm32f429i_discovery_lcd.c ****   {
1335:Src/stm32f429i_discovery_lcd.c ****     pchar = ((uint8_t *)c + (width + 7)/8 * i);
1336:Src/stm32f429i_discovery_lcd.c **** 
1337:Src/stm32f429i_discovery_lcd.c ****     switch(((width + 7)/8))
1338:Src/stm32f429i_discovery_lcd.c ****     {
1339:Src/stm32f429i_discovery_lcd.c ****     case 1:
1340:Src/stm32f429i_discovery_lcd.c ****       line =  pchar[0];      
1341:Src/stm32f429i_discovery_lcd.c ****       break;
ARM GAS  /tmp/ccky5mPs.s 			page 25


1342:Src/stm32f429i_discovery_lcd.c ****       
1343:Src/stm32f429i_discovery_lcd.c ****     case 2:
1344:Src/stm32f429i_discovery_lcd.c ****       line =  (pchar[0]<< 8) | pchar[1];
1345:Src/stm32f429i_discovery_lcd.c ****       break;
1346:Src/stm32f429i_discovery_lcd.c **** 
1347:Src/stm32f429i_discovery_lcd.c ****     case 3:
1348:Src/stm32f429i_discovery_lcd.c ****     default:
1349:Src/stm32f429i_discovery_lcd.c ****       line =  (pchar[0]<< 16) | (pchar[1]<< 8) | pchar[2];      
1350:Src/stm32f429i_discovery_lcd.c ****       break;
1351:Src/stm32f429i_discovery_lcd.c ****     }
1352:Src/stm32f429i_discovery_lcd.c **** 
1353:Src/stm32f429i_discovery_lcd.c ****     for (j = 0; j < width; j++)
1354:Src/stm32f429i_discovery_lcd.c ****     {
1355:Src/stm32f429i_discovery_lcd.c ****       if(line & (1 << (width- j + offset- 1))) 
1356:Src/stm32f429i_discovery_lcd.c ****       {
1357:Src/stm32f429i_discovery_lcd.c ****         BSP_LCD_DrawPixel((Xpos + j), Ypos, DrawProp[ActiveLayer].TextColor);
1358:Src/stm32f429i_discovery_lcd.c ****       }
1359:Src/stm32f429i_discovery_lcd.c ****       else
1360:Src/stm32f429i_discovery_lcd.c ****       {
1361:Src/stm32f429i_discovery_lcd.c ****         BSP_LCD_DrawPixel((Xpos + j), Ypos, DrawProp[ActiveLayer].BackColor);
1362:Src/stm32f429i_discovery_lcd.c ****       } 
1363:Src/stm32f429i_discovery_lcd.c ****     }
1364:Src/stm32f429i_discovery_lcd.c ****     Ypos++;
1365:Src/stm32f429i_discovery_lcd.c ****   }
1366:Src/stm32f429i_discovery_lcd.c **** }
1367:Src/stm32f429i_discovery_lcd.c **** 
1368:Src/stm32f429i_discovery_lcd.c **** /**
1369:Src/stm32f429i_discovery_lcd.c ****   * @brief  Fills buffer.
1370:Src/stm32f429i_discovery_lcd.c ****   * @param  LayerIndex: layer index
1371:Src/stm32f429i_discovery_lcd.c ****   * @param  pDst: output color
1372:Src/stm32f429i_discovery_lcd.c ****   * @param  xSize: buffer width
1373:Src/stm32f429i_discovery_lcd.c ****   * @param  ySize: buffer height
1374:Src/stm32f429i_discovery_lcd.c ****   * @param  OffLine: offset
1375:Src/stm32f429i_discovery_lcd.c ****   * @param  ColorIndex: color Index  
1376:Src/stm32f429i_discovery_lcd.c ****   */
1377:Src/stm32f429i_discovery_lcd.c **** static void FillBuffer(uint32_t LayerIndex, void * pDst, uint32_t xSize, uint32_t ySize, uint32_t O
1378:Src/stm32f429i_discovery_lcd.c **** {
  29              		.loc 1 1378 1 view -0
  30              		.cfi_startproc
  31              		@ args = 8, pretend = 0, frame = 0
  32              		@ frame_needed = 0, uses_anonymous_args = 0
  33              		.loc 1 1378 1 is_stmt 0 view .LVU1
  34 0000 F0B5     		push	{r4, r5, r6, r7, lr}
  35              	.LCFI0:
  36              		.cfi_def_cfa_offset 20
  37              		.cfi_offset 4, -20
  38              		.cfi_offset 5, -16
  39              		.cfi_offset 6, -12
  40              		.cfi_offset 7, -8
  41              		.cfi_offset 14, -4
  42 0002 83B0     		sub	sp, sp, #12
  43              	.LCFI1:
  44              		.cfi_def_cfa_offset 32
  45 0004 0446     		mov	r4, r0
  46 0006 0D46     		mov	r5, r1
  47 0008 1646     		mov	r6, r2
  48 000a 1F46     		mov	r7, r3
ARM GAS  /tmp/ccky5mPs.s 			page 26


1379:Src/stm32f429i_discovery_lcd.c ****   
1380:Src/stm32f429i_discovery_lcd.c ****   /* Register to memory mode with ARGB8888 as color Mode */ 
1381:Src/stm32f429i_discovery_lcd.c ****   Dma2dHandler.Init.Mode         = DMA2D_R2M;
  49              		.loc 1 1381 3 is_stmt 1 view .LVU2
  50              		.loc 1 1381 34 is_stmt 0 view .LVU3
  51 000c 1148     		ldr	r0, .L5
  52              	.LVL1:
  53              		.loc 1 1381 34 view .LVU4
  54 000e 4FF44033 		mov	r3, #196608
  55              	.LVL2:
  56              		.loc 1 1381 34 view .LVU5
  57 0012 4360     		str	r3, [r0, #4]
1382:Src/stm32f429i_discovery_lcd.c ****   Dma2dHandler.Init.ColorMode    = DMA2D_ARGB8888;
  58              		.loc 1 1382 3 is_stmt 1 view .LVU6
  59              		.loc 1 1382 34 is_stmt 0 view .LVU7
  60 0014 0023     		movs	r3, #0
  61 0016 8360     		str	r3, [r0, #8]
1383:Src/stm32f429i_discovery_lcd.c ****   Dma2dHandler.Init.OutputOffset = OffLine;      
  62              		.loc 1 1383 3 is_stmt 1 view .LVU8
  63              		.loc 1 1383 34 is_stmt 0 view .LVU9
  64 0018 089B     		ldr	r3, [sp, #32]
  65 001a C360     		str	r3, [r0, #12]
1384:Src/stm32f429i_discovery_lcd.c ****   
1385:Src/stm32f429i_discovery_lcd.c ****   Dma2dHandler.Instance = DMA2D; 
  66              		.loc 1 1385 3 is_stmt 1 view .LVU10
  67              		.loc 1 1385 25 is_stmt 0 view .LVU11
  68 001c 0E4B     		ldr	r3, .L5+4
  69 001e 0360     		str	r3, [r0]
1386:Src/stm32f429i_discovery_lcd.c ****   
1387:Src/stm32f429i_discovery_lcd.c ****   /* DMA2D Initialization */
1388:Src/stm32f429i_discovery_lcd.c ****   if(HAL_DMA2D_Init(&Dma2dHandler) == HAL_OK) 
  70              		.loc 1 1388 3 is_stmt 1 view .LVU12
  71              		.loc 1 1388 6 is_stmt 0 view .LVU13
  72 0020 FFF7FEFF 		bl	HAL_DMA2D_Init
  73              	.LVL3:
  74              		.loc 1 1388 5 view .LVU14
  75 0024 08B1     		cbz	r0, .L4
  76              	.L1:
1389:Src/stm32f429i_discovery_lcd.c ****   {
1390:Src/stm32f429i_discovery_lcd.c ****     if(HAL_DMA2D_ConfigLayer(&Dma2dHandler, LayerIndex) == HAL_OK) 
1391:Src/stm32f429i_discovery_lcd.c ****     {
1392:Src/stm32f429i_discovery_lcd.c ****       if (HAL_DMA2D_Start(&Dma2dHandler, ColorIndex, (uint32_t)pDst, xSize, ySize) == HAL_OK)
1393:Src/stm32f429i_discovery_lcd.c ****       {
1394:Src/stm32f429i_discovery_lcd.c ****         /* Polling For DMA transfer */  
1395:Src/stm32f429i_discovery_lcd.c ****         HAL_DMA2D_PollForTransfer(&Dma2dHandler, 10);
1396:Src/stm32f429i_discovery_lcd.c ****       }
1397:Src/stm32f429i_discovery_lcd.c ****     }
1398:Src/stm32f429i_discovery_lcd.c ****   } 
1399:Src/stm32f429i_discovery_lcd.c **** }
  77              		.loc 1 1399 1 view .LVU15
  78 0026 03B0     		add	sp, sp, #12
  79              	.LCFI2:
  80              		.cfi_remember_state
  81              		.cfi_def_cfa_offset 20
  82              		@ sp needed
  83 0028 F0BD     		pop	{r4, r5, r6, r7, pc}
  84              	.LVL4:
ARM GAS  /tmp/ccky5mPs.s 			page 27


  85              	.L4:
  86              	.LCFI3:
  87              		.cfi_restore_state
1390:Src/stm32f429i_discovery_lcd.c ****     {
  88              		.loc 1 1390 5 is_stmt 1 view .LVU16
1390:Src/stm32f429i_discovery_lcd.c ****     {
  89              		.loc 1 1390 8 is_stmt 0 view .LVU17
  90 002a 2146     		mov	r1, r4
  91 002c 0948     		ldr	r0, .L5
  92 002e FFF7FEFF 		bl	HAL_DMA2D_ConfigLayer
  93              	.LVL5:
1390:Src/stm32f429i_discovery_lcd.c ****     {
  94              		.loc 1 1390 7 view .LVU18
  95 0032 0028     		cmp	r0, #0
  96 0034 F7D1     		bne	.L1
1392:Src/stm32f429i_discovery_lcd.c ****       {
  97              		.loc 1 1392 7 is_stmt 1 view .LVU19
1392:Src/stm32f429i_discovery_lcd.c ****       {
  98              		.loc 1 1392 11 is_stmt 0 view .LVU20
  99 0036 0097     		str	r7, [sp]
 100 0038 3346     		mov	r3, r6
 101 003a 2A46     		mov	r2, r5
 102 003c 0999     		ldr	r1, [sp, #36]
 103 003e 0548     		ldr	r0, .L5
 104 0040 FFF7FEFF 		bl	HAL_DMA2D_Start
 105              	.LVL6:
1392:Src/stm32f429i_discovery_lcd.c ****       {
 106              		.loc 1 1392 10 view .LVU21
 107 0044 0028     		cmp	r0, #0
 108 0046 EED1     		bne	.L1
1395:Src/stm32f429i_discovery_lcd.c ****       }
 109              		.loc 1 1395 9 is_stmt 1 view .LVU22
 110 0048 0A21     		movs	r1, #10
 111 004a 0248     		ldr	r0, .L5
 112 004c FFF7FEFF 		bl	HAL_DMA2D_PollForTransfer
 113              	.LVL7:
 114              		.loc 1 1399 1 is_stmt 0 view .LVU23
 115 0050 E9E7     		b	.L1
 116              	.L6:
 117 0052 00BF     		.align	2
 118              	.L5:
 119 0054 00000000 		.word	.LANCHOR0
 120 0058 00B00240 		.word	1073917952
 121              		.cfi_endproc
 122              	.LFE178:
 124              		.section	.text.ConvertLineToARGB8888,"ax",%progbits
 125              		.align	1
 126              		.syntax unified
 127              		.thumb
 128              		.thumb_func
 130              	ConvertLineToARGB8888:
 131              	.LVL8:
 132              	.LFB179:
1400:Src/stm32f429i_discovery_lcd.c **** 
1401:Src/stm32f429i_discovery_lcd.c **** /**
1402:Src/stm32f429i_discovery_lcd.c ****   * @brief  Converts Line to ARGB8888 pixel format.
1403:Src/stm32f429i_discovery_lcd.c ****   * @param  pSrc: pointer to source buffer
ARM GAS  /tmp/ccky5mPs.s 			page 28


1404:Src/stm32f429i_discovery_lcd.c ****   * @param  pDst: output color
1405:Src/stm32f429i_discovery_lcd.c ****   * @param  xSize: buffer width
1406:Src/stm32f429i_discovery_lcd.c ****   * @param  ColorMode: input color mode   
1407:Src/stm32f429i_discovery_lcd.c ****   */
1408:Src/stm32f429i_discovery_lcd.c **** static void ConvertLineToARGB8888(void * pSrc, void * pDst, uint32_t xSize, uint32_t ColorMode)
1409:Src/stm32f429i_discovery_lcd.c **** {    
 133              		.loc 1 1409 1 is_stmt 1 view -0
 134              		.cfi_startproc
 135              		@ args = 0, pretend = 0, frame = 0
 136              		@ frame_needed = 0, uses_anonymous_args = 0
 137              		.loc 1 1409 1 is_stmt 0 view .LVU25
 138 0000 F0B5     		push	{r4, r5, r6, r7, lr}
 139              	.LCFI4:
 140              		.cfi_def_cfa_offset 20
 141              		.cfi_offset 4, -20
 142              		.cfi_offset 5, -16
 143              		.cfi_offset 6, -12
 144              		.cfi_offset 7, -8
 145              		.cfi_offset 14, -4
 146 0002 83B0     		sub	sp, sp, #12
 147              	.LCFI5:
 148              		.cfi_def_cfa_offset 32
 149 0004 0546     		mov	r5, r0
 150 0006 0E46     		mov	r6, r1
 151 0008 1746     		mov	r7, r2
1410:Src/stm32f429i_discovery_lcd.c ****   /* Configure the DMA2D Mode, Color Mode and output offset */
1411:Src/stm32f429i_discovery_lcd.c ****   Dma2dHandler.Init.Mode         = DMA2D_M2M_PFC;
 152              		.loc 1 1411 3 is_stmt 1 view .LVU26
 153              		.loc 1 1411 34 is_stmt 0 view .LVU27
 154 000a 1448     		ldr	r0, .L11
 155              	.LVL9:
 156              		.loc 1 1411 34 view .LVU28
 157 000c 4FF48032 		mov	r2, #65536
 158              	.LVL10:
 159              		.loc 1 1411 34 view .LVU29
 160 0010 4260     		str	r2, [r0, #4]
1412:Src/stm32f429i_discovery_lcd.c ****   Dma2dHandler.Init.ColorMode    = DMA2D_ARGB8888;
 161              		.loc 1 1412 3 is_stmt 1 view .LVU30
 162              		.loc 1 1412 34 is_stmt 0 view .LVU31
 163 0012 0024     		movs	r4, #0
 164 0014 8460     		str	r4, [r0, #8]
1413:Src/stm32f429i_discovery_lcd.c ****   Dma2dHandler.Init.OutputOffset = 0;     
 165              		.loc 1 1413 3 is_stmt 1 view .LVU32
 166              		.loc 1 1413 34 is_stmt 0 view .LVU33
 167 0016 C460     		str	r4, [r0, #12]
1414:Src/stm32f429i_discovery_lcd.c ****   
1415:Src/stm32f429i_discovery_lcd.c ****   /* Foreground Configuration */
1416:Src/stm32f429i_discovery_lcd.c ****   Dma2dHandler.LayerCfg[1].AlphaMode = DMA2D_NO_MODIF_ALPHA;
 168              		.loc 1 1416 3 is_stmt 1 view .LVU34
 169              		.loc 1 1416 38 is_stmt 0 view .LVU35
 170 0018 0463     		str	r4, [r0, #48]
1417:Src/stm32f429i_discovery_lcd.c ****   Dma2dHandler.LayerCfg[1].InputAlpha = 0xFF;
 171              		.loc 1 1417 3 is_stmt 1 view .LVU36
 172              		.loc 1 1417 39 is_stmt 0 view .LVU37
 173 001a FF22     		movs	r2, #255
 174 001c 4263     		str	r2, [r0, #52]
1418:Src/stm32f429i_discovery_lcd.c ****   Dma2dHandler.LayerCfg[1].InputColorMode = ColorMode;
ARM GAS  /tmp/ccky5mPs.s 			page 29


 175              		.loc 1 1418 3 is_stmt 1 view .LVU38
 176              		.loc 1 1418 43 is_stmt 0 view .LVU39
 177 001e C362     		str	r3, [r0, #44]
1419:Src/stm32f429i_discovery_lcd.c ****   Dma2dHandler.LayerCfg[1].InputOffset = 0;
 178              		.loc 1 1419 3 is_stmt 1 view .LVU40
 179              		.loc 1 1419 40 is_stmt 0 view .LVU41
 180 0020 8462     		str	r4, [r0, #40]
1420:Src/stm32f429i_discovery_lcd.c ****   
1421:Src/stm32f429i_discovery_lcd.c ****   Dma2dHandler.Instance = DMA2D; 
 181              		.loc 1 1421 3 is_stmt 1 view .LVU42
 182              		.loc 1 1421 25 is_stmt 0 view .LVU43
 183 0022 0F4B     		ldr	r3, .L11+4
 184              	.LVL11:
 185              		.loc 1 1421 25 view .LVU44
 186 0024 0360     		str	r3, [r0]
1422:Src/stm32f429i_discovery_lcd.c ****   
1423:Src/stm32f429i_discovery_lcd.c ****   /* DMA2D Initialization */
1424:Src/stm32f429i_discovery_lcd.c ****   if(HAL_DMA2D_Init(&Dma2dHandler) == HAL_OK) 
 187              		.loc 1 1424 3 is_stmt 1 view .LVU45
 188              		.loc 1 1424 6 is_stmt 0 view .LVU46
 189 0026 FFF7FEFF 		bl	HAL_DMA2D_Init
 190              	.LVL12:
 191              		.loc 1 1424 5 view .LVU47
 192 002a 08B1     		cbz	r0, .L10
 193              	.L7:
1425:Src/stm32f429i_discovery_lcd.c ****   {
1426:Src/stm32f429i_discovery_lcd.c ****     if(HAL_DMA2D_ConfigLayer(&Dma2dHandler, 1) == HAL_OK) 
1427:Src/stm32f429i_discovery_lcd.c ****     {
1428:Src/stm32f429i_discovery_lcd.c ****       if (HAL_DMA2D_Start(&Dma2dHandler, (uint32_t)pSrc, (uint32_t)pDst, xSize, 1) == HAL_OK)
1429:Src/stm32f429i_discovery_lcd.c ****       {
1430:Src/stm32f429i_discovery_lcd.c ****         /* Polling For DMA transfer */  
1431:Src/stm32f429i_discovery_lcd.c ****         HAL_DMA2D_PollForTransfer(&Dma2dHandler, 10);
1432:Src/stm32f429i_discovery_lcd.c ****       }
1433:Src/stm32f429i_discovery_lcd.c ****     }
1434:Src/stm32f429i_discovery_lcd.c ****   } 
1435:Src/stm32f429i_discovery_lcd.c **** }
 194              		.loc 1 1435 1 view .LVU48
 195 002c 03B0     		add	sp, sp, #12
 196              	.LCFI6:
 197              		.cfi_remember_state
 198              		.cfi_def_cfa_offset 20
 199              		@ sp needed
 200 002e F0BD     		pop	{r4, r5, r6, r7, pc}
 201              	.LVL13:
 202              	.L10:
 203              	.LCFI7:
 204              		.cfi_restore_state
1426:Src/stm32f429i_discovery_lcd.c ****     {
 205              		.loc 1 1426 5 is_stmt 1 view .LVU49
1426:Src/stm32f429i_discovery_lcd.c ****     {
 206              		.loc 1 1426 8 is_stmt 0 view .LVU50
 207 0030 0121     		movs	r1, #1
 208 0032 0A48     		ldr	r0, .L11
 209 0034 FFF7FEFF 		bl	HAL_DMA2D_ConfigLayer
 210              	.LVL14:
1426:Src/stm32f429i_discovery_lcd.c ****     {
 211              		.loc 1 1426 7 view .LVU51
ARM GAS  /tmp/ccky5mPs.s 			page 30


 212 0038 0028     		cmp	r0, #0
 213 003a F7D1     		bne	.L7
1428:Src/stm32f429i_discovery_lcd.c ****       {
 214              		.loc 1 1428 7 is_stmt 1 view .LVU52
1428:Src/stm32f429i_discovery_lcd.c ****       {
 215              		.loc 1 1428 11 is_stmt 0 view .LVU53
 216 003c 0123     		movs	r3, #1
 217 003e 0093     		str	r3, [sp]
 218 0040 3B46     		mov	r3, r7
 219 0042 3246     		mov	r2, r6
 220 0044 2946     		mov	r1, r5
 221 0046 0548     		ldr	r0, .L11
 222 0048 FFF7FEFF 		bl	HAL_DMA2D_Start
 223              	.LVL15:
1428:Src/stm32f429i_discovery_lcd.c ****       {
 224              		.loc 1 1428 10 view .LVU54
 225 004c 0028     		cmp	r0, #0
 226 004e EDD1     		bne	.L7
1431:Src/stm32f429i_discovery_lcd.c ****       }
 227              		.loc 1 1431 9 is_stmt 1 view .LVU55
 228 0050 0A21     		movs	r1, #10
 229 0052 0248     		ldr	r0, .L11
 230 0054 FFF7FEFF 		bl	HAL_DMA2D_PollForTransfer
 231              	.LVL16:
 232              		.loc 1 1435 1 is_stmt 0 view .LVU56
 233 0058 E8E7     		b	.L7
 234              	.L12:
 235 005a 00BF     		.align	2
 236              	.L11:
 237 005c 00000000 		.word	.LANCHOR0
 238 0060 00B00240 		.word	1073917952
 239              		.cfi_endproc
 240              	.LFE179:
 242              		.section	.text.BSP_LCD_GetXSize,"ax",%progbits
 243              		.align	1
 244              		.global	BSP_LCD_GetXSize
 245              		.syntax unified
 246              		.thumb
 247              		.thumb_func
 249              	BSP_LCD_GetXSize:
 250              	.LFB131:
 237:Src/stm32f429i_discovery_lcd.c ****   return LcdDrv->GetLcdPixelWidth();
 251              		.loc 1 237 1 is_stmt 1 view -0
 252              		.cfi_startproc
 253              		@ args = 0, pretend = 0, frame = 0
 254              		@ frame_needed = 0, uses_anonymous_args = 0
 255 0000 08B5     		push	{r3, lr}
 256              	.LCFI8:
 257              		.cfi_def_cfa_offset 8
 258              		.cfi_offset 3, -8
 259              		.cfi_offset 14, -4
 238:Src/stm32f429i_discovery_lcd.c **** }
 260              		.loc 1 238 3 view .LVU58
 238:Src/stm32f429i_discovery_lcd.c **** }
 261              		.loc 1 238 16 is_stmt 0 view .LVU59
 262 0002 024B     		ldr	r3, .L15
 263 0004 1B68     		ldr	r3, [r3]
ARM GAS  /tmp/ccky5mPs.s 			page 31


 264 0006 9B6A     		ldr	r3, [r3, #40]
 238:Src/stm32f429i_discovery_lcd.c **** }
 265              		.loc 1 238 10 view .LVU60
 266 0008 9847     		blx	r3
 267              	.LVL17:
 239:Src/stm32f429i_discovery_lcd.c **** 
 268              		.loc 1 239 1 view .LVU61
 269 000a 08BD     		pop	{r3, pc}
 270              	.L16:
 271              		.align	2
 272              	.L15:
 273 000c 00000000 		.word	.LANCHOR1
 274              		.cfi_endproc
 275              	.LFE131:
 277              		.section	.text.BSP_LCD_GetYSize,"ax",%progbits
 278              		.align	1
 279              		.global	BSP_LCD_GetYSize
 280              		.syntax unified
 281              		.thumb
 282              		.thumb_func
 284              	BSP_LCD_GetYSize:
 285              	.LFB132:
 246:Src/stm32f429i_discovery_lcd.c ****   return LcdDrv->GetLcdPixelHeight();
 286              		.loc 1 246 1 is_stmt 1 view -0
 287              		.cfi_startproc
 288              		@ args = 0, pretend = 0, frame = 0
 289              		@ frame_needed = 0, uses_anonymous_args = 0
 290 0000 08B5     		push	{r3, lr}
 291              	.LCFI9:
 292              		.cfi_def_cfa_offset 8
 293              		.cfi_offset 3, -8
 294              		.cfi_offset 14, -4
 247:Src/stm32f429i_discovery_lcd.c **** }
 295              		.loc 1 247 3 view .LVU63
 247:Src/stm32f429i_discovery_lcd.c **** }
 296              		.loc 1 247 16 is_stmt 0 view .LVU64
 297 0002 024B     		ldr	r3, .L19
 298 0004 1B68     		ldr	r3, [r3]
 299 0006 DB6A     		ldr	r3, [r3, #44]
 247:Src/stm32f429i_discovery_lcd.c **** }
 300              		.loc 1 247 10 view .LVU65
 301 0008 9847     		blx	r3
 302              	.LVL18:
 248:Src/stm32f429i_discovery_lcd.c **** 
 303              		.loc 1 248 1 view .LVU66
 304 000a 08BD     		pop	{r3, pc}
 305              	.L20:
 306              		.align	2
 307              	.L19:
 308 000c 00000000 		.word	.LANCHOR1
 309              		.cfi_endproc
 310              	.LFE132:
 312              		.section	.text.BSP_LCD_LayerDefaultInit,"ax",%progbits
 313              		.align	1
 314              		.global	BSP_LCD_LayerDefaultInit
 315              		.syntax unified
 316              		.thumb
ARM GAS  /tmp/ccky5mPs.s 			page 32


 317              		.thumb_func
 319              	BSP_LCD_LayerDefaultInit:
 320              	.LVL19:
 321              	.LFB133:
 256:Src/stm32f429i_discovery_lcd.c ****   LCD_LayerCfgTypeDef   Layercfg;
 322              		.loc 1 256 1 is_stmt 1 view -0
 323              		.cfi_startproc
 324              		@ args = 0, pretend = 0, frame = 56
 325              		@ frame_needed = 0, uses_anonymous_args = 0
 256:Src/stm32f429i_discovery_lcd.c ****   LCD_LayerCfgTypeDef   Layercfg;
 326              		.loc 1 256 1 is_stmt 0 view .LVU68
 327 0000 70B5     		push	{r4, r5, r6, lr}
 328              	.LCFI10:
 329              		.cfi_def_cfa_offset 16
 330              		.cfi_offset 4, -16
 331              		.cfi_offset 5, -12
 332              		.cfi_offset 6, -8
 333              		.cfi_offset 14, -4
 334 0002 8EB0     		sub	sp, sp, #56
 335              	.LCFI11:
 336              		.cfi_def_cfa_offset 72
 337 0004 0446     		mov	r4, r0
 338 0006 0E46     		mov	r6, r1
 257:Src/stm32f429i_discovery_lcd.c **** 
 339              		.loc 1 257 3 is_stmt 1 view .LVU69
 260:Src/stm32f429i_discovery_lcd.c ****   Layercfg.WindowX1 = BSP_LCD_GetXSize();
 340              		.loc 1 260 3 view .LVU70
 260:Src/stm32f429i_discovery_lcd.c ****   Layercfg.WindowX1 = BSP_LCD_GetXSize();
 341              		.loc 1 260 21 is_stmt 0 view .LVU71
 342 0008 0025     		movs	r5, #0
 343 000a 0195     		str	r5, [sp, #4]
 261:Src/stm32f429i_discovery_lcd.c ****   Layercfg.WindowY0 = 0;
 344              		.loc 1 261 3 is_stmt 1 view .LVU72
 261:Src/stm32f429i_discovery_lcd.c ****   Layercfg.WindowY0 = 0;
 345              		.loc 1 261 23 is_stmt 0 view .LVU73
 346 000c FFF7FEFF 		bl	BSP_LCD_GetXSize
 347              	.LVL20:
 261:Src/stm32f429i_discovery_lcd.c ****   Layercfg.WindowY0 = 0;
 348              		.loc 1 261 21 view .LVU74
 349 0010 0290     		str	r0, [sp, #8]
 262:Src/stm32f429i_discovery_lcd.c ****   Layercfg.WindowY1 = BSP_LCD_GetYSize(); 
 350              		.loc 1 262 3 is_stmt 1 view .LVU75
 262:Src/stm32f429i_discovery_lcd.c ****   Layercfg.WindowY1 = BSP_LCD_GetYSize(); 
 351              		.loc 1 262 21 is_stmt 0 view .LVU76
 352 0012 0395     		str	r5, [sp, #12]
 263:Src/stm32f429i_discovery_lcd.c ****   Layercfg.PixelFormat = LTDC_PIXEL_FORMAT_RGB565;//ARGB8888;
 353              		.loc 1 263 3 is_stmt 1 view .LVU77
 263:Src/stm32f429i_discovery_lcd.c ****   Layercfg.PixelFormat = LTDC_PIXEL_FORMAT_RGB565;//ARGB8888;
 354              		.loc 1 263 23 is_stmt 0 view .LVU78
 355 0014 FFF7FEFF 		bl	BSP_LCD_GetYSize
 356              	.LVL21:
 263:Src/stm32f429i_discovery_lcd.c ****   Layercfg.PixelFormat = LTDC_PIXEL_FORMAT_RGB565;//ARGB8888;
 357              		.loc 1 263 21 view .LVU79
 358 0018 0490     		str	r0, [sp, #16]
 264:Src/stm32f429i_discovery_lcd.c ****   Layercfg.FBStartAdress = FB_Address;
 359              		.loc 1 264 3 is_stmt 1 view .LVU80
 264:Src/stm32f429i_discovery_lcd.c ****   Layercfg.FBStartAdress = FB_Address;
ARM GAS  /tmp/ccky5mPs.s 			page 33


 360              		.loc 1 264 24 is_stmt 0 view .LVU81
 361 001a 0223     		movs	r3, #2
 362 001c 0593     		str	r3, [sp, #20]
 265:Src/stm32f429i_discovery_lcd.c ****   Layercfg.Alpha = 255;
 363              		.loc 1 265 3 is_stmt 1 view .LVU82
 265:Src/stm32f429i_discovery_lcd.c ****   Layercfg.Alpha = 255;
 364              		.loc 1 265 26 is_stmt 0 view .LVU83
 365 001e 0A96     		str	r6, [sp, #40]
 266:Src/stm32f429i_discovery_lcd.c ****   Layercfg.Alpha0 = 0;
 366              		.loc 1 266 3 is_stmt 1 view .LVU84
 266:Src/stm32f429i_discovery_lcd.c ****   Layercfg.Alpha0 = 0;
 367              		.loc 1 266 18 is_stmt 0 view .LVU85
 368 0020 FF23     		movs	r3, #255
 369 0022 0693     		str	r3, [sp, #24]
 267:Src/stm32f429i_discovery_lcd.c ****   Layercfg.Backcolor.Blue = 0;
 370              		.loc 1 267 3 is_stmt 1 view .LVU86
 267:Src/stm32f429i_discovery_lcd.c ****   Layercfg.Backcolor.Blue = 0;
 371              		.loc 1 267 19 is_stmt 0 view .LVU87
 372 0024 0795     		str	r5, [sp, #28]
 268:Src/stm32f429i_discovery_lcd.c ****   Layercfg.Backcolor.Green = 0;
 373              		.loc 1 268 3 is_stmt 1 view .LVU88
 268:Src/stm32f429i_discovery_lcd.c ****   Layercfg.Backcolor.Green = 0;
 374              		.loc 1 268 27 is_stmt 0 view .LVU89
 375 0026 8DF83450 		strb	r5, [sp, #52]
 269:Src/stm32f429i_discovery_lcd.c ****   Layercfg.Backcolor.Red = 0;
 376              		.loc 1 269 3 is_stmt 1 view .LVU90
 269:Src/stm32f429i_discovery_lcd.c ****   Layercfg.Backcolor.Red = 0;
 377              		.loc 1 269 28 is_stmt 0 view .LVU91
 378 002a 8DF83550 		strb	r5, [sp, #53]
 270:Src/stm32f429i_discovery_lcd.c ****   Layercfg.BlendingFactor1 = LTDC_BLENDING_FACTOR1_PAxCA;
 379              		.loc 1 270 3 is_stmt 1 view .LVU92
 270:Src/stm32f429i_discovery_lcd.c ****   Layercfg.BlendingFactor1 = LTDC_BLENDING_FACTOR1_PAxCA;
 380              		.loc 1 270 26 is_stmt 0 view .LVU93
 381 002e 8DF83650 		strb	r5, [sp, #54]
 271:Src/stm32f429i_discovery_lcd.c ****   Layercfg.BlendingFactor2 = LTDC_BLENDING_FACTOR2_PAxCA;
 382              		.loc 1 271 3 is_stmt 1 view .LVU94
 271:Src/stm32f429i_discovery_lcd.c ****   Layercfg.BlendingFactor2 = LTDC_BLENDING_FACTOR2_PAxCA;
 383              		.loc 1 271 28 is_stmt 0 view .LVU95
 384 0032 4FF4C063 		mov	r3, #1536
 385 0036 0893     		str	r3, [sp, #32]
 272:Src/stm32f429i_discovery_lcd.c ****   Layercfg.ImageWidth = BSP_LCD_GetXSize();
 386              		.loc 1 272 3 is_stmt 1 view .LVU96
 272:Src/stm32f429i_discovery_lcd.c ****   Layercfg.ImageWidth = BSP_LCD_GetXSize();
 387              		.loc 1 272 28 is_stmt 0 view .LVU97
 388 0038 0723     		movs	r3, #7
 389 003a 0993     		str	r3, [sp, #36]
 273:Src/stm32f429i_discovery_lcd.c ****   Layercfg.ImageHeight = BSP_LCD_GetYSize();
 390              		.loc 1 273 3 is_stmt 1 view .LVU98
 273:Src/stm32f429i_discovery_lcd.c ****   Layercfg.ImageHeight = BSP_LCD_GetYSize();
 391              		.loc 1 273 25 is_stmt 0 view .LVU99
 392 003c FFF7FEFF 		bl	BSP_LCD_GetXSize
 393              	.LVL22:
 273:Src/stm32f429i_discovery_lcd.c ****   Layercfg.ImageHeight = BSP_LCD_GetYSize();
 394              		.loc 1 273 23 view .LVU100
 395 0040 0B90     		str	r0, [sp, #44]
 274:Src/stm32f429i_discovery_lcd.c ****   
 396              		.loc 1 274 3 is_stmt 1 view .LVU101
ARM GAS  /tmp/ccky5mPs.s 			page 34


 274:Src/stm32f429i_discovery_lcd.c ****   
 397              		.loc 1 274 26 is_stmt 0 view .LVU102
 398 0042 FFF7FEFF 		bl	BSP_LCD_GetYSize
 399              	.LVL23:
 274:Src/stm32f429i_discovery_lcd.c ****   
 400              		.loc 1 274 24 view .LVU103
 401 0046 0C90     		str	r0, [sp, #48]
 276:Src/stm32f429i_discovery_lcd.c **** 
 402              		.loc 1 276 3 is_stmt 1 view .LVU104
 403 0048 0D4D     		ldr	r5, .L23
 404 004a 2246     		mov	r2, r4
 405 004c 01A9     		add	r1, sp, #4
 406 004e 2846     		mov	r0, r5
 407 0050 FFF7FEFF 		bl	HAL_LTDC_ConfigLayer
 408              	.LVL24:
 278:Src/stm32f429i_discovery_lcd.c ****   DrawProp[LayerIndex].pFont     = &Font24;
 409              		.loc 1 278 3 view .LVU105
 278:Src/stm32f429i_discovery_lcd.c ****   DrawProp[LayerIndex].pFont     = &Font24;
 410              		.loc 1 278 34 is_stmt 0 view .LVU106
 411 0054 0B4A     		ldr	r2, .L23+4
 412 0056 04EB4403 		add	r3, r4, r4, lsl #1
 413 005a 02EB8303 		add	r3, r2, r3, lsl #2
 414 005e 4FF0FF31 		mov	r1, #-1
 415 0062 5960     		str	r1, [r3, #4]
 279:Src/stm32f429i_discovery_lcd.c ****   DrawProp[LayerIndex].TextColor = LCD_COLOR_BLACK; 
 416              		.loc 1 279 3 is_stmt 1 view .LVU107
 279:Src/stm32f429i_discovery_lcd.c ****   DrawProp[LayerIndex].TextColor = LCD_COLOR_BLACK; 
 417              		.loc 1 279 34 is_stmt 0 view .LVU108
 418 0064 0849     		ldr	r1, .L23+8
 419 0066 9960     		str	r1, [r3, #8]
 280:Src/stm32f429i_discovery_lcd.c **** 
 420              		.loc 1 280 3 is_stmt 1 view .LVU109
 280:Src/stm32f429i_discovery_lcd.c **** 
 421              		.loc 1 280 34 is_stmt 0 view .LVU110
 422 0068 04EB4404 		add	r4, r4, r4, lsl #1
 423 006c 4FF07F43 		mov	r3, #-16777216
 424 0070 42F82430 		str	r3, [r2, r4, lsl #2]
 283:Src/stm32f429i_discovery_lcd.c **** }
 425              		.loc 1 283 3 is_stmt 1 view .LVU111
 426 0074 2846     		mov	r0, r5
 427 0076 FFF7FEFF 		bl	HAL_LTDC_EnableDither
 428              	.LVL25:
 284:Src/stm32f429i_discovery_lcd.c **** 
 429              		.loc 1 284 1 is_stmt 0 view .LVU112
 430 007a 0EB0     		add	sp, sp, #56
 431              	.LCFI12:
 432              		.cfi_def_cfa_offset 16
 433              		@ sp needed
 434 007c 70BD     		pop	{r4, r5, r6, pc}
 435              	.LVL26:
 436              	.L24:
 284:Src/stm32f429i_discovery_lcd.c **** 
 437              		.loc 1 284 1 view .LVU113
 438 007e 00BF     		.align	2
 439              	.L23:
 440 0080 00000000 		.word	.LANCHOR2
 441 0084 00000000 		.word	.LANCHOR3
ARM GAS  /tmp/ccky5mPs.s 			page 35


 442 0088 00000000 		.word	.LANCHOR4
 443              		.cfi_endproc
 444              	.LFE133:
 446              		.section	.text.BSP_LCD_SelectLayer,"ax",%progbits
 447              		.align	1
 448              		.global	BSP_LCD_SelectLayer
 449              		.syntax unified
 450              		.thumb
 451              		.thumb_func
 453              	BSP_LCD_SelectLayer:
 454              	.LVL27:
 455              	.LFB134:
 291:Src/stm32f429i_discovery_lcd.c ****   ActiveLayer = LayerIndex;
 456              		.loc 1 291 1 is_stmt 1 view -0
 457              		.cfi_startproc
 458              		@ args = 0, pretend = 0, frame = 0
 459              		@ frame_needed = 0, uses_anonymous_args = 0
 460              		@ link register save eliminated.
 292:Src/stm32f429i_discovery_lcd.c **** }
 461              		.loc 1 292 3 view .LVU115
 292:Src/stm32f429i_discovery_lcd.c **** }
 462              		.loc 1 292 15 is_stmt 0 view .LVU116
 463 0000 014B     		ldr	r3, .L26
 464 0002 1860     		str	r0, [r3]
 293:Src/stm32f429i_discovery_lcd.c **** 
 465              		.loc 1 293 1 view .LVU117
 466 0004 7047     		bx	lr
 467              	.L27:
 468 0006 00BF     		.align	2
 469              	.L26:
 470 0008 00000000 		.word	.LANCHOR5
 471              		.cfi_endproc
 472              	.LFE134:
 474              		.section	.text.BSP_LCD_SetLayerVisible,"ax",%progbits
 475              		.align	1
 476              		.global	BSP_LCD_SetLayerVisible
 477              		.syntax unified
 478              		.thumb
 479              		.thumb_func
 481              	BSP_LCD_SetLayerVisible:
 482              	.LVL28:
 483              	.LFB135:
 302:Src/stm32f429i_discovery_lcd.c ****   if(state == ENABLE)
 484              		.loc 1 302 1 is_stmt 1 view -0
 485              		.cfi_startproc
 486              		@ args = 0, pretend = 0, frame = 0
 487              		@ frame_needed = 0, uses_anonymous_args = 0
 488              		@ link register save eliminated.
 303:Src/stm32f429i_discovery_lcd.c ****   {
 489              		.loc 1 303 3 view .LVU119
 303:Src/stm32f429i_discovery_lcd.c ****   {
 490              		.loc 1 303 5 is_stmt 0 view .LVU120
 491 0000 0129     		cmp	r1, #1
 492 0002 10D0     		beq	.L31
 309:Src/stm32f429i_discovery_lcd.c ****   }
 493              		.loc 1 309 5 is_stmt 1 view .LVU121
 494 0004 0D4B     		ldr	r3, .L32
ARM GAS  /tmp/ccky5mPs.s 			page 36


 495 0006 1B68     		ldr	r3, [r3]
 496 0008 03EBC010 		add	r0, r3, r0, lsl #7
 497              	.LVL29:
 309:Src/stm32f429i_discovery_lcd.c ****   }
 498              		.loc 1 309 5 is_stmt 0 view .LVU122
 499 000c D0F88430 		ldr	r3, [r0, #132]
 500 0010 23F00103 		bic	r3, r3, #1
 501 0014 C0F88430 		str	r3, [r0, #132]
 502              	.L30:
 311:Src/stm32f429i_discovery_lcd.c **** }
 503              		.loc 1 311 3 is_stmt 1 view .LVU123
 504 0018 084B     		ldr	r3, .L32
 505 001a 1A68     		ldr	r2, [r3]
 506 001c 536A     		ldr	r3, [r2, #36]
 507 001e 43F00103 		orr	r3, r3, #1
 508 0022 5362     		str	r3, [r2, #36]
 312:Src/stm32f429i_discovery_lcd.c **** 
 509              		.loc 1 312 1 is_stmt 0 view .LVU124
 510 0024 7047     		bx	lr
 511              	.LVL30:
 512              	.L31:
 305:Src/stm32f429i_discovery_lcd.c ****   }
 513              		.loc 1 305 5 is_stmt 1 view .LVU125
 514 0026 054B     		ldr	r3, .L32
 515 0028 1B68     		ldr	r3, [r3]
 516 002a 03EBC010 		add	r0, r3, r0, lsl #7
 517              	.LVL31:
 305:Src/stm32f429i_discovery_lcd.c ****   }
 518              		.loc 1 305 5 is_stmt 0 view .LVU126
 519 002e D0F88430 		ldr	r3, [r0, #132]
 520 0032 43F00103 		orr	r3, r3, #1
 521 0036 C0F88430 		str	r3, [r0, #132]
 522 003a EDE7     		b	.L30
 523              	.L33:
 524              		.align	2
 525              	.L32:
 526 003c 00000000 		.word	.LANCHOR2
 527              		.cfi_endproc
 528              	.LFE135:
 530              		.section	.text.BSP_LCD_SetLayerVisible_NoReload,"ax",%progbits
 531              		.align	1
 532              		.global	BSP_LCD_SetLayerVisible_NoReload
 533              		.syntax unified
 534              		.thumb
 535              		.thumb_func
 537              	BSP_LCD_SetLayerVisible_NoReload:
 538              	.LVL32:
 539              	.LFB136:
 324:Src/stm32f429i_discovery_lcd.c ****   if(State == ENABLE)
 540              		.loc 1 324 1 is_stmt 1 view -0
 541              		.cfi_startproc
 542              		@ args = 0, pretend = 0, frame = 0
 543              		@ frame_needed = 0, uses_anonymous_args = 0
 544              		@ link register save eliminated.
 325:Src/stm32f429i_discovery_lcd.c ****   {
 545              		.loc 1 325 3 view .LVU128
 325:Src/stm32f429i_discovery_lcd.c ****   {
ARM GAS  /tmp/ccky5mPs.s 			page 37


 546              		.loc 1 325 5 is_stmt 0 view .LVU129
 547 0000 0129     		cmp	r1, #1
 548 0002 0AD0     		beq	.L37
 331:Src/stm32f429i_discovery_lcd.c ****   }
 549              		.loc 1 331 5 is_stmt 1 view .LVU130
 550 0004 0A4B     		ldr	r3, .L38
 551 0006 1B68     		ldr	r3, [r3]
 552 0008 03EBC010 		add	r0, r3, r0, lsl #7
 553              	.LVL33:
 331:Src/stm32f429i_discovery_lcd.c ****   }
 554              		.loc 1 331 5 is_stmt 0 view .LVU131
 555 000c D0F88430 		ldr	r3, [r0, #132]
 556 0010 23F00103 		bic	r3, r3, #1
 557 0014 C0F88430 		str	r3, [r0, #132]
 334:Src/stm32f429i_discovery_lcd.c **** 
 558              		.loc 1 334 1 view .LVU132
 559 0018 7047     		bx	lr
 560              	.LVL34:
 561              	.L37:
 327:Src/stm32f429i_discovery_lcd.c ****   }
 562              		.loc 1 327 5 is_stmt 1 view .LVU133
 563 001a 054B     		ldr	r3, .L38
 564 001c 1B68     		ldr	r3, [r3]
 565 001e 03EBC010 		add	r0, r3, r0, lsl #7
 566              	.LVL35:
 327:Src/stm32f429i_discovery_lcd.c ****   }
 567              		.loc 1 327 5 is_stmt 0 view .LVU134
 568 0022 D0F88430 		ldr	r3, [r0, #132]
 569 0026 43F00103 		orr	r3, r3, #1
 570 002a C0F88430 		str	r3, [r0, #132]
 571 002e 7047     		bx	lr
 572              	.L39:
 573              		.align	2
 574              	.L38:
 575 0030 00000000 		.word	.LANCHOR2
 576              		.cfi_endproc
 577              	.LFE136:
 579              		.section	.text.BSP_LCD_SetTransparency,"ax",%progbits
 580              		.align	1
 581              		.global	BSP_LCD_SetTransparency
 582              		.syntax unified
 583              		.thumb
 584              		.thumb_func
 586              	BSP_LCD_SetTransparency:
 587              	.LVL36:
 588              	.LFB137:
 343:Src/stm32f429i_discovery_lcd.c ****   HAL_LTDC_SetAlpha(&LtdcHandler, Transparency, LayerIndex);
 589              		.loc 1 343 1 is_stmt 1 view -0
 590              		.cfi_startproc
 591              		@ args = 0, pretend = 0, frame = 0
 592              		@ frame_needed = 0, uses_anonymous_args = 0
 343:Src/stm32f429i_discovery_lcd.c ****   HAL_LTDC_SetAlpha(&LtdcHandler, Transparency, LayerIndex);
 593              		.loc 1 343 1 is_stmt 0 view .LVU136
 594 0000 08B5     		push	{r3, lr}
 595              	.LCFI13:
 596              		.cfi_def_cfa_offset 8
 597              		.cfi_offset 3, -8
ARM GAS  /tmp/ccky5mPs.s 			page 38


 598              		.cfi_offset 14, -4
 599 0002 0246     		mov	r2, r0
 344:Src/stm32f429i_discovery_lcd.c **** }
 600              		.loc 1 344 3 is_stmt 1 view .LVU137
 601 0004 0148     		ldr	r0, .L42
 602              	.LVL37:
 344:Src/stm32f429i_discovery_lcd.c **** }
 603              		.loc 1 344 3 is_stmt 0 view .LVU138
 604 0006 FFF7FEFF 		bl	HAL_LTDC_SetAlpha
 605              	.LVL38:
 345:Src/stm32f429i_discovery_lcd.c **** 
 606              		.loc 1 345 1 view .LVU139
 607 000a 08BD     		pop	{r3, pc}
 608              	.L43:
 609              		.align	2
 610              	.L42:
 611 000c 00000000 		.word	.LANCHOR2
 612              		.cfi_endproc
 613              	.LFE137:
 615              		.section	.text.BSP_LCD_SetTransparency_NoReload,"ax",%progbits
 616              		.align	1
 617              		.global	BSP_LCD_SetTransparency_NoReload
 618              		.syntax unified
 619              		.thumb
 620              		.thumb_func
 622              	BSP_LCD_SetTransparency_NoReload:
 623              	.LVL39:
 624              	.LFB138:
 355:Src/stm32f429i_discovery_lcd.c ****   HAL_LTDC_SetAlpha_NoReload(&LtdcHandler, Transparency, LayerIndex);
 625              		.loc 1 355 1 is_stmt 1 view -0
 626              		.cfi_startproc
 627              		@ args = 0, pretend = 0, frame = 0
 628              		@ frame_needed = 0, uses_anonymous_args = 0
 355:Src/stm32f429i_discovery_lcd.c ****   HAL_LTDC_SetAlpha_NoReload(&LtdcHandler, Transparency, LayerIndex);
 629              		.loc 1 355 1 is_stmt 0 view .LVU141
 630 0000 08B5     		push	{r3, lr}
 631              	.LCFI14:
 632              		.cfi_def_cfa_offset 8
 633              		.cfi_offset 3, -8
 634              		.cfi_offset 14, -4
 635 0002 0246     		mov	r2, r0
 356:Src/stm32f429i_discovery_lcd.c **** }
 636              		.loc 1 356 3 is_stmt 1 view .LVU142
 637 0004 0148     		ldr	r0, .L46
 638              	.LVL40:
 356:Src/stm32f429i_discovery_lcd.c **** }
 639              		.loc 1 356 3 is_stmt 0 view .LVU143
 640 0006 FFF7FEFF 		bl	HAL_LTDC_SetAlpha_NoReload
 641              	.LVL41:
 357:Src/stm32f429i_discovery_lcd.c **** 
 642              		.loc 1 357 1 view .LVU144
 643 000a 08BD     		pop	{r3, pc}
 644              	.L47:
 645              		.align	2
 646              	.L46:
 647 000c 00000000 		.word	.LANCHOR2
 648              		.cfi_endproc
ARM GAS  /tmp/ccky5mPs.s 			page 39


 649              	.LFE138:
 651              		.section	.text.BSP_LCD_SetLayerAddress,"ax",%progbits
 652              		.align	1
 653              		.global	BSP_LCD_SetLayerAddress
 654              		.syntax unified
 655              		.thumb
 656              		.thumb_func
 658              	BSP_LCD_SetLayerAddress:
 659              	.LVL42:
 660              	.LFB139:
 365:Src/stm32f429i_discovery_lcd.c ****   HAL_LTDC_SetAddress(&LtdcHandler, Address, LayerIndex);
 661              		.loc 1 365 1 is_stmt 1 view -0
 662              		.cfi_startproc
 663              		@ args = 0, pretend = 0, frame = 0
 664              		@ frame_needed = 0, uses_anonymous_args = 0
 365:Src/stm32f429i_discovery_lcd.c ****   HAL_LTDC_SetAddress(&LtdcHandler, Address, LayerIndex);
 665              		.loc 1 365 1 is_stmt 0 view .LVU146
 666 0000 08B5     		push	{r3, lr}
 667              	.LCFI15:
 668              		.cfi_def_cfa_offset 8
 669              		.cfi_offset 3, -8
 670              		.cfi_offset 14, -4
 671 0002 0246     		mov	r2, r0
 366:Src/stm32f429i_discovery_lcd.c **** }
 672              		.loc 1 366 3 is_stmt 1 view .LVU147
 673 0004 0148     		ldr	r0, .L50
 674              	.LVL43:
 366:Src/stm32f429i_discovery_lcd.c **** }
 675              		.loc 1 366 3 is_stmt 0 view .LVU148
 676 0006 FFF7FEFF 		bl	HAL_LTDC_SetAddress
 677              	.LVL44:
 367:Src/stm32f429i_discovery_lcd.c **** 
 678              		.loc 1 367 1 view .LVU149
 679 000a 08BD     		pop	{r3, pc}
 680              	.L51:
 681              		.align	2
 682              	.L50:
 683 000c 00000000 		.word	.LANCHOR2
 684              		.cfi_endproc
 685              	.LFE139:
 687              		.section	.text.BSP_LCD_SetLayerAddress_NoReload,"ax",%progbits
 688              		.align	1
 689              		.global	BSP_LCD_SetLayerAddress_NoReload
 690              		.syntax unified
 691              		.thumb
 692              		.thumb_func
 694              	BSP_LCD_SetLayerAddress_NoReload:
 695              	.LVL45:
 696              	.LFB140:
 376:Src/stm32f429i_discovery_lcd.c ****   HAL_LTDC_SetAddress_NoReload(&LtdcHandler, Address, LayerIndex);
 697              		.loc 1 376 1 is_stmt 1 view -0
 698              		.cfi_startproc
 699              		@ args = 0, pretend = 0, frame = 0
 700              		@ frame_needed = 0, uses_anonymous_args = 0
 376:Src/stm32f429i_discovery_lcd.c ****   HAL_LTDC_SetAddress_NoReload(&LtdcHandler, Address, LayerIndex);
 701              		.loc 1 376 1 is_stmt 0 view .LVU151
 702 0000 08B5     		push	{r3, lr}
ARM GAS  /tmp/ccky5mPs.s 			page 40


 703              	.LCFI16:
 704              		.cfi_def_cfa_offset 8
 705              		.cfi_offset 3, -8
 706              		.cfi_offset 14, -4
 707 0002 0246     		mov	r2, r0
 377:Src/stm32f429i_discovery_lcd.c **** }
 708              		.loc 1 377 3 is_stmt 1 view .LVU152
 709 0004 0148     		ldr	r0, .L54
 710              	.LVL46:
 377:Src/stm32f429i_discovery_lcd.c **** }
 711              		.loc 1 377 3 is_stmt 0 view .LVU153
 712 0006 FFF7FEFF 		bl	HAL_LTDC_SetAddress_NoReload
 713              	.LVL47:
 378:Src/stm32f429i_discovery_lcd.c **** 
 714              		.loc 1 378 1 view .LVU154
 715 000a 08BD     		pop	{r3, pc}
 716              	.L55:
 717              		.align	2
 718              	.L54:
 719 000c 00000000 		.word	.LANCHOR2
 720              		.cfi_endproc
 721              	.LFE140:
 723              		.section	.text.BSP_LCD_SetLayerWindow,"ax",%progbits
 724              		.align	1
 725              		.global	BSP_LCD_SetLayerWindow
 726              		.syntax unified
 727              		.thumb
 728              		.thumb_func
 730              	BSP_LCD_SetLayerWindow:
 731              	.LVL48:
 732              	.LFB141:
 389:Src/stm32f429i_discovery_lcd.c ****   /* reconfigure the layer size */
 733              		.loc 1 389 1 is_stmt 1 view -0
 734              		.cfi_startproc
 735              		@ args = 4, pretend = 0, frame = 0
 736              		@ frame_needed = 0, uses_anonymous_args = 0
 389:Src/stm32f429i_discovery_lcd.c ****   /* reconfigure the layer size */
 737              		.loc 1 389 1 is_stmt 0 view .LVU156
 738 0000 F8B5     		push	{r3, r4, r5, r6, r7, lr}
 739              	.LCFI17:
 740              		.cfi_def_cfa_offset 24
 741              		.cfi_offset 3, -24
 742              		.cfi_offset 4, -20
 743              		.cfi_offset 5, -16
 744              		.cfi_offset 6, -12
 745              		.cfi_offset 7, -8
 746              		.cfi_offset 14, -4
 747 0002 0446     		mov	r4, r0
 748 0004 0D46     		mov	r5, r1
 749 0006 1646     		mov	r6, r2
 750 0008 1946     		mov	r1, r3
 751              	.LVL49:
 391:Src/stm32f429i_discovery_lcd.c ****   
 752              		.loc 1 391 3 is_stmt 1 view .LVU157
 753 000a 074F     		ldr	r7, .L58
 754 000c 0346     		mov	r3, r0
 755              	.LVL50:
ARM GAS  /tmp/ccky5mPs.s 			page 41


 391:Src/stm32f429i_discovery_lcd.c ****   
 756              		.loc 1 391 3 is_stmt 0 view .LVU158
 757 000e BDF81820 		ldrh	r2, [sp, #24]
 758              	.LVL51:
 391:Src/stm32f429i_discovery_lcd.c ****   
 759              		.loc 1 391 3 view .LVU159
 760 0012 3846     		mov	r0, r7
 761              	.LVL52:
 391:Src/stm32f429i_discovery_lcd.c ****   
 762              		.loc 1 391 3 view .LVU160
 763 0014 FFF7FEFF 		bl	HAL_LTDC_SetWindowSize
 764              	.LVL53:
 394:Src/stm32f429i_discovery_lcd.c **** }
 765              		.loc 1 394 3 is_stmt 1 view .LVU161
 766 0018 2346     		mov	r3, r4
 767 001a 3246     		mov	r2, r6
 768 001c 2946     		mov	r1, r5
 769 001e 3846     		mov	r0, r7
 770 0020 FFF7FEFF 		bl	HAL_LTDC_SetWindowPosition
 771              	.LVL54:
 395:Src/stm32f429i_discovery_lcd.c **** 
 772              		.loc 1 395 1 is_stmt 0 view .LVU162
 773 0024 F8BD     		pop	{r3, r4, r5, r6, r7, pc}
 774              	.LVL55:
 775              	.L59:
 395:Src/stm32f429i_discovery_lcd.c **** 
 776              		.loc 1 395 1 view .LVU163
 777 0026 00BF     		.align	2
 778              	.L58:
 779 0028 00000000 		.word	.LANCHOR2
 780              		.cfi_endproc
 781              	.LFE141:
 783              		.section	.text.BSP_LCD_SetLayerWindow_NoReload,"ax",%progbits
 784              		.align	1
 785              		.global	BSP_LCD_SetLayerWindow_NoReload
 786              		.syntax unified
 787              		.thumb
 788              		.thumb_func
 790              	BSP_LCD_SetLayerWindow_NoReload:
 791              	.LVL56:
 792              	.LFB142:
 407:Src/stm32f429i_discovery_lcd.c ****   /* Reconfigure the layer size */
 793              		.loc 1 407 1 is_stmt 1 view -0
 794              		.cfi_startproc
 795              		@ args = 4, pretend = 0, frame = 0
 796              		@ frame_needed = 0, uses_anonymous_args = 0
 407:Src/stm32f429i_discovery_lcd.c ****   /* Reconfigure the layer size */
 797              		.loc 1 407 1 is_stmt 0 view .LVU165
 798 0000 F8B5     		push	{r3, r4, r5, r6, r7, lr}
 799              	.LCFI18:
 800              		.cfi_def_cfa_offset 24
 801              		.cfi_offset 3, -24
 802              		.cfi_offset 4, -20
 803              		.cfi_offset 5, -16
 804              		.cfi_offset 6, -12
 805              		.cfi_offset 7, -8
 806              		.cfi_offset 14, -4
ARM GAS  /tmp/ccky5mPs.s 			page 42


 807 0002 0446     		mov	r4, r0
 808 0004 0D46     		mov	r5, r1
 809 0006 1646     		mov	r6, r2
 810 0008 1946     		mov	r1, r3
 811              	.LVL57:
 409:Src/stm32f429i_discovery_lcd.c ****   
 812              		.loc 1 409 3 is_stmt 1 view .LVU166
 813 000a 074F     		ldr	r7, .L62
 814 000c 0346     		mov	r3, r0
 815              	.LVL58:
 409:Src/stm32f429i_discovery_lcd.c ****   
 816              		.loc 1 409 3 is_stmt 0 view .LVU167
 817 000e BDF81820 		ldrh	r2, [sp, #24]
 818              	.LVL59:
 409:Src/stm32f429i_discovery_lcd.c ****   
 819              		.loc 1 409 3 view .LVU168
 820 0012 3846     		mov	r0, r7
 821              	.LVL60:
 409:Src/stm32f429i_discovery_lcd.c ****   
 822              		.loc 1 409 3 view .LVU169
 823 0014 FFF7FEFF 		bl	HAL_LTDC_SetWindowSize_NoReload
 824              	.LVL61:
 412:Src/stm32f429i_discovery_lcd.c **** }
 825              		.loc 1 412 3 is_stmt 1 view .LVU170
 826 0018 2346     		mov	r3, r4
 827 001a 3246     		mov	r2, r6
 828 001c 2946     		mov	r1, r5
 829 001e 3846     		mov	r0, r7
 830 0020 FFF7FEFF 		bl	HAL_LTDC_SetWindowPosition_NoReload
 831              	.LVL62:
 413:Src/stm32f429i_discovery_lcd.c **** 
 832              		.loc 1 413 1 is_stmt 0 view .LVU171
 833 0024 F8BD     		pop	{r3, r4, r5, r6, r7, pc}
 834              	.LVL63:
 835              	.L63:
 413:Src/stm32f429i_discovery_lcd.c **** 
 836              		.loc 1 413 1 view .LVU172
 837 0026 00BF     		.align	2
 838              	.L62:
 839 0028 00000000 		.word	.LANCHOR2
 840              		.cfi_endproc
 841              	.LFE142:
 843              		.section	.text.BSP_LCD_SetColorKeying,"ax",%progbits
 844              		.align	1
 845              		.global	BSP_LCD_SetColorKeying
 846              		.syntax unified
 847              		.thumb
 848              		.thumb_func
 850              	BSP_LCD_SetColorKeying:
 851              	.LVL64:
 852              	.LFB143:
 421:Src/stm32f429i_discovery_lcd.c ****   /* Configure and Enable the color Keying for LCD Layer */
 853              		.loc 1 421 1 is_stmt 1 view -0
 854              		.cfi_startproc
 855              		@ args = 0, pretend = 0, frame = 0
 856              		@ frame_needed = 0, uses_anonymous_args = 0
 421:Src/stm32f429i_discovery_lcd.c ****   /* Configure and Enable the color Keying for LCD Layer */
ARM GAS  /tmp/ccky5mPs.s 			page 43


 857              		.loc 1 421 1 is_stmt 0 view .LVU174
 858 0000 38B5     		push	{r3, r4, r5, lr}
 859              	.LCFI19:
 860              		.cfi_def_cfa_offset 16
 861              		.cfi_offset 3, -16
 862              		.cfi_offset 4, -12
 863              		.cfi_offset 5, -8
 864              		.cfi_offset 14, -4
 865 0002 0446     		mov	r4, r0
 423:Src/stm32f429i_discovery_lcd.c ****   HAL_LTDC_EnableColorKeying(&LtdcHandler, LayerIndex);
 866              		.loc 1 423 3 is_stmt 1 view .LVU175
 867 0004 044D     		ldr	r5, .L66
 868 0006 0246     		mov	r2, r0
 869 0008 2846     		mov	r0, r5
 870              	.LVL65:
 423:Src/stm32f429i_discovery_lcd.c ****   HAL_LTDC_EnableColorKeying(&LtdcHandler, LayerIndex);
 871              		.loc 1 423 3 is_stmt 0 view .LVU176
 872 000a FFF7FEFF 		bl	HAL_LTDC_ConfigColorKeying
 873              	.LVL66:
 424:Src/stm32f429i_discovery_lcd.c **** }
 874              		.loc 1 424 3 is_stmt 1 view .LVU177
 875 000e 2146     		mov	r1, r4
 876 0010 2846     		mov	r0, r5
 877 0012 FFF7FEFF 		bl	HAL_LTDC_EnableColorKeying
 878              	.LVL67:
 425:Src/stm32f429i_discovery_lcd.c **** 
 879              		.loc 1 425 1 is_stmt 0 view .LVU178
 880 0016 38BD     		pop	{r3, r4, r5, pc}
 881              	.LVL68:
 882              	.L67:
 425:Src/stm32f429i_discovery_lcd.c **** 
 883              		.loc 1 425 1 view .LVU179
 884              		.align	2
 885              	.L66:
 886 0018 00000000 		.word	.LANCHOR2
 887              		.cfi_endproc
 888              	.LFE143:
 890              		.section	.text.BSP_LCD_SetColorKeying_NoReload,"ax",%progbits
 891              		.align	1
 892              		.global	BSP_LCD_SetColorKeying_NoReload
 893              		.syntax unified
 894              		.thumb
 895              		.thumb_func
 897              	BSP_LCD_SetColorKeying_NoReload:
 898              	.LVL69:
 899              	.LFB144:
 434:Src/stm32f429i_discovery_lcd.c ****   /* Configure and Enable the color Keying for LCD Layer */
 900              		.loc 1 434 1 is_stmt 1 view -0
 901              		.cfi_startproc
 902              		@ args = 0, pretend = 0, frame = 0
 903              		@ frame_needed = 0, uses_anonymous_args = 0
 434:Src/stm32f429i_discovery_lcd.c ****   /* Configure and Enable the color Keying for LCD Layer */
 904              		.loc 1 434 1 is_stmt 0 view .LVU181
 905 0000 38B5     		push	{r3, r4, r5, lr}
 906              	.LCFI20:
 907              		.cfi_def_cfa_offset 16
 908              		.cfi_offset 3, -16
ARM GAS  /tmp/ccky5mPs.s 			page 44


 909              		.cfi_offset 4, -12
 910              		.cfi_offset 5, -8
 911              		.cfi_offset 14, -4
 912 0002 0446     		mov	r4, r0
 436:Src/stm32f429i_discovery_lcd.c ****   HAL_LTDC_EnableColorKeying_NoReload(&LtdcHandler, LayerIndex);
 913              		.loc 1 436 3 is_stmt 1 view .LVU182
 914 0004 044D     		ldr	r5, .L70
 915 0006 0246     		mov	r2, r0
 916 0008 2846     		mov	r0, r5
 917              	.LVL70:
 436:Src/stm32f429i_discovery_lcd.c ****   HAL_LTDC_EnableColorKeying_NoReload(&LtdcHandler, LayerIndex);
 918              		.loc 1 436 3 is_stmt 0 view .LVU183
 919 000a FFF7FEFF 		bl	HAL_LTDC_ConfigColorKeying_NoReload
 920              	.LVL71:
 437:Src/stm32f429i_discovery_lcd.c **** }
 921              		.loc 1 437 3 is_stmt 1 view .LVU184
 922 000e 2146     		mov	r1, r4
 923 0010 2846     		mov	r0, r5
 924 0012 FFF7FEFF 		bl	HAL_LTDC_EnableColorKeying_NoReload
 925              	.LVL72:
 438:Src/stm32f429i_discovery_lcd.c **** 
 926              		.loc 1 438 1 is_stmt 0 view .LVU185
 927 0016 38BD     		pop	{r3, r4, r5, pc}
 928              	.LVL73:
 929              	.L71:
 438:Src/stm32f429i_discovery_lcd.c **** 
 930              		.loc 1 438 1 view .LVU186
 931              		.align	2
 932              	.L70:
 933 0018 00000000 		.word	.LANCHOR2
 934              		.cfi_endproc
 935              	.LFE144:
 937              		.section	.text.BSP_LCD_ResetColorKeying,"ax",%progbits
 938              		.align	1
 939              		.global	BSP_LCD_ResetColorKeying
 940              		.syntax unified
 941              		.thumb
 942              		.thumb_func
 944              	BSP_LCD_ResetColorKeying:
 945              	.LVL74:
 946              	.LFB145:
 445:Src/stm32f429i_discovery_lcd.c ****   /* Disable the color Keying for LCD Layer */
 947              		.loc 1 445 1 is_stmt 1 view -0
 948              		.cfi_startproc
 949              		@ args = 0, pretend = 0, frame = 0
 950              		@ frame_needed = 0, uses_anonymous_args = 0
 445:Src/stm32f429i_discovery_lcd.c ****   /* Disable the color Keying for LCD Layer */
 951              		.loc 1 445 1 is_stmt 0 view .LVU188
 952 0000 08B5     		push	{r3, lr}
 953              	.LCFI21:
 954              		.cfi_def_cfa_offset 8
 955              		.cfi_offset 3, -8
 956              		.cfi_offset 14, -4
 957 0002 0146     		mov	r1, r0
 447:Src/stm32f429i_discovery_lcd.c **** }
 958              		.loc 1 447 3 is_stmt 1 view .LVU189
 959 0004 0148     		ldr	r0, .L74
ARM GAS  /tmp/ccky5mPs.s 			page 45


 960              	.LVL75:
 447:Src/stm32f429i_discovery_lcd.c **** }
 961              		.loc 1 447 3 is_stmt 0 view .LVU190
 962 0006 FFF7FEFF 		bl	HAL_LTDC_DisableColorKeying
 963              	.LVL76:
 448:Src/stm32f429i_discovery_lcd.c **** 
 964              		.loc 1 448 1 view .LVU191
 965 000a 08BD     		pop	{r3, pc}
 966              	.L75:
 967              		.align	2
 968              	.L74:
 969 000c 00000000 		.word	.LANCHOR2
 970              		.cfi_endproc
 971              	.LFE145:
 973              		.section	.text.BSP_LCD_ResetColorKeying_NoReload,"ax",%progbits
 974              		.align	1
 975              		.global	BSP_LCD_ResetColorKeying_NoReload
 976              		.syntax unified
 977              		.thumb
 978              		.thumb_func
 980              	BSP_LCD_ResetColorKeying_NoReload:
 981              	.LVL77:
 982              	.LFB146:
 456:Src/stm32f429i_discovery_lcd.c ****   /* Disable the color Keying for LCD Layer */
 983              		.loc 1 456 1 is_stmt 1 view -0
 984              		.cfi_startproc
 985              		@ args = 0, pretend = 0, frame = 0
 986              		@ frame_needed = 0, uses_anonymous_args = 0
 456:Src/stm32f429i_discovery_lcd.c ****   /* Disable the color Keying for LCD Layer */
 987              		.loc 1 456 1 is_stmt 0 view .LVU193
 988 0000 08B5     		push	{r3, lr}
 989              	.LCFI22:
 990              		.cfi_def_cfa_offset 8
 991              		.cfi_offset 3, -8
 992              		.cfi_offset 14, -4
 993 0002 0146     		mov	r1, r0
 458:Src/stm32f429i_discovery_lcd.c **** }
 994              		.loc 1 458 3 is_stmt 1 view .LVU194
 995 0004 0148     		ldr	r0, .L78
 996              	.LVL78:
 458:Src/stm32f429i_discovery_lcd.c **** }
 997              		.loc 1 458 3 is_stmt 0 view .LVU195
 998 0006 FFF7FEFF 		bl	HAL_LTDC_DisableColorKeying_NoReload
 999              	.LVL79:
 459:Src/stm32f429i_discovery_lcd.c **** 
 1000              		.loc 1 459 1 view .LVU196
 1001 000a 08BD     		pop	{r3, pc}
 1002              	.L79:
 1003              		.align	2
 1004              	.L78:
 1005 000c 00000000 		.word	.LANCHOR2
 1006              		.cfi_endproc
 1007              	.LFE146:
 1009              		.section	.text.BSP_LCD_Relaod,"ax",%progbits
 1010              		.align	1
 1011              		.global	BSP_LCD_Relaod
 1012              		.syntax unified
ARM GAS  /tmp/ccky5mPs.s 			page 46


 1013              		.thumb
 1014              		.thumb_func
 1016              	BSP_LCD_Relaod:
 1017              	.LVL80:
 1018              	.LFB147:
 469:Src/stm32f429i_discovery_lcd.c ****   HAL_LTDC_Relaod (&LtdcHandler, ReloadType);
 1019              		.loc 1 469 1 is_stmt 1 view -0
 1020              		.cfi_startproc
 1021              		@ args = 0, pretend = 0, frame = 0
 1022              		@ frame_needed = 0, uses_anonymous_args = 0
 469:Src/stm32f429i_discovery_lcd.c ****   HAL_LTDC_Relaod (&LtdcHandler, ReloadType);
 1023              		.loc 1 469 1 is_stmt 0 view .LVU198
 1024 0000 08B5     		push	{r3, lr}
 1025              	.LCFI23:
 1026              		.cfi_def_cfa_offset 8
 1027              		.cfi_offset 3, -8
 1028              		.cfi_offset 14, -4
 1029 0002 0146     		mov	r1, r0
 470:Src/stm32f429i_discovery_lcd.c **** }
 1030              		.loc 1 470 3 is_stmt 1 view .LVU199
 1031 0004 0148     		ldr	r0, .L82
 1032              	.LVL81:
 470:Src/stm32f429i_discovery_lcd.c **** }
 1033              		.loc 1 470 3 is_stmt 0 view .LVU200
 1034 0006 FFF7FEFF 		bl	HAL_LTDC_Reload
 1035              	.LVL82:
 471:Src/stm32f429i_discovery_lcd.c **** 
 1036              		.loc 1 471 1 view .LVU201
 1037 000a 08BD     		pop	{r3, pc}
 1038              	.L83:
 1039              		.align	2
 1040              	.L82:
 1041 000c 00000000 		.word	.LANCHOR2
 1042              		.cfi_endproc
 1043              	.LFE147:
 1045              		.section	.text.BSP_LCD_GetTextColor,"ax",%progbits
 1046              		.align	1
 1047              		.global	BSP_LCD_GetTextColor
 1048              		.syntax unified
 1049              		.thumb
 1050              		.thumb_func
 1052              	BSP_LCD_GetTextColor:
 1053              	.LFB148:
 478:Src/stm32f429i_discovery_lcd.c ****   return DrawProp[ActiveLayer].TextColor;
 1054              		.loc 1 478 1 is_stmt 1 view -0
 1055              		.cfi_startproc
 1056              		@ args = 0, pretend = 0, frame = 0
 1057              		@ frame_needed = 0, uses_anonymous_args = 0
 1058              		@ link register save eliminated.
 479:Src/stm32f429i_discovery_lcd.c **** }
 1059              		.loc 1 479 3 view .LVU203
 479:Src/stm32f429i_discovery_lcd.c **** }
 1060              		.loc 1 479 31 is_stmt 0 view .LVU204
 1061 0000 034B     		ldr	r3, .L85
 1062 0002 1B68     		ldr	r3, [r3]
 1063 0004 03EB4303 		add	r3, r3, r3, lsl #1
 1064 0008 9A00     		lsls	r2, r3, #2
ARM GAS  /tmp/ccky5mPs.s 			page 47


 480:Src/stm32f429i_discovery_lcd.c **** 
 1065              		.loc 1 480 1 view .LVU205
 1066 000a 024B     		ldr	r3, .L85+4
 1067 000c 9858     		ldr	r0, [r3, r2]
 1068 000e 7047     		bx	lr
 1069              	.L86:
 1070              		.align	2
 1071              	.L85:
 1072 0010 00000000 		.word	.LANCHOR5
 1073 0014 00000000 		.word	.LANCHOR3
 1074              		.cfi_endproc
 1075              	.LFE148:
 1077              		.section	.text.BSP_LCD_GetBackColor,"ax",%progbits
 1078              		.align	1
 1079              		.global	BSP_LCD_GetBackColor
 1080              		.syntax unified
 1081              		.thumb
 1082              		.thumb_func
 1084              	BSP_LCD_GetBackColor:
 1085              	.LFB149:
 487:Src/stm32f429i_discovery_lcd.c ****   return DrawProp[ActiveLayer].BackColor;
 1086              		.loc 1 487 1 is_stmt 1 view -0
 1087              		.cfi_startproc
 1088              		@ args = 0, pretend = 0, frame = 0
 1089              		@ frame_needed = 0, uses_anonymous_args = 0
 1090              		@ link register save eliminated.
 488:Src/stm32f429i_discovery_lcd.c **** }
 1091              		.loc 1 488 3 view .LVU207
 488:Src/stm32f429i_discovery_lcd.c **** }
 1092              		.loc 1 488 31 is_stmt 0 view .LVU208
 1093 0000 044B     		ldr	r3, .L88
 1094 0002 1B68     		ldr	r3, [r3]
 1095 0004 03EB4303 		add	r3, r3, r3, lsl #1
 1096 0008 9A00     		lsls	r2, r3, #2
 1097 000a 034B     		ldr	r3, .L88+4
 1098 000c 1344     		add	r3, r3, r2
 489:Src/stm32f429i_discovery_lcd.c **** 
 1099              		.loc 1 489 1 view .LVU209
 1100 000e 5868     		ldr	r0, [r3, #4]
 1101 0010 7047     		bx	lr
 1102              	.L89:
 1103 0012 00BF     		.align	2
 1104              	.L88:
 1105 0014 00000000 		.word	.LANCHOR5
 1106 0018 00000000 		.word	.LANCHOR3
 1107              		.cfi_endproc
 1108              	.LFE149:
 1110              		.section	.text.BSP_LCD_SetTextColor,"ax",%progbits
 1111              		.align	1
 1112              		.global	BSP_LCD_SetTextColor
 1113              		.syntax unified
 1114              		.thumb
 1115              		.thumb_func
 1117              	BSP_LCD_SetTextColor:
 1118              	.LVL83:
 1119              	.LFB150:
 496:Src/stm32f429i_discovery_lcd.c ****   DrawProp[ActiveLayer].TextColor = Color;
ARM GAS  /tmp/ccky5mPs.s 			page 48


 1120              		.loc 1 496 1 is_stmt 1 view -0
 1121              		.cfi_startproc
 1122              		@ args = 0, pretend = 0, frame = 0
 1123              		@ frame_needed = 0, uses_anonymous_args = 0
 1124              		@ link register save eliminated.
 497:Src/stm32f429i_discovery_lcd.c **** }
 1125              		.loc 1 497 3 view .LVU211
 497:Src/stm32f429i_discovery_lcd.c **** }
 1126              		.loc 1 497 24 is_stmt 0 view .LVU212
 1127 0000 034B     		ldr	r3, .L91
 1128 0002 1B68     		ldr	r3, [r3]
 497:Src/stm32f429i_discovery_lcd.c **** }
 1129              		.loc 1 497 35 view .LVU213
 1130 0004 03EB4303 		add	r3, r3, r3, lsl #1
 1131 0008 024A     		ldr	r2, .L91+4
 1132 000a 42F82300 		str	r0, [r2, r3, lsl #2]
 498:Src/stm32f429i_discovery_lcd.c **** 
 1133              		.loc 1 498 1 view .LVU214
 1134 000e 7047     		bx	lr
 1135              	.L92:
 1136              		.align	2
 1137              	.L91:
 1138 0010 00000000 		.word	.LANCHOR5
 1139 0014 00000000 		.word	.LANCHOR3
 1140              		.cfi_endproc
 1141              	.LFE150:
 1143              		.section	.text.BSP_LCD_SetBackColor,"ax",%progbits
 1144              		.align	1
 1145              		.global	BSP_LCD_SetBackColor
 1146              		.syntax unified
 1147              		.thumb
 1148              		.thumb_func
 1150              	BSP_LCD_SetBackColor:
 1151              	.LVL84:
 1152              	.LFB151:
 505:Src/stm32f429i_discovery_lcd.c ****   DrawProp[ActiveLayer].BackColor = Color;
 1153              		.loc 1 505 1 is_stmt 1 view -0
 1154              		.cfi_startproc
 1155              		@ args = 0, pretend = 0, frame = 0
 1156              		@ frame_needed = 0, uses_anonymous_args = 0
 1157              		@ link register save eliminated.
 506:Src/stm32f429i_discovery_lcd.c **** }
 1158              		.loc 1 506 3 view .LVU216
 506:Src/stm32f429i_discovery_lcd.c **** }
 1159              		.loc 1 506 24 is_stmt 0 view .LVU217
 1160 0000 044B     		ldr	r3, .L94
 1161 0002 1B68     		ldr	r3, [r3]
 506:Src/stm32f429i_discovery_lcd.c **** }
 1162              		.loc 1 506 35 view .LVU218
 1163 0004 03EB4303 		add	r3, r3, r3, lsl #1
 1164 0008 034A     		ldr	r2, .L94+4
 1165 000a 02EB8303 		add	r3, r2, r3, lsl #2
 1166 000e 5860     		str	r0, [r3, #4]
 507:Src/stm32f429i_discovery_lcd.c **** 
 1167              		.loc 1 507 1 view .LVU219
 1168 0010 7047     		bx	lr
 1169              	.L95:
ARM GAS  /tmp/ccky5mPs.s 			page 49


 1170 0012 00BF     		.align	2
 1171              	.L94:
 1172 0014 00000000 		.word	.LANCHOR5
 1173 0018 00000000 		.word	.LANCHOR3
 1174              		.cfi_endproc
 1175              	.LFE151:
 1177              		.section	.text.BSP_LCD_SetFont,"ax",%progbits
 1178              		.align	1
 1179              		.global	BSP_LCD_SetFont
 1180              		.syntax unified
 1181              		.thumb
 1182              		.thumb_func
 1184              	BSP_LCD_SetFont:
 1185              	.LVL85:
 1186              	.LFB152:
 514:Src/stm32f429i_discovery_lcd.c ****   DrawProp[ActiveLayer].pFont = pFonts;
 1187              		.loc 1 514 1 is_stmt 1 view -0
 1188              		.cfi_startproc
 1189              		@ args = 0, pretend = 0, frame = 0
 1190              		@ frame_needed = 0, uses_anonymous_args = 0
 1191              		@ link register save eliminated.
 515:Src/stm32f429i_discovery_lcd.c **** }
 1192              		.loc 1 515 3 view .LVU221
 515:Src/stm32f429i_discovery_lcd.c **** }
 1193              		.loc 1 515 24 is_stmt 0 view .LVU222
 1194 0000 044B     		ldr	r3, .L97
 1195 0002 1B68     		ldr	r3, [r3]
 515:Src/stm32f429i_discovery_lcd.c **** }
 1196              		.loc 1 515 31 view .LVU223
 1197 0004 03EB4303 		add	r3, r3, r3, lsl #1
 1198 0008 034A     		ldr	r2, .L97+4
 1199 000a 02EB8303 		add	r3, r2, r3, lsl #2
 1200 000e 9860     		str	r0, [r3, #8]
 516:Src/stm32f429i_discovery_lcd.c **** 
 1201              		.loc 1 516 1 view .LVU224
 1202 0010 7047     		bx	lr
 1203              	.L98:
 1204 0012 00BF     		.align	2
 1205              	.L97:
 1206 0014 00000000 		.word	.LANCHOR5
 1207 0018 00000000 		.word	.LANCHOR3
 1208              		.cfi_endproc
 1209              	.LFE152:
 1211              		.section	.text.BSP_LCD_GetFont,"ax",%progbits
 1212              		.align	1
 1213              		.global	BSP_LCD_GetFont
 1214              		.syntax unified
 1215              		.thumb
 1216              		.thumb_func
 1218              	BSP_LCD_GetFont:
 1219              	.LFB153:
 523:Src/stm32f429i_discovery_lcd.c ****   return DrawProp[ActiveLayer].pFont;
 1220              		.loc 1 523 1 is_stmt 1 view -0
 1221              		.cfi_startproc
 1222              		@ args = 0, pretend = 0, frame = 0
 1223              		@ frame_needed = 0, uses_anonymous_args = 0
 1224              		@ link register save eliminated.
ARM GAS  /tmp/ccky5mPs.s 			page 50


 524:Src/stm32f429i_discovery_lcd.c **** }
 1225              		.loc 1 524 3 view .LVU226
 524:Src/stm32f429i_discovery_lcd.c **** }
 1226              		.loc 1 524 31 is_stmt 0 view .LVU227
 1227 0000 044B     		ldr	r3, .L100
 1228 0002 1B68     		ldr	r3, [r3]
 1229 0004 03EB4303 		add	r3, r3, r3, lsl #1
 1230 0008 9A00     		lsls	r2, r3, #2
 1231 000a 034B     		ldr	r3, .L100+4
 1232 000c 1344     		add	r3, r3, r2
 525:Src/stm32f429i_discovery_lcd.c **** 
 1233              		.loc 1 525 1 view .LVU228
 1234 000e 9868     		ldr	r0, [r3, #8]
 1235 0010 7047     		bx	lr
 1236              	.L101:
 1237 0012 00BF     		.align	2
 1238              	.L100:
 1239 0014 00000000 		.word	.LANCHOR5
 1240 0018 00000000 		.word	.LANCHOR3
 1241              		.cfi_endproc
 1242              	.LFE153:
 1244              		.section	.text.BSP_LCD_ReadPixel,"ax",%progbits
 1245              		.align	1
 1246              		.global	BSP_LCD_ReadPixel
 1247              		.syntax unified
 1248              		.thumb
 1249              		.thumb_func
 1251              	BSP_LCD_ReadPixel:
 1252              	.LVL86:
 1253              	.LFB154:
 534:Src/stm32f429i_discovery_lcd.c ****   uint32_t ret = 0;
 1254              		.loc 1 534 1 is_stmt 1 view -0
 1255              		.cfi_startproc
 1256              		@ args = 0, pretend = 0, frame = 0
 1257              		@ frame_needed = 0, uses_anonymous_args = 0
 534:Src/stm32f429i_discovery_lcd.c ****   uint32_t ret = 0;
 1258              		.loc 1 534 1 is_stmt 0 view .LVU230
 1259 0000 70B5     		push	{r4, r5, r6, lr}
 1260              	.LCFI24:
 1261              		.cfi_def_cfa_offset 16
 1262              		.cfi_offset 4, -16
 1263              		.cfi_offset 5, -12
 1264              		.cfi_offset 6, -8
 1265              		.cfi_offset 14, -4
 1266 0002 0446     		mov	r4, r0
 1267 0004 0D46     		mov	r5, r1
 535:Src/stm32f429i_discovery_lcd.c ****   
 1268              		.loc 1 535 3 is_stmt 1 view .LVU231
 1269              	.LVL87:
 537:Src/stm32f429i_discovery_lcd.c ****   {
 1270              		.loc 1 537 3 view .LVU232
 537:Src/stm32f429i_discovery_lcd.c ****   {
 1271              		.loc 1 537 39 is_stmt 0 view .LVU233
 1272 0006 214B     		ldr	r3, .L111
 1273 0008 1A68     		ldr	r2, [r3]
 1274 000a 214B     		ldr	r3, .L111+4
 1275 000c 3420     		movs	r0, #52
ARM GAS  /tmp/ccky5mPs.s 			page 51


 1276              	.LVL88:
 537:Src/stm32f429i_discovery_lcd.c ****   {
 1277              		.loc 1 537 39 view .LVU234
 1278 000e 00FB0233 		mla	r3, r0, r2, r3
 1279 0012 9B6C     		ldr	r3, [r3, #72]
 537:Src/stm32f429i_discovery_lcd.c ****   {
 1280              		.loc 1 537 5 view .LVU235
 1281 0014 A3B1     		cbz	r3, .L109
 542:Src/stm32f429i_discovery_lcd.c ****   {
 1282              		.loc 1 542 8 is_stmt 1 view .LVU236
 542:Src/stm32f429i_discovery_lcd.c ****   {
 1283              		.loc 1 542 10 is_stmt 0 view .LVU237
 1284 0016 012B     		cmp	r3, #1
 1285 0018 1DD0     		beq	.L110
 547:Src/stm32f429i_discovery_lcd.c ****           (LtdcHandler.LayerCfg[ActiveLayer].PixelFormat == LTDC_PIXEL_FORMAT_ARGB4444) || \
 1286              		.loc 1 547 8 is_stmt 1 view .LVU238
 547:Src/stm32f429i_discovery_lcd.c ****           (LtdcHandler.LayerCfg[ActiveLayer].PixelFormat == LTDC_PIXEL_FORMAT_ARGB4444) || \
 1287              		.loc 1 547 10 is_stmt 0 view .LVU239
 1288 001a 022B     		cmp	r3, #2
 1289 001c 03D0     		beq	.L106
 547:Src/stm32f429i_discovery_lcd.c ****           (LtdcHandler.LayerCfg[ActiveLayer].PixelFormat == LTDC_PIXEL_FORMAT_ARGB4444) || \
 1290              		.loc 1 547 87 discriminator 1 view .LVU240
 1291 001e 042B     		cmp	r3, #4
 1292 0020 01D0     		beq	.L106
 548:Src/stm32f429i_discovery_lcd.c ****           (LtdcHandler.LayerCfg[ActiveLayer].PixelFormat == LTDC_PIXEL_FORMAT_AL88))  
 1293              		.loc 1 548 89 view .LVU241
 1294 0022 072B     		cmp	r3, #7
 1295 0024 25D1     		bne	.L107
 1296              	.L106:
 552:Src/stm32f429i_discovery_lcd.c ****   }
 1297              		.loc 1 552 5 is_stmt 1 view .LVU242
 552:Src/stm32f429i_discovery_lcd.c ****   }
 1298              		.loc 1 552 63 is_stmt 0 view .LVU243
 1299 0026 1A4B     		ldr	r3, .L111+4
 1300 0028 3421     		movs	r1, #52
 1301              	.LVL89:
 552:Src/stm32f429i_discovery_lcd.c ****   }
 1302              		.loc 1 552 63 view .LVU244
 1303 002a 01FB0232 		mla	r2, r1, r2, r3
 1304 002e D66D     		ldr	r6, [r2, #92]
 552:Src/stm32f429i_discovery_lcd.c ****   }
 1305              		.loc 1 552 89 view .LVU245
 1306 0030 FFF7FEFF 		bl	BSP_LCD_GetXSize
 1307              	.LVL90:
 552:Src/stm32f429i_discovery_lcd.c ****   }
 1308              		.loc 1 552 108 view .LVU246
 1309 0034 00FB0544 		mla	r4, r0, r5, r4
 552:Src/stm32f429i_discovery_lcd.c ****   }
 1310              		.loc 1 552 11 view .LVU247
 1311 0038 36F81400 		ldrh	r0, [r6, r4, lsl #1]
 1312 003c 80B2     		uxth	r0, r0
 1313              	.LVL91:
 1314              	.L102:
 561:Src/stm32f429i_discovery_lcd.c **** 
 1315              		.loc 1 561 1 view .LVU248
 1316 003e 70BD     		pop	{r4, r5, r6, pc}
 1317              	.LVL92:
ARM GAS  /tmp/ccky5mPs.s 			page 52


 1318              	.L109:
 540:Src/stm32f429i_discovery_lcd.c ****   }
 1319              		.loc 1 540 5 is_stmt 1 view .LVU249
 540:Src/stm32f429i_discovery_lcd.c ****   }
 1320              		.loc 1 540 63 is_stmt 0 view .LVU250
 1321 0040 134B     		ldr	r3, .L111+4
 1322 0042 00FB0232 		mla	r2, r0, r2, r3
 1323 0046 D66D     		ldr	r6, [r2, #92]
 540:Src/stm32f429i_discovery_lcd.c ****   }
 1324              		.loc 1 540 89 view .LVU251
 1325 0048 FFF7FEFF 		bl	BSP_LCD_GetXSize
 1326              	.LVL93:
 540:Src/stm32f429i_discovery_lcd.c ****   }
 1327              		.loc 1 540 108 view .LVU252
 1328 004c 00FB0544 		mla	r4, r0, r5, r4
 540:Src/stm32f429i_discovery_lcd.c ****   }
 1329              		.loc 1 540 9 view .LVU253
 1330 0050 56F82400 		ldr	r0, [r6, r4, lsl #2]
 1331              	.LVL94:
 540:Src/stm32f429i_discovery_lcd.c ****   }
 1332              		.loc 1 540 9 view .LVU254
 1333 0054 F3E7     		b	.L102
 1334              	.LVL95:
 1335              	.L110:
 545:Src/stm32f429i_discovery_lcd.c ****   }
 1336              		.loc 1 545 5 is_stmt 1 view .LVU255
 545:Src/stm32f429i_discovery_lcd.c ****   }
 1337              		.loc 1 545 64 is_stmt 0 view .LVU256
 1338 0056 0E4B     		ldr	r3, .L111+4
 1339 0058 3421     		movs	r1, #52
 1340              	.LVL96:
 545:Src/stm32f429i_discovery_lcd.c ****   }
 1341              		.loc 1 545 64 view .LVU257
 1342 005a 01FB0232 		mla	r2, r1, r2, r3
 1343 005e D66D     		ldr	r6, [r2, #92]
 545:Src/stm32f429i_discovery_lcd.c ****   }
 1344              		.loc 1 545 90 view .LVU258
 1345 0060 FFF7FEFF 		bl	BSP_LCD_GetXSize
 1346              	.LVL97:
 545:Src/stm32f429i_discovery_lcd.c ****   }
 1347              		.loc 1 545 109 view .LVU259
 1348 0064 00FB0544 		mla	r4, r0, r5, r4
 545:Src/stm32f429i_discovery_lcd.c ****   }
 1349              		.loc 1 545 12 view .LVU260
 1350 0068 56F82400 		ldr	r0, [r6, r4, lsl #2]
 545:Src/stm32f429i_discovery_lcd.c ****   }
 1351              		.loc 1 545 9 view .LVU261
 1352 006c 20F07F40 		bic	r0, r0, #-16777216
 1353              	.LVL98:
 545:Src/stm32f429i_discovery_lcd.c ****   }
 1354              		.loc 1 545 9 view .LVU262
 1355 0070 E5E7     		b	.L102
 1356              	.LVL99:
 1357              	.L107:
 557:Src/stm32f429i_discovery_lcd.c ****   }
 1358              		.loc 1 557 5 is_stmt 1 view .LVU263
 557:Src/stm32f429i_discovery_lcd.c ****   }
ARM GAS  /tmp/ccky5mPs.s 			page 53


 1359              		.loc 1 557 62 is_stmt 0 view .LVU264
 1360 0072 074B     		ldr	r3, .L111+4
 1361 0074 3421     		movs	r1, #52
 1362              	.LVL100:
 557:Src/stm32f429i_discovery_lcd.c ****   }
 1363              		.loc 1 557 62 view .LVU265
 1364 0076 01FB0232 		mla	r2, r1, r2, r3
 1365 007a D66D     		ldr	r6, [r2, #92]
 557:Src/stm32f429i_discovery_lcd.c ****   }
 1366              		.loc 1 557 88 view .LVU266
 1367 007c FFF7FEFF 		bl	BSP_LCD_GetXSize
 1368              	.LVL101:
 557:Src/stm32f429i_discovery_lcd.c ****   }
 1369              		.loc 1 557 107 view .LVU267
 1370 0080 00FB0544 		mla	r4, r0, r5, r4
 557:Src/stm32f429i_discovery_lcd.c ****   }
 1371              		.loc 1 557 11 view .LVU268
 1372 0084 16F81400 		ldrb	r0, [r6, r4, lsl #1]	@ zero_extendqisi2
 1373 0088 C0B2     		uxtb	r0, r0
 1374              	.LVL102:
 560:Src/stm32f429i_discovery_lcd.c **** }
 1375              		.loc 1 560 3 is_stmt 1 view .LVU269
 560:Src/stm32f429i_discovery_lcd.c **** }
 1376              		.loc 1 560 10 is_stmt 0 view .LVU270
 1377 008a D8E7     		b	.L102
 1378              	.L112:
 1379              		.align	2
 1380              	.L111:
 1381 008c 00000000 		.word	.LANCHOR5
 1382 0090 00000000 		.word	.LANCHOR2
 1383              		.cfi_endproc
 1384              	.LFE154:
 1386              		.section	.text.BSP_LCD_Clear,"ax",%progbits
 1387              		.align	1
 1388              		.global	BSP_LCD_Clear
 1389              		.syntax unified
 1390              		.thumb
 1391              		.thumb_func
 1393              	BSP_LCD_Clear:
 1394              	.LVL103:
 1395              	.LFB155:
 568:Src/stm32f429i_discovery_lcd.c ****   /* Clear the LCD */ 
 1396              		.loc 1 568 1 is_stmt 1 view -0
 1397              		.cfi_startproc
 1398              		@ args = 0, pretend = 0, frame = 0
 1399              		@ frame_needed = 0, uses_anonymous_args = 0
 568:Src/stm32f429i_discovery_lcd.c ****   /* Clear the LCD */ 
 1400              		.loc 1 568 1 is_stmt 0 view .LVU272
 1401 0000 F0B5     		push	{r4, r5, r6, r7, lr}
 1402              	.LCFI25:
 1403              		.cfi_def_cfa_offset 20
 1404              		.cfi_offset 4, -20
 1405              		.cfi_offset 5, -16
 1406              		.cfi_offset 6, -12
 1407              		.cfi_offset 7, -8
 1408              		.cfi_offset 14, -4
 1409 0002 83B0     		sub	sp, sp, #12
ARM GAS  /tmp/ccky5mPs.s 			page 54


 1410              	.LCFI26:
 1411              		.cfi_def_cfa_offset 32
 1412 0004 0546     		mov	r5, r0
 570:Src/stm32f429i_discovery_lcd.c **** }
 1413              		.loc 1 570 3 is_stmt 1 view .LVU273
 1414 0006 0B4B     		ldr	r3, .L115
 1415 0008 1E68     		ldr	r6, [r3]
 570:Src/stm32f429i_discovery_lcd.c **** }
 1416              		.loc 1 570 73 is_stmt 0 view .LVU274
 1417 000a 0B4B     		ldr	r3, .L115+4
 1418 000c 3422     		movs	r2, #52
 1419 000e 02FB0633 		mla	r3, r2, r6, r3
 1420 0012 DF6D     		ldr	r7, [r3, #92]
 570:Src/stm32f429i_discovery_lcd.c **** }
 1421              		.loc 1 570 3 view .LVU275
 1422 0014 FFF7FEFF 		bl	BSP_LCD_GetXSize
 1423              	.LVL104:
 570:Src/stm32f429i_discovery_lcd.c **** }
 1424              		.loc 1 570 3 view .LVU276
 1425 0018 0446     		mov	r4, r0
 1426 001a FFF7FEFF 		bl	BSP_LCD_GetYSize
 1427              	.LVL105:
 1428 001e 0346     		mov	r3, r0
 1429 0020 0195     		str	r5, [sp, #4]
 1430 0022 0022     		movs	r2, #0
 1431 0024 0092     		str	r2, [sp]
 1432 0026 2246     		mov	r2, r4
 1433 0028 3946     		mov	r1, r7
 1434 002a 3046     		mov	r0, r6
 1435 002c FFF7FEFF 		bl	FillBuffer
 1436              	.LVL106:
 571:Src/stm32f429i_discovery_lcd.c **** 
 1437              		.loc 1 571 1 view .LVU277
 1438 0030 03B0     		add	sp, sp, #12
 1439              	.LCFI27:
 1440              		.cfi_def_cfa_offset 20
 1441              		@ sp needed
 1442 0032 F0BD     		pop	{r4, r5, r6, r7, pc}
 1443              	.LVL107:
 1444              	.L116:
 571:Src/stm32f429i_discovery_lcd.c **** 
 1445              		.loc 1 571 1 view .LVU278
 1446              		.align	2
 1447              	.L115:
 1448 0034 00000000 		.word	.LANCHOR5
 1449 0038 00000000 		.word	.LANCHOR2
 1450              		.cfi_endproc
 1451              	.LFE155:
 1453              		.section	.text.BSP_LCD_DrawHLine,"ax",%progbits
 1454              		.align	1
 1455              		.global	BSP_LCD_DrawHLine
 1456              		.syntax unified
 1457              		.thumb
 1458              		.thumb_func
 1460              	BSP_LCD_DrawHLine:
 1461              	.LVL108:
 1462              	.LFB160:
ARM GAS  /tmp/ccky5mPs.s 			page 55


 678:Src/stm32f429i_discovery_lcd.c ****   uint32_t xaddress = 0;
 1463              		.loc 1 678 1 is_stmt 1 view -0
 1464              		.cfi_startproc
 1465              		@ args = 0, pretend = 0, frame = 0
 1466              		@ frame_needed = 0, uses_anonymous_args = 0
 678:Src/stm32f429i_discovery_lcd.c ****   uint32_t xaddress = 0;
 1467              		.loc 1 678 1 is_stmt 0 view .LVU280
 1468 0000 2DE9F041 		push	{r4, r5, r6, r7, r8, lr}
 1469              	.LCFI28:
 1470              		.cfi_def_cfa_offset 24
 1471              		.cfi_offset 4, -24
 1472              		.cfi_offset 5, -20
 1473              		.cfi_offset 6, -16
 1474              		.cfi_offset 7, -12
 1475              		.cfi_offset 8, -8
 1476              		.cfi_offset 14, -4
 1477 0004 82B0     		sub	sp, sp, #8
 1478              	.LCFI29:
 1479              		.cfi_def_cfa_offset 32
 1480 0006 0446     		mov	r4, r0
 1481 0008 0E46     		mov	r6, r1
 1482 000a 1546     		mov	r5, r2
 679:Src/stm32f429i_discovery_lcd.c ****   
 1483              		.loc 1 679 3 is_stmt 1 view .LVU281
 1484              	.LVL109:
 682:Src/stm32f429i_discovery_lcd.c **** 
 1485              		.loc 1 682 3 view .LVU282
 682:Src/stm32f429i_discovery_lcd.c **** 
 1486              		.loc 1 682 48 is_stmt 0 view .LVU283
 1487 000c 0E4F     		ldr	r7, .L119
 1488 000e 3A68     		ldr	r2, [r7]
 1489              	.LVL110:
 682:Src/stm32f429i_discovery_lcd.c **** 
 1490              		.loc 1 682 48 view .LVU284
 1491 0010 0E4B     		ldr	r3, .L119+4
 1492 0012 3421     		movs	r1, #52
 1493              	.LVL111:
 682:Src/stm32f429i_discovery_lcd.c **** 
 1494              		.loc 1 682 48 view .LVU285
 1495 0014 01FB0233 		mla	r3, r1, r2, r3
 1496 0018 D3F85C80 		ldr	r8, [r3, #92]
 682:Src/stm32f429i_discovery_lcd.c **** 
 1497              		.loc 1 682 69 view .LVU286
 1498 001c FFF7FEFF 		bl	BSP_LCD_GetXSize
 1499              	.LVL112:
 682:Src/stm32f429i_discovery_lcd.c **** 
 1500              		.loc 1 682 93 view .LVU287
 1501 0020 00FB0641 		mla	r1, r0, r6, r4
 1502              	.LVL113:
 685:Src/stm32f429i_discovery_lcd.c **** }
 1503              		.loc 1 685 3 is_stmt 1 view .LVU288
 1504 0024 3868     		ldr	r0, [r7]
 1505 0026 00EB4002 		add	r2, r0, r0, lsl #1
 1506 002a 094B     		ldr	r3, .L119+8
 1507 002c 53F82230 		ldr	r3, [r3, r2, lsl #2]
 1508 0030 0193     		str	r3, [sp, #4]
 1509 0032 0023     		movs	r3, #0
ARM GAS  /tmp/ccky5mPs.s 			page 56


 1510 0034 0093     		str	r3, [sp]
 1511 0036 0123     		movs	r3, #1
 1512 0038 2A46     		mov	r2, r5
 1513 003a 08EB8101 		add	r1, r8, r1, lsl #2
 1514              	.LVL114:
 685:Src/stm32f429i_discovery_lcd.c **** }
 1515              		.loc 1 685 3 is_stmt 0 view .LVU289
 1516 003e FFF7FEFF 		bl	FillBuffer
 1517              	.LVL115:
 686:Src/stm32f429i_discovery_lcd.c **** 
 1518              		.loc 1 686 1 view .LVU290
 1519 0042 02B0     		add	sp, sp, #8
 1520              	.LCFI30:
 1521              		.cfi_def_cfa_offset 24
 1522              		@ sp needed
 1523 0044 BDE8F081 		pop	{r4, r5, r6, r7, r8, pc}
 1524              	.L120:
 1525              		.align	2
 1526              	.L119:
 1527 0048 00000000 		.word	.LANCHOR5
 1528 004c 00000000 		.word	.LANCHOR2
 1529 0050 00000000 		.word	.LANCHOR3
 1530              		.cfi_endproc
 1531              	.LFE160:
 1533              		.section	.text.BSP_LCD_DrawVLine,"ax",%progbits
 1534              		.align	1
 1535              		.global	BSP_LCD_DrawVLine
 1536              		.syntax unified
 1537              		.thumb
 1538              		.thumb_func
 1540              	BSP_LCD_DrawVLine:
 1541              	.LVL116:
 1542              	.LFB161:
 695:Src/stm32f429i_discovery_lcd.c ****   uint32_t xaddress = 0;
 1543              		.loc 1 695 1 is_stmt 1 view -0
 1544              		.cfi_startproc
 1545              		@ args = 0, pretend = 0, frame = 0
 1546              		@ frame_needed = 0, uses_anonymous_args = 0
 695:Src/stm32f429i_discovery_lcd.c ****   uint32_t xaddress = 0;
 1547              		.loc 1 695 1 is_stmt 0 view .LVU292
 1548 0000 2DE9F041 		push	{r4, r5, r6, r7, r8, lr}
 1549              	.LCFI31:
 1550              		.cfi_def_cfa_offset 24
 1551              		.cfi_offset 4, -24
 1552              		.cfi_offset 5, -20
 1553              		.cfi_offset 6, -16
 1554              		.cfi_offset 7, -12
 1555              		.cfi_offset 8, -8
 1556              		.cfi_offset 14, -4
 1557 0004 82B0     		sub	sp, sp, #8
 1558              	.LCFI32:
 1559              		.cfi_def_cfa_offset 32
 1560 0006 0446     		mov	r4, r0
 1561 0008 8846     		mov	r8, r1
 1562 000a 1646     		mov	r6, r2
 696:Src/stm32f429i_discovery_lcd.c ****   
 1563              		.loc 1 696 3 is_stmt 1 view .LVU293
ARM GAS  /tmp/ccky5mPs.s 			page 57


 1564              	.LVL117:
 699:Src/stm32f429i_discovery_lcd.c ****   
 1565              		.loc 1 699 3 view .LVU294
 699:Src/stm32f429i_discovery_lcd.c ****   
 1566              		.loc 1 699 48 is_stmt 0 view .LVU295
 1567 000c 114F     		ldr	r7, .L123
 1568 000e 3A68     		ldr	r2, [r7]
 1569              	.LVL118:
 699:Src/stm32f429i_discovery_lcd.c ****   
 1570              		.loc 1 699 48 view .LVU296
 1571 0010 114B     		ldr	r3, .L123+4
 1572 0012 3421     		movs	r1, #52
 1573              	.LVL119:
 699:Src/stm32f429i_discovery_lcd.c ****   
 1574              		.loc 1 699 48 view .LVU297
 1575 0014 01FB0233 		mla	r3, r1, r2, r3
 1576 0018 DD6D     		ldr	r5, [r3, #92]
 699:Src/stm32f429i_discovery_lcd.c ****   
 1577              		.loc 1 699 69 view .LVU298
 1578 001a FFF7FEFF 		bl	BSP_LCD_GetXSize
 1579              	.LVL120:
 699:Src/stm32f429i_discovery_lcd.c ****   
 1580              		.loc 1 699 93 view .LVU299
 1581 001e 00FB0844 		mla	r4, r0, r8, r4
 699:Src/stm32f429i_discovery_lcd.c ****   
 1582              		.loc 1 699 12 view .LVU300
 1583 0022 05EB8405 		add	r5, r5, r4, lsl #2
 1584              	.LVL121:
 702:Src/stm32f429i_discovery_lcd.c **** }
 1585              		.loc 1 702 3 is_stmt 1 view .LVU301
 1586 0026 D7F80080 		ldr	r8, [r7]
 702:Src/stm32f429i_discovery_lcd.c **** }
 1587              		.loc 1 702 61 is_stmt 0 view .LVU302
 1588 002a FFF7FEFF 		bl	BSP_LCD_GetXSize
 1589              	.LVL122:
 702:Src/stm32f429i_discovery_lcd.c **** }
 1590              		.loc 1 702 3 view .LVU303
 1591 002e 3C68     		ldr	r4, [r7]
 1592 0030 04EB4404 		add	r4, r4, r4, lsl #1
 1593 0034 094B     		ldr	r3, .L123+8
 1594 0036 53F82430 		ldr	r3, [r3, r4, lsl #2]
 1595 003a 0193     		str	r3, [sp, #4]
 1596 003c 0138     		subs	r0, r0, #1
 1597 003e 0090     		str	r0, [sp]
 1598 0040 3346     		mov	r3, r6
 1599 0042 0122     		movs	r2, #1
 1600 0044 2946     		mov	r1, r5
 1601 0046 4046     		mov	r0, r8
 1602 0048 FFF7FEFF 		bl	FillBuffer
 1603              	.LVL123:
 703:Src/stm32f429i_discovery_lcd.c **** 
 1604              		.loc 1 703 1 view .LVU304
 1605 004c 02B0     		add	sp, sp, #8
 1606              	.LCFI33:
 1607              		.cfi_def_cfa_offset 24
 1608              		@ sp needed
 1609 004e BDE8F081 		pop	{r4, r5, r6, r7, r8, pc}
ARM GAS  /tmp/ccky5mPs.s 			page 58


 1610              	.LVL124:
 1611              	.L124:
 703:Src/stm32f429i_discovery_lcd.c **** 
 1612              		.loc 1 703 1 view .LVU305
 1613 0052 00BF     		.align	2
 1614              	.L123:
 1615 0054 00000000 		.word	.LANCHOR5
 1616 0058 00000000 		.word	.LANCHOR2
 1617 005c 00000000 		.word	.LANCHOR3
 1618              		.cfi_endproc
 1619              	.LFE161:
 1621              		.section	.text.BSP_LCD_DrawRect,"ax",%progbits
 1622              		.align	1
 1623              		.global	BSP_LCD_DrawRect
 1624              		.syntax unified
 1625              		.thumb
 1626              		.thumb_func
 1628              	BSP_LCD_DrawRect:
 1629              	.LVL125:
 1630              	.LFB163:
 787:Src/stm32f429i_discovery_lcd.c ****   /* Draw horizontal lines */
 1631              		.loc 1 787 1 is_stmt 1 view -0
 1632              		.cfi_startproc
 1633              		@ args = 0, pretend = 0, frame = 0
 1634              		@ frame_needed = 0, uses_anonymous_args = 0
 787:Src/stm32f429i_discovery_lcd.c ****   /* Draw horizontal lines */
 1635              		.loc 1 787 1 is_stmt 0 view .LVU307
 1636 0000 F8B5     		push	{r3, r4, r5, r6, r7, lr}
 1637              	.LCFI34:
 1638              		.cfi_def_cfa_offset 24
 1639              		.cfi_offset 3, -24
 1640              		.cfi_offset 4, -20
 1641              		.cfi_offset 5, -16
 1642              		.cfi_offset 6, -12
 1643              		.cfi_offset 7, -8
 1644              		.cfi_offset 14, -4
 1645 0002 0446     		mov	r4, r0
 1646 0004 0D46     		mov	r5, r1
 1647 0006 1746     		mov	r7, r2
 1648 0008 1E46     		mov	r6, r3
 789:Src/stm32f429i_discovery_lcd.c ****   BSP_LCD_DrawHLine(Xpos, (Ypos+ Height), Width);
 1649              		.loc 1 789 3 is_stmt 1 view .LVU308
 1650 000a FFF7FEFF 		bl	BSP_LCD_DrawHLine
 1651              	.LVL126:
 790:Src/stm32f429i_discovery_lcd.c ****   
 1652              		.loc 1 790 3 view .LVU309
 1653 000e A919     		adds	r1, r5, r6
 1654 0010 3A46     		mov	r2, r7
 1655 0012 89B2     		uxth	r1, r1
 1656 0014 2046     		mov	r0, r4
 1657 0016 FFF7FEFF 		bl	BSP_LCD_DrawHLine
 1658              	.LVL127:
 793:Src/stm32f429i_discovery_lcd.c ****   BSP_LCD_DrawVLine((Xpos + Width), Ypos, Height);
 1659              		.loc 1 793 3 view .LVU310
 1660 001a 3246     		mov	r2, r6
 1661 001c 2946     		mov	r1, r5
 1662 001e 2046     		mov	r0, r4
ARM GAS  /tmp/ccky5mPs.s 			page 59


 1663 0020 FFF7FEFF 		bl	BSP_LCD_DrawVLine
 1664              	.LVL128:
 794:Src/stm32f429i_discovery_lcd.c **** }
 1665              		.loc 1 794 3 view .LVU311
 1666 0024 E019     		adds	r0, r4, r7
 1667 0026 3246     		mov	r2, r6
 1668 0028 2946     		mov	r1, r5
 1669 002a 80B2     		uxth	r0, r0
 1670 002c FFF7FEFF 		bl	BSP_LCD_DrawVLine
 1671              	.LVL129:
 795:Src/stm32f429i_discovery_lcd.c **** 
 1672              		.loc 1 795 1 is_stmt 0 view .LVU312
 1673 0030 F8BD     		pop	{r3, r4, r5, r6, r7, pc}
 1674              		.cfi_endproc
 1675              	.LFE163:
 1677              		.section	.text.BSP_LCD_DrawBitmap,"ax",%progbits
 1678              		.align	1
 1679              		.global	BSP_LCD_DrawBitmap
 1680              		.syntax unified
 1681              		.thumb
 1682              		.thumb_func
 1684              	BSP_LCD_DrawBitmap:
 1685              	.LVL130:
 1686              	.LFB167:
 902:Src/stm32f429i_discovery_lcd.c ****   uint32_t index = 0, width = 0, height = 0, bitpixel = 0;
 1687              		.loc 1 902 1 is_stmt 1 view -0
 1688              		.cfi_startproc
 1689              		@ args = 0, pretend = 0, frame = 0
 1690              		@ frame_needed = 0, uses_anonymous_args = 0
 902:Src/stm32f429i_discovery_lcd.c ****   uint32_t index = 0, width = 0, height = 0, bitpixel = 0;
 1691              		.loc 1 902 1 is_stmt 0 view .LVU314
 1692 0000 2DE9F84F 		push	{r3, r4, r5, r6, r7, r8, r9, r10, fp, lr}
 1693              	.LCFI35:
 1694              		.cfi_def_cfa_offset 40
 1695              		.cfi_offset 3, -40
 1696              		.cfi_offset 4, -36
 1697              		.cfi_offset 5, -32
 1698              		.cfi_offset 6, -28
 1699              		.cfi_offset 7, -24
 1700              		.cfi_offset 8, -20
 1701              		.cfi_offset 9, -16
 1702              		.cfi_offset 10, -12
 1703              		.cfi_offset 11, -8
 1704              		.cfi_offset 14, -4
 1705 0004 8246     		mov	r10, r0
 1706 0006 8B46     		mov	fp, r1
 1707 0008 1446     		mov	r4, r2
 903:Src/stm32f429i_discovery_lcd.c ****   uint32_t address;
 1708              		.loc 1 903 3 is_stmt 1 view .LVU315
 1709              	.LVL131:
 904:Src/stm32f429i_discovery_lcd.c ****   uint32_t inputcolormode = 0;
 1710              		.loc 1 904 3 view .LVU316
 905:Src/stm32f429i_discovery_lcd.c ****   
 1711              		.loc 1 905 3 view .LVU317
 908:Src/stm32f429i_discovery_lcd.c **** 
 1712              		.loc 1 908 3 view .LVU318
 908:Src/stm32f429i_discovery_lcd.c **** 
ARM GAS  /tmp/ccky5mPs.s 			page 60


 1713              		.loc 1 908 15 is_stmt 0 view .LVU319
 1714 000a 967A     		ldrb	r6, [r2, #10]	@ zero_extendqisi2
 908:Src/stm32f429i_discovery_lcd.c **** 
 1715              		.loc 1 908 27 view .LVU320
 1716 000c D37A     		ldrb	r3, [r2, #11]	@ zero_extendqisi2
 908:Src/stm32f429i_discovery_lcd.c **** 
 1717              		.loc 1 908 20 view .LVU321
 1718 000e 06EB0326 		add	r6, r6, r3, lsl #8
 908:Src/stm32f429i_discovery_lcd.c **** 
 1719              		.loc 1 908 45 view .LVU322
 1720 0012 137B     		ldrb	r3, [r2, #12]	@ zero_extendqisi2
 908:Src/stm32f429i_discovery_lcd.c **** 
 1721              		.loc 1 908 38 view .LVU323
 1722 0014 06EB0346 		add	r6, r6, r3, lsl #16
 908:Src/stm32f429i_discovery_lcd.c **** 
 1723              		.loc 1 908 65 view .LVU324
 1724 0018 537B     		ldrb	r3, [r2, #13]	@ zero_extendqisi2
 908:Src/stm32f429i_discovery_lcd.c **** 
 1725              		.loc 1 908 58 view .LVU325
 1726 001a 06EB0366 		add	r6, r6, r3, lsl #24
 1727              	.LVL132:
 911:Src/stm32f429i_discovery_lcd.c **** 
 1728              		.loc 1 911 3 is_stmt 1 view .LVU326
 911:Src/stm32f429i_discovery_lcd.c **** 
 1729              		.loc 1 911 15 is_stmt 0 view .LVU327
 1730 001e 977C     		ldrb	r7, [r2, #18]	@ zero_extendqisi2
 911:Src/stm32f429i_discovery_lcd.c **** 
 1731              		.loc 1 911 27 view .LVU328
 1732 0020 D37C     		ldrb	r3, [r2, #19]	@ zero_extendqisi2
 911:Src/stm32f429i_discovery_lcd.c **** 
 1733              		.loc 1 911 20 view .LVU329
 1734 0022 07EB0327 		add	r7, r7, r3, lsl #8
 911:Src/stm32f429i_discovery_lcd.c **** 
 1735              		.loc 1 911 45 view .LVU330
 1736 0026 137D     		ldrb	r3, [r2, #20]	@ zero_extendqisi2
 911:Src/stm32f429i_discovery_lcd.c **** 
 1737              		.loc 1 911 38 view .LVU331
 1738 0028 07EB0347 		add	r7, r7, r3, lsl #16
 911:Src/stm32f429i_discovery_lcd.c **** 
 1739              		.loc 1 911 65 view .LVU332
 1740 002c 537D     		ldrb	r3, [r2, #21]	@ zero_extendqisi2
 911:Src/stm32f429i_discovery_lcd.c **** 
 1741              		.loc 1 911 58 view .LVU333
 1742 002e 07EB0367 		add	r7, r7, r3, lsl #24
 1743              	.LVL133:
 914:Src/stm32f429i_discovery_lcd.c **** 
 1744              		.loc 1 914 3 is_stmt 1 view .LVU334
 914:Src/stm32f429i_discovery_lcd.c **** 
 1745              		.loc 1 914 16 is_stmt 0 view .LVU335
 1746 0032 92F81680 		ldrb	r8, [r2, #22]	@ zero_extendqisi2
 914:Src/stm32f429i_discovery_lcd.c **** 
 1747              		.loc 1 914 28 view .LVU336
 1748 0036 D37D     		ldrb	r3, [r2, #23]	@ zero_extendqisi2
 914:Src/stm32f429i_discovery_lcd.c **** 
 1749              		.loc 1 914 21 view .LVU337
 1750 0038 08EB0328 		add	r8, r8, r3, lsl #8
 914:Src/stm32f429i_discovery_lcd.c **** 
ARM GAS  /tmp/ccky5mPs.s 			page 61


 1751              		.loc 1 914 46 view .LVU338
 1752 003c 137E     		ldrb	r3, [r2, #24]	@ zero_extendqisi2
 914:Src/stm32f429i_discovery_lcd.c **** 
 1753              		.loc 1 914 39 view .LVU339
 1754 003e 08EB0348 		add	r8, r8, r3, lsl #16
 914:Src/stm32f429i_discovery_lcd.c **** 
 1755              		.loc 1 914 66 view .LVU340
 1756 0042 537E     		ldrb	r3, [r2, #25]	@ zero_extendqisi2
 914:Src/stm32f429i_discovery_lcd.c **** 
 1757              		.loc 1 914 59 view .LVU341
 1758 0044 08EB0368 		add	r8, r8, r3, lsl #24
 1759              	.LVL134:
 917:Src/stm32f429i_discovery_lcd.c ****  
 1760              		.loc 1 917 3 is_stmt 1 view .LVU342
 917:Src/stm32f429i_discovery_lcd.c ****  
 1761              		.loc 1 917 18 is_stmt 0 view .LVU343
 1762 0048 92F81C90 		ldrb	r9, [r2, #28]	@ zero_extendqisi2
 917:Src/stm32f429i_discovery_lcd.c ****  
 1763              		.loc 1 917 30 view .LVU344
 1764 004c 537F     		ldrb	r3, [r2, #29]	@ zero_extendqisi2
 917:Src/stm32f429i_discovery_lcd.c ****  
 1765              		.loc 1 917 23 view .LVU345
 1766 004e 09EB0329 		add	r9, r9, r3, lsl #8
 1767              	.LVL135:
 920:Src/stm32f429i_discovery_lcd.c **** 
 1768              		.loc 1 920 3 is_stmt 1 view .LVU346
 920:Src/stm32f429i_discovery_lcd.c **** 
 1769              		.loc 1 920 46 is_stmt 0 view .LVU347
 1770 0052 1C4B     		ldr	r3, .L134
 1771 0054 1A68     		ldr	r2, [r3]
 1772              	.LVL136:
 920:Src/stm32f429i_discovery_lcd.c **** 
 1773              		.loc 1 920 46 view .LVU348
 1774 0056 1C4B     		ldr	r3, .L134+4
 1775 0058 3421     		movs	r1, #52
 1776              	.LVL137:
 920:Src/stm32f429i_discovery_lcd.c **** 
 1777              		.loc 1 920 46 view .LVU349
 1778 005a 01FB0233 		mla	r3, r1, r2, r3
 1779 005e DD6D     		ldr	r5, [r3, #92]
 920:Src/stm32f429i_discovery_lcd.c **** 
 1780              		.loc 1 920 66 view .LVU350
 1781 0060 FFF7FEFF 		bl	BSP_LCD_GetXSize
 1782              	.LVL138:
 920:Src/stm32f429i_discovery_lcd.c **** 
 1783              		.loc 1 920 88 view .LVU351
 1784 0064 0BFB00AA 		mla	r10, fp, r0, r10
 1785              	.LVL139:
 920:Src/stm32f429i_discovery_lcd.c **** 
 1786              		.loc 1 920 11 view .LVU352
 1787 0068 05EB8A05 		add	r5, r5, r10, lsl #2
 1788              	.LVL140:
 923:Src/stm32f429i_discovery_lcd.c ****   {
 1789              		.loc 1 923 3 is_stmt 1 view .LVU353
 923:Src/stm32f429i_discovery_lcd.c ****   {
 1790              		.loc 1 923 20 is_stmt 0 view .LVU354
 1791 006c A9F12003 		sub	r3, r9, #32
ARM GAS  /tmp/ccky5mPs.s 			page 62


 923:Src/stm32f429i_discovery_lcd.c ****   {
 1792              		.loc 1 923 6 view .LVU355
 1793 0070 072B     		cmp	r3, #7
 1794 0072 06D9     		bls	.L131
 927:Src/stm32f429i_discovery_lcd.c ****   {
 1795              		.loc 1 927 8 is_stmt 1 view .LVU356
 927:Src/stm32f429i_discovery_lcd.c ****   {
 1796              		.loc 1 927 25 is_stmt 0 view .LVU357
 1797 0074 A9F11003 		sub	r3, r9, #16
 927:Src/stm32f429i_discovery_lcd.c ****   {
 1798              		.loc 1 927 11 view .LVU358
 1799 0078 072B     		cmp	r3, #7
 1800 007a 0FD8     		bhi	.L132
 929:Src/stm32f429i_discovery_lcd.c ****   }
 1801              		.loc 1 929 20 view .LVU359
 1802 007c 4FF0020A 		mov	r10, #2
 1803 0080 01E0     		b	.L128
 1804              	.L131:
 925:Src/stm32f429i_discovery_lcd.c ****   }
 1805              		.loc 1 925 20 view .LVU360
 1806 0082 4FF0000A 		mov	r10, #0
 1807              	.L128:
 1808              	.LVL141:
 937:Src/stm32f429i_discovery_lcd.c **** 
 1809              		.loc 1 937 3 is_stmt 1 view .LVU361
 937:Src/stm32f429i_discovery_lcd.c **** 
 1810              		.loc 1 937 37 is_stmt 0 view .LVU362
 1811 0086 08F1FF33 		add	r3, r8, #-1
 937:Src/stm32f429i_discovery_lcd.c **** 
 1812              		.loc 1 937 27 view .LVU363
 1813 008a 07FB03F3 		mul	r3, r7, r3
 937:Src/stm32f429i_discovery_lcd.c **** 
 1814              		.loc 1 937 53 view .LVU364
 1815 008e 4FEAD909 		lsr	r9, r9, #3
 1816              	.LVL142:
 937:Src/stm32f429i_discovery_lcd.c **** 
 1817              		.loc 1 937 18 view .LVU365
 1818 0092 09FB0366 		mla	r6, r9, r3, r6
 1819              	.LVL143:
 937:Src/stm32f429i_discovery_lcd.c **** 
 1820              		.loc 1 937 8 view .LVU366
 1821 0096 3444     		add	r4, r4, r6
 1822              	.LVL144:
 940:Src/stm32f429i_discovery_lcd.c ****   {
 1823              		.loc 1 940 3 is_stmt 1 view .LVU367
 940:Src/stm32f429i_discovery_lcd.c ****   {
 1824              		.loc 1 940 12 is_stmt 0 view .LVU368
 1825 0098 0026     		movs	r6, #0
 940:Src/stm32f429i_discovery_lcd.c ****   {
 1826              		.loc 1 940 3 view .LVU369
 1827 009a 0FE0     		b	.L129
 1828              	.LVL145:
 1829              	.L132:
 933:Src/stm32f429i_discovery_lcd.c ****   }
 1830              		.loc 1 933 20 view .LVU370
 1831 009c 4FF0010A 		mov	r10, #1
 1832 00a0 F1E7     		b	.L128
ARM GAS  /tmp/ccky5mPs.s 			page 63


 1833              	.LVL146:
 1834              	.L130:
 943:Src/stm32f429i_discovery_lcd.c **** 
 1835              		.loc 1 943 3 is_stmt 1 discriminator 3 view .LVU371
 1836 00a2 5346     		mov	r3, r10
 1837 00a4 3A46     		mov	r2, r7
 1838 00a6 2946     		mov	r1, r5
 1839 00a8 2046     		mov	r0, r4
 1840 00aa FFF7FEFF 		bl	ConvertLineToARGB8888
 1841              	.LVL147:
 946:Src/stm32f429i_discovery_lcd.c ****   pBmp -= width*(bitpixel/8);
 1842              		.loc 1 946 3 discriminator 3 view .LVU372
 946:Src/stm32f429i_discovery_lcd.c ****   pBmp -= width*(bitpixel/8);
 1843              		.loc 1 946 43 is_stmt 0 discriminator 3 view .LVU373
 1844 00ae FFF7FEFF 		bl	BSP_LCD_GetXSize
 1845              	.LVL148:
 946:Src/stm32f429i_discovery_lcd.c ****   pBmp -= width*(bitpixel/8);
 1846              		.loc 1 946 10 discriminator 3 view .LVU374
 1847 00b2 05EB8005 		add	r5, r5, r0, lsl #2
 1848              	.LVL149:
 947:Src/stm32f429i_discovery_lcd.c ****   }
 1849              		.loc 1 947 3 is_stmt 1 discriminator 3 view .LVU375
 947:Src/stm32f429i_discovery_lcd.c ****   }
 1850              		.loc 1 947 8 is_stmt 0 discriminator 3 view .LVU376
 1851 00b6 07FB1944 		mls	r4, r7, r9, r4
 1852              	.LVL150:
 940:Src/stm32f429i_discovery_lcd.c ****   {
 1853              		.loc 1 940 32 is_stmt 1 discriminator 3 view .LVU377
 940:Src/stm32f429i_discovery_lcd.c ****   {
 1854              		.loc 1 940 37 is_stmt 0 discriminator 3 view .LVU378
 1855 00ba 0136     		adds	r6, r6, #1
 1856              	.LVL151:
 1857              	.L129:
 940:Src/stm32f429i_discovery_lcd.c ****   {
 1858              		.loc 1 940 16 is_stmt 1 discriminator 1 view .LVU379
 940:Src/stm32f429i_discovery_lcd.c ****   {
 1859              		.loc 1 940 3 is_stmt 0 discriminator 1 view .LVU380
 1860 00bc 4645     		cmp	r6, r8
 1861 00be F0D3     		bcc	.L130
 949:Src/stm32f429i_discovery_lcd.c **** 
 1862              		.loc 1 949 1 view .LVU381
 1863 00c0 BDE8F88F 		pop	{r3, r4, r5, r6, r7, r8, r9, r10, fp, pc}
 1864              	.LVL152:
 1865              	.L135:
 949:Src/stm32f429i_discovery_lcd.c **** 
 1866              		.loc 1 949 1 view .LVU382
 1867              		.align	2
 1868              	.L134:
 1869 00c4 00000000 		.word	.LANCHOR5
 1870 00c8 00000000 		.word	.LANCHOR2
 1871              		.cfi_endproc
 1872              	.LFE167:
 1874              		.section	.text.BSP_LCD_FillRect,"ax",%progbits
 1875              		.align	1
 1876              		.global	BSP_LCD_FillRect
 1877              		.syntax unified
 1878              		.thumb
ARM GAS  /tmp/ccky5mPs.s 			page 64


 1879              		.thumb_func
 1881              	BSP_LCD_FillRect:
 1882              	.LVL153:
 1883              	.LFB168:
 959:Src/stm32f429i_discovery_lcd.c ****   uint32_t xaddress = 0;
 1884              		.loc 1 959 1 is_stmt 1 view -0
 1885              		.cfi_startproc
 1886              		@ args = 0, pretend = 0, frame = 0
 1887              		@ frame_needed = 0, uses_anonymous_args = 0
 959:Src/stm32f429i_discovery_lcd.c ****   uint32_t xaddress = 0;
 1888              		.loc 1 959 1 is_stmt 0 view .LVU384
 1889 0000 2DE9F047 		push	{r4, r5, r6, r7, r8, r9, r10, lr}
 1890              	.LCFI36:
 1891              		.cfi_def_cfa_offset 32
 1892              		.cfi_offset 4, -32
 1893              		.cfi_offset 5, -28
 1894              		.cfi_offset 6, -24
 1895              		.cfi_offset 7, -20
 1896              		.cfi_offset 8, -16
 1897              		.cfi_offset 9, -12
 1898              		.cfi_offset 10, -8
 1899              		.cfi_offset 14, -4
 1900 0004 82B0     		sub	sp, sp, #8
 1901              	.LCFI37:
 1902              		.cfi_def_cfa_offset 40
 1903 0006 0446     		mov	r4, r0
 1904 0008 8946     		mov	r9, r1
 1905 000a 1546     		mov	r5, r2
 1906 000c 1F46     		mov	r7, r3
 960:Src/stm32f429i_discovery_lcd.c **** 
 1907              		.loc 1 960 3 is_stmt 1 view .LVU385
 1908              	.LVL154:
 963:Src/stm32f429i_discovery_lcd.c **** 
 1909              		.loc 1 963 3 view .LVU386
 1910 000e DFF86080 		ldr	r8, .L138+8
 1911 0012 154E     		ldr	r6, .L138
 1912 0014 3268     		ldr	r2, [r6]
 1913              	.LVL155:
 963:Src/stm32f429i_discovery_lcd.c **** 
 1914              		.loc 1 963 3 is_stmt 0 view .LVU387
 1915 0016 02EB4202 		add	r2, r2, r2, lsl #1
 1916 001a 58F82200 		ldr	r0, [r8, r2, lsl #2]
 1917              	.LVL156:
 963:Src/stm32f429i_discovery_lcd.c **** 
 1918              		.loc 1 963 3 view .LVU388
 1919 001e FFF7FEFF 		bl	BSP_LCD_SetTextColor
 1920              	.LVL157:
 966:Src/stm32f429i_discovery_lcd.c **** 
 1921              		.loc 1 966 3 is_stmt 1 view .LVU389
 966:Src/stm32f429i_discovery_lcd.c **** 
 1922              		.loc 1 966 48 is_stmt 0 view .LVU390
 1923 0022 3268     		ldr	r2, [r6]
 1924 0024 114B     		ldr	r3, .L138+4
 1925 0026 3421     		movs	r1, #52
 1926 0028 01FB0233 		mla	r3, r1, r2, r3
 1927 002c D3F85CA0 		ldr	r10, [r3, #92]
 966:Src/stm32f429i_discovery_lcd.c **** 
ARM GAS  /tmp/ccky5mPs.s 			page 65


 1928              		.loc 1 966 69 view .LVU391
 1929 0030 FFF7FEFF 		bl	BSP_LCD_GetXSize
 1930              	.LVL158:
 966:Src/stm32f429i_discovery_lcd.c **** 
 1931              		.loc 1 966 93 view .LVU392
 1932 0034 00FB0944 		mla	r4, r0, r9, r4
 966:Src/stm32f429i_discovery_lcd.c **** 
 1933              		.loc 1 966 12 view .LVU393
 1934 0038 0AEB8404 		add	r4, r10, r4, lsl #2
 1935              	.LVL159:
 969:Src/stm32f429i_discovery_lcd.c **** }
 1936              		.loc 1 969 3 is_stmt 1 view .LVU394
 1937 003c D6F80090 		ldr	r9, [r6]
 969:Src/stm32f429i_discovery_lcd.c **** }
 1938              		.loc 1 969 65 is_stmt 0 view .LVU395
 1939 0040 FFF7FEFF 		bl	BSP_LCD_GetXSize
 1940              	.LVL160:
 969:Src/stm32f429i_discovery_lcd.c **** }
 1941              		.loc 1 969 3 view .LVU396
 1942 0044 3268     		ldr	r2, [r6]
 1943 0046 02EB4202 		add	r2, r2, r2, lsl #1
 1944 004a 58F82230 		ldr	r3, [r8, r2, lsl #2]
 1945 004e 0193     		str	r3, [sp, #4]
 1946 0050 401B     		subs	r0, r0, r5
 1947 0052 0090     		str	r0, [sp]
 1948 0054 3B46     		mov	r3, r7
 1949 0056 2A46     		mov	r2, r5
 1950 0058 2146     		mov	r1, r4
 1951 005a 4846     		mov	r0, r9
 1952 005c FFF7FEFF 		bl	FillBuffer
 1953              	.LVL161:
 970:Src/stm32f429i_discovery_lcd.c **** 
 1954              		.loc 1 970 1 view .LVU397
 1955 0060 02B0     		add	sp, sp, #8
 1956              	.LCFI38:
 1957              		.cfi_def_cfa_offset 32
 1958              		@ sp needed
 1959 0062 BDE8F087 		pop	{r4, r5, r6, r7, r8, r9, r10, pc}
 1960              	.LVL162:
 1961              	.L139:
 970:Src/stm32f429i_discovery_lcd.c **** 
 1962              		.loc 1 970 1 view .LVU398
 1963 0066 00BF     		.align	2
 1964              	.L138:
 1965 0068 00000000 		.word	.LANCHOR5
 1966 006c 00000000 		.word	.LANCHOR2
 1967 0070 00000000 		.word	.LANCHOR3
 1968              		.cfi_endproc
 1969              	.LFE168:
 1971              		.section	.text.BSP_LCD_ClearStringLine,"ax",%progbits
 1972              		.align	1
 1973              		.global	BSP_LCD_ClearStringLine
 1974              		.syntax unified
 1975              		.thumb
 1976              		.thumb_func
 1978              	BSP_LCD_ClearStringLine:
 1979              	.LVL163:
ARM GAS  /tmp/ccky5mPs.s 			page 66


 1980              	.LFB156:
 578:Src/stm32f429i_discovery_lcd.c ****   uint32_t colorbackup = DrawProp[ActiveLayer].TextColor;
 1981              		.loc 1 578 1 is_stmt 1 view -0
 1982              		.cfi_startproc
 1983              		@ args = 0, pretend = 0, frame = 0
 1984              		@ frame_needed = 0, uses_anonymous_args = 0
 578:Src/stm32f429i_discovery_lcd.c ****   uint32_t colorbackup = DrawProp[ActiveLayer].TextColor;
 1985              		.loc 1 578 1 is_stmt 0 view .LVU400
 1986 0000 F8B5     		push	{r3, r4, r5, r6, r7, lr}
 1987              	.LCFI39:
 1988              		.cfi_def_cfa_offset 24
 1989              		.cfi_offset 3, -24
 1990              		.cfi_offset 4, -20
 1991              		.cfi_offset 5, -16
 1992              		.cfi_offset 6, -12
 1993              		.cfi_offset 7, -8
 1994              		.cfi_offset 14, -4
 579:Src/stm32f429i_discovery_lcd.c ****   DrawProp[ActiveLayer].TextColor = DrawProp[ActiveLayer].BackColor;
 1995              		.loc 1 579 3 is_stmt 1 view .LVU401
 579:Src/stm32f429i_discovery_lcd.c ****   DrawProp[ActiveLayer].TextColor = DrawProp[ActiveLayer].BackColor;
 1996              		.loc 1 579 47 is_stmt 0 view .LVU402
 1997 0002 154D     		ldr	r5, .L142
 1998 0004 2B68     		ldr	r3, [r5]
 579:Src/stm32f429i_discovery_lcd.c ****   DrawProp[ActiveLayer].TextColor = DrawProp[ActiveLayer].BackColor;
 1999              		.loc 1 579 12 view .LVU403
 2000 0006 154C     		ldr	r4, .L142+4
 2001 0008 03EB4302 		add	r2, r3, r3, lsl #1
 2002 000c 9100     		lsls	r1, r2, #2
 2003 000e 04EB8202 		add	r2, r4, r2, lsl #2
 2004 0012 6658     		ldr	r6, [r4, r1]
 2005              	.LVL164:
 580:Src/stm32f429i_discovery_lcd.c **** 
 2006              		.loc 1 580 3 is_stmt 1 view .LVU404
 580:Src/stm32f429i_discovery_lcd.c **** 
 2007              		.loc 1 580 58 is_stmt 0 view .LVU405
 2008 0014 5268     		ldr	r2, [r2, #4]
 580:Src/stm32f429i_discovery_lcd.c **** 
 2009              		.loc 1 580 35 view .LVU406
 2010 0016 6250     		str	r2, [r4, r1]
 583:Src/stm32f429i_discovery_lcd.c ****   
 2011              		.loc 1 583 3 is_stmt 1 view .LVU407
 583:Src/stm32f429i_discovery_lcd.c ****   
 2012              		.loc 1 583 52 is_stmt 0 view .LVU408
 2013 0018 03EB4303 		add	r3, r3, r3, lsl #1
 2014 001c 04EB8303 		add	r3, r4, r3, lsl #2
 2015 0020 9B68     		ldr	r3, [r3, #8]
 583:Src/stm32f429i_discovery_lcd.c ****   
 2016              		.loc 1 583 58 view .LVU409
 2017 0022 DF88     		ldrh	r7, [r3, #6]
 583:Src/stm32f429i_discovery_lcd.c ****   
 2018              		.loc 1 583 3 view .LVU410
 2019 0024 10FB07F7 		smulbb	r7, r0, r7
 2020 0028 BFB2     		uxth	r7, r7
 583:Src/stm32f429i_discovery_lcd.c ****   
 2021              		.loc 1 583 69 view .LVU411
 2022 002a FFF7FEFF 		bl	BSP_LCD_GetXSize
 2023              	.LVL165:
ARM GAS  /tmp/ccky5mPs.s 			page 67


 583:Src/stm32f429i_discovery_lcd.c ****   
 2024              		.loc 1 583 110 view .LVU412
 2025 002e 2B68     		ldr	r3, [r5]
 2026 0030 03EB4303 		add	r3, r3, r3, lsl #1
 2027 0034 04EB8303 		add	r3, r4, r3, lsl #2
 2028 0038 9B68     		ldr	r3, [r3, #8]
 583:Src/stm32f429i_discovery_lcd.c ****   
 2029              		.loc 1 583 3 view .LVU413
 2030 003a DB88     		ldrh	r3, [r3, #6]
 2031 003c 82B2     		uxth	r2, r0
 2032 003e 3946     		mov	r1, r7
 2033 0040 0020     		movs	r0, #0
 2034 0042 FFF7FEFF 		bl	BSP_LCD_FillRect
 2035              	.LVL166:
 585:Src/stm32f429i_discovery_lcd.c ****   BSP_LCD_SetTextColor(DrawProp[ActiveLayer].TextColor);  
 2036              		.loc 1 585 3 is_stmt 1 view .LVU414
 585:Src/stm32f429i_discovery_lcd.c ****   BSP_LCD_SetTextColor(DrawProp[ActiveLayer].TextColor);  
 2037              		.loc 1 585 24 is_stmt 0 view .LVU415
 2038 0046 2B68     		ldr	r3, [r5]
 585:Src/stm32f429i_discovery_lcd.c ****   BSP_LCD_SetTextColor(DrawProp[ActiveLayer].TextColor);  
 2039              		.loc 1 585 35 view .LVU416
 2040 0048 03EB4303 		add	r3, r3, r3, lsl #1
 2041 004c 44F82360 		str	r6, [r4, r3, lsl #2]
 586:Src/stm32f429i_discovery_lcd.c **** }
 2042              		.loc 1 586 3 is_stmt 1 view .LVU417
 2043 0050 3046     		mov	r0, r6
 2044 0052 FFF7FEFF 		bl	BSP_LCD_SetTextColor
 2045              	.LVL167:
 587:Src/stm32f429i_discovery_lcd.c **** 
 2046              		.loc 1 587 1 is_stmt 0 view .LVU418
 2047 0056 F8BD     		pop	{r3, r4, r5, r6, r7, pc}
 2048              	.LVL168:
 2049              	.L143:
 587:Src/stm32f429i_discovery_lcd.c **** 
 2050              		.loc 1 587 1 view .LVU419
 2051              		.align	2
 2052              	.L142:
 2053 0058 00000000 		.word	.LANCHOR5
 2054 005c 00000000 		.word	.LANCHOR3
 2055              		.cfi_endproc
 2056              	.LFE156:
 2058              		.section	.text.BSP_LCD_FillEllipse,"ax",%progbits
 2059              		.align	1
 2060              		.global	BSP_LCD_FillEllipse
 2061              		.syntax unified
 2062              		.thumb
 2063              		.thumb_func
 2065              	BSP_LCD_FillEllipse:
 2066              	.LVL169:
 2067              	.LFB172:
1171:Src/stm32f429i_discovery_lcd.c ****   int x = 0, y = -YRadius, err = 2-2*XRadius, e2;
 2068              		.loc 1 1171 1 is_stmt 1 view -0
 2069              		.cfi_startproc
 2070              		@ args = 0, pretend = 0, frame = 8
 2071              		@ frame_needed = 0, uses_anonymous_args = 0
1171:Src/stm32f429i_discovery_lcd.c ****   int x = 0, y = -YRadius, err = 2-2*XRadius, e2;
 2072              		.loc 1 1171 1 is_stmt 0 view .LVU421
ARM GAS  /tmp/ccky5mPs.s 			page 68


 2073 0000 2DE9F04F 		push	{r4, r5, r6, r7, r8, r9, r10, fp, lr}
 2074              	.LCFI40:
 2075              		.cfi_def_cfa_offset 36
 2076              		.cfi_offset 4, -36
 2077              		.cfi_offset 5, -32
 2078              		.cfi_offset 6, -28
 2079              		.cfi_offset 7, -24
 2080              		.cfi_offset 8, -20
 2081              		.cfi_offset 9, -16
 2082              		.cfi_offset 10, -12
 2083              		.cfi_offset 11, -8
 2084              		.cfi_offset 14, -4
 2085 0004 2DED028B 		vpush.64	{d8}
 2086              	.LCFI41:
 2087              		.cfi_def_cfa_offset 44
 2088              		.cfi_offset 80, -44
 2089              		.cfi_offset 81, -40
 2090 0008 83B0     		sub	sp, sp, #12
 2091              	.LCFI42:
 2092              		.cfi_def_cfa_offset 56
 2093 000a 8346     		mov	fp, r0
 2094 000c 0191     		str	r1, [sp, #4]
1172:Src/stm32f429i_discovery_lcd.c ****   float K = 0, rad1 = 0, rad2 = 0;
 2095              		.loc 1 1172 3 is_stmt 1 view .LVU422
 2096              	.LVL170:
1172:Src/stm32f429i_discovery_lcd.c ****   float K = 0, rad1 = 0, rad2 = 0;
 2097              		.loc 1 1172 14 is_stmt 0 view .LVU423
 2098 000e 5F42     		rsbs	r7, r3, #0
 2099              	.LVL171:
1172:Src/stm32f429i_discovery_lcd.c ****   float K = 0, rad1 = 0, rad2 = 0;
 2100              		.loc 1 1172 35 view .LVU424
 2101 0010 C2F10106 		rsb	r6, r2, #1
1172:Src/stm32f429i_discovery_lcd.c ****   float K = 0, rad1 = 0, rad2 = 0;
 2102              		.loc 1 1172 28 view .LVU425
 2103 0014 7600     		lsls	r6, r6, #1
 2104              	.LVL172:
1173:Src/stm32f429i_discovery_lcd.c ****   
 2105              		.loc 1 1173 3 is_stmt 1 view .LVU426
1175:Src/stm32f429i_discovery_lcd.c ****   rad2 = YRadius;
 2106              		.loc 1 1175 3 view .LVU427
1175:Src/stm32f429i_discovery_lcd.c ****   rad2 = YRadius;
 2107              		.loc 1 1175 8 is_stmt 0 view .LVU428
 2108 0016 07EE902A 		vmov	s15, r2	@ int
 2109 001a F8EEE77A 		vcvt.f32.s32	s15, s15
 2110              	.LVL173:
1176:Src/stm32f429i_discovery_lcd.c ****   K = (float)(rad2/rad1);
 2111              		.loc 1 1176 3 is_stmt 1 view .LVU429
1176:Src/stm32f429i_discovery_lcd.c ****   K = (float)(rad2/rad1);
 2112              		.loc 1 1176 8 is_stmt 0 view .LVU430
 2113 001e 07EE103A 		vmov	s14, r3	@ int
 2114 0022 B8EEC77A 		vcvt.f32.s32	s14, s14
 2115              	.LVL174:
1177:Src/stm32f429i_discovery_lcd.c ****   
 2116              		.loc 1 1177 3 is_stmt 1 view .LVU431
1177:Src/stm32f429i_discovery_lcd.c ****   
 2117              		.loc 1 1177 5 is_stmt 0 view .LVU432
 2118 0026 87EE278A 		vdiv.f32	s16, s14, s15
ARM GAS  /tmp/ccky5mPs.s 			page 69


 2119              	.LVL175:
1172:Src/stm32f429i_discovery_lcd.c ****   float K = 0, rad1 = 0, rad2 = 0;
 2120              		.loc 1 1172 7 view .LVU433
 2121 002a 4FF0000A 		mov	r10, #0
 2122 002e 08E0     		b	.L147
 2123              	.LVL176:
 2124              	.L148:
1172:Src/stm32f429i_discovery_lcd.c ****   float K = 0, rad1 = 0, rad2 = 0;
 2125              		.loc 1 1172 7 view .LVU434
 2126 0030 3346     		mov	r3, r6
 2127              	.LVL177:
 2128              	.L145:
1190:Src/stm32f429i_discovery_lcd.c ****   }
 2129              		.loc 1 1190 5 is_stmt 1 view .LVU435
1190:Src/stm32f429i_discovery_lcd.c ****   }
 2130              		.loc 1 1190 8 is_stmt 0 view .LVU436
 2131 0032 B742     		cmp	r7, r6
 2132 0034 38DA     		bge	.L150
1190:Src/stm32f429i_discovery_lcd.c ****   }
 2133              		.loc 1 1190 17 is_stmt 1 discriminator 1 view .LVU437
1190:Src/stm32f429i_discovery_lcd.c ****   }
 2134              		.loc 1 1190 29 is_stmt 0 discriminator 1 view .LVU438
 2135 0036 0137     		adds	r7, r7, #1
 2136              	.LVL178:
1190:Src/stm32f429i_discovery_lcd.c ****   }
 2137              		.loc 1 1190 27 discriminator 1 view .LVU439
 2138 0038 7E00     		lsls	r6, r7, #1
 2139              	.LVL179:
1190:Src/stm32f429i_discovery_lcd.c ****   }
 2140              		.loc 1 1190 29 discriminator 1 view .LVU440
 2141 003a 0136     		adds	r6, r6, #1
1190:Src/stm32f429i_discovery_lcd.c ****   }
 2142              		.loc 1 1190 21 discriminator 1 view .LVU441
 2143 003c 1E44     		add	r6, r6, r3
 2144              	.LVL180:
 2145              	.L146:
1192:Src/stm32f429i_discovery_lcd.c **** }
 2146              		.loc 1 1192 9 is_stmt 1 view .LVU442
1192:Src/stm32f429i_discovery_lcd.c **** }
 2147              		.loc 1 1192 3 is_stmt 0 view .LVU443
 2148 003e 002F     		cmp	r7, #0
 2149 0040 34DC     		bgt	.L152
 2150              	.LVL181:
 2151              	.L147:
1179:Src/stm32f429i_discovery_lcd.c ****   { 
 2152              		.loc 1 1179 3 is_stmt 1 view .LVU444
1181:Src/stm32f429i_discovery_lcd.c ****     BSP_LCD_DrawHLine((Xpos-(uint16_t)(x/K)), (Ypos-y), (2*(uint16_t)(x/K) + 1));
 2153              		.loc 1 1181 5 view .LVU445
1181:Src/stm32f429i_discovery_lcd.c ****     BSP_LCD_DrawHLine((Xpos-(uint16_t)(x/K)), (Ypos-y), (2*(uint16_t)(x/K) + 1));
 2154              		.loc 1 1181 41 is_stmt 0 view .LVU446
 2155 0042 07EE90AA 		vmov	s15, r10	@ int
 2156 0046 B8EEE77A 		vcvt.f32.s32	s14, s15
 2157 004a C7EE087A 		vdiv.f32	s15, s14, s16
1181:Src/stm32f429i_discovery_lcd.c ****     BSP_LCD_DrawHLine((Xpos-(uint16_t)(x/K)), (Ypos-y), (2*(uint16_t)(x/K) + 1));
 2158              		.loc 1 1181 29 view .LVU447
 2159 004e FCEEE77A 		vcvt.u32.f32	s15, s15
 2160 0052 17EE903A 		vmov	r3, s15	@ int
ARM GAS  /tmp/ccky5mPs.s 			page 70


 2161 0056 9CB2     		uxth	r4, r3
1181:Src/stm32f429i_discovery_lcd.c ****     BSP_LCD_DrawHLine((Xpos-(uint16_t)(x/K)), (Ypos-y), (2*(uint16_t)(x/K) + 1));
 2162              		.loc 1 1181 5 view .LVU448
 2163 0058 ABEB0408 		sub	r8, fp, r4
 2164 005c 1FFA88F8 		uxth	r8, r8
 2165 0060 BDF80450 		ldrh	r5, [sp, #4]
 2166 0064 1FFA87F9 		uxth	r9, r7
 2167 0068 6400     		lsls	r4, r4, #1
 2168 006a 0134     		adds	r4, r4, #1
 2169 006c A4B2     		uxth	r4, r4
 2170 006e 05EB0901 		add	r1, r5, r9
 2171 0072 2246     		mov	r2, r4
 2172 0074 89B2     		uxth	r1, r1
 2173 0076 4046     		mov	r0, r8
 2174 0078 FFF7FEFF 		bl	BSP_LCD_DrawHLine
 2175              	.LVL182:
1182:Src/stm32f429i_discovery_lcd.c ****     
 2176              		.loc 1 1182 5 is_stmt 1 view .LVU449
 2177 007c A5EB0901 		sub	r1, r5, r9
 2178 0080 2246     		mov	r2, r4
 2179 0082 89B2     		uxth	r1, r1
 2180 0084 4046     		mov	r0, r8
 2181 0086 FFF7FEFF 		bl	BSP_LCD_DrawHLine
 2182              	.LVL183:
1184:Src/stm32f429i_discovery_lcd.c ****     if (e2 <= x) 
 2183              		.loc 1 1184 5 view .LVU450
1185:Src/stm32f429i_discovery_lcd.c ****     {
 2184              		.loc 1 1185 5 view .LVU451
1185:Src/stm32f429i_discovery_lcd.c ****     {
 2185              		.loc 1 1185 8 is_stmt 0 view .LVU452
 2186 008a B245     		cmp	r10, r6
 2187 008c D0DB     		blt	.L148
1187:Src/stm32f429i_discovery_lcd.c ****       if (-y == x && e2 <= y) e2 = 0;
 2188              		.loc 1 1187 7 is_stmt 1 view .LVU453
1187:Src/stm32f429i_discovery_lcd.c ****       if (-y == x && e2 <= y) e2 = 0;
 2189              		.loc 1 1187 19 is_stmt 0 view .LVU454
 2190 008e 0AF1010A 		add	r10, r10, #1
 2191              	.LVL184:
1187:Src/stm32f429i_discovery_lcd.c ****       if (-y == x && e2 <= y) e2 = 0;
 2192              		.loc 1 1187 17 view .LVU455
 2193 0092 4FEA4A03 		lsl	r3, r10, #1
1187:Src/stm32f429i_discovery_lcd.c ****       if (-y == x && e2 <= y) e2 = 0;
 2194              		.loc 1 1187 19 view .LVU456
 2195 0096 0133     		adds	r3, r3, #1
1187:Src/stm32f429i_discovery_lcd.c ****       if (-y == x && e2 <= y) e2 = 0;
 2196              		.loc 1 1187 11 view .LVU457
 2197 0098 3344     		add	r3, r3, r6
 2198              	.LVL185:
1188:Src/stm32f429i_discovery_lcd.c ****     }
 2199              		.loc 1 1188 7 is_stmt 1 view .LVU458
1188:Src/stm32f429i_discovery_lcd.c ****     }
 2200              		.loc 1 1188 10 is_stmt 0 view .LVU459
 2201 009a 1AEB070F 		cmn	r10, r7
 2202 009e C8D1     		bne	.L145
1188:Src/stm32f429i_discovery_lcd.c ****     }
 2203              		.loc 1 1188 19 discriminator 1 view .LVU460
 2204 00a0 B742     		cmp	r7, r6
ARM GAS  /tmp/ccky5mPs.s 			page 71


 2205 00a2 C6DB     		blt	.L145
1188:Src/stm32f429i_discovery_lcd.c ****     }
 2206              		.loc 1 1188 34 view .LVU461
 2207 00a4 0026     		movs	r6, #0
 2208              	.LVL186:
1188:Src/stm32f429i_discovery_lcd.c ****     }
 2209              		.loc 1 1188 34 view .LVU462
 2210 00a6 C4E7     		b	.L145
 2211              	.LVL187:
 2212              	.L150:
1188:Src/stm32f429i_discovery_lcd.c ****     }
 2213              		.loc 1 1188 34 view .LVU463
 2214 00a8 1E46     		mov	r6, r3
 2215              	.LVL188:
1188:Src/stm32f429i_discovery_lcd.c ****     }
 2216              		.loc 1 1188 34 view .LVU464
 2217 00aa C8E7     		b	.L146
 2218              	.LVL189:
 2219              	.L152:
1193:Src/stm32f429i_discovery_lcd.c **** 
 2220              		.loc 1 1193 1 view .LVU465
 2221 00ac 03B0     		add	sp, sp, #12
 2222              	.LCFI43:
 2223              		.cfi_def_cfa_offset 44
 2224              		@ sp needed
 2225 00ae BDEC028B 		vldm	sp!, {d8}
 2226              	.LCFI44:
 2227              		.cfi_restore 80
 2228              		.cfi_restore 81
 2229              		.cfi_def_cfa_offset 36
 2230              	.LVL190:
1193:Src/stm32f429i_discovery_lcd.c **** 
 2231              		.loc 1 1193 1 view .LVU466
 2232 00b2 BDE8F08F 		pop	{r4, r5, r6, r7, r8, r9, r10, fp, pc}
1193:Src/stm32f429i_discovery_lcd.c **** 
 2233              		.loc 1 1193 1 view .LVU467
 2234              		.cfi_endproc
 2235              	.LFE172:
 2237              		.section	.text.BSP_LCD_DisplayOn,"ax",%progbits
 2238              		.align	1
 2239              		.global	BSP_LCD_DisplayOn
 2240              		.syntax unified
 2241              		.thumb
 2242              		.thumb_func
 2244              	BSP_LCD_DisplayOn:
 2245              	.LFB173:
1199:Src/stm32f429i_discovery_lcd.c ****   if(LcdDrv->DisplayOn != NULL)
 2246              		.loc 1 1199 1 is_stmt 1 view -0
 2247              		.cfi_startproc
 2248              		@ args = 0, pretend = 0, frame = 0
 2249              		@ frame_needed = 0, uses_anonymous_args = 0
 2250 0000 08B5     		push	{r3, lr}
 2251              	.LCFI45:
 2252              		.cfi_def_cfa_offset 8
 2253              		.cfi_offset 3, -8
 2254              		.cfi_offset 14, -4
1200:Src/stm32f429i_discovery_lcd.c ****   {
ARM GAS  /tmp/ccky5mPs.s 			page 72


 2255              		.loc 1 1200 3 view .LVU469
1200:Src/stm32f429i_discovery_lcd.c ****   {
 2256              		.loc 1 1200 12 is_stmt 0 view .LVU470
 2257 0002 034B     		ldr	r3, .L156
 2258 0004 1B68     		ldr	r3, [r3]
 2259 0006 9B68     		ldr	r3, [r3, #8]
1200:Src/stm32f429i_discovery_lcd.c ****   {
 2260              		.loc 1 1200 5 view .LVU471
 2261 0008 03B1     		cbz	r3, .L153
1202:Src/stm32f429i_discovery_lcd.c ****   }
 2262              		.loc 1 1202 5 is_stmt 1 view .LVU472
 2263 000a 9847     		blx	r3
 2264              	.LVL191:
 2265              	.L153:
1204:Src/stm32f429i_discovery_lcd.c **** 
 2266              		.loc 1 1204 1 is_stmt 0 view .LVU473
 2267 000c 08BD     		pop	{r3, pc}
 2268              	.L157:
 2269 000e 00BF     		.align	2
 2270              	.L156:
 2271 0010 00000000 		.word	.LANCHOR1
 2272              		.cfi_endproc
 2273              	.LFE173:
 2275              		.section	.text.BSP_LCD_DisplayOff,"ax",%progbits
 2276              		.align	1
 2277              		.global	BSP_LCD_DisplayOff
 2278              		.syntax unified
 2279              		.thumb
 2280              		.thumb_func
 2282              	BSP_LCD_DisplayOff:
 2283              	.LFB174:
1210:Src/stm32f429i_discovery_lcd.c ****   if(LcdDrv->DisplayOff != NULL)
 2284              		.loc 1 1210 1 is_stmt 1 view -0
 2285              		.cfi_startproc
 2286              		@ args = 0, pretend = 0, frame = 0
 2287              		@ frame_needed = 0, uses_anonymous_args = 0
 2288 0000 08B5     		push	{r3, lr}
 2289              	.LCFI46:
 2290              		.cfi_def_cfa_offset 8
 2291              		.cfi_offset 3, -8
 2292              		.cfi_offset 14, -4
1211:Src/stm32f429i_discovery_lcd.c ****   {
 2293              		.loc 1 1211 3 view .LVU475
1211:Src/stm32f429i_discovery_lcd.c ****   {
 2294              		.loc 1 1211 12 is_stmt 0 view .LVU476
 2295 0002 034B     		ldr	r3, .L161
 2296 0004 1B68     		ldr	r3, [r3]
 2297 0006 DB68     		ldr	r3, [r3, #12]
1211:Src/stm32f429i_discovery_lcd.c ****   {
 2298              		.loc 1 1211 5 view .LVU477
 2299 0008 03B1     		cbz	r3, .L158
1213:Src/stm32f429i_discovery_lcd.c ****   }
 2300              		.loc 1 1213 5 is_stmt 1 view .LVU478
 2301 000a 9847     		blx	r3
 2302              	.LVL192:
 2303              	.L158:
1215:Src/stm32f429i_discovery_lcd.c **** 
ARM GAS  /tmp/ccky5mPs.s 			page 73


 2304              		.loc 1 1215 1 is_stmt 0 view .LVU479
 2305 000c 08BD     		pop	{r3, pc}
 2306              	.L162:
 2307 000e 00BF     		.align	2
 2308              	.L161:
 2309 0010 00000000 		.word	.LANCHOR1
 2310              		.cfi_endproc
 2311              	.LFE174:
 2313              		.section	.text.BSP_LCD_MspInit,"ax",%progbits
 2314              		.align	1
 2315              		.weak	BSP_LCD_MspInit
 2316              		.syntax unified
 2317              		.thumb
 2318              		.thumb_func
 2320              	BSP_LCD_MspInit:
 2321              	.LFB175:
1225:Src/stm32f429i_discovery_lcd.c ****   GPIO_InitTypeDef GPIO_InitStructure;
 2322              		.loc 1 1225 1 is_stmt 1 view -0
 2323              		.cfi_startproc
 2324              		@ args = 0, pretend = 0, frame = 56
 2325              		@ frame_needed = 0, uses_anonymous_args = 0
 2326 0000 30B5     		push	{r4, r5, lr}
 2327              	.LCFI47:
 2328              		.cfi_def_cfa_offset 12
 2329              		.cfi_offset 4, -12
 2330              		.cfi_offset 5, -8
 2331              		.cfi_offset 14, -4
 2332 0002 8FB0     		sub	sp, sp, #60
 2333              	.LCFI48:
 2334              		.cfi_def_cfa_offset 72
1226:Src/stm32f429i_discovery_lcd.c ****   
 2335              		.loc 1 1226 3 view .LVU481
1229:Src/stm32f429i_discovery_lcd.c ****   __HAL_RCC_DMA2D_CLK_ENABLE(); 
 2336              		.loc 1 1229 3 view .LVU482
 2337              	.LBB2:
1229:Src/stm32f429i_discovery_lcd.c ****   __HAL_RCC_DMA2D_CLK_ENABLE(); 
 2338              		.loc 1 1229 3 view .LVU483
 2339 0004 0022     		movs	r2, #0
 2340 0006 0192     		str	r2, [sp, #4]
1229:Src/stm32f429i_discovery_lcd.c ****   __HAL_RCC_DMA2D_CLK_ENABLE(); 
 2341              		.loc 1 1229 3 view .LVU484
 2342 0008 484B     		ldr	r3, .L165
 2343 000a 596C     		ldr	r1, [r3, #68]
 2344 000c 41F08061 		orr	r1, r1, #67108864
 2345 0010 5964     		str	r1, [r3, #68]
1229:Src/stm32f429i_discovery_lcd.c ****   __HAL_RCC_DMA2D_CLK_ENABLE(); 
 2346              		.loc 1 1229 3 view .LVU485
 2347 0012 596C     		ldr	r1, [r3, #68]
 2348 0014 01F08061 		and	r1, r1, #67108864
 2349 0018 0191     		str	r1, [sp, #4]
1229:Src/stm32f429i_discovery_lcd.c ****   __HAL_RCC_DMA2D_CLK_ENABLE(); 
 2350              		.loc 1 1229 3 view .LVU486
 2351 001a 0199     		ldr	r1, [sp, #4]
 2352              	.LBE2:
1229:Src/stm32f429i_discovery_lcd.c ****   __HAL_RCC_DMA2D_CLK_ENABLE(); 
 2353              		.loc 1 1229 3 view .LVU487
1230:Src/stm32f429i_discovery_lcd.c ****   
ARM GAS  /tmp/ccky5mPs.s 			page 74


 2354              		.loc 1 1230 3 view .LVU488
 2355              	.LBB3:
1230:Src/stm32f429i_discovery_lcd.c ****   
 2356              		.loc 1 1230 3 view .LVU489
 2357 001c 0292     		str	r2, [sp, #8]
1230:Src/stm32f429i_discovery_lcd.c ****   
 2358              		.loc 1 1230 3 view .LVU490
 2359 001e 196B     		ldr	r1, [r3, #48]
 2360 0020 41F40001 		orr	r1, r1, #8388608
 2361 0024 1963     		str	r1, [r3, #48]
1230:Src/stm32f429i_discovery_lcd.c ****   
 2362              		.loc 1 1230 3 view .LVU491
 2363 0026 196B     		ldr	r1, [r3, #48]
 2364 0028 01F40001 		and	r1, r1, #8388608
 2365 002c 0291     		str	r1, [sp, #8]
1230:Src/stm32f429i_discovery_lcd.c ****   
 2366              		.loc 1 1230 3 view .LVU492
 2367 002e 0299     		ldr	r1, [sp, #8]
 2368              	.LBE3:
1230:Src/stm32f429i_discovery_lcd.c ****   
 2369              		.loc 1 1230 3 view .LVU493
1233:Src/stm32f429i_discovery_lcd.c ****   __HAL_RCC_GPIOB_CLK_ENABLE();
 2370              		.loc 1 1233 3 view .LVU494
 2371              	.LBB4:
1233:Src/stm32f429i_discovery_lcd.c ****   __HAL_RCC_GPIOB_CLK_ENABLE();
 2372              		.loc 1 1233 3 view .LVU495
 2373 0030 0392     		str	r2, [sp, #12]
1233:Src/stm32f429i_discovery_lcd.c ****   __HAL_RCC_GPIOB_CLK_ENABLE();
 2374              		.loc 1 1233 3 view .LVU496
 2375 0032 196B     		ldr	r1, [r3, #48]
 2376 0034 41F00101 		orr	r1, r1, #1
 2377 0038 1963     		str	r1, [r3, #48]
1233:Src/stm32f429i_discovery_lcd.c ****   __HAL_RCC_GPIOB_CLK_ENABLE();
 2378              		.loc 1 1233 3 view .LVU497
 2379 003a 196B     		ldr	r1, [r3, #48]
 2380 003c 01F00101 		and	r1, r1, #1
 2381 0040 0391     		str	r1, [sp, #12]
1233:Src/stm32f429i_discovery_lcd.c ****   __HAL_RCC_GPIOB_CLK_ENABLE();
 2382              		.loc 1 1233 3 view .LVU498
 2383 0042 0399     		ldr	r1, [sp, #12]
 2384              	.LBE4:
1233:Src/stm32f429i_discovery_lcd.c ****   __HAL_RCC_GPIOB_CLK_ENABLE();
 2385              		.loc 1 1233 3 view .LVU499
1234:Src/stm32f429i_discovery_lcd.c ****   __HAL_RCC_GPIOC_CLK_ENABLE();
 2386              		.loc 1 1234 3 view .LVU500
 2387              	.LBB5:
1234:Src/stm32f429i_discovery_lcd.c ****   __HAL_RCC_GPIOC_CLK_ENABLE();
 2388              		.loc 1 1234 3 view .LVU501
 2389 0044 0492     		str	r2, [sp, #16]
1234:Src/stm32f429i_discovery_lcd.c ****   __HAL_RCC_GPIOC_CLK_ENABLE();
 2390              		.loc 1 1234 3 view .LVU502
 2391 0046 196B     		ldr	r1, [r3, #48]
 2392 0048 41F00201 		orr	r1, r1, #2
 2393 004c 1963     		str	r1, [r3, #48]
1234:Src/stm32f429i_discovery_lcd.c ****   __HAL_RCC_GPIOC_CLK_ENABLE();
 2394              		.loc 1 1234 3 view .LVU503
 2395 004e 196B     		ldr	r1, [r3, #48]
ARM GAS  /tmp/ccky5mPs.s 			page 75


 2396 0050 01F00201 		and	r1, r1, #2
 2397 0054 0491     		str	r1, [sp, #16]
1234:Src/stm32f429i_discovery_lcd.c ****   __HAL_RCC_GPIOC_CLK_ENABLE();
 2398              		.loc 1 1234 3 view .LVU504
 2399 0056 0499     		ldr	r1, [sp, #16]
 2400              	.LBE5:
1234:Src/stm32f429i_discovery_lcd.c ****   __HAL_RCC_GPIOC_CLK_ENABLE();
 2401              		.loc 1 1234 3 view .LVU505
1235:Src/stm32f429i_discovery_lcd.c ****   __HAL_RCC_GPIOD_CLK_ENABLE();
 2402              		.loc 1 1235 3 view .LVU506
 2403              	.LBB6:
1235:Src/stm32f429i_discovery_lcd.c ****   __HAL_RCC_GPIOD_CLK_ENABLE();
 2404              		.loc 1 1235 3 view .LVU507
 2405 0058 0592     		str	r2, [sp, #20]
1235:Src/stm32f429i_discovery_lcd.c ****   __HAL_RCC_GPIOD_CLK_ENABLE();
 2406              		.loc 1 1235 3 view .LVU508
 2407 005a 196B     		ldr	r1, [r3, #48]
 2408 005c 41F00401 		orr	r1, r1, #4
 2409 0060 1963     		str	r1, [r3, #48]
1235:Src/stm32f429i_discovery_lcd.c ****   __HAL_RCC_GPIOD_CLK_ENABLE();
 2410              		.loc 1 1235 3 view .LVU509
 2411 0062 196B     		ldr	r1, [r3, #48]
 2412 0064 01F00401 		and	r1, r1, #4
 2413 0068 0591     		str	r1, [sp, #20]
1235:Src/stm32f429i_discovery_lcd.c ****   __HAL_RCC_GPIOD_CLK_ENABLE();
 2414              		.loc 1 1235 3 view .LVU510
 2415 006a 0599     		ldr	r1, [sp, #20]
 2416              	.LBE6:
1235:Src/stm32f429i_discovery_lcd.c ****   __HAL_RCC_GPIOD_CLK_ENABLE();
 2417              		.loc 1 1235 3 view .LVU511
1236:Src/stm32f429i_discovery_lcd.c ****   __HAL_RCC_GPIOF_CLK_ENABLE();
 2418              		.loc 1 1236 3 view .LVU512
 2419              	.LBB7:
1236:Src/stm32f429i_discovery_lcd.c ****   __HAL_RCC_GPIOF_CLK_ENABLE();
 2420              		.loc 1 1236 3 view .LVU513
 2421 006c 0692     		str	r2, [sp, #24]
1236:Src/stm32f429i_discovery_lcd.c ****   __HAL_RCC_GPIOF_CLK_ENABLE();
 2422              		.loc 1 1236 3 view .LVU514
 2423 006e 196B     		ldr	r1, [r3, #48]
 2424 0070 41F00801 		orr	r1, r1, #8
 2425 0074 1963     		str	r1, [r3, #48]
1236:Src/stm32f429i_discovery_lcd.c ****   __HAL_RCC_GPIOF_CLK_ENABLE();
 2426              		.loc 1 1236 3 view .LVU515
 2427 0076 196B     		ldr	r1, [r3, #48]
 2428 0078 01F00801 		and	r1, r1, #8
 2429 007c 0691     		str	r1, [sp, #24]
1236:Src/stm32f429i_discovery_lcd.c ****   __HAL_RCC_GPIOF_CLK_ENABLE();
 2430              		.loc 1 1236 3 view .LVU516
 2431 007e 0699     		ldr	r1, [sp, #24]
 2432              	.LBE7:
1236:Src/stm32f429i_discovery_lcd.c ****   __HAL_RCC_GPIOF_CLK_ENABLE();
 2433              		.loc 1 1236 3 view .LVU517
1237:Src/stm32f429i_discovery_lcd.c ****   __HAL_RCC_GPIOG_CLK_ENABLE();
 2434              		.loc 1 1237 3 view .LVU518
 2435              	.LBB8:
1237:Src/stm32f429i_discovery_lcd.c ****   __HAL_RCC_GPIOG_CLK_ENABLE();
 2436              		.loc 1 1237 3 view .LVU519
ARM GAS  /tmp/ccky5mPs.s 			page 76


 2437 0080 0792     		str	r2, [sp, #28]
1237:Src/stm32f429i_discovery_lcd.c ****   __HAL_RCC_GPIOG_CLK_ENABLE();
 2438              		.loc 1 1237 3 view .LVU520
 2439 0082 196B     		ldr	r1, [r3, #48]
 2440 0084 41F02001 		orr	r1, r1, #32
 2441 0088 1963     		str	r1, [r3, #48]
1237:Src/stm32f429i_discovery_lcd.c ****   __HAL_RCC_GPIOG_CLK_ENABLE();
 2442              		.loc 1 1237 3 view .LVU521
 2443 008a 196B     		ldr	r1, [r3, #48]
 2444 008c 01F02001 		and	r1, r1, #32
 2445 0090 0791     		str	r1, [sp, #28]
1237:Src/stm32f429i_discovery_lcd.c ****   __HAL_RCC_GPIOG_CLK_ENABLE();
 2446              		.loc 1 1237 3 view .LVU522
 2447 0092 0799     		ldr	r1, [sp, #28]
 2448              	.LBE8:
1237:Src/stm32f429i_discovery_lcd.c ****   __HAL_RCC_GPIOG_CLK_ENABLE();
 2449              		.loc 1 1237 3 view .LVU523
1238:Src/stm32f429i_discovery_lcd.c **** 
 2450              		.loc 1 1238 3 view .LVU524
 2451              	.LBB9:
1238:Src/stm32f429i_discovery_lcd.c **** 
 2452              		.loc 1 1238 3 view .LVU525
 2453 0094 0892     		str	r2, [sp, #32]
1238:Src/stm32f429i_discovery_lcd.c **** 
 2454              		.loc 1 1238 3 view .LVU526
 2455 0096 196B     		ldr	r1, [r3, #48]
 2456 0098 41F04001 		orr	r1, r1, #64
 2457 009c 1963     		str	r1, [r3, #48]
1238:Src/stm32f429i_discovery_lcd.c **** 
 2458              		.loc 1 1238 3 view .LVU527
 2459 009e 1B6B     		ldr	r3, [r3, #48]
 2460 00a0 03F04003 		and	r3, r3, #64
 2461 00a4 0893     		str	r3, [sp, #32]
1238:Src/stm32f429i_discovery_lcd.c **** 
 2462              		.loc 1 1238 3 view .LVU528
 2463 00a6 089B     		ldr	r3, [sp, #32]
 2464              	.LBE9:
1238:Src/stm32f429i_discovery_lcd.c **** 
 2465              		.loc 1 1238 3 view .LVU529
1258:Src/stm32f429i_discovery_lcd.c ****                            GPIO_PIN_11 | GPIO_PIN_12;
 2466              		.loc 1 1258 3 view .LVU530
1258:Src/stm32f429i_discovery_lcd.c ****                            GPIO_PIN_11 | GPIO_PIN_12;
 2467              		.loc 1 1258 26 is_stmt 0 view .LVU531
 2468 00a8 41F65803 		movw	r3, #6232
 2469 00ac 0993     		str	r3, [sp, #36]
1260:Src/stm32f429i_discovery_lcd.c ****   GPIO_InitStructure.Pull = GPIO_NOPULL;
 2470              		.loc 1 1260 3 is_stmt 1 view .LVU532
1260:Src/stm32f429i_discovery_lcd.c ****   GPIO_InitStructure.Pull = GPIO_NOPULL;
 2471              		.loc 1 1260 27 is_stmt 0 view .LVU533
 2472 00ae 0223     		movs	r3, #2
 2473 00b0 0A93     		str	r3, [sp, #40]
1261:Src/stm32f429i_discovery_lcd.c ****   GPIO_InitStructure.Speed = GPIO_SPEED_FAST;
 2474              		.loc 1 1261 3 is_stmt 1 view .LVU534
1261:Src/stm32f429i_discovery_lcd.c ****   GPIO_InitStructure.Speed = GPIO_SPEED_FAST;
 2475              		.loc 1 1261 27 is_stmt 0 view .LVU535
 2476 00b2 0B92     		str	r2, [sp, #44]
1262:Src/stm32f429i_discovery_lcd.c ****   GPIO_InitStructure.Alternate= GPIO_AF14_LTDC;
ARM GAS  /tmp/ccky5mPs.s 			page 77


 2477              		.loc 1 1262 3 is_stmt 1 view .LVU536
1262:Src/stm32f429i_discovery_lcd.c ****   GPIO_InitStructure.Alternate= GPIO_AF14_LTDC;
 2478              		.loc 1 1262 28 is_stmt 0 view .LVU537
 2479 00b4 0C93     		str	r3, [sp, #48]
1263:Src/stm32f429i_discovery_lcd.c ****   HAL_GPIO_Init(GPIOA, &GPIO_InitStructure);
 2480              		.loc 1 1263 3 is_stmt 1 view .LVU538
1263:Src/stm32f429i_discovery_lcd.c ****   HAL_GPIO_Init(GPIOA, &GPIO_InitStructure);
 2481              		.loc 1 1263 31 is_stmt 0 view .LVU539
 2482 00b6 0E23     		movs	r3, #14
 2483 00b8 0D93     		str	r3, [sp, #52]
1264:Src/stm32f429i_discovery_lcd.c **** 
 2484              		.loc 1 1264 3 is_stmt 1 view .LVU540
 2485 00ba 09A9     		add	r1, sp, #36
 2486 00bc 1C48     		ldr	r0, .L165+4
 2487 00be FFF7FEFF 		bl	HAL_GPIO_Init
 2488              	.LVL193:
1267:Src/stm32f429i_discovery_lcd.c ****                            GPIO_PIN_9 | GPIO_PIN_10 | GPIO_PIN_11;
 2489              		.loc 1 1267 3 view .LVU541
1267:Src/stm32f429i_discovery_lcd.c ****                            GPIO_PIN_9 | GPIO_PIN_10 | GPIO_PIN_11;
 2490              		.loc 1 1267 26 is_stmt 0 view .LVU542
 2491 00c2 4FF47063 		mov	r3, #3840
 2492 00c6 0993     		str	r3, [sp, #36]
1269:Src/stm32f429i_discovery_lcd.c **** 
 2493              		.loc 1 1269 3 is_stmt 1 view .LVU543
 2494 00c8 1A4D     		ldr	r5, .L165+8
 2495 00ca 09A9     		add	r1, sp, #36
 2496 00cc 2846     		mov	r0, r5
 2497 00ce FFF7FEFF 		bl	HAL_GPIO_Init
 2498              	.LVL194:
1272:Src/stm32f429i_discovery_lcd.c ****   HAL_GPIO_Init(GPIOC, &GPIO_InitStructure);
 2499              		.loc 1 1272 3 view .LVU544
1272:Src/stm32f429i_discovery_lcd.c ****   HAL_GPIO_Init(GPIOC, &GPIO_InitStructure);
 2500              		.loc 1 1272 26 is_stmt 0 view .LVU545
 2501 00d2 4FF49863 		mov	r3, #1216
 2502 00d6 0993     		str	r3, [sp, #36]
1273:Src/stm32f429i_discovery_lcd.c **** 
 2503              		.loc 1 1273 3 is_stmt 1 view .LVU546
 2504 00d8 09A9     		add	r1, sp, #36
 2505 00da 1748     		ldr	r0, .L165+12
 2506 00dc FFF7FEFF 		bl	HAL_GPIO_Init
 2507              	.LVL195:
1276:Src/stm32f429i_discovery_lcd.c ****   HAL_GPIO_Init(GPIOD, &GPIO_InitStructure);
 2508              		.loc 1 1276 3 view .LVU547
1276:Src/stm32f429i_discovery_lcd.c ****   HAL_GPIO_Init(GPIOD, &GPIO_InitStructure);
 2509              		.loc 1 1276 26 is_stmt 0 view .LVU548
 2510 00e0 4823     		movs	r3, #72
 2511 00e2 0993     		str	r3, [sp, #36]
1277:Src/stm32f429i_discovery_lcd.c ****   
 2512              		.loc 1 1277 3 is_stmt 1 view .LVU549
 2513 00e4 09A9     		add	r1, sp, #36
 2514 00e6 1548     		ldr	r0, .L165+16
 2515 00e8 FFF7FEFF 		bl	HAL_GPIO_Init
 2516              	.LVL196:
1280:Src/stm32f429i_discovery_lcd.c ****   HAL_GPIO_Init(GPIOF, &GPIO_InitStructure);     
 2517              		.loc 1 1280 3 view .LVU550
1280:Src/stm32f429i_discovery_lcd.c ****   HAL_GPIO_Init(GPIOF, &GPIO_InitStructure);     
 2518              		.loc 1 1280 26 is_stmt 0 view .LVU551
ARM GAS  /tmp/ccky5mPs.s 			page 78


 2519 00ec 4FF48063 		mov	r3, #1024
 2520 00f0 0993     		str	r3, [sp, #36]
1281:Src/stm32f429i_discovery_lcd.c **** 
 2521              		.loc 1 1281 3 is_stmt 1 view .LVU552
 2522 00f2 09A9     		add	r1, sp, #36
 2523 00f4 1248     		ldr	r0, .L165+20
 2524 00f6 FFF7FEFF 		bl	HAL_GPIO_Init
 2525              	.LVL197:
1284:Src/stm32f429i_discovery_lcd.c ****                            GPIO_PIN_11;
 2526              		.loc 1 1284 3 view .LVU553
1284:Src/stm32f429i_discovery_lcd.c ****                            GPIO_PIN_11;
 2527              		.loc 1 1284 26 is_stmt 0 view .LVU554
 2528 00fa 4FF40C63 		mov	r3, #2240
 2529 00fe 0993     		str	r3, [sp, #36]
1286:Src/stm32f429i_discovery_lcd.c ****  
 2530              		.loc 1 1286 3 is_stmt 1 view .LVU555
 2531 0100 104C     		ldr	r4, .L165+24
 2532 0102 09A9     		add	r1, sp, #36
 2533 0104 2046     		mov	r0, r4
 2534 0106 FFF7FEFF 		bl	HAL_GPIO_Init
 2535              	.LVL198:
1289:Src/stm32f429i_discovery_lcd.c ****   GPIO_InitStructure.Alternate= GPIO_AF9_LTDC;
 2536              		.loc 1 1289 3 view .LVU556
1289:Src/stm32f429i_discovery_lcd.c ****   GPIO_InitStructure.Alternate= GPIO_AF9_LTDC;
 2537              		.loc 1 1289 26 is_stmt 0 view .LVU557
 2538 010a 0323     		movs	r3, #3
 2539 010c 0993     		str	r3, [sp, #36]
1290:Src/stm32f429i_discovery_lcd.c ****   HAL_GPIO_Init(GPIOB, &GPIO_InitStructure);
 2540              		.loc 1 1290 3 is_stmt 1 view .LVU558
1290:Src/stm32f429i_discovery_lcd.c ****   HAL_GPIO_Init(GPIOB, &GPIO_InitStructure);
 2541              		.loc 1 1290 31 is_stmt 0 view .LVU559
 2542 010e 0923     		movs	r3, #9
 2543 0110 0D93     		str	r3, [sp, #52]
1291:Src/stm32f429i_discovery_lcd.c **** 
 2544              		.loc 1 1291 3 is_stmt 1 view .LVU560
 2545 0112 09A9     		add	r1, sp, #36
 2546 0114 2846     		mov	r0, r5
 2547 0116 FFF7FEFF 		bl	HAL_GPIO_Init
 2548              	.LVL199:
1294:Src/stm32f429i_discovery_lcd.c ****   HAL_GPIO_Init(GPIOG, &GPIO_InitStructure);
 2549              		.loc 1 1294 3 view .LVU561
1294:Src/stm32f429i_discovery_lcd.c ****   HAL_GPIO_Init(GPIOG, &GPIO_InitStructure);
 2550              		.loc 1 1294 26 is_stmt 0 view .LVU562
 2551 011a 4FF4A053 		mov	r3, #5120
 2552 011e 0993     		str	r3, [sp, #36]
1295:Src/stm32f429i_discovery_lcd.c **** }
 2553              		.loc 1 1295 3 is_stmt 1 view .LVU563
 2554 0120 09A9     		add	r1, sp, #36
 2555 0122 2046     		mov	r0, r4
 2556 0124 FFF7FEFF 		bl	HAL_GPIO_Init
 2557              	.LVL200:
1296:Src/stm32f429i_discovery_lcd.c **** 
 2558              		.loc 1 1296 1 is_stmt 0 view .LVU564
 2559 0128 0FB0     		add	sp, sp, #60
 2560              	.LCFI49:
 2561              		.cfi_def_cfa_offset 12
 2562              		@ sp needed
ARM GAS  /tmp/ccky5mPs.s 			page 79


 2563 012a 30BD     		pop	{r4, r5, pc}
 2564              	.L166:
 2565              		.align	2
 2566              	.L165:
 2567 012c 00380240 		.word	1073887232
 2568 0130 00000240 		.word	1073872896
 2569 0134 00040240 		.word	1073873920
 2570 0138 00080240 		.word	1073874944
 2571 013c 000C0240 		.word	1073875968
 2572 0140 00140240 		.word	1073878016
 2573 0144 00180240 		.word	1073879040
 2574              		.cfi_endproc
 2575              	.LFE175:
 2577              		.section	.text.BSP_LCD_Init,"ax",%progbits
 2578              		.align	1
 2579              		.global	BSP_LCD_Init
 2580              		.syntax unified
 2581              		.thumb
 2582              		.thumb_func
 2584              	BSP_LCD_Init:
 2585              	.LFB130:
 154:Src/stm32f429i_discovery_lcd.c ****   /* On STM32F429I-DISCO, it is not possible to read ILI9341 ID because */
 2586              		.loc 1 154 1 is_stmt 1 view -0
 2587              		.cfi_startproc
 2588              		@ args = 0, pretend = 0, frame = 0
 2589              		@ frame_needed = 0, uses_anonymous_args = 0
 2590 0000 38B5     		push	{r3, r4, r5, lr}
 2591              	.LCFI50:
 2592              		.cfi_def_cfa_offset 16
 2593              		.cfi_offset 3, -16
 2594              		.cfi_offset 4, -12
 2595              		.cfi_offset 5, -8
 2596              		.cfi_offset 14, -4
 161:Src/stm32f429i_discovery_lcd.c ****     
 2597              		.loc 1 161 5 view .LVU566
 161:Src/stm32f429i_discovery_lcd.c ****     
 2598              		.loc 1 161 26 is_stmt 0 view .LVU567
 2599 0002 1F4C     		ldr	r4, .L169
 2600 0004 1F4B     		ldr	r3, .L169+4
 2601 0006 2360     		str	r3, [r4]
 176:Src/stm32f429i_discovery_lcd.c ****     /* Configure vertical synchronization height */
 2602              		.loc 1 176 5 is_stmt 1 view .LVU568
 176:Src/stm32f429i_discovery_lcd.c ****     /* Configure vertical synchronization height */
 2603              		.loc 1 176 37 is_stmt 0 view .LVU569
 2604 0008 0923     		movs	r3, #9
 2605 000a 6361     		str	r3, [r4, #20]
 178:Src/stm32f429i_discovery_lcd.c ****     /* Configure accumulated horizontal back porch */
 2606              		.loc 1 178 5 is_stmt 1 view .LVU570
 178:Src/stm32f429i_discovery_lcd.c ****     /* Configure accumulated horizontal back porch */
 2607              		.loc 1 178 35 is_stmt 0 view .LVU571
 2608 000c 0123     		movs	r3, #1
 2609 000e A361     		str	r3, [r4, #24]
 180:Src/stm32f429i_discovery_lcd.c ****     /* Configure accumulated vertical back porch */
 2610              		.loc 1 180 5 is_stmt 1 view .LVU572
 180:Src/stm32f429i_discovery_lcd.c ****     /* Configure accumulated vertical back porch */
 2611              		.loc 1 180 37 is_stmt 0 view .LVU573
 2612 0010 1D23     		movs	r3, #29
ARM GAS  /tmp/ccky5mPs.s 			page 80


 2613 0012 E361     		str	r3, [r4, #28]
 182:Src/stm32f429i_discovery_lcd.c ****     /* Configure accumulated active width */
 2614              		.loc 1 182 5 is_stmt 1 view .LVU574
 182:Src/stm32f429i_discovery_lcd.c ****     /* Configure accumulated active width */
 2615              		.loc 1 182 37 is_stmt 0 view .LVU575
 2616 0014 0323     		movs	r3, #3
 2617 0016 2362     		str	r3, [r4, #32]
 184:Src/stm32f429i_discovery_lcd.c ****     /* Configure accumulated active height */
 2618              		.loc 1 184 5 is_stmt 1 view .LVU576
 184:Src/stm32f429i_discovery_lcd.c ****     /* Configure accumulated active height */
 2619              		.loc 1 184 41 is_stmt 0 view .LVU577
 2620 0018 40F20D13 		movw	r3, #269
 2621 001c 6362     		str	r3, [r4, #36]
 186:Src/stm32f429i_discovery_lcd.c ****     /* Configure total width */
 2622              		.loc 1 186 5 is_stmt 1 view .LVU578
 186:Src/stm32f429i_discovery_lcd.c ****     /* Configure total width */
 2623              		.loc 1 186 41 is_stmt 0 view .LVU579
 2624 001e 40F24313 		movw	r3, #323
 2625 0022 A362     		str	r3, [r4, #40]
 188:Src/stm32f429i_discovery_lcd.c ****     /* Configure total height */
 2626              		.loc 1 188 5 is_stmt 1 view .LVU580
 188:Src/stm32f429i_discovery_lcd.c ****     /* Configure total height */
 2627              		.loc 1 188 33 is_stmt 0 view .LVU581
 2628 0024 40F21713 		movw	r3, #279
 2629 0028 E362     		str	r3, [r4, #44]
 190:Src/stm32f429i_discovery_lcd.c ****     
 2630              		.loc 1 190 5 is_stmt 1 view .LVU582
 190:Src/stm32f429i_discovery_lcd.c ****     
 2631              		.loc 1 190 33 is_stmt 0 view .LVU583
 2632 002a 40F24713 		movw	r3, #327
 2633 002e 2363     		str	r3, [r4, #48]
 193:Src/stm32f429i_discovery_lcd.c ****     LtdcHandler.Init.Backcolor.Blue= 0;
 2634              		.loc 1 193 5 is_stmt 1 view .LVU584
 193:Src/stm32f429i_discovery_lcd.c ****     LtdcHandler.Init.Backcolor.Blue= 0;
 2635              		.loc 1 193 35 is_stmt 0 view .LVU585
 2636 0030 0025     		movs	r5, #0
 2637 0032 84F83650 		strb	r5, [r4, #54]
 194:Src/stm32f429i_discovery_lcd.c ****     LtdcHandler.Init.Backcolor.Green= 0;
 2638              		.loc 1 194 5 is_stmt 1 view .LVU586
 194:Src/stm32f429i_discovery_lcd.c ****     LtdcHandler.Init.Backcolor.Green= 0;
 2639              		.loc 1 194 36 is_stmt 0 view .LVU587
 2640 0036 84F83450 		strb	r5, [r4, #52]
 195:Src/stm32f429i_discovery_lcd.c ****     
 2641              		.loc 1 195 5 is_stmt 1 view .LVU588
 195:Src/stm32f429i_discovery_lcd.c ****     
 2642              		.loc 1 195 37 is_stmt 0 view .LVU589
 2643 003a 84F83550 		strb	r5, [r4, #53]
 202:Src/stm32f429i_discovery_lcd.c ****     PeriphClkInitStruct.PLLSAI.PLLSAIN = 192;
 2644              		.loc 1 202 5 is_stmt 1 view .LVU590
 202:Src/stm32f429i_discovery_lcd.c ****     PeriphClkInitStruct.PLLSAI.PLLSAIN = 192;
 2645              		.loc 1 202 46 is_stmt 0 view .LVU591
 2646 003e 1248     		ldr	r0, .L169+8
 2647 0040 0823     		movs	r3, #8
 2648 0042 0360     		str	r3, [r0]
 203:Src/stm32f429i_discovery_lcd.c ****     PeriphClkInitStruct.PLLSAI.PLLSAIR = 4;
 2649              		.loc 1 203 5 is_stmt 1 view .LVU592
 203:Src/stm32f429i_discovery_lcd.c ****     PeriphClkInitStruct.PLLSAI.PLLSAIR = 4;
ARM GAS  /tmp/ccky5mPs.s 			page 81


 2650              		.loc 1 203 40 is_stmt 0 view .LVU593
 2651 0044 C023     		movs	r3, #192
 2652 0046 0361     		str	r3, [r0, #16]
 204:Src/stm32f429i_discovery_lcd.c ****     PeriphClkInitStruct.PLLSAIDivR = RCC_PLLSAIDIVR_8;
 2653              		.loc 1 204 5 is_stmt 1 view .LVU594
 204:Src/stm32f429i_discovery_lcd.c ****     PeriphClkInitStruct.PLLSAIDivR = RCC_PLLSAIDIVR_8;
 2654              		.loc 1 204 40 is_stmt 0 view .LVU595
 2655 0048 0423     		movs	r3, #4
 2656 004a 8361     		str	r3, [r0, #24]
 205:Src/stm32f429i_discovery_lcd.c ****     HAL_RCCEx_PeriphCLKConfig(&PeriphClkInitStruct); 
 2657              		.loc 1 205 5 is_stmt 1 view .LVU596
 205:Src/stm32f429i_discovery_lcd.c ****     HAL_RCCEx_PeriphCLKConfig(&PeriphClkInitStruct); 
 2658              		.loc 1 205 36 is_stmt 0 view .LVU597
 2659 004c 4FF40033 		mov	r3, #131072
 2660 0050 4362     		str	r3, [r0, #36]
 206:Src/stm32f429i_discovery_lcd.c ****     
 2661              		.loc 1 206 5 is_stmt 1 view .LVU598
 2662 0052 FFF7FEFF 		bl	HAL_RCCEx_PeriphCLKConfig
 2663              	.LVL201:
 209:Src/stm32f429i_discovery_lcd.c ****     LtdcHandler.Init.VSPolarity = LTDC_VSPOLARITY_AL;
 2664              		.loc 1 209 5 view .LVU599
 209:Src/stm32f429i_discovery_lcd.c ****     LtdcHandler.Init.VSPolarity = LTDC_VSPOLARITY_AL;
 2665              		.loc 1 209 33 is_stmt 0 view .LVU600
 2666 0056 6560     		str	r5, [r4, #4]
 210:Src/stm32f429i_discovery_lcd.c ****     LtdcHandler.Init.DEPolarity = LTDC_DEPOLARITY_AL;
 2667              		.loc 1 210 5 is_stmt 1 view .LVU601
 210:Src/stm32f429i_discovery_lcd.c ****     LtdcHandler.Init.DEPolarity = LTDC_DEPOLARITY_AL;
 2668              		.loc 1 210 33 is_stmt 0 view .LVU602
 2669 0058 A560     		str	r5, [r4, #8]
 211:Src/stm32f429i_discovery_lcd.c ****     LtdcHandler.Init.PCPolarity = LTDC_PCPOLARITY_IPC;
 2670              		.loc 1 211 5 is_stmt 1 view .LVU603
 211:Src/stm32f429i_discovery_lcd.c ****     LtdcHandler.Init.PCPolarity = LTDC_PCPOLARITY_IPC;
 2671              		.loc 1 211 33 is_stmt 0 view .LVU604
 2672 005a E560     		str	r5, [r4, #12]
 212:Src/stm32f429i_discovery_lcd.c ****     
 2673              		.loc 1 212 5 is_stmt 1 view .LVU605
 212:Src/stm32f429i_discovery_lcd.c ****     
 2674              		.loc 1 212 33 is_stmt 0 view .LVU606
 2675 005c 2561     		str	r5, [r4, #16]
 214:Src/stm32f429i_discovery_lcd.c ****     HAL_LTDC_Init(&LtdcHandler); 
 2676              		.loc 1 214 5 is_stmt 1 view .LVU607
 2677 005e FFF7FEFF 		bl	BSP_LCD_MspInit
 2678              	.LVL202:
 215:Src/stm32f429i_discovery_lcd.c ****     
 2679              		.loc 1 215 5 view .LVU608
 2680 0062 2046     		mov	r0, r4
 2681 0064 FFF7FEFF 		bl	HAL_LTDC_Init
 2682              	.LVL203:
 218:Src/stm32f429i_discovery_lcd.c **** 
 2683              		.loc 1 218 5 view .LVU609
 218:Src/stm32f429i_discovery_lcd.c **** 
 2684              		.loc 1 218 12 is_stmt 0 view .LVU610
 2685 0068 084B     		ldr	r3, .L169+12
 2686 006a 094A     		ldr	r2, .L169+16
 2687 006c 1360     		str	r3, [r2]
 221:Src/stm32f429i_discovery_lcd.c **** 
 2688              		.loc 1 221 5 is_stmt 1 view .LVU611
ARM GAS  /tmp/ccky5mPs.s 			page 82


 221:Src/stm32f429i_discovery_lcd.c **** 
 2689              		.loc 1 221 11 is_stmt 0 view .LVU612
 2690 006e 1B68     		ldr	r3, [r3]
 221:Src/stm32f429i_discovery_lcd.c **** 
 2691              		.loc 1 221 5 view .LVU613
 2692 0070 9847     		blx	r3
 2693              	.LVL204:
 224:Src/stm32f429i_discovery_lcd.c **** 
 2694              		.loc 1 224 5 is_stmt 1 view .LVU614
 2695 0072 FFF7FEFF 		bl	BSP_SDRAM_Init
 2696              	.LVL205:
 227:Src/stm32f429i_discovery_lcd.c **** 
 2697              		.loc 1 227 5 view .LVU615
 2698 0076 0748     		ldr	r0, .L169+20
 2699 0078 FFF7FEFF 		bl	BSP_LCD_SetFont
 2700              	.LVL206:
 229:Src/stm32f429i_discovery_lcd.c **** }  
 2701              		.loc 1 229 3 view .LVU616
 230:Src/stm32f429i_discovery_lcd.c **** 
 2702              		.loc 1 230 1 is_stmt 0 view .LVU617
 2703 007c 2846     		mov	r0, r5
 2704 007e 38BD     		pop	{r3, r4, r5, pc}
 2705              	.L170:
 2706              		.align	2
 2707              	.L169:
 2708 0080 00000000 		.word	.LANCHOR2
 2709 0084 00680140 		.word	1073833984
 2710 0088 00000000 		.word	.LANCHOR6
 2711 008c 00000000 		.word	ili9341_drv
 2712 0090 00000000 		.word	.LANCHOR1
 2713 0094 00000000 		.word	.LANCHOR4
 2714              		.cfi_endproc
 2715              	.LFE130:
 2717              		.section	.text.BSP_LCD_DrawPixel,"ax",%progbits
 2718              		.align	1
 2719              		.global	BSP_LCD_DrawPixel
 2720              		.syntax unified
 2721              		.thumb
 2722              		.thumb_func
 2724              	BSP_LCD_DrawPixel:
 2725              	.LVL207:
 2726              	.LFB176:
1309:Src/stm32f429i_discovery_lcd.c ****   /* Write data value to all SDRAM memory */
 2727              		.loc 1 1309 1 is_stmt 1 view -0
 2728              		.cfi_startproc
 2729              		@ args = 0, pretend = 0, frame = 0
 2730              		@ frame_needed = 0, uses_anonymous_args = 0
1309:Src/stm32f429i_discovery_lcd.c ****   /* Write data value to all SDRAM memory */
 2731              		.loc 1 1309 1 is_stmt 0 view .LVU619
 2732 0000 F8B5     		push	{r3, r4, r5, r6, r7, lr}
 2733              	.LCFI51:
 2734              		.cfi_def_cfa_offset 24
 2735              		.cfi_offset 3, -24
 2736              		.cfi_offset 4, -20
 2737              		.cfi_offset 5, -16
 2738              		.cfi_offset 6, -12
 2739              		.cfi_offset 7, -8
ARM GAS  /tmp/ccky5mPs.s 			page 83


 2740              		.cfi_offset 14, -4
 2741 0002 0446     		mov	r4, r0
 2742 0004 0E46     		mov	r6, r1
 2743 0006 1546     		mov	r5, r2
1311:Src/stm32f429i_discovery_lcd.c **** }
 2744              		.loc 1 1311 3 is_stmt 1 view .LVU620
1311:Src/stm32f429i_discovery_lcd.c **** }
 2745              		.loc 1 1311 55 is_stmt 0 view .LVU621
 2746 0008 064B     		ldr	r3, .L173
 2747 000a 1A68     		ldr	r2, [r3]
 2748              	.LVL208:
1311:Src/stm32f429i_discovery_lcd.c **** }
 2749              		.loc 1 1311 55 view .LVU622
 2750 000c 064B     		ldr	r3, .L173+4
 2751 000e 3421     		movs	r1, #52
 2752              	.LVL209:
1311:Src/stm32f429i_discovery_lcd.c **** }
 2753              		.loc 1 1311 55 view .LVU623
 2754 0010 01FB0233 		mla	r3, r1, r2, r3
 2755 0014 DF6D     		ldr	r7, [r3, #92]
1311:Src/stm32f429i_discovery_lcd.c **** }
 2756              		.loc 1 1311 81 view .LVU624
 2757 0016 FFF7FEFF 		bl	BSP_LCD_GetXSize
 2758              	.LVL210:
1311:Src/stm32f429i_discovery_lcd.c **** }
 2759              		.loc 1 1311 100 view .LVU625
 2760 001a 00FB0644 		mla	r4, r0, r6, r4
1311:Src/stm32f429i_discovery_lcd.c **** }
 2761              		.loc 1 1311 110 view .LVU626
 2762 001e 47F82450 		str	r5, [r7, r4, lsl #2]
1312:Src/stm32f429i_discovery_lcd.c **** 
 2763              		.loc 1 1312 1 view .LVU627
 2764 0022 F8BD     		pop	{r3, r4, r5, r6, r7, pc}
 2765              	.LVL211:
 2766              	.L174:
1312:Src/stm32f429i_discovery_lcd.c **** 
 2767              		.loc 1 1312 1 view .LVU628
 2768              		.align	2
 2769              	.L173:
 2770 0024 00000000 		.word	.LANCHOR5
 2771 0028 00000000 		.word	.LANCHOR2
 2772              		.cfi_endproc
 2773              	.LFE176:
 2775              		.section	.text.DrawChar,"ax",%progbits
 2776              		.align	1
 2777              		.syntax unified
 2778              		.thumb
 2779              		.thumb_func
 2781              	DrawChar:
 2782              	.LVL212:
 2783              	.LFB177:
1321:Src/stm32f429i_discovery_lcd.c ****   uint32_t i = 0, j = 0;
 2784              		.loc 1 1321 1 is_stmt 1 view -0
 2785              		.cfi_startproc
 2786              		@ args = 0, pretend = 0, frame = 8
 2787              		@ frame_needed = 0, uses_anonymous_args = 0
1321:Src/stm32f429i_discovery_lcd.c ****   uint32_t i = 0, j = 0;
ARM GAS  /tmp/ccky5mPs.s 			page 84


 2788              		.loc 1 1321 1 is_stmt 0 view .LVU630
 2789 0000 2DE9F04F 		push	{r4, r5, r6, r7, r8, r9, r10, fp, lr}
 2790              	.LCFI52:
 2791              		.cfi_def_cfa_offset 36
 2792              		.cfi_offset 4, -36
 2793              		.cfi_offset 5, -32
 2794              		.cfi_offset 6, -28
 2795              		.cfi_offset 7, -24
 2796              		.cfi_offset 8, -20
 2797              		.cfi_offset 9, -16
 2798              		.cfi_offset 10, -12
 2799              		.cfi_offset 11, -8
 2800              		.cfi_offset 14, -4
 2801 0004 83B0     		sub	sp, sp, #12
 2802              	.LCFI53:
 2803              		.cfi_def_cfa_offset 48
 2804 0006 8146     		mov	r9, r0
 2805 0008 0E46     		mov	r6, r1
 2806 000a 0092     		str	r2, [sp]
1322:Src/stm32f429i_discovery_lcd.c ****   uint16_t height, width;
 2807              		.loc 1 1322 3 is_stmt 1 view .LVU631
 2808              	.LVL213:
1323:Src/stm32f429i_discovery_lcd.c ****   uint8_t offset;
 2809              		.loc 1 1323 3 view .LVU632
1324:Src/stm32f429i_discovery_lcd.c ****   uint8_t *pchar;
 2810              		.loc 1 1324 3 view .LVU633
1325:Src/stm32f429i_discovery_lcd.c ****   uint32_t line=0;
 2811              		.loc 1 1325 3 view .LVU634
1326:Src/stm32f429i_discovery_lcd.c **** 
 2812              		.loc 1 1326 3 view .LVU635
1328:Src/stm32f429i_discovery_lcd.c ****   width  = DrawProp[ActiveLayer].pFont->Width;
 2813              		.loc 1 1328 3 view .LVU636
1328:Src/stm32f429i_discovery_lcd.c ****   width  = DrawProp[ActiveLayer].pFont->Width;
 2814              		.loc 1 1328 33 is_stmt 0 view .LVU637
 2815 000c 344B     		ldr	r3, .L191
 2816 000e 1B68     		ldr	r3, [r3]
 2817 0010 03EB4303 		add	r3, r3, r3, lsl #1
 2818 0014 334A     		ldr	r2, .L191+4
 2819              	.LVL214:
1328:Src/stm32f429i_discovery_lcd.c ****   width  = DrawProp[ActiveLayer].pFont->Width;
 2820              		.loc 1 1328 33 view .LVU638
 2821 0016 02EB8303 		add	r3, r2, r3, lsl #2
 2822 001a 9B68     		ldr	r3, [r3, #8]
1328:Src/stm32f429i_discovery_lcd.c ****   width  = DrawProp[ActiveLayer].pFont->Width;
 2823              		.loc 1 1328 10 view .LVU639
 2824 001c DA88     		ldrh	r2, [r3, #6]
 2825 001e 0192     		str	r2, [sp, #4]
 2826              	.LVL215:
1329:Src/stm32f429i_discovery_lcd.c **** 
 2827              		.loc 1 1329 3 is_stmt 1 view .LVU640
1329:Src/stm32f429i_discovery_lcd.c **** 
 2828              		.loc 1 1329 10 is_stmt 0 view .LVU641
 2829 0020 9D88     		ldrh	r5, [r3, #4]
 2830              	.LVL216:
1331:Src/stm32f429i_discovery_lcd.c **** 
 2831              		.loc 1 1331 3 is_stmt 1 view .LVU642
1331:Src/stm32f429i_discovery_lcd.c **** 
ARM GAS  /tmp/ccky5mPs.s 			page 85


 2832              		.loc 1 1331 27 is_stmt 0 view .LVU643
 2833 0022 05F1070B 		add	fp, r5, #7
 2834 0026 4FEAEB0B 		asr	fp, fp, #3
1331:Src/stm32f429i_discovery_lcd.c **** 
 2835              		.loc 1 1331 31 view .LVU644
 2836 002a 4FEACB08 		lsl	r8, fp, #3
 2837 002e 5FFA88F8 		uxtb	r8, r8
 2838 0032 EBB2     		uxtb	r3, r5
1331:Src/stm32f429i_discovery_lcd.c **** 
 2839              		.loc 1 1331 10 view .LVU645
 2840 0034 A8EB0308 		sub	r8, r8, r3
 2841 0038 5FFA88F8 		uxtb	r8, r8
 2842              	.LVL217:
1333:Src/stm32f429i_discovery_lcd.c ****   {
 2843              		.loc 1 1333 3 is_stmt 1 view .LVU646
1333:Src/stm32f429i_discovery_lcd.c ****   {
 2844              		.loc 1 1333 9 is_stmt 0 view .LVU647
 2845 003c 4FF0000A 		mov	r10, #0
1333:Src/stm32f429i_discovery_lcd.c ****   {
 2846              		.loc 1 1333 3 view .LVU648
 2847 0040 34E0     		b	.L177
 2848              	.LVL218:
 2849              	.L178:
1340:Src/stm32f429i_discovery_lcd.c ****       break;
 2850              		.loc 1 1340 7 is_stmt 1 view .LVU649
1340:Src/stm32f429i_discovery_lcd.c ****       break;
 2851              		.loc 1 1340 20 is_stmt 0 view .LVU650
 2852 0042 009A     		ldr	r2, [sp]
 2853              	.LVL219:
1340:Src/stm32f429i_discovery_lcd.c ****       break;
 2854              		.loc 1 1340 20 view .LVU651
 2855 0044 D75C     		ldrb	r7, [r2, r3]	@ zero_extendqisi2
 2856              	.LVL220:
1341:Src/stm32f429i_discovery_lcd.c ****       
 2857              		.loc 1 1341 7 is_stmt 1 view .LVU652
 2858              	.L181:
1353:Src/stm32f429i_discovery_lcd.c ****     {
 2859              		.loc 1 1353 5 view .LVU653
1353:Src/stm32f429i_discovery_lcd.c ****     {
 2860              		.loc 1 1353 12 is_stmt 0 view .LVU654
 2861 0046 0024     		movs	r4, #0
1353:Src/stm32f429i_discovery_lcd.c ****     {
 2862              		.loc 1 1353 5 view .LVU655
 2863 0048 14E0     		b	.L182
 2864              	.LVL221:
 2865              	.L179:
1344:Src/stm32f429i_discovery_lcd.c ****       break;
 2866              		.loc 1 1344 7 is_stmt 1 view .LVU656
1344:Src/stm32f429i_discovery_lcd.c ****       break;
 2867              		.loc 1 1344 21 is_stmt 0 view .LVU657
 2868 004a 0099     		ldr	r1, [sp]
 2869 004c CB5C     		ldrb	r3, [r1, r3]	@ zero_extendqisi2
1344:Src/stm32f429i_discovery_lcd.c ****       break;
 2870              		.loc 1 1344 37 view .LVU658
 2871 004e 5778     		ldrb	r7, [r2, #1]	@ zero_extendqisi2
1344:Src/stm32f429i_discovery_lcd.c ****       break;
 2872              		.loc 1 1344 30 view .LVU659
ARM GAS  /tmp/ccky5mPs.s 			page 86


 2873 0050 47EA0327 		orr	r7, r7, r3, lsl #8
 2874              	.LVL222:
1345:Src/stm32f429i_discovery_lcd.c **** 
 2875              		.loc 1 1345 7 is_stmt 1 view .LVU660
 2876 0054 F7E7     		b	.L181
 2877              	.LVL223:
 2878              	.L183:
1361:Src/stm32f429i_discovery_lcd.c ****       } 
 2879              		.loc 1 1361 9 view .LVU661
 2880 0056 224B     		ldr	r3, .L191
 2881 0058 1B68     		ldr	r3, [r3]
 2882 005a 03EB4303 		add	r3, r3, r3, lsl #1
 2883 005e 214A     		ldr	r2, .L191+4
 2884 0060 02EB8303 		add	r3, r2, r3, lsl #2
 2885 0064 09EB0400 		add	r0, r9, r4
 2886 0068 5A68     		ldr	r2, [r3, #4]
 2887 006a 3146     		mov	r1, r6
 2888 006c 80B2     		uxth	r0, r0
 2889 006e FFF7FEFF 		bl	BSP_LCD_DrawPixel
 2890              	.LVL224:
 2891              	.L184:
1353:Src/stm32f429i_discovery_lcd.c ****     {
 2892              		.loc 1 1353 28 discriminator 2 view .LVU662
1353:Src/stm32f429i_discovery_lcd.c ****     {
 2893              		.loc 1 1353 29 is_stmt 0 discriminator 2 view .LVU663
 2894 0072 0134     		adds	r4, r4, #1
 2895              	.LVL225:
 2896              	.L182:
1353:Src/stm32f429i_discovery_lcd.c ****     {
 2897              		.loc 1 1353 17 is_stmt 1 discriminator 1 view .LVU664
1353:Src/stm32f429i_discovery_lcd.c ****     {
 2898              		.loc 1 1353 5 is_stmt 0 discriminator 1 view .LVU665
 2899 0074 A542     		cmp	r5, r4
 2900 0076 15D9     		bls	.L189
1355:Src/stm32f429i_discovery_lcd.c ****       {
 2901              		.loc 1 1355 7 is_stmt 1 view .LVU666
1355:Src/stm32f429i_discovery_lcd.c ****       {
 2902              		.loc 1 1355 29 is_stmt 0 view .LVU667
 2903 0078 2B1B     		subs	r3, r5, r4
1355:Src/stm32f429i_discovery_lcd.c ****       {
 2904              		.loc 1 1355 33 view .LVU668
 2905 007a 4344     		add	r3, r3, r8
1355:Src/stm32f429i_discovery_lcd.c ****       {
 2906              		.loc 1 1355 41 view .LVU669
 2907 007c 013B     		subs	r3, r3, #1
1355:Src/stm32f429i_discovery_lcd.c ****       {
 2908              		.loc 1 1355 20 view .LVU670
 2909 007e 0122     		movs	r2, #1
 2910 0080 02FA03F3 		lsl	r3, r2, r3
1355:Src/stm32f429i_discovery_lcd.c ****       {
 2911              		.loc 1 1355 9 view .LVU671
 2912 0084 3B42     		tst	r3, r7
 2913 0086 E6D0     		beq	.L183
1357:Src/stm32f429i_discovery_lcd.c ****       }
 2914              		.loc 1 1357 9 is_stmt 1 view .LVU672
 2915 0088 154B     		ldr	r3, .L191
 2916 008a 1B68     		ldr	r3, [r3]
ARM GAS  /tmp/ccky5mPs.s 			page 87


 2917 008c 03EB4303 		add	r3, r3, r3, lsl #1
 2918 0090 09EB0400 		add	r0, r9, r4
 2919 0094 134A     		ldr	r2, .L191+4
 2920 0096 52F82320 		ldr	r2, [r2, r3, lsl #2]
 2921 009a 3146     		mov	r1, r6
 2922 009c 80B2     		uxth	r0, r0
 2923 009e FFF7FEFF 		bl	BSP_LCD_DrawPixel
 2924              	.LVL226:
 2925 00a2 E6E7     		b	.L184
 2926              	.L189:
1364:Src/stm32f429i_discovery_lcd.c ****   }
 2927              		.loc 1 1364 5 discriminator 2 view .LVU673
1364:Src/stm32f429i_discovery_lcd.c ****   }
 2928              		.loc 1 1364 9 is_stmt 0 discriminator 2 view .LVU674
 2929 00a4 0136     		adds	r6, r6, #1
 2930              	.LVL227:
1364:Src/stm32f429i_discovery_lcd.c ****   }
 2931              		.loc 1 1364 9 discriminator 2 view .LVU675
 2932 00a6 B6B2     		uxth	r6, r6
 2933              	.LVL228:
1333:Src/stm32f429i_discovery_lcd.c ****   {
 2934              		.loc 1 1333 26 is_stmt 1 discriminator 2 view .LVU676
1333:Src/stm32f429i_discovery_lcd.c ****   {
 2935              		.loc 1 1333 27 is_stmt 0 discriminator 2 view .LVU677
 2936 00a8 0AF1010A 		add	r10, r10, #1
 2937              	.LVL229:
 2938              	.L177:
1333:Src/stm32f429i_discovery_lcd.c ****   {
 2939              		.loc 1 1333 14 is_stmt 1 discriminator 1 view .LVU678
1333:Src/stm32f429i_discovery_lcd.c ****   {
 2940              		.loc 1 1333 3 is_stmt 0 discriminator 1 view .LVU679
 2941 00ac 019B     		ldr	r3, [sp, #4]
 2942 00ae 5345     		cmp	r3, r10
 2943 00b0 12D9     		bls	.L190
1335:Src/stm32f429i_discovery_lcd.c **** 
 2944              		.loc 1 1335 5 is_stmt 1 view .LVU680
1335:Src/stm32f429i_discovery_lcd.c **** 
 2945              		.loc 1 1335 43 is_stmt 0 view .LVU681
 2946 00b2 0AFB0BF3 		mul	r3, r10, fp
1335:Src/stm32f429i_discovery_lcd.c **** 
 2947              		.loc 1 1335 11 view .LVU682
 2948 00b6 009A     		ldr	r2, [sp]
 2949 00b8 1A44     		add	r2, r2, r3
 2950              	.LVL230:
1337:Src/stm32f429i_discovery_lcd.c ****     {
 2951              		.loc 1 1337 5 is_stmt 1 view .LVU683
 2952 00ba BBF1010F 		cmp	fp, #1
 2953 00be C0D0     		beq	.L178
 2954 00c0 BBF1020F 		cmp	fp, #2
 2955 00c4 C1D0     		beq	.L179
1349:Src/stm32f429i_discovery_lcd.c ****       break;
 2956              		.loc 1 1349 7 view .LVU684
1349:Src/stm32f429i_discovery_lcd.c ****       break;
 2957              		.loc 1 1349 21 is_stmt 0 view .LVU685
 2958 00c6 0099     		ldr	r1, [sp]
 2959 00c8 CB5C     		ldrb	r3, [r1, r3]	@ zero_extendqisi2
1349:Src/stm32f429i_discovery_lcd.c ****       break;
ARM GAS  /tmp/ccky5mPs.s 			page 88


 2960              		.loc 1 1349 39 view .LVU686
 2961 00ca 5778     		ldrb	r7, [r2, #1]	@ zero_extendqisi2
1349:Src/stm32f429i_discovery_lcd.c ****       break;
 2962              		.loc 1 1349 42 view .LVU687
 2963 00cc 3F02     		lsls	r7, r7, #8
1349:Src/stm32f429i_discovery_lcd.c ****       break;
 2964              		.loc 1 1349 31 view .LVU688
 2965 00ce 47EA0347 		orr	r7, r7, r3, lsl #16
1349:Src/stm32f429i_discovery_lcd.c ****       break;
 2966              		.loc 1 1349 55 view .LVU689
 2967 00d2 9378     		ldrb	r3, [r2, #2]	@ zero_extendqisi2
1349:Src/stm32f429i_discovery_lcd.c ****       break;
 2968              		.loc 1 1349 48 view .LVU690
 2969 00d4 1F43     		orrs	r7, r7, r3
 2970              	.LVL231:
1350:Src/stm32f429i_discovery_lcd.c ****     }
 2971              		.loc 1 1350 7 is_stmt 1 view .LVU691
 2972 00d6 B6E7     		b	.L181
 2973              	.LVL232:
 2974              	.L190:
1366:Src/stm32f429i_discovery_lcd.c **** 
 2975              		.loc 1 1366 1 is_stmt 0 view .LVU692
 2976 00d8 03B0     		add	sp, sp, #12
 2977              	.LCFI54:
 2978              		.cfi_def_cfa_offset 36
 2979              	.LVL233:
1366:Src/stm32f429i_discovery_lcd.c **** 
 2980              		.loc 1 1366 1 view .LVU693
 2981              		@ sp needed
 2982 00da BDE8F08F 		pop	{r4, r5, r6, r7, r8, r9, r10, fp, pc}
 2983              	.LVL234:
 2984              	.L192:
1366:Src/stm32f429i_discovery_lcd.c **** 
 2985              		.loc 1 1366 1 view .LVU694
 2986 00de 00BF     		.align	2
 2987              	.L191:
 2988 00e0 00000000 		.word	.LANCHOR5
 2989 00e4 00000000 		.word	.LANCHOR3
 2990              		.cfi_endproc
 2991              	.LFE177:
 2993              		.section	.text.BSP_LCD_DisplayChar,"ax",%progbits
 2994              		.align	1
 2995              		.global	BSP_LCD_DisplayChar
 2996              		.syntax unified
 2997              		.thumb
 2998              		.thumb_func
 3000              	BSP_LCD_DisplayChar:
 3001              	.LVL235:
 3002              	.LFB157:
 596:Src/stm32f429i_discovery_lcd.c ****   DrawChar(Xpos, Ypos, &DrawProp[ActiveLayer].pFont->table[(Ascii-' ') *\
 3003              		.loc 1 596 1 is_stmt 1 view -0
 3004              		.cfi_startproc
 3005              		@ args = 0, pretend = 0, frame = 0
 3006              		@ frame_needed = 0, uses_anonymous_args = 0
 596:Src/stm32f429i_discovery_lcd.c ****   DrawChar(Xpos, Ypos, &DrawProp[ActiveLayer].pFont->table[(Ascii-' ') *\
 3007              		.loc 1 596 1 is_stmt 0 view .LVU696
 3008 0000 38B5     		push	{r3, r4, r5, lr}
ARM GAS  /tmp/ccky5mPs.s 			page 89


 3009              	.LCFI55:
 3010              		.cfi_def_cfa_offset 16
 3011              		.cfi_offset 3, -16
 3012              		.cfi_offset 4, -12
 3013              		.cfi_offset 5, -8
 3014              		.cfi_offset 14, -4
 597:Src/stm32f429i_discovery_lcd.c ****               DrawProp[ActiveLayer].pFont->Height * ((DrawProp[ActiveLayer].pFont->Width + 7) / 8)]
 3015              		.loc 1 597 3 is_stmt 1 view .LVU697
 597:Src/stm32f429i_discovery_lcd.c ****               DrawProp[ActiveLayer].pFont->Height * ((DrawProp[ActiveLayer].pFont->Width + 7) / 8)]
 3016              		.loc 1 597 46 is_stmt 0 view .LVU698
 3017 0002 0B4B     		ldr	r3, .L196
 3018 0004 1B68     		ldr	r3, [r3]
 3019 0006 03EB4303 		add	r3, r3, r3, lsl #1
 3020 000a 0A4C     		ldr	r4, .L196+4
 3021 000c 04EB8303 		add	r3, r4, r3, lsl #2
 3022 0010 9C68     		ldr	r4, [r3, #8]
 597:Src/stm32f429i_discovery_lcd.c ****               DrawProp[ActiveLayer].pFont->Height * ((DrawProp[ActiveLayer].pFont->Width + 7) / 8)]
 3023              		.loc 1 597 52 view .LVU699
 3024 0012 2568     		ldr	r5, [r4]
 597:Src/stm32f429i_discovery_lcd.c ****               DrawProp[ActiveLayer].pFont->Height * ((DrawProp[ActiveLayer].pFont->Width + 7) / 8)]
 3025              		.loc 1 597 66 view .LVU700
 3026 0014 A2F12003 		sub	r3, r2, #32
 598:Src/stm32f429i_discovery_lcd.c **** }
 3027              		.loc 1 598 42 view .LVU701
 3028 0018 E288     		ldrh	r2, [r4, #6]
 3029              	.LVL236:
 597:Src/stm32f429i_discovery_lcd.c ****               DrawProp[ActiveLayer].pFont->Height * ((DrawProp[ActiveLayer].pFont->Width + 7) / 8)]
 3030              		.loc 1 597 72 view .LVU702
 3031 001a 02FB03F3 		mul	r3, r2, r3
 598:Src/stm32f429i_discovery_lcd.c **** }
 3032              		.loc 1 598 82 view .LVU703
 3033 001e A288     		ldrh	r2, [r4, #4]
 598:Src/stm32f429i_discovery_lcd.c **** }
 3034              		.loc 1 598 95 view .LVU704
 3035 0020 0732     		adds	r2, r2, #7
 3036 0022 D210     		asrs	r2, r2, #3
 597:Src/stm32f429i_discovery_lcd.c ****               DrawProp[ActiveLayer].pFont->Height * ((DrawProp[ActiveLayer].pFont->Width + 7) / 8)]
 3037              		.loc 1 597 3 view .LVU705
 3038 0024 02FB0352 		mla	r2, r2, r3, r5
 3039 0028 FFF7FEFF 		bl	DrawChar
 3040              	.LVL237:
 599:Src/stm32f429i_discovery_lcd.c **** 
 3041              		.loc 1 599 1 view .LVU706
 3042 002c 38BD     		pop	{r3, r4, r5, pc}
 3043              	.L197:
 3044 002e 00BF     		.align	2
 3045              	.L196:
 3046 0030 00000000 		.word	.LANCHOR5
 3047 0034 00000000 		.word	.LANCHOR3
 3048              		.cfi_endproc
 3049              	.LFE157:
 3051              		.section	.text.BSP_LCD_DisplayStringAt,"ax",%progbits
 3052              		.align	1
 3053              		.global	BSP_LCD_DisplayStringAt
 3054              		.syntax unified
 3055              		.thumb
 3056              		.thumb_func
ARM GAS  /tmp/ccky5mPs.s 			page 90


 3058              	BSP_LCD_DisplayStringAt:
 3059              	.LVL238:
 3060              	.LFB158:
 613:Src/stm32f429i_discovery_lcd.c ****   uint16_t refcolumn = 1, i = 0;
 3061              		.loc 1 613 1 is_stmt 1 view -0
 3062              		.cfi_startproc
 3063              		@ args = 0, pretend = 0, frame = 0
 3064              		@ frame_needed = 0, uses_anonymous_args = 0
 613:Src/stm32f429i_discovery_lcd.c ****   uint16_t refcolumn = 1, i = 0;
 3065              		.loc 1 613 1 is_stmt 0 view .LVU708
 3066 0000 2DE9F041 		push	{r4, r5, r6, r7, r8, lr}
 3067              	.LCFI56:
 3068              		.cfi_def_cfa_offset 24
 3069              		.cfi_offset 4, -24
 3070              		.cfi_offset 5, -20
 3071              		.cfi_offset 6, -16
 3072              		.cfi_offset 7, -12
 3073              		.cfi_offset 8, -8
 3074              		.cfi_offset 14, -4
 3075 0004 0546     		mov	r5, r0
 3076 0006 0E46     		mov	r6, r1
 3077 0008 1446     		mov	r4, r2
 3078 000a 9846     		mov	r8, r3
 614:Src/stm32f429i_discovery_lcd.c ****   uint32_t size = 0, xsize = 0; 
 3079              		.loc 1 614 3 is_stmt 1 view .LVU709
 3080              	.LVL239:
 615:Src/stm32f429i_discovery_lcd.c ****   uint8_t  *ptr = pText;
 3081              		.loc 1 615 3 view .LVU710
 616:Src/stm32f429i_discovery_lcd.c ****   
 3082              		.loc 1 616 3 view .LVU711
 619:Src/stm32f429i_discovery_lcd.c ****   
 3083              		.loc 1 619 3 view .LVU712
 616:Src/stm32f429i_discovery_lcd.c ****   
 3084              		.loc 1 616 13 is_stmt 0 view .LVU713
 3085 000c 9446     		mov	ip, r2
 615:Src/stm32f429i_discovery_lcd.c ****   uint8_t  *ptr = pText;
 3086              		.loc 1 615 12 view .LVU714
 3087 000e 0027     		movs	r7, #0
 619:Src/stm32f429i_discovery_lcd.c ****   
 3088              		.loc 1 619 9 view .LVU715
 3089 0010 00E0     		b	.L199
 3090              	.LVL240:
 3091              	.L200:
 619:Src/stm32f429i_discovery_lcd.c ****   
 3092              		.loc 1 619 18 is_stmt 1 discriminator 2 view .LVU716
 619:Src/stm32f429i_discovery_lcd.c ****   
 3093              		.loc 1 619 23 is_stmt 0 discriminator 2 view .LVU717
 3094 0012 0137     		adds	r7, r7, #1
 3095              	.LVL241:
 3096              	.L199:
 619:Src/stm32f429i_discovery_lcd.c ****   
 3097              		.loc 1 619 9 is_stmt 1 discriminator 1 view .LVU718
 619:Src/stm32f429i_discovery_lcd.c ****   
 3098              		.loc 1 619 10 is_stmt 0 discriminator 1 view .LVU719
 3099 0014 1CF8012B 		ldrb	r2, [ip], #1	@ zero_extendqisi2
 3100              	.LVL242:
 619:Src/stm32f429i_discovery_lcd.c ****   
ARM GAS  /tmp/ccky5mPs.s 			page 91


 3101              		.loc 1 619 9 discriminator 1 view .LVU720
 3102 0018 002A     		cmp	r2, #0
 3103 001a FAD1     		bne	.L200
 622:Src/stm32f429i_discovery_lcd.c ****   
 3104              		.loc 1 622 3 is_stmt 1 view .LVU721
 622:Src/stm32f429i_discovery_lcd.c ****   
 3105              		.loc 1 622 12 is_stmt 0 view .LVU722
 3106 001c FFF7FEFF 		bl	BSP_LCD_GetXSize
 3107              	.LVL243:
 622:Src/stm32f429i_discovery_lcd.c ****   
 3108              		.loc 1 622 52 view .LVU723
 3109 0020 274B     		ldr	r3, .L207
 3110 0022 1B68     		ldr	r3, [r3]
 3111 0024 03EB4303 		add	r3, r3, r3, lsl #1
 3112 0028 264A     		ldr	r2, .L207+4
 3113 002a 02EB8303 		add	r3, r2, r3, lsl #2
 3114 002e 9B68     		ldr	r3, [r3, #8]
 622:Src/stm32f429i_discovery_lcd.c ****   
 3115              		.loc 1 622 58 view .LVU724
 3116 0030 9B88     		ldrh	r3, [r3, #4]
 622:Src/stm32f429i_discovery_lcd.c ****   
 3117              		.loc 1 622 9 view .LVU725
 3118 0032 B0FBF3F0 		udiv	r0, r0, r3
 3119              	.LVL244:
 624:Src/stm32f429i_discovery_lcd.c ****   {
 3120              		.loc 1 624 3 is_stmt 1 view .LVU726
 3121 0036 B8F1010F 		cmp	r8, #1
 3122 003a 04D0     		beq	.L201
 3123 003c B8F1020F 		cmp	r8, #2
 3124 0040 09D0     		beq	.L202
 3125              	.LVL245:
 3126              	.L203:
 619:Src/stm32f429i_discovery_lcd.c ****   
 3127              		.loc 1 619 14 is_stmt 0 discriminator 1 view .LVU727
 3128 0042 0027     		movs	r7, #0
 3129              	.LVL246:
 619:Src/stm32f429i_discovery_lcd.c ****   
 3130              		.loc 1 619 14 discriminator 1 view .LVU728
 3131 0044 21E0     		b	.L204
 3132              	.LVL247:
 3133              	.L201:
 628:Src/stm32f429i_discovery_lcd.c ****       break;
 3134              		.loc 1 628 7 is_stmt 1 view .LVU729
 628:Src/stm32f429i_discovery_lcd.c ****       break;
 3135              		.loc 1 628 30 is_stmt 0 view .LVU730
 3136 0046 C01B     		subs	r0, r0, r7
 3137              	.LVL248:
 628:Src/stm32f429i_discovery_lcd.c ****       break;
 3138              		.loc 1 628 37 view .LVU731
 3139 0048 03FB00F0 		mul	r0, r3, r0
 628:Src/stm32f429i_discovery_lcd.c ****       break;
 3140              		.loc 1 628 20 view .LVU732
 3141 004c C0F34F00 		ubfx	r0, r0, #1, #16
 628:Src/stm32f429i_discovery_lcd.c ****       break;
 3142              		.loc 1 628 17 view .LVU733
 3143 0050 0544     		add	r5, r5, r0
 3144 0052 ADB2     		uxth	r5, r5
ARM GAS  /tmp/ccky5mPs.s 			page 92


 3145              	.LVL249:
 629:Src/stm32f429i_discovery_lcd.c ****     }
 3146              		.loc 1 629 7 is_stmt 1 view .LVU734
 3147 0054 F5E7     		b	.L203
 3148              	.LVL250:
 3149              	.L202:
 638:Src/stm32f429i_discovery_lcd.c ****       break;
 3150              		.loc 1 638 7 view .LVU735
 638:Src/stm32f429i_discovery_lcd.c ****       break;
 3151              		.loc 1 638 31 is_stmt 0 view .LVU736
 3152 0056 C01B     		subs	r0, r0, r7
 3153              	.LVL251:
 638:Src/stm32f429i_discovery_lcd.c ****       break;
 3154              		.loc 1 638 21 view .LVU737
 3155 0058 10FB03F0 		smulbb	r0, r0, r3
 638:Src/stm32f429i_discovery_lcd.c ****       break;
 3156              		.loc 1 638 17 view .LVU738
 3157 005c 15FA80F5 		uxtah	r5, r5, r0
 3158 0060 ADB2     		uxth	r5, r5
 3159              	.LVL252:
 639:Src/stm32f429i_discovery_lcd.c ****     }
 3160              		.loc 1 639 7 is_stmt 1 view .LVU739
 3161 0062 EEE7     		b	.L203
 3162              	.LVL253:
 3163              	.L205:
 652:Src/stm32f429i_discovery_lcd.c ****     /* Decrement the column position by 16 */
 3164              		.loc 1 652 5 view .LVU740
 3165 0064 14F8012B 		ldrb	r2, [r4], #1	@ zero_extendqisi2
 3166              	.LVL254:
 652:Src/stm32f429i_discovery_lcd.c ****     /* Decrement the column position by 16 */
 3167              		.loc 1 652 5 is_stmt 0 view .LVU741
 3168 0068 3146     		mov	r1, r6
 3169 006a 2846     		mov	r0, r5
 3170 006c FFF7FEFF 		bl	BSP_LCD_DisplayChar
 3171              	.LVL255:
 654:Src/stm32f429i_discovery_lcd.c ****     /* Point on the next character */
 3172              		.loc 1 654 5 is_stmt 1 view .LVU742
 654:Src/stm32f429i_discovery_lcd.c ****     /* Point on the next character */
 3173              		.loc 1 654 39 is_stmt 0 view .LVU743
 3174 0070 134B     		ldr	r3, .L207
 3175 0072 1B68     		ldr	r3, [r3]
 3176 0074 03EB4303 		add	r3, r3, r3, lsl #1
 3177 0078 124A     		ldr	r2, .L207+4
 3178 007a 02EB8303 		add	r3, r2, r3, lsl #2
 3179 007e 9B68     		ldr	r3, [r3, #8]
 654:Src/stm32f429i_discovery_lcd.c ****     /* Point on the next character */
 3180              		.loc 1 654 45 view .LVU744
 3181 0080 9888     		ldrh	r0, [r3, #4]
 654:Src/stm32f429i_discovery_lcd.c ****     /* Point on the next character */
 3182              		.loc 1 654 15 view .LVU745
 3183 0082 0544     		add	r5, r5, r0
 3184              	.LVL256:
 654:Src/stm32f429i_discovery_lcd.c ****     /* Point on the next character */
 3185              		.loc 1 654 15 view .LVU746
 3186 0084 ADB2     		uxth	r5, r5
 3187              	.LVL257:
 656:Src/stm32f429i_discovery_lcd.c ****     i++;
ARM GAS  /tmp/ccky5mPs.s 			page 93


 3188              		.loc 1 656 5 is_stmt 1 view .LVU747
 657:Src/stm32f429i_discovery_lcd.c ****   }  
 3189              		.loc 1 657 5 view .LVU748
 657:Src/stm32f429i_discovery_lcd.c ****   }  
 3190              		.loc 1 657 6 is_stmt 0 view .LVU749
 3191 0086 0137     		adds	r7, r7, #1
 3192              	.LVL258:
 657:Src/stm32f429i_discovery_lcd.c ****   }  
 3193              		.loc 1 657 6 view .LVU750
 3194 0088 BFB2     		uxth	r7, r7
 3195              	.LVL259:
 3196              	.L204:
 649:Src/stm32f429i_discovery_lcd.c ****   {
 3197              		.loc 1 649 9 is_stmt 1 discriminator 1 view .LVU751
 649:Src/stm32f429i_discovery_lcd.c ****   {
 3198              		.loc 1 649 11 is_stmt 0 discriminator 1 view .LVU752
 3199 008a 94F80080 		ldrb	r8, [r4]	@ zero_extendqisi2
 649:Src/stm32f429i_discovery_lcd.c ****   {
 3200              		.loc 1 649 29 discriminator 1 view .LVU753
 3201 008e FFF7FEFF 		bl	BSP_LCD_GetXSize
 3202              	.LVL260:
 649:Src/stm32f429i_discovery_lcd.c ****   {
 3203              		.loc 1 649 74 discriminator 1 view .LVU754
 3204 0092 0B4B     		ldr	r3, .L207
 3205 0094 1B68     		ldr	r3, [r3]
 3206 0096 03EB4303 		add	r3, r3, r3, lsl #1
 3207 009a 0A4A     		ldr	r2, .L207+4
 3208 009c 02EB8303 		add	r3, r2, r3, lsl #2
 3209 00a0 9B68     		ldr	r3, [r3, #8]
 649:Src/stm32f429i_discovery_lcd.c ****   {
 3210              		.loc 1 649 80 discriminator 1 view .LVU755
 3211 00a2 9988     		ldrh	r1, [r3, #4]
 649:Src/stm32f429i_discovery_lcd.c ****   {
 3212              		.loc 1 649 48 discriminator 1 view .LVU756
 3213 00a4 01FB1703 		mls	r3, r1, r7, r0
 649:Src/stm32f429i_discovery_lcd.c ****   {
 3214              		.loc 1 649 90 discriminator 1 view .LVU757
 3215 00a8 9BB2     		uxth	r3, r3
 649:Src/stm32f429i_discovery_lcd.c ****   {
 3216              		.loc 1 649 24 discriminator 1 view .LVU758
 3217 00aa B8F10002 		subs	r2, r8, #0
 3218 00ae 18BF     		it	ne
 3219 00b0 0122     		movne	r2, #1
 3220 00b2 8B42     		cmp	r3, r1
 3221 00b4 38BF     		it	cc
 3222 00b6 0022     		movcc	r2, #0
 649:Src/stm32f429i_discovery_lcd.c ****   {
 3223              		.loc 1 649 9 discriminator 1 view .LVU759
 3224 00b8 002A     		cmp	r2, #0
 3225 00ba D3D1     		bne	.L205
 659:Src/stm32f429i_discovery_lcd.c **** 
 3226              		.loc 1 659 1 view .LVU760
 3227 00bc BDE8F081 		pop	{r4, r5, r6, r7, r8, pc}
 3228              	.LVL261:
 3229              	.L208:
 659:Src/stm32f429i_discovery_lcd.c **** 
 3230              		.loc 1 659 1 view .LVU761
ARM GAS  /tmp/ccky5mPs.s 			page 94


 3231              		.align	2
 3232              	.L207:
 3233 00c0 00000000 		.word	.LANCHOR5
 3234 00c4 00000000 		.word	.LANCHOR3
 3235              		.cfi_endproc
 3236              	.LFE158:
 3238              		.section	.text.BSP_LCD_DisplayStringAtLine,"ax",%progbits
 3239              		.align	1
 3240              		.global	BSP_LCD_DisplayStringAtLine
 3241              		.syntax unified
 3242              		.thumb
 3243              		.thumb_func
 3245              	BSP_LCD_DisplayStringAtLine:
 3246              	.LVL262:
 3247              	.LFB159:
 667:Src/stm32f429i_discovery_lcd.c ****   BSP_LCD_DisplayStringAt(0, LINE(Line), ptr, LEFT_MODE);
 3248              		.loc 1 667 1 is_stmt 1 view -0
 3249              		.cfi_startproc
 3250              		@ args = 0, pretend = 0, frame = 0
 3251              		@ frame_needed = 0, uses_anonymous_args = 0
 667:Src/stm32f429i_discovery_lcd.c ****   BSP_LCD_DisplayStringAt(0, LINE(Line), ptr, LEFT_MODE);
 3252              		.loc 1 667 1 is_stmt 0 view .LVU763
 3253 0000 38B5     		push	{r3, r4, r5, lr}
 3254              	.LCFI57:
 3255              		.cfi_def_cfa_offset 16
 3256              		.cfi_offset 3, -16
 3257              		.cfi_offset 4, -12
 3258              		.cfi_offset 5, -8
 3259              		.cfi_offset 14, -4
 3260 0002 0546     		mov	r5, r0
 3261 0004 0C46     		mov	r4, r1
 668:Src/stm32f429i_discovery_lcd.c **** }
 3262              		.loc 1 668 3 is_stmt 1 view .LVU764
 668:Src/stm32f429i_discovery_lcd.c **** }
 3263              		.loc 1 668 30 is_stmt 0 view .LVU765
 3264 0006 FFF7FEFF 		bl	BSP_LCD_GetFont
 3265              	.LVL263:
 668:Src/stm32f429i_discovery_lcd.c **** }
 3266              		.loc 1 668 30 view .LVU766
 3267 000a C388     		ldrh	r3, [r0, #6]
 668:Src/stm32f429i_discovery_lcd.c **** }
 3268              		.loc 1 668 3 view .LVU767
 3269 000c 13FB05F1 		smulbb	r1, r3, r5
 3270 0010 0323     		movs	r3, #3
 3271 0012 2246     		mov	r2, r4
 3272 0014 89B2     		uxth	r1, r1
 3273 0016 0020     		movs	r0, #0
 3274 0018 FFF7FEFF 		bl	BSP_LCD_DisplayStringAt
 3275              	.LVL264:
 669:Src/stm32f429i_discovery_lcd.c **** 
 3276              		.loc 1 669 1 view .LVU768
 3277 001c 38BD     		pop	{r3, r4, r5, pc}
 669:Src/stm32f429i_discovery_lcd.c **** 
 3278              		.loc 1 669 1 view .LVU769
 3279              		.cfi_endproc
 3280              	.LFE159:
 3282              		.section	.text.BSP_LCD_DrawLine,"ax",%progbits
ARM GAS  /tmp/ccky5mPs.s 			page 95


 3283              		.align	1
 3284              		.global	BSP_LCD_DrawLine
 3285              		.syntax unified
 3286              		.thumb
 3287              		.thumb_func
 3289              	BSP_LCD_DrawLine:
 3290              	.LVL265:
 3291              	.LFB162:
 713:Src/stm32f429i_discovery_lcd.c ****   int16_t deltax = 0, deltay = 0, x = 0, y = 0, xinc1 = 0, xinc2 = 0, 
 3292              		.loc 1 713 1 is_stmt 1 view -0
 3293              		.cfi_startproc
 3294              		@ args = 0, pretend = 0, frame = 16
 3295              		@ frame_needed = 0, uses_anonymous_args = 0
 713:Src/stm32f429i_discovery_lcd.c ****   int16_t deltax = 0, deltay = 0, x = 0, y = 0, xinc1 = 0, xinc2 = 0, 
 3296              		.loc 1 713 1 is_stmt 0 view .LVU771
 3297 0000 2DE9F04F 		push	{r4, r5, r6, r7, r8, r9, r10, fp, lr}
 3298              	.LCFI58:
 3299              		.cfi_def_cfa_offset 36
 3300              		.cfi_offset 4, -36
 3301              		.cfi_offset 5, -32
 3302              		.cfi_offset 6, -28
 3303              		.cfi_offset 7, -24
 3304              		.cfi_offset 8, -20
 3305              		.cfi_offset 9, -16
 3306              		.cfi_offset 10, -12
 3307              		.cfi_offset 11, -8
 3308              		.cfi_offset 14, -4
 3309 0004 85B0     		sub	sp, sp, #20
 3310              	.LCFI59:
 3311              		.cfi_def_cfa_offset 56
 714:Src/stm32f429i_discovery_lcd.c ****   yinc1 = 0, yinc2 = 0, den = 0, num = 0, numadd = 0, numpixels = 0, 
 3312              		.loc 1 714 3 is_stmt 1 view .LVU772
 3313              	.LVL266:
 718:Src/stm32f429i_discovery_lcd.c ****   deltay = ABS(Y2 - Y1);        /* The difference between the y's */
 3314              		.loc 1 718 3 view .LVU773
 718:Src/stm32f429i_discovery_lcd.c ****   deltay = ABS(Y2 - Y1);        /* The difference between the y's */
 3315              		.loc 1 718 12 is_stmt 0 view .LVU774
 3316 0006 A2EB000A 		sub	r10, r2, r0
 3317 000a BAF1000F 		cmp	r10, #0
 3318 000e B8BF     		it	lt
 3319 0010 CAF1000A 		rsblt	r10, r10, #0
 718:Src/stm32f429i_discovery_lcd.c ****   deltay = ABS(Y2 - Y1);        /* The difference between the y's */
 3320              		.loc 1 718 10 view .LVU775
 3321 0014 0FFA8AFA 		sxth	r10, r10
 3322              	.LVL267:
 719:Src/stm32f429i_discovery_lcd.c ****   x = X1;                       /* Start x off at the first pixel */
 3323              		.loc 1 719 3 is_stmt 1 view .LVU776
 719:Src/stm32f429i_discovery_lcd.c ****   x = X1;                       /* Start x off at the first pixel */
 3324              		.loc 1 719 12 is_stmt 0 view .LVU777
 3325 0018 A3EB010B 		sub	fp, r3, r1
 3326 001c BBF1000F 		cmp	fp, #0
 3327 0020 B8BF     		it	lt
 3328 0022 CBF1000B 		rsblt	fp, fp, #0
 719:Src/stm32f429i_discovery_lcd.c ****   x = X1;                       /* Start x off at the first pixel */
 3329              		.loc 1 719 10 view .LVU778
 3330 0026 0FFA8BFB 		sxth	fp, fp
 3331              	.LVL268:
ARM GAS  /tmp/ccky5mPs.s 			page 96


 720:Src/stm32f429i_discovery_lcd.c ****   y = Y1;                       /* Start y off at the first pixel */
 3332              		.loc 1 720 3 is_stmt 1 view .LVU779
 720:Src/stm32f429i_discovery_lcd.c ****   y = Y1;                       /* Start y off at the first pixel */
 3333              		.loc 1 720 5 is_stmt 0 view .LVU780
 3334 002a 04B2     		sxth	r4, r0
 3335              	.LVL269:
 721:Src/stm32f429i_discovery_lcd.c ****   
 3336              		.loc 1 721 3 is_stmt 1 view .LVU781
 721:Src/stm32f429i_discovery_lcd.c ****   
 3337              		.loc 1 721 5 is_stmt 0 view .LVU782
 3338 002c 0EB2     		sxth	r6, r1
 3339              	.LVL270:
 723:Src/stm32f429i_discovery_lcd.c ****   {
 3340              		.loc 1 723 3 is_stmt 1 view .LVU783
 723:Src/stm32f429i_discovery_lcd.c ****   {
 3341              		.loc 1 723 6 is_stmt 0 view .LVU784
 3342 002e 8242     		cmp	r2, r0
 3343 0030 13D3     		bcc	.L219
 725:Src/stm32f429i_discovery_lcd.c ****     xinc2 = 1;
 3344              		.loc 1 725 11 view .LVU785
 3345 0032 0122     		movs	r2, #1
 3346              	.LVL271:
 725:Src/stm32f429i_discovery_lcd.c ****     xinc2 = 1;
 3347              		.loc 1 725 11 view .LVU786
 3348 0034 0292     		str	r2, [sp, #8]
 3349              	.L212:
 3350              	.LVL272:
 734:Src/stm32f429i_discovery_lcd.c ****   {
 3351              		.loc 1 734 3 is_stmt 1 view .LVU787
 734:Src/stm32f429i_discovery_lcd.c ****   {
 3352              		.loc 1 734 6 is_stmt 0 view .LVU788
 3353 0036 8B42     		cmp	r3, r1
 3354 0038 13D3     		bcc	.L220
 736:Src/stm32f429i_discovery_lcd.c ****     yinc2 = 1;
 3355              		.loc 1 736 11 view .LVU789
 3356 003a 0123     		movs	r3, #1
 3357              	.LVL273:
 736:Src/stm32f429i_discovery_lcd.c ****     yinc2 = 1;
 3358              		.loc 1 736 11 view .LVU790
 3359 003c 0393     		str	r3, [sp, #12]
 3360              	.L213:
 3361              	.LVL274:
 745:Src/stm32f429i_discovery_lcd.c ****   {
 3362              		.loc 1 745 3 is_stmt 1 view .LVU791
 745:Src/stm32f429i_discovery_lcd.c ****   {
 3363              		.loc 1 745 6 is_stmt 0 view .LVU792
 3364 003e DA45     		cmp	r10, fp
 3365 0040 13DB     		blt	.L214
 747:Src/stm32f429i_discovery_lcd.c ****     yinc2 = 0;                  /* Don't change the y for every iteration */
 3366              		.loc 1 747 5 is_stmt 1 view .LVU793
 3367              	.LVL275:
 748:Src/stm32f429i_discovery_lcd.c ****     den = deltax;
 3368              		.loc 1 748 5 view .LVU794
 749:Src/stm32f429i_discovery_lcd.c ****     num = deltax / 2;
 3369              		.loc 1 749 5 view .LVU795
 750:Src/stm32f429i_discovery_lcd.c ****     numadd = deltay;
 3370              		.loc 1 750 5 view .LVU796
ARM GAS  /tmp/ccky5mPs.s 			page 97


 750:Src/stm32f429i_discovery_lcd.c ****     numadd = deltay;
 3371              		.loc 1 750 9 is_stmt 0 view .LVU797
 3372 0042 0AEBDA78 		add	r8, r10, r10, lsr #31
 3373 0046 48F34F08 		sbfx	r8, r8, #1, #16
 3374              	.LVL276:
 751:Src/stm32f429i_discovery_lcd.c ****     numpixels = deltax;         /* There are more x-values than y-values */
 3375              		.loc 1 751 5 is_stmt 1 view .LVU798
 752:Src/stm32f429i_discovery_lcd.c ****   }
 3376              		.loc 1 752 5 view .LVU799
 752:Src/stm32f429i_discovery_lcd.c ****   }
 3377              		.loc 1 752 5 is_stmt 0 view .LVU800
 3378 004a 029B     		ldr	r3, [sp, #8]
 3379 004c 0093     		str	r3, [sp]
 748:Src/stm32f429i_discovery_lcd.c ****     den = deltax;
 3380              		.loc 1 748 11 view .LVU801
 3381 004e 0023     		movs	r3, #0
 3382 0050 0293     		str	r3, [sp, #8]
 3383              	.LVL277:
 747:Src/stm32f429i_discovery_lcd.c ****     yinc2 = 0;                  /* Don't change the y for every iteration */
 3384              		.loc 1 747 11 view .LVU802
 3385 0052 0193     		str	r3, [sp, #4]
 3386              	.LVL278:
 3387              	.L215:
 764:Src/stm32f429i_discovery_lcd.c ****   {
 3388              		.loc 1 764 3 is_stmt 1 view .LVU803
 764:Src/stm32f429i_discovery_lcd.c ****   {
 3389              		.loc 1 764 17 is_stmt 0 view .LVU804
 3390 0054 4FF00009 		mov	r9, #0
 764:Src/stm32f429i_discovery_lcd.c ****   {
 3391              		.loc 1 764 3 view .LVU805
 3392 0058 1EE0     		b	.L216
 3393              	.LVL279:
 3394              	.L219:
 730:Src/stm32f429i_discovery_lcd.c ****     xinc2 = -1;
 3395              		.loc 1 730 11 view .LVU806
 3396 005a 4FF0FF32 		mov	r2, #-1
 3397              	.LVL280:
 730:Src/stm32f429i_discovery_lcd.c ****     xinc2 = -1;
 3398              		.loc 1 730 11 view .LVU807
 3399 005e 0292     		str	r2, [sp, #8]
 3400 0060 E9E7     		b	.L212
 3401              	.LVL281:
 3402              	.L220:
 741:Src/stm32f429i_discovery_lcd.c ****     yinc2 = -1;
 3403              		.loc 1 741 11 view .LVU808
 3404 0062 4FF0FF33 		mov	r3, #-1
 3405              	.LVL282:
 741:Src/stm32f429i_discovery_lcd.c ****     yinc2 = -1;
 3406              		.loc 1 741 11 view .LVU809
 3407 0066 0393     		str	r3, [sp, #12]
 3408 0068 E9E7     		b	.L213
 3409              	.LVL283:
 3410              	.L214:
 756:Src/stm32f429i_discovery_lcd.c ****     yinc1 = 0;                  /* Don't change the y when numerator >= denominator */
 3411              		.loc 1 756 5 is_stmt 1 view .LVU810
 757:Src/stm32f429i_discovery_lcd.c ****     den = deltay;
 3412              		.loc 1 757 5 view .LVU811
ARM GAS  /tmp/ccky5mPs.s 			page 98


 758:Src/stm32f429i_discovery_lcd.c ****     num = deltay / 2;
 3413              		.loc 1 758 5 view .LVU812
 759:Src/stm32f429i_discovery_lcd.c ****     numadd = deltax;
 3414              		.loc 1 759 5 view .LVU813
 759:Src/stm32f429i_discovery_lcd.c ****     numadd = deltax;
 3415              		.loc 1 759 9 is_stmt 0 view .LVU814
 3416 006a 0BEBDB78 		add	r8, fp, fp, lsr #31
 3417 006e 48F34F08 		sbfx	r8, r8, #1, #16
 3418              	.LVL284:
 760:Src/stm32f429i_discovery_lcd.c ****     numpixels = deltay;         /* There are more y-values than x-values */
 3419              		.loc 1 760 5 is_stmt 1 view .LVU815
 761:Src/stm32f429i_discovery_lcd.c ****   }
 3420              		.loc 1 761 5 view .LVU816
 759:Src/stm32f429i_discovery_lcd.c ****     numadd = deltax;
 3421              		.loc 1 759 9 is_stmt 0 view .LVU817
 3422 0072 5346     		mov	r3, r10
 758:Src/stm32f429i_discovery_lcd.c ****     num = deltay / 2;
 3423              		.loc 1 758 9 view .LVU818
 3424 0074 DA46     		mov	r10, fp
 3425              	.LVL285:
 760:Src/stm32f429i_discovery_lcd.c ****     numpixels = deltay;         /* There are more y-values than x-values */
 3426              		.loc 1 760 12 view .LVU819
 3427 0076 9B46     		mov	fp, r3
 3428              	.LVL286:
 759:Src/stm32f429i_discovery_lcd.c ****     numadd = deltax;
 3429              		.loc 1 759 9 view .LVU820
 3430 0078 039B     		ldr	r3, [sp, #12]
 3431              	.LVL287:
 759:Src/stm32f429i_discovery_lcd.c ****     numadd = deltax;
 3432              		.loc 1 759 9 view .LVU821
 3433 007a 0193     		str	r3, [sp, #4]
 757:Src/stm32f429i_discovery_lcd.c ****     den = deltay;
 3434              		.loc 1 757 11 view .LVU822
 3435 007c 0023     		movs	r3, #0
 3436 007e 0393     		str	r3, [sp, #12]
 3437              	.LVL288:
 756:Src/stm32f429i_discovery_lcd.c ****     yinc1 = 0;                  /* Don't change the y when numerator >= denominator */
 3438              		.loc 1 756 11 view .LVU823
 3439 0080 0093     		str	r3, [sp]
 3440 0082 E7E7     		b	.L215
 3441              	.LVL289:
 3442              	.L217:
 774:Src/stm32f429i_discovery_lcd.c ****     y += yinc2;                               /* Change the y as appropriate */
 3443              		.loc 1 774 5 is_stmt 1 discriminator 2 view .LVU824
 774:Src/stm32f429i_discovery_lcd.c ****     y += yinc2;                               /* Change the y as appropriate */
 3444              		.loc 1 774 7 is_stmt 0 discriminator 2 view .LVU825
 3445 0084 009B     		ldr	r3, [sp]
 3446 0086 1C44     		add	r4, r4, r3
 3447              	.LVL290:
 774:Src/stm32f429i_discovery_lcd.c ****     y += yinc2;                               /* Change the y as appropriate */
 3448              		.loc 1 774 7 discriminator 2 view .LVU826
 3449 0088 24B2     		sxth	r4, r4
 3450              	.LVL291:
 775:Src/stm32f429i_discovery_lcd.c ****   }
 3451              		.loc 1 775 5 is_stmt 1 discriminator 2 view .LVU827
 775:Src/stm32f429i_discovery_lcd.c ****   }
 3452              		.loc 1 775 7 is_stmt 0 discriminator 2 view .LVU828
ARM GAS  /tmp/ccky5mPs.s 			page 99


 3453 008a 019B     		ldr	r3, [sp, #4]
 3454 008c 1E44     		add	r6, r6, r3
 3455              	.LVL292:
 775:Src/stm32f429i_discovery_lcd.c ****   }
 3456              		.loc 1 775 7 discriminator 2 view .LVU829
 3457 008e 36B2     		sxth	r6, r6
 3458              	.LVL293:
 764:Src/stm32f429i_discovery_lcd.c ****   {
 3459              		.loc 1 764 45 is_stmt 1 discriminator 2 view .LVU830
 764:Src/stm32f429i_discovery_lcd.c ****   {
 3460              		.loc 1 764 53 is_stmt 0 discriminator 2 view .LVU831
 3461 0090 09F10109 		add	r9, r9, #1
 3462              	.LVL294:
 764:Src/stm32f429i_discovery_lcd.c ****   {
 3463              		.loc 1 764 53 discriminator 2 view .LVU832
 3464 0094 0FFA89F9 		sxth	r9, r9
 3465              	.LVL295:
 3466              	.L216:
 764:Src/stm32f429i_discovery_lcd.c ****   {
 3467              		.loc 1 764 22 is_stmt 1 discriminator 1 view .LVU833
 764:Src/stm32f429i_discovery_lcd.c ****   {
 3468              		.loc 1 764 3 is_stmt 0 discriminator 1 view .LVU834
 3469 0098 CA45     		cmp	r10, r9
 3470 009a 1EDB     		blt	.L222
 766:Src/stm32f429i_discovery_lcd.c ****     num += numadd;                            /* Increase the numerator by the top of the fraction 
 3471              		.loc 1 766 5 is_stmt 1 view .LVU835
 3472 009c A7B2     		uxth	r7, r4
 3473 009e B5B2     		uxth	r5, r6
 3474 00a0 0F4B     		ldr	r3, .L223
 3475 00a2 1B68     		ldr	r3, [r3]
 3476 00a4 03EB4303 		add	r3, r3, r3, lsl #1
 3477 00a8 0E4A     		ldr	r2, .L223+4
 3478 00aa 52F82320 		ldr	r2, [r2, r3, lsl #2]
 3479 00ae 2946     		mov	r1, r5
 3480 00b0 3846     		mov	r0, r7
 3481 00b2 FFF7FEFF 		bl	BSP_LCD_DrawPixel
 3482              	.LVL296:
 767:Src/stm32f429i_discovery_lcd.c ****     if (num >= den)                           /* Check if numerator >= denominator */
 3483              		.loc 1 767 5 view .LVU836
 767:Src/stm32f429i_discovery_lcd.c ****     if (num >= den)                           /* Check if numerator >= denominator */
 3484              		.loc 1 767 9 is_stmt 0 view .LVU837
 3485 00b6 D844     		add	r8, r8, fp
 3486              	.LVL297:
 767:Src/stm32f429i_discovery_lcd.c ****     if (num >= den)                           /* Check if numerator >= denominator */
 3487              		.loc 1 767 9 view .LVU838
 3488 00b8 1FFA88F3 		uxth	r3, r8
 3489 00bc 0FFA88F8 		sxth	r8, r8
 3490              	.LVL298:
 768:Src/stm32f429i_discovery_lcd.c ****     {
 3491              		.loc 1 768 5 is_stmt 1 view .LVU839
 768:Src/stm32f429i_discovery_lcd.c ****     {
 3492              		.loc 1 768 8 is_stmt 0 view .LVU840
 3493 00c0 C245     		cmp	r10, r8
 3494 00c2 DFDC     		bgt	.L217
 770:Src/stm32f429i_discovery_lcd.c ****       x += xinc1;                             /* Change the x as appropriate */
 3495              		.loc 1 770 7 is_stmt 1 view .LVU841
 770:Src/stm32f429i_discovery_lcd.c ****       x += xinc1;                             /* Change the x as appropriate */
ARM GAS  /tmp/ccky5mPs.s 			page 100


 3496              		.loc 1 770 11 is_stmt 0 view .LVU842
 3497 00c4 A3EB0A03 		sub	r3, r3, r10
 3498 00c8 0FFA83F8 		sxth	r8, r3
 3499              	.LVL299:
 771:Src/stm32f429i_discovery_lcd.c ****       y += yinc1;                             /* Change the y as appropriate */
 3500              		.loc 1 771 7 is_stmt 1 view .LVU843
 771:Src/stm32f429i_discovery_lcd.c ****       y += yinc1;                             /* Change the y as appropriate */
 3501              		.loc 1 771 9 is_stmt 0 view .LVU844
 3502 00cc 029B     		ldr	r3, [sp, #8]
 3503 00ce FC18     		adds	r4, r7, r3
 3504              	.LVL300:
 771:Src/stm32f429i_discovery_lcd.c ****       y += yinc1;                             /* Change the y as appropriate */
 3505              		.loc 1 771 9 view .LVU845
 3506 00d0 24B2     		sxth	r4, r4
 3507              	.LVL301:
 772:Src/stm32f429i_discovery_lcd.c ****     }
 3508              		.loc 1 772 7 is_stmt 1 view .LVU846
 772:Src/stm32f429i_discovery_lcd.c ****     }
 3509              		.loc 1 772 9 is_stmt 0 view .LVU847
 3510 00d2 039B     		ldr	r3, [sp, #12]
 3511 00d4 1D44     		add	r5, r5, r3
 3512 00d6 2EB2     		sxth	r6, r5
 3513              	.LVL302:
 772:Src/stm32f429i_discovery_lcd.c ****     }
 3514              		.loc 1 772 9 view .LVU848
 3515 00d8 D4E7     		b	.L217
 3516              	.L222:
 777:Src/stm32f429i_discovery_lcd.c **** 
 3517              		.loc 1 777 1 view .LVU849
 3518 00da 05B0     		add	sp, sp, #20
 3519              	.LCFI60:
 3520              		.cfi_def_cfa_offset 36
 3521              	.LVL303:
 777:Src/stm32f429i_discovery_lcd.c **** 
 3522              		.loc 1 777 1 view .LVU850
 3523              		@ sp needed
 3524 00dc BDE8F08F 		pop	{r4, r5, r6, r7, r8, r9, r10, fp, pc}
 3525              	.LVL304:
 3526              	.L224:
 777:Src/stm32f429i_discovery_lcd.c **** 
 3527              		.loc 1 777 1 view .LVU851
 3528              		.align	2
 3529              	.L223:
 3530 00e0 00000000 		.word	.LANCHOR5
 3531 00e4 00000000 		.word	.LANCHOR3
 3532              		.cfi_endproc
 3533              	.LFE162:
 3535              		.section	.text.BSP_LCD_DrawPolygon,"ax",%progbits
 3536              		.align	1
 3537              		.global	BSP_LCD_DrawPolygon
 3538              		.syntax unified
 3539              		.thumb
 3540              		.thumb_func
 3542              	BSP_LCD_DrawPolygon:
 3543              	.LVL305:
 3544              	.LFB165:
 843:Src/stm32f429i_discovery_lcd.c ****   int16_t x = 0, y = 0;
ARM GAS  /tmp/ccky5mPs.s 			page 101


 3545              		.loc 1 843 1 is_stmt 1 view -0
 3546              		.cfi_startproc
 3547              		@ args = 0, pretend = 0, frame = 0
 3548              		@ frame_needed = 0, uses_anonymous_args = 0
 844:Src/stm32f429i_discovery_lcd.c **** 
 3549              		.loc 1 844 3 view .LVU853
 846:Src/stm32f429i_discovery_lcd.c ****   {
 3550              		.loc 1 846 3 view .LVU854
 846:Src/stm32f429i_discovery_lcd.c ****   {
 3551              		.loc 1 846 5 is_stmt 0 view .LVU855
 3552 0000 0129     		cmp	r1, #1
 3553 0002 29D9     		bls	.L230
 843:Src/stm32f429i_discovery_lcd.c ****   int16_t x = 0, y = 0;
 3554              		.loc 1 843 1 view .LVU856
 3555 0004 38B5     		push	{r3, r4, r5, lr}
 3556              	.LCFI61:
 3557              		.cfi_def_cfa_offset 16
 3558              		.cfi_offset 3, -16
 3559              		.cfi_offset 4, -12
 3560              		.cfi_offset 5, -8
 3561              		.cfi_offset 14, -4
 3562 0006 0546     		mov	r5, r0
 3563 0008 0C46     		mov	r4, r1
 851:Src/stm32f429i_discovery_lcd.c ****   
 3564              		.loc 1 851 3 is_stmt 1 view .LVU857
 851:Src/stm32f429i_discovery_lcd.c ****   
 3565              		.loc 1 851 26 is_stmt 0 view .LVU858
 3566 000a B0F90000 		ldrsh	r0, [r0]
 3567              	.LVL306:
 851:Src/stm32f429i_discovery_lcd.c ****   
 3568              		.loc 1 851 37 view .LVU859
 3569 000e B5F90210 		ldrsh	r1, [r5, #2]
 3570              	.LVL307:
 851:Src/stm32f429i_discovery_lcd.c ****   
 3571              		.loc 1 851 60 view .LVU860
 3572 0012 04F18043 		add	r3, r4, #1073741824
 3573 0016 013B     		subs	r3, r3, #1
 3574 0018 05EB830C 		add	ip, r5, r3, lsl #2
 851:Src/stm32f429i_discovery_lcd.c ****   
 3575              		.loc 1 851 63 view .LVU861
 3576 001c 35F92320 		ldrsh	r2, [r5, r3, lsl #2]
 851:Src/stm32f429i_discovery_lcd.c ****   
 3577              		.loc 1 851 89 view .LVU862
 3578 0020 BCF90230 		ldrsh	r3, [ip, #2]
 851:Src/stm32f429i_discovery_lcd.c ****   
 3579              		.loc 1 851 3 view .LVU863
 3580 0024 9BB2     		uxth	r3, r3
 3581 0026 92B2     		uxth	r2, r2
 3582 0028 89B2     		uxth	r1, r1
 3583 002a 80B2     		uxth	r0, r0
 3584 002c FFF7FEFF 		bl	BSP_LCD_DrawLine
 3585              	.LVL308:
 853:Src/stm32f429i_discovery_lcd.c ****   {
 3586              		.loc 1 853 3 is_stmt 1 view .LVU864
 853:Src/stm32f429i_discovery_lcd.c ****   {
 3587              		.loc 1 853 8 is_stmt 0 view .LVU865
 3588 0030 0DE0     		b	.L227
ARM GAS  /tmp/ccky5mPs.s 			page 102


 3589              	.LVL309:
 3590              	.L228:
 855:Src/stm32f429i_discovery_lcd.c ****     y = Points->Y;
 3591              		.loc 1 855 5 is_stmt 1 view .LVU866
 855:Src/stm32f429i_discovery_lcd.c ****     y = Points->Y;
 3592              		.loc 1 855 7 is_stmt 0 view .LVU867
 3593 0032 B5F90000 		ldrsh	r0, [r5]
 3594              	.LVL310:
 856:Src/stm32f429i_discovery_lcd.c ****     Points++;
 3595              		.loc 1 856 5 is_stmt 1 view .LVU868
 856:Src/stm32f429i_discovery_lcd.c ****     Points++;
 3596              		.loc 1 856 7 is_stmt 0 view .LVU869
 3597 0036 B5F90210 		ldrsh	r1, [r5, #2]
 3598              	.LVL311:
 857:Src/stm32f429i_discovery_lcd.c ****     BSP_LCD_DrawLine(x, y, Points->X, Points->Y);
 3599              		.loc 1 857 5 is_stmt 1 view .LVU870
 858:Src/stm32f429i_discovery_lcd.c ****   }
 3600              		.loc 1 858 5 view .LVU871
 858:Src/stm32f429i_discovery_lcd.c ****   }
 3601              		.loc 1 858 34 is_stmt 0 view .LVU872
 3602 003a 35F9042F 		ldrsh	r2, [r5, #4]!
 3603              	.LVL312:
 858:Src/stm32f429i_discovery_lcd.c ****   }
 3604              		.loc 1 858 45 view .LVU873
 3605 003e B5F90230 		ldrsh	r3, [r5, #2]
 858:Src/stm32f429i_discovery_lcd.c ****   }
 3606              		.loc 1 858 5 view .LVU874
 3607 0042 9BB2     		uxth	r3, r3
 3608 0044 92B2     		uxth	r2, r2
 3609 0046 89B2     		uxth	r1, r1
 858:Src/stm32f429i_discovery_lcd.c ****   }
 3610              		.loc 1 858 5 view .LVU875
 3611 0048 80B2     		uxth	r0, r0
 858:Src/stm32f429i_discovery_lcd.c ****   }
 3612              		.loc 1 858 5 view .LVU876
 3613 004a FFF7FEFF 		bl	BSP_LCD_DrawLine
 3614              	.LVL313:
 3615              	.L227:
 853:Src/stm32f429i_discovery_lcd.c ****   {
 3616              		.loc 1 853 8 is_stmt 1 view .LVU877
 3617 004e 013C     		subs	r4, r4, #1
 3618              	.LVL314:
 853:Src/stm32f429i_discovery_lcd.c ****   {
 3619              		.loc 1 853 8 is_stmt 0 view .LVU878
 3620 0050 A4B2     		uxth	r4, r4
 3621              	.LVL315:
 853:Src/stm32f429i_discovery_lcd.c ****   {
 3622              		.loc 1 853 8 view .LVU879
 3623 0052 002C     		cmp	r4, #0
 3624 0054 EDD1     		bne	.L228
 860:Src/stm32f429i_discovery_lcd.c **** 
 3625              		.loc 1 860 1 view .LVU880
 3626 0056 38BD     		pop	{r3, r4, r5, pc}
 3627              	.LVL316:
 3628              	.L230:
 3629              	.LCFI62:
 3630              		.cfi_def_cfa_offset 0
ARM GAS  /tmp/ccky5mPs.s 			page 103


 3631              		.cfi_restore 3
 3632              		.cfi_restore 4
 3633              		.cfi_restore 5
 3634              		.cfi_restore 14
 860:Src/stm32f429i_discovery_lcd.c **** 
 3635              		.loc 1 860 1 view .LVU881
 3636 0058 7047     		bx	lr
 3637              		.cfi_endproc
 3638              	.LFE165:
 3640              		.section	.text.BSP_LCD_FillTriangle,"ax",%progbits
 3641              		.align	1
 3642              		.global	BSP_LCD_FillTriangle
 3643              		.syntax unified
 3644              		.thumb
 3645              		.thumb_func
 3647              	BSP_LCD_FillTriangle:
 3648              	.LVL317:
 3649              	.LFB170:
1030:Src/stm32f429i_discovery_lcd.c ****   int16_t deltax = 0, deltay = 0, x = 0, y = 0, xinc1 = 0, xinc2 = 0, 
 3650              		.loc 1 1030 1 is_stmt 1 view -0
 3651              		.cfi_startproc
 3652              		@ args = 8, pretend = 0, frame = 24
 3653              		@ frame_needed = 0, uses_anonymous_args = 0
1030:Src/stm32f429i_discovery_lcd.c ****   int16_t deltax = 0, deltay = 0, x = 0, y = 0, xinc1 = 0, xinc2 = 0, 
 3654              		.loc 1 1030 1 is_stmt 0 view .LVU883
 3655 0000 2DE9F04F 		push	{r4, r5, r6, r7, r8, r9, r10, fp, lr}
 3656              	.LCFI63:
 3657              		.cfi_def_cfa_offset 36
 3658              		.cfi_offset 4, -36
 3659              		.cfi_offset 5, -32
 3660              		.cfi_offset 6, -28
 3661              		.cfi_offset 7, -24
 3662              		.cfi_offset 8, -20
 3663              		.cfi_offset 9, -16
 3664              		.cfi_offset 10, -12
 3665              		.cfi_offset 11, -8
 3666              		.cfi_offset 14, -4
 3667 0004 87B0     		sub	sp, sp, #28
 3668              	.LCFI64:
 3669              		.cfi_def_cfa_offset 64
 3670 0006 0292     		str	r2, [sp, #8]
 3671 0008 BDF84020 		ldrh	r2, [sp, #64]
 3672              	.LVL318:
1030:Src/stm32f429i_discovery_lcd.c ****   int16_t deltax = 0, deltay = 0, x = 0, y = 0, xinc1 = 0, xinc2 = 0, 
 3673              		.loc 1 1030 1 view .LVU884
 3674 000c BDF84440 		ldrh	r4, [sp, #68]
 3675 0010 0394     		str	r4, [sp, #12]
1031:Src/stm32f429i_discovery_lcd.c ****   yinc1 = 0, yinc2 = 0, den = 0, num = 0, numadd = 0, numpixels = 0, 
 3676              		.loc 1 1031 3 is_stmt 1 view .LVU885
 3677              	.LVL319:
1035:Src/stm32f429i_discovery_lcd.c ****   deltay = ABS(Y2 - Y1);        /* The difference between the y's */
 3678              		.loc 1 1035 3 view .LVU886
1035:Src/stm32f429i_discovery_lcd.c ****   deltay = ABS(Y2 - Y1);        /* The difference between the y's */
 3679              		.loc 1 1035 12 is_stmt 0 view .LVU887
 3680 0012 A1EB000A 		sub	r10, r1, r0
 3681 0016 BAF1000F 		cmp	r10, #0
 3682 001a B8BF     		it	lt
ARM GAS  /tmp/ccky5mPs.s 			page 104


 3683 001c CAF1000A 		rsblt	r10, r10, #0
1035:Src/stm32f429i_discovery_lcd.c ****   deltay = ABS(Y2 - Y1);        /* The difference between the y's */
 3684              		.loc 1 1035 10 view .LVU888
 3685 0020 0FFA8AFA 		sxth	r10, r10
 3686              	.LVL320:
1036:Src/stm32f429i_discovery_lcd.c ****   x = X1;                       /* Start x off at the first pixel */
 3687              		.loc 1 1036 3 is_stmt 1 view .LVU889
1036:Src/stm32f429i_discovery_lcd.c ****   x = X1;                       /* Start x off at the first pixel */
 3688              		.loc 1 1036 12 is_stmt 0 view .LVU890
 3689 0024 A2EB030B 		sub	fp, r2, r3
 3690 0028 BBF1000F 		cmp	fp, #0
 3691 002c B8BF     		it	lt
 3692 002e CBF1000B 		rsblt	fp, fp, #0
1036:Src/stm32f429i_discovery_lcd.c ****   x = X1;                       /* Start x off at the first pixel */
 3693              		.loc 1 1036 10 view .LVU891
 3694 0032 0FFA8BFB 		sxth	fp, fp
 3695              	.LVL321:
1037:Src/stm32f429i_discovery_lcd.c ****   y = Y1;                       /* Start y off at the first pixel */
 3696              		.loc 1 1037 3 is_stmt 1 view .LVU892
1037:Src/stm32f429i_discovery_lcd.c ****   y = Y1;                       /* Start y off at the first pixel */
 3697              		.loc 1 1037 5 is_stmt 0 view .LVU893
 3698 0036 04B2     		sxth	r4, r0
 3699              	.LVL322:
1038:Src/stm32f429i_discovery_lcd.c ****   
 3700              		.loc 1 1038 3 is_stmt 1 view .LVU894
1038:Src/stm32f429i_discovery_lcd.c ****   
 3701              		.loc 1 1038 5 is_stmt 0 view .LVU895
 3702 0038 1EB2     		sxth	r6, r3
 3703              	.LVL323:
1040:Src/stm32f429i_discovery_lcd.c ****   {
 3704              		.loc 1 1040 3 is_stmt 1 view .LVU896
1040:Src/stm32f429i_discovery_lcd.c ****   {
 3705              		.loc 1 1040 6 is_stmt 0 view .LVU897
 3706 003a 8142     		cmp	r1, r0
 3707 003c 13D3     		bcc	.L241
1042:Src/stm32f429i_discovery_lcd.c ****     xinc2 = 1;
 3708              		.loc 1 1042 11 view .LVU898
 3709 003e 0121     		movs	r1, #1
 3710              	.LVL324:
1042:Src/stm32f429i_discovery_lcd.c ****     xinc2 = 1;
 3711              		.loc 1 1042 11 view .LVU899
 3712 0040 0491     		str	r1, [sp, #16]
 3713              	.L234:
 3714              	.LVL325:
1051:Src/stm32f429i_discovery_lcd.c ****   {
 3715              		.loc 1 1051 3 is_stmt 1 view .LVU900
1051:Src/stm32f429i_discovery_lcd.c ****   {
 3716              		.loc 1 1051 6 is_stmt 0 view .LVU901
 3717 0042 9A42     		cmp	r2, r3
 3718 0044 13D3     		bcc	.L242
1053:Src/stm32f429i_discovery_lcd.c ****     yinc2 = 1;
 3719              		.loc 1 1053 11 view .LVU902
 3720 0046 0123     		movs	r3, #1
 3721              	.LVL326:
1053:Src/stm32f429i_discovery_lcd.c ****     yinc2 = 1;
 3722              		.loc 1 1053 11 view .LVU903
 3723 0048 0593     		str	r3, [sp, #20]
ARM GAS  /tmp/ccky5mPs.s 			page 105


 3724              	.L235:
 3725              	.LVL327:
1062:Src/stm32f429i_discovery_lcd.c ****   {
 3726              		.loc 1 1062 3 is_stmt 1 view .LVU904
1062:Src/stm32f429i_discovery_lcd.c ****   {
 3727              		.loc 1 1062 6 is_stmt 0 view .LVU905
 3728 004a DA45     		cmp	r10, fp
 3729 004c 13DB     		blt	.L236
1064:Src/stm32f429i_discovery_lcd.c ****     yinc2 = 0;                  /* Don't change the y for every iteration */
 3730              		.loc 1 1064 5 is_stmt 1 view .LVU906
 3731              	.LVL328:
1065:Src/stm32f429i_discovery_lcd.c ****     den = deltax;
 3732              		.loc 1 1065 5 view .LVU907
1066:Src/stm32f429i_discovery_lcd.c ****     num = deltax / 2;
 3733              		.loc 1 1066 5 view .LVU908
1067:Src/stm32f429i_discovery_lcd.c ****     numadd = deltay;
 3734              		.loc 1 1067 5 view .LVU909
1067:Src/stm32f429i_discovery_lcd.c ****     numadd = deltay;
 3735              		.loc 1 1067 9 is_stmt 0 view .LVU910
 3736 004e 0AEBDA78 		add	r8, r10, r10, lsr #31
 3737 0052 48F34F08 		sbfx	r8, r8, #1, #16
 3738              	.LVL329:
1068:Src/stm32f429i_discovery_lcd.c ****     numpixels = deltax;         /* There are more x-values than y-values */
 3739              		.loc 1 1068 5 is_stmt 1 view .LVU911
1069:Src/stm32f429i_discovery_lcd.c ****   }
 3740              		.loc 1 1069 5 view .LVU912
1069:Src/stm32f429i_discovery_lcd.c ****   }
 3741              		.loc 1 1069 5 is_stmt 0 view .LVU913
 3742 0056 049B     		ldr	r3, [sp, #16]
 3743 0058 0093     		str	r3, [sp]
1065:Src/stm32f429i_discovery_lcd.c ****     den = deltax;
 3744              		.loc 1 1065 11 view .LVU914
 3745 005a 0023     		movs	r3, #0
 3746 005c 0493     		str	r3, [sp, #16]
 3747              	.LVL330:
1064:Src/stm32f429i_discovery_lcd.c ****     yinc2 = 0;                  /* Don't change the y for every iteration */
 3748              		.loc 1 1064 11 view .LVU915
 3749 005e 0193     		str	r3, [sp, #4]
 3750              	.LVL331:
 3751              	.L237:
1081:Src/stm32f429i_discovery_lcd.c ****   {
 3752              		.loc 1 1081 3 is_stmt 1 view .LVU916
1081:Src/stm32f429i_discovery_lcd.c ****   {
 3753              		.loc 1 1081 17 is_stmt 0 view .LVU917
 3754 0060 4FF00009 		mov	r9, #0
1081:Src/stm32f429i_discovery_lcd.c ****   {
 3755              		.loc 1 1081 3 view .LVU918
 3756 0064 1EE0     		b	.L238
 3757              	.LVL332:
 3758              	.L241:
1047:Src/stm32f429i_discovery_lcd.c ****     xinc2 = -1;
 3759              		.loc 1 1047 11 view .LVU919
 3760 0066 4FF0FF31 		mov	r1, #-1
 3761              	.LVL333:
1047:Src/stm32f429i_discovery_lcd.c ****     xinc2 = -1;
 3762              		.loc 1 1047 11 view .LVU920
 3763 006a 0491     		str	r1, [sp, #16]
ARM GAS  /tmp/ccky5mPs.s 			page 106


 3764 006c E9E7     		b	.L234
 3765              	.LVL334:
 3766              	.L242:
1058:Src/stm32f429i_discovery_lcd.c ****     yinc2 = -1;
 3767              		.loc 1 1058 11 view .LVU921
 3768 006e 4FF0FF33 		mov	r3, #-1
 3769              	.LVL335:
1058:Src/stm32f429i_discovery_lcd.c ****     yinc2 = -1;
 3770              		.loc 1 1058 11 view .LVU922
 3771 0072 0593     		str	r3, [sp, #20]
 3772 0074 E9E7     		b	.L235
 3773              	.LVL336:
 3774              	.L236:
1073:Src/stm32f429i_discovery_lcd.c ****     yinc1 = 0;                  /* Don't change the y when numerator >= denominator */
 3775              		.loc 1 1073 5 is_stmt 1 view .LVU923
1074:Src/stm32f429i_discovery_lcd.c ****     den = deltay;
 3776              		.loc 1 1074 5 view .LVU924
1075:Src/stm32f429i_discovery_lcd.c ****     num = deltay / 2;
 3777              		.loc 1 1075 5 view .LVU925
1076:Src/stm32f429i_discovery_lcd.c ****     numadd = deltax;
 3778              		.loc 1 1076 5 view .LVU926
1076:Src/stm32f429i_discovery_lcd.c ****     numadd = deltax;
 3779              		.loc 1 1076 9 is_stmt 0 view .LVU927
 3780 0076 0BEBDB78 		add	r8, fp, fp, lsr #31
 3781 007a 48F34F08 		sbfx	r8, r8, #1, #16
 3782              	.LVL337:
1077:Src/stm32f429i_discovery_lcd.c ****     numpixels = deltay;         /* There are more y-values than x-values */
 3783              		.loc 1 1077 5 is_stmt 1 view .LVU928
1078:Src/stm32f429i_discovery_lcd.c ****   }
 3784              		.loc 1 1078 5 view .LVU929
1076:Src/stm32f429i_discovery_lcd.c ****     numadd = deltax;
 3785              		.loc 1 1076 9 is_stmt 0 view .LVU930
 3786 007e 5346     		mov	r3, r10
1075:Src/stm32f429i_discovery_lcd.c ****     num = deltay / 2;
 3787              		.loc 1 1075 9 view .LVU931
 3788 0080 DA46     		mov	r10, fp
 3789              	.LVL338:
1077:Src/stm32f429i_discovery_lcd.c ****     numpixels = deltay;         /* There are more y-values than x-values */
 3790              		.loc 1 1077 12 view .LVU932
 3791 0082 9B46     		mov	fp, r3
 3792              	.LVL339:
1076:Src/stm32f429i_discovery_lcd.c ****     numadd = deltax;
 3793              		.loc 1 1076 9 view .LVU933
 3794 0084 059B     		ldr	r3, [sp, #20]
 3795              	.LVL340:
1076:Src/stm32f429i_discovery_lcd.c ****     numadd = deltax;
 3796              		.loc 1 1076 9 view .LVU934
 3797 0086 0193     		str	r3, [sp, #4]
1074:Src/stm32f429i_discovery_lcd.c ****     den = deltay;
 3798              		.loc 1 1074 11 view .LVU935
 3799 0088 0023     		movs	r3, #0
 3800 008a 0593     		str	r3, [sp, #20]
 3801              	.LVL341:
1073:Src/stm32f429i_discovery_lcd.c ****     yinc1 = 0;                  /* Don't change the y when numerator >= denominator */
 3802              		.loc 1 1073 11 view .LVU936
 3803 008c 0093     		str	r3, [sp]
 3804 008e E7E7     		b	.L237
ARM GAS  /tmp/ccky5mPs.s 			page 107


 3805              	.LVL342:
 3806              	.L239:
1092:Src/stm32f429i_discovery_lcd.c ****     y += yinc2;                 /* Change the y as appropriate */
 3807              		.loc 1 1092 5 is_stmt 1 discriminator 2 view .LVU937
1092:Src/stm32f429i_discovery_lcd.c ****     y += yinc2;                 /* Change the y as appropriate */
 3808              		.loc 1 1092 7 is_stmt 0 discriminator 2 view .LVU938
 3809 0090 009B     		ldr	r3, [sp]
 3810 0092 1C44     		add	r4, r4, r3
 3811              	.LVL343:
1092:Src/stm32f429i_discovery_lcd.c ****     y += yinc2;                 /* Change the y as appropriate */
 3812              		.loc 1 1092 7 discriminator 2 view .LVU939
 3813 0094 24B2     		sxth	r4, r4
 3814              	.LVL344:
1093:Src/stm32f429i_discovery_lcd.c ****   } 
 3815              		.loc 1 1093 5 is_stmt 1 discriminator 2 view .LVU940
1093:Src/stm32f429i_discovery_lcd.c ****   } 
 3816              		.loc 1 1093 7 is_stmt 0 discriminator 2 view .LVU941
 3817 0096 019B     		ldr	r3, [sp, #4]
 3818 0098 1E44     		add	r6, r6, r3
 3819              	.LVL345:
1093:Src/stm32f429i_discovery_lcd.c ****   } 
 3820              		.loc 1 1093 7 discriminator 2 view .LVU942
 3821 009a 36B2     		sxth	r6, r6
 3822              	.LVL346:
1081:Src/stm32f429i_discovery_lcd.c ****   {
 3823              		.loc 1 1081 45 is_stmt 1 discriminator 2 view .LVU943
1081:Src/stm32f429i_discovery_lcd.c ****   {
 3824              		.loc 1 1081 53 is_stmt 0 discriminator 2 view .LVU944
 3825 009c 09F10109 		add	r9, r9, #1
 3826              	.LVL347:
1081:Src/stm32f429i_discovery_lcd.c ****   {
 3827              		.loc 1 1081 53 discriminator 2 view .LVU945
 3828 00a0 0FFA89F9 		sxth	r9, r9
 3829              	.LVL348:
 3830              	.L238:
1081:Src/stm32f429i_discovery_lcd.c ****   {
 3831              		.loc 1 1081 22 is_stmt 1 discriminator 1 view .LVU946
1081:Src/stm32f429i_discovery_lcd.c ****   {
 3832              		.loc 1 1081 3 is_stmt 0 discriminator 1 view .LVU947
 3833 00a4 CA45     		cmp	r10, r9
 3834 00a6 19DB     		blt	.L244
1083:Src/stm32f429i_discovery_lcd.c ****     
 3835              		.loc 1 1083 5 is_stmt 1 view .LVU948
 3836 00a8 A7B2     		uxth	r7, r4
 3837 00aa B5B2     		uxth	r5, r6
 3838 00ac 039B     		ldr	r3, [sp, #12]
 3839 00ae 029A     		ldr	r2, [sp, #8]
 3840 00b0 2946     		mov	r1, r5
 3841 00b2 3846     		mov	r0, r7
 3842 00b4 FFF7FEFF 		bl	BSP_LCD_DrawLine
 3843              	.LVL349:
1085:Src/stm32f429i_discovery_lcd.c ****     if (num >= den)             /* Check if numerator >= denominator */
 3844              		.loc 1 1085 5 view .LVU949
1085:Src/stm32f429i_discovery_lcd.c ****     if (num >= den)             /* Check if numerator >= denominator */
 3845              		.loc 1 1085 9 is_stmt 0 view .LVU950
 3846 00b8 D844     		add	r8, r8, fp
 3847              	.LVL350:
ARM GAS  /tmp/ccky5mPs.s 			page 108


1085:Src/stm32f429i_discovery_lcd.c ****     if (num >= den)             /* Check if numerator >= denominator */
 3848              		.loc 1 1085 9 view .LVU951
 3849 00ba 1FFA88F3 		uxth	r3, r8
 3850 00be 0FFA88F8 		sxth	r8, r8
 3851              	.LVL351:
1086:Src/stm32f429i_discovery_lcd.c ****     {
 3852              		.loc 1 1086 5 is_stmt 1 view .LVU952
1086:Src/stm32f429i_discovery_lcd.c ****     {
 3853              		.loc 1 1086 8 is_stmt 0 view .LVU953
 3854 00c2 C245     		cmp	r10, r8
 3855 00c4 E4DC     		bgt	.L239
1088:Src/stm32f429i_discovery_lcd.c ****       x += xinc1;               /* Change the x as appropriate */
 3856              		.loc 1 1088 7 is_stmt 1 view .LVU954
1088:Src/stm32f429i_discovery_lcd.c ****       x += xinc1;               /* Change the x as appropriate */
 3857              		.loc 1 1088 11 is_stmt 0 view .LVU955
 3858 00c6 A3EB0A03 		sub	r3, r3, r10
 3859 00ca 0FFA83F8 		sxth	r8, r3
 3860              	.LVL352:
1089:Src/stm32f429i_discovery_lcd.c ****       y += yinc1;               /* Change the y as appropriate */
 3861              		.loc 1 1089 7 is_stmt 1 view .LVU956
1089:Src/stm32f429i_discovery_lcd.c ****       y += yinc1;               /* Change the y as appropriate */
 3862              		.loc 1 1089 9 is_stmt 0 view .LVU957
 3863 00ce 049B     		ldr	r3, [sp, #16]
 3864 00d0 FC18     		adds	r4, r7, r3
 3865              	.LVL353:
1089:Src/stm32f429i_discovery_lcd.c ****       y += yinc1;               /* Change the y as appropriate */
 3866              		.loc 1 1089 9 view .LVU958
 3867 00d2 24B2     		sxth	r4, r4
 3868              	.LVL354:
1090:Src/stm32f429i_discovery_lcd.c ****     }
 3869              		.loc 1 1090 7 is_stmt 1 view .LVU959
1090:Src/stm32f429i_discovery_lcd.c ****     }
 3870              		.loc 1 1090 9 is_stmt 0 view .LVU960
 3871 00d4 059B     		ldr	r3, [sp, #20]
 3872 00d6 1D44     		add	r5, r5, r3
 3873 00d8 2EB2     		sxth	r6, r5
 3874              	.LVL355:
1090:Src/stm32f429i_discovery_lcd.c ****     }
 3875              		.loc 1 1090 9 view .LVU961
 3876 00da D9E7     		b	.L239
 3877              	.L244:
1095:Src/stm32f429i_discovery_lcd.c **** 
 3878              		.loc 1 1095 1 view .LVU962
 3879 00dc 07B0     		add	sp, sp, #28
 3880              	.LCFI65:
 3881              		.cfi_def_cfa_offset 36
 3882              	.LVL356:
1095:Src/stm32f429i_discovery_lcd.c **** 
 3883              		.loc 1 1095 1 view .LVU963
 3884              		@ sp needed
 3885 00de BDE8F08F 		pop	{r4, r5, r6, r7, r8, r9, r10, fp, pc}
1095:Src/stm32f429i_discovery_lcd.c **** 
 3886              		.loc 1 1095 1 view .LVU964
 3887              		.cfi_endproc
 3888              	.LFE170:
 3890              		.section	.text.BSP_LCD_FillPolygon,"ax",%progbits
 3891              		.align	1
ARM GAS  /tmp/ccky5mPs.s 			page 109


 3892              		.global	BSP_LCD_FillPolygon
 3893              		.syntax unified
 3894              		.thumb
 3895              		.thumb_func
 3897              	BSP_LCD_FillPolygon:
 3898              	.LVL357:
 3899              	.LFB171:
1103:Src/stm32f429i_discovery_lcd.c ****   
 3900              		.loc 1 1103 1 is_stmt 1 view -0
 3901              		.cfi_startproc
 3902              		@ args = 0, pretend = 0, frame = 24
 3903              		@ frame_needed = 0, uses_anonymous_args = 0
1103:Src/stm32f429i_discovery_lcd.c ****   
 3904              		.loc 1 1103 1 is_stmt 0 view .LVU966
 3905 0000 2DE9F04F 		push	{r4, r5, r6, r7, r8, r9, r10, fp, lr}
 3906              	.LCFI66:
 3907              		.cfi_def_cfa_offset 36
 3908              		.cfi_offset 4, -36
 3909              		.cfi_offset 5, -32
 3910              		.cfi_offset 6, -28
 3911              		.cfi_offset 7, -24
 3912              		.cfi_offset 8, -20
 3913              		.cfi_offset 9, -16
 3914              		.cfi_offset 10, -12
 3915              		.cfi_offset 11, -8
 3916              		.cfi_offset 14, -4
 3917 0004 89B0     		sub	sp, sp, #36
 3918              	.LCFI67:
 3919              		.cfi_def_cfa_offset 72
 3920 0006 0446     		mov	r4, r0
 3921 0008 0D46     		mov	r5, r1
1105:Src/stm32f429i_discovery_lcd.c ****   uint16_t  imageleft = 0, imageright = 0, imagetop = 0, imagebottom = 0;  
 3922              		.loc 1 1105 3 is_stmt 1 view .LVU967
 3923              	.LVL358:
1106:Src/stm32f429i_discovery_lcd.c **** 
 3924              		.loc 1 1106 3 view .LVU968
1108:Src/stm32f429i_discovery_lcd.c ****   imagetop= imagebottom = Points->Y;
 3925              		.loc 1 1108 3 view .LVU969
1108:Src/stm32f429i_discovery_lcd.c ****   imagetop= imagebottom = Points->Y;
 3926              		.loc 1 1108 34 is_stmt 0 view .LVU970
 3927 000a B0F90030 		ldrsh	r3, [r0]
1108:Src/stm32f429i_discovery_lcd.c ****   imagetop= imagebottom = Points->Y;
 3928              		.loc 1 1108 26 view .LVU971
 3929 000e 9AB2     		uxth	r2, r3
 3930 0010 1646     		mov	r6, r2
 3931 0012 0692     		str	r2, [sp, #24]
 3932              	.LVL359:
1109:Src/stm32f429i_discovery_lcd.c **** 
 3933              		.loc 1 1109 3 is_stmt 1 view .LVU972
1109:Src/stm32f429i_discovery_lcd.c **** 
 3934              		.loc 1 1109 33 is_stmt 0 view .LVU973
 3935 0014 B0F90230 		ldrsh	r3, [r0, #2]
1109:Src/stm32f429i_discovery_lcd.c **** 
 3936              		.loc 1 1109 25 view .LVU974
 3937 0018 9BB2     		uxth	r3, r3
 3938 001a 1846     		mov	r0, r3
 3939              	.LVL360:
ARM GAS  /tmp/ccky5mPs.s 			page 110


1109:Src/stm32f429i_discovery_lcd.c **** 
 3940              		.loc 1 1109 25 view .LVU975
 3941 001c 0793     		str	r3, [sp, #28]
 3942              	.LVL361:
1111:Src/stm32f429i_discovery_lcd.c ****   {
 3943              		.loc 1 1111 3 is_stmt 1 view .LVU976
1109:Src/stm32f429i_discovery_lcd.c **** 
 3944              		.loc 1 1109 25 is_stmt 0 view .LVU977
 3945 001e 1F46     		mov	r7, r3
1108:Src/stm32f429i_discovery_lcd.c ****   imagetop= imagebottom = Points->Y;
 3946              		.loc 1 1108 26 view .LVU978
 3947 0020 9446     		mov	ip, r2
1111:Src/stm32f429i_discovery_lcd.c ****   {
 3948              		.loc 1 1111 15 view .LVU979
 3949 0022 0123     		movs	r3, #1
 3950              	.LVL362:
1111:Src/stm32f429i_discovery_lcd.c ****   {
 3951              		.loc 1 1111 3 view .LVU980
 3952 0024 01E0     		b	.L246
 3953              	.LVL363:
 3954              	.L250:
1111:Src/stm32f429i_discovery_lcd.c ****   {
 3955              		.loc 1 1111 42 is_stmt 1 discriminator 2 view .LVU981
1111:Src/stm32f429i_discovery_lcd.c ****   {
 3956              		.loc 1 1111 49 is_stmt 0 discriminator 2 view .LVU982
 3957 0026 0133     		adds	r3, r3, #1
 3958              	.LVL364:
1111:Src/stm32f429i_discovery_lcd.c ****   {
 3959              		.loc 1 1111 49 discriminator 2 view .LVU983
 3960 0028 1BB2     		sxth	r3, r3
 3961              	.LVL365:
 3962              	.L246:
1111:Src/stm32f429i_discovery_lcd.c ****   {
 3963              		.loc 1 1111 20 is_stmt 1 discriminator 1 view .LVU984
1111:Src/stm32f429i_discovery_lcd.c ****   {
 3964              		.loc 1 1111 3 is_stmt 0 discriminator 1 view .LVU985
 3965 002a AB42     		cmp	r3, r5
 3966 002c 13DA     		bge	.L256
1113:Src/stm32f429i_discovery_lcd.c ****     if(pixelx < imageleft)
 3967              		.loc 1 1113 5 is_stmt 1 view .LVU986
1113:Src/stm32f429i_discovery_lcd.c ****     if(pixelx < imageleft)
 3968              		.loc 1 1113 14 is_stmt 0 view .LVU987
 3969 002e 04EB8301 		add	r1, r4, r3, lsl #2
1113:Src/stm32f429i_discovery_lcd.c ****     if(pixelx < imageleft)
 3970              		.loc 1 1113 12 view .LVU988
 3971 0032 34F92320 		ldrsh	r2, [r4, r3, lsl #2]
 3972              	.LVL366:
1114:Src/stm32f429i_discovery_lcd.c ****     {
 3973              		.loc 1 1114 5 is_stmt 1 view .LVU989
1114:Src/stm32f429i_discovery_lcd.c ****     {
 3974              		.loc 1 1114 7 is_stmt 0 view .LVU990
 3975 0036 B242     		cmp	r2, r6
 3976 0038 00DA     		bge	.L247
1116:Src/stm32f429i_discovery_lcd.c ****     }
 3977              		.loc 1 1116 7 is_stmt 1 view .LVU991
1116:Src/stm32f429i_discovery_lcd.c ****     }
 3978              		.loc 1 1116 17 is_stmt 0 view .LVU992
ARM GAS  /tmp/ccky5mPs.s 			page 111


 3979 003a 96B2     		uxth	r6, r2
 3980              	.LVL367:
 3981              	.L247:
1118:Src/stm32f429i_discovery_lcd.c ****     {
 3982              		.loc 1 1118 5 is_stmt 1 view .LVU993
1118:Src/stm32f429i_discovery_lcd.c ****     {
 3983              		.loc 1 1118 7 is_stmt 0 view .LVU994
 3984 003c 6245     		cmp	r2, ip
 3985 003e 01DD     		ble	.L248
1120:Src/stm32f429i_discovery_lcd.c ****     }
 3986              		.loc 1 1120 7 is_stmt 1 view .LVU995
1120:Src/stm32f429i_discovery_lcd.c ****     }
 3987              		.loc 1 1120 18 is_stmt 0 view .LVU996
 3988 0040 1FFA82FC 		uxth	ip, r2
 3989              	.LVL368:
 3990              	.L248:
1123:Src/stm32f429i_discovery_lcd.c ****     if(pixely < imagetop)
 3991              		.loc 1 1123 5 is_stmt 1 view .LVU997
1123:Src/stm32f429i_discovery_lcd.c ****     if(pixely < imagetop)
 3992              		.loc 1 1123 12 is_stmt 0 view .LVU998
 3993 0044 B1F90220 		ldrsh	r2, [r1, #2]
 3994              	.LVL369:
1124:Src/stm32f429i_discovery_lcd.c ****     { 
 3995              		.loc 1 1124 5 is_stmt 1 view .LVU999
1124:Src/stm32f429i_discovery_lcd.c ****     { 
 3996              		.loc 1 1124 7 is_stmt 0 view .LVU1000
 3997 0048 8242     		cmp	r2, r0
 3998 004a 00DA     		bge	.L249
1126:Src/stm32f429i_discovery_lcd.c ****     }
 3999              		.loc 1 1126 7 is_stmt 1 view .LVU1001
1126:Src/stm32f429i_discovery_lcd.c ****     }
 4000              		.loc 1 1126 16 is_stmt 0 view .LVU1002
 4001 004c 90B2     		uxth	r0, r2
 4002              	.LVL370:
 4003              	.L249:
1128:Src/stm32f429i_discovery_lcd.c ****     {
 4004              		.loc 1 1128 5 is_stmt 1 view .LVU1003
1128:Src/stm32f429i_discovery_lcd.c ****     {
 4005              		.loc 1 1128 7 is_stmt 0 view .LVU1004
 4006 004e BA42     		cmp	r2, r7
 4007 0050 E9DD     		ble	.L250
1130:Src/stm32f429i_discovery_lcd.c ****     }
 4008              		.loc 1 1130 7 is_stmt 1 view .LVU1005
1130:Src/stm32f429i_discovery_lcd.c ****     }
 4009              		.loc 1 1130 19 is_stmt 0 view .LVU1006
 4010 0052 97B2     		uxth	r7, r2
 4011              	.LVL371:
1130:Src/stm32f429i_discovery_lcd.c ****     }
 4012              		.loc 1 1130 19 view .LVU1007
 4013 0054 E7E7     		b	.L250
 4014              	.LVL372:
 4015              	.L256:
1134:Src/stm32f429i_discovery_lcd.c ****   {
 4016              		.loc 1 1134 3 is_stmt 1 view .LVU1008
1134:Src/stm32f429i_discovery_lcd.c ****   {
 4017              		.loc 1 1134 5 is_stmt 0 view .LVU1009
 4018 0056 012D     		cmp	r5, #1
ARM GAS  /tmp/ccky5mPs.s 			page 112


 4019 0058 64D9     		bls	.L245
1139:Src/stm32f429i_discovery_lcd.c ****   ycenter = (imagebottom + imagetop)/2;
 4020              		.loc 1 1139 3 is_stmt 1 view .LVU1010
1139:Src/stm32f429i_discovery_lcd.c ****   ycenter = (imagebottom + imagetop)/2;
 4021              		.loc 1 1139 37 is_stmt 0 view .LVU1011
 4022 005a 6644     		add	r6, r6, ip
 4023              	.LVL373:
1139:Src/stm32f429i_discovery_lcd.c ****   ycenter = (imagebottom + imagetop)/2;
 4024              		.loc 1 1139 37 view .LVU1012
 4025 005c 7310     		asrs	r3, r6, #1
 4026              	.LVL374:
1139:Src/stm32f429i_discovery_lcd.c ****   ycenter = (imagebottom + imagetop)/2;
 4027              		.loc 1 1139 37 view .LVU1013
 4028 005e 0293     		str	r3, [sp, #8]
 4029              	.LVL375:
1140:Src/stm32f429i_discovery_lcd.c ****  
 4030              		.loc 1 1140 3 is_stmt 1 view .LVU1014
1140:Src/stm32f429i_discovery_lcd.c ****  
 4031              		.loc 1 1140 37 is_stmt 0 view .LVU1015
 4032 0060 3844     		add	r0, r0, r7
 4033              	.LVL376:
1140:Src/stm32f429i_discovery_lcd.c ****  
 4034              		.loc 1 1140 37 view .LVU1016
 4035 0062 4310     		asrs	r3, r0, #1
 4036 0064 0393     		str	r3, [sp, #12]
 4037              	.LVL377:
1142:Src/stm32f429i_discovery_lcd.c ****   yfirst = Points->Y;
 4038              		.loc 1 1142 3 is_stmt 1 view .LVU1017
1143:Src/stm32f429i_discovery_lcd.c **** 
 4039              		.loc 1 1143 3 view .LVU1018
1145:Src/stm32f429i_discovery_lcd.c ****   {
 4040              		.loc 1 1145 3 view .LVU1019
1105:Src/stm32f429i_discovery_lcd.c ****   uint16_t  imageleft = 0, imageright = 0, imagetop = 0, imagebottom = 0;  
 4041              		.loc 1 1105 33 is_stmt 0 view .LVU1020
 4042 0066 0023     		movs	r3, #0
 4043 0068 0593     		str	r3, [sp, #20]
1105:Src/stm32f429i_discovery_lcd.c ****   uint16_t  imageleft = 0, imageright = 0, imagetop = 0, imagebottom = 0;  
 4044              		.loc 1 1105 25 view .LVU1021
 4045 006a 0493     		str	r3, [sp, #16]
 4046 006c A046     		mov	r8, r4
1145:Src/stm32f429i_discovery_lcd.c ****   {
 4047              		.loc 1 1145 8 view .LVU1022
 4048 006e 30E0     		b	.L253
 4049              	.LVL378:
 4050              	.L254:
1147:Src/stm32f429i_discovery_lcd.c ****     y = Points->Y;
 4051              		.loc 1 1147 5 is_stmt 1 view .LVU1023
1147:Src/stm32f429i_discovery_lcd.c ****     y = Points->Y;
 4052              		.loc 1 1147 7 is_stmt 0 view .LVU1024
 4053 0070 B8F90070 		ldrsh	r7, [r8]
 4054              	.LVL379:
1148:Src/stm32f429i_discovery_lcd.c ****     Points++;
 4055              		.loc 1 1148 5 is_stmt 1 view .LVU1025
1148:Src/stm32f429i_discovery_lcd.c ****     Points++;
 4056              		.loc 1 1148 7 is_stmt 0 view .LVU1026
 4057 0074 B8F90240 		ldrsh	r4, [r8, #2]
 4058              	.LVL380:
ARM GAS  /tmp/ccky5mPs.s 			page 113


1149:Src/stm32f429i_discovery_lcd.c ****     x2 = Points->X;
 4059              		.loc 1 1149 5 is_stmt 1 view .LVU1027
1150:Src/stm32f429i_discovery_lcd.c ****     y2 = Points->Y;    
 4060              		.loc 1 1150 5 view .LVU1028
1150:Src/stm32f429i_discovery_lcd.c ****     y2 = Points->Y;    
 4061              		.loc 1 1150 8 is_stmt 0 view .LVU1029
 4062 0078 38F9043F 		ldrsh	r3, [r8, #4]!
 4063              	.LVL381:
1150:Src/stm32f429i_discovery_lcd.c ****     y2 = Points->Y;    
 4064              		.loc 1 1150 8 view .LVU1030
 4065 007c 0493     		str	r3, [sp, #16]
 4066              	.LVL382:
1151:Src/stm32f429i_discovery_lcd.c ****   
 4067              		.loc 1 1151 5 is_stmt 1 view .LVU1031
1151:Src/stm32f429i_discovery_lcd.c ****   
 4068              		.loc 1 1151 8 is_stmt 0 view .LVU1032
 4069 007e B8F90220 		ldrsh	r2, [r8, #2]
 4070 0082 0592     		str	r2, [sp, #20]
 4071              	.LVL383:
1153:Src/stm32f429i_discovery_lcd.c ****     BSP_LCD_FillTriangle(x, xcenter, x2, y, ycenter, y2);
 4072              		.loc 1 1153 5 is_stmt 1 view .LVU1033
 4073 0084 BFB2     		uxth	r7, r7
1153:Src/stm32f429i_discovery_lcd.c ****     BSP_LCD_FillTriangle(x, xcenter, x2, y, ycenter, y2);
 4074              		.loc 1 1153 5 is_stmt 0 view .LVU1034
 4075 0086 1FFA83F9 		uxth	r9, r3
 4076 008a BDF80860 		ldrh	r6, [sp, #8]
 4077 008e A4B2     		uxth	r4, r4
1153:Src/stm32f429i_discovery_lcd.c ****     BSP_LCD_FillTriangle(x, xcenter, x2, y, ycenter, y2);
 4078              		.loc 1 1153 5 view .LVU1035
 4079 0090 1FFA82FB 		uxth	fp, r2
 4080 0094 BDF80CA0 		ldrh	r10, [sp, #12]
 4081 0098 CDF804A0 		str	r10, [sp, #4]
 4082 009c CDF800B0 		str	fp, [sp]
 4083 00a0 2346     		mov	r3, r4
 4084              	.LVL384:
1153:Src/stm32f429i_discovery_lcd.c ****     BSP_LCD_FillTriangle(x, xcenter, x2, y, ycenter, y2);
 4085              		.loc 1 1153 5 view .LVU1036
 4086 00a2 3246     		mov	r2, r6
 4087              	.LVL385:
1153:Src/stm32f429i_discovery_lcd.c ****     BSP_LCD_FillTriangle(x, xcenter, x2, y, ycenter, y2);
 4088              		.loc 1 1153 5 view .LVU1037
 4089 00a4 4946     		mov	r1, r9
 4090 00a6 3846     		mov	r0, r7
 4091 00a8 FFF7FEFF 		bl	BSP_LCD_FillTriangle
 4092              	.LVL386:
1154:Src/stm32f429i_discovery_lcd.c ****     BSP_LCD_FillTriangle(xcenter, x2, x, ycenter, y2, y);   
 4093              		.loc 1 1154 5 is_stmt 1 view .LVU1038
 4094 00ac CDF804B0 		str	fp, [sp, #4]
 4095 00b0 CDF800A0 		str	r10, [sp]
 4096 00b4 2346     		mov	r3, r4
 4097 00b6 4A46     		mov	r2, r9
 4098 00b8 3146     		mov	r1, r6
 4099 00ba 3846     		mov	r0, r7
 4100 00bc FFF7FEFF 		bl	BSP_LCD_FillTriangle
 4101              	.LVL387:
1155:Src/stm32f429i_discovery_lcd.c ****   }
 4102              		.loc 1 1155 5 view .LVU1039
ARM GAS  /tmp/ccky5mPs.s 			page 114


 4103 00c0 0194     		str	r4, [sp, #4]
 4104 00c2 CDF800B0 		str	fp, [sp]
 4105 00c6 5346     		mov	r3, r10
 4106 00c8 3A46     		mov	r2, r7
 4107 00ca 4946     		mov	r1, r9
 4108 00cc 3046     		mov	r0, r6
 4109 00ce FFF7FEFF 		bl	BSP_LCD_FillTriangle
 4110              	.LVL388:
 4111              	.L253:
1145:Src/stm32f429i_discovery_lcd.c ****   {
 4112              		.loc 1 1145 8 view .LVU1040
 4113 00d2 013D     		subs	r5, r5, #1
 4114              	.LVL389:
1145:Src/stm32f429i_discovery_lcd.c ****   {
 4115              		.loc 1 1145 8 is_stmt 0 view .LVU1041
 4116 00d4 ADB2     		uxth	r5, r5
 4117              	.LVL390:
1145:Src/stm32f429i_discovery_lcd.c ****   {
 4118              		.loc 1 1145 8 view .LVU1042
 4119 00d6 002D     		cmp	r5, #0
 4120 00d8 CAD1     		bne	.L254
1158:Src/stm32f429i_discovery_lcd.c ****   BSP_LCD_FillTriangle(xfirst, xcenter, x2, yfirst, ycenter, y2);
 4121              		.loc 1 1158 3 is_stmt 1 view .LVU1043
 4122 00da BDF81060 		ldrh	r6, [sp, #16]
 4123 00de BDF80850 		ldrh	r5, [sp, #8]
 4124              	.LVL391:
1158:Src/stm32f429i_discovery_lcd.c ****   BSP_LCD_FillTriangle(xfirst, xcenter, x2, yfirst, ycenter, y2);
 4125              		.loc 1 1158 3 is_stmt 0 view .LVU1044
 4126 00e2 BDF81440 		ldrh	r4, [sp, #20]
 4127 00e6 BDF80C70 		ldrh	r7, [sp, #12]
 4128 00ea 0197     		str	r7, [sp, #4]
 4129 00ec 0094     		str	r4, [sp]
 4130 00ee DDF81C90 		ldr	r9, [sp, #28]
 4131 00f2 4B46     		mov	r3, r9
 4132 00f4 2A46     		mov	r2, r5
 4133 00f6 3146     		mov	r1, r6
 4134 00f8 DDF81880 		ldr	r8, [sp, #24]
 4135              	.LVL392:
1158:Src/stm32f429i_discovery_lcd.c ****   BSP_LCD_FillTriangle(xfirst, xcenter, x2, yfirst, ycenter, y2);
 4136              		.loc 1 1158 3 view .LVU1045
 4137 00fc 4046     		mov	r0, r8
 4138 00fe FFF7FEFF 		bl	BSP_LCD_FillTriangle
 4139              	.LVL393:
1159:Src/stm32f429i_discovery_lcd.c ****   BSP_LCD_FillTriangle(xcenter, x2, xfirst, ycenter, y2, yfirst);   
 4140              		.loc 1 1159 3 is_stmt 1 view .LVU1046
 4141 0102 0194     		str	r4, [sp, #4]
 4142 0104 0097     		str	r7, [sp]
 4143 0106 4B46     		mov	r3, r9
 4144 0108 3246     		mov	r2, r6
 4145 010a 2946     		mov	r1, r5
 4146 010c 4046     		mov	r0, r8
 4147 010e FFF7FEFF 		bl	BSP_LCD_FillTriangle
 4148              	.LVL394:
1160:Src/stm32f429i_discovery_lcd.c **** }
 4149              		.loc 1 1160 3 view .LVU1047
 4150 0112 CDF80490 		str	r9, [sp, #4]
 4151 0116 0094     		str	r4, [sp]
ARM GAS  /tmp/ccky5mPs.s 			page 115


 4152 0118 3B46     		mov	r3, r7
 4153 011a 4246     		mov	r2, r8
 4154 011c 3146     		mov	r1, r6
 4155 011e 2846     		mov	r0, r5
 4156 0120 FFF7FEFF 		bl	BSP_LCD_FillTriangle
 4157              	.LVL395:
 4158              	.L245:
1161:Src/stm32f429i_discovery_lcd.c **** 
 4159              		.loc 1 1161 1 is_stmt 0 view .LVU1048
 4160 0124 09B0     		add	sp, sp, #36
 4161              	.LCFI68:
 4162              		.cfi_def_cfa_offset 36
 4163              		@ sp needed
 4164 0126 BDE8F08F 		pop	{r4, r5, r6, r7, r8, r9, r10, fp, pc}
 4165              		.cfi_endproc
 4166              	.LFE171:
 4168              		.section	.text.BSP_LCD_DrawCircle,"ax",%progbits
 4169              		.align	1
 4170              		.global	BSP_LCD_DrawCircle
 4171              		.syntax unified
 4172              		.thumb
 4173              		.thumb_func
 4175              	BSP_LCD_DrawCircle:
 4176              	.LVL396:
 4177              	.LFB164:
 804:Src/stm32f429i_discovery_lcd.c ****   int32_t  d;/* Decision Variable */ 
 4178              		.loc 1 804 1 is_stmt 1 view -0
 4179              		.cfi_startproc
 4180              		@ args = 0, pretend = 0, frame = 24
 4181              		@ frame_needed = 0, uses_anonymous_args = 0
 804:Src/stm32f429i_discovery_lcd.c ****   int32_t  d;/* Decision Variable */ 
 4182              		.loc 1 804 1 is_stmt 0 view .LVU1050
 4183 0000 2DE9F04F 		push	{r4, r5, r6, r7, r8, r9, r10, fp, lr}
 4184              	.LCFI69:
 4185              		.cfi_def_cfa_offset 36
 4186              		.cfi_offset 4, -36
 4187              		.cfi_offset 5, -32
 4188              		.cfi_offset 6, -28
 4189              		.cfi_offset 7, -24
 4190              		.cfi_offset 8, -20
 4191              		.cfi_offset 9, -16
 4192              		.cfi_offset 10, -12
 4193              		.cfi_offset 11, -8
 4194              		.cfi_offset 14, -4
 4195 0004 87B0     		sub	sp, sp, #28
 4196              	.LCFI70:
 4197              		.cfi_def_cfa_offset 64
 4198 0006 8346     		mov	fp, r0
 4199 0008 8A46     		mov	r10, r1
 805:Src/stm32f429i_discovery_lcd.c ****   uint32_t  curx;/* Current X Value */
 4200              		.loc 1 805 3 is_stmt 1 view .LVU1051
 806:Src/stm32f429i_discovery_lcd.c ****   uint32_t  cury;/* Current Y Value */ 
 4201              		.loc 1 806 3 view .LVU1052
 807:Src/stm32f429i_discovery_lcd.c ****   
 4202              		.loc 1 807 3 view .LVU1053
 809:Src/stm32f429i_discovery_lcd.c ****   curx = 0;
 4203              		.loc 1 809 3 view .LVU1054
ARM GAS  /tmp/ccky5mPs.s 			page 116


 809:Src/stm32f429i_discovery_lcd.c ****   curx = 0;
 4204              		.loc 1 809 19 is_stmt 0 view .LVU1055
 4205 000a 5300     		lsls	r3, r2, #1
 809:Src/stm32f429i_discovery_lcd.c ****   curx = 0;
 4206              		.loc 1 809 5 view .LVU1056
 4207 000c C3F10303 		rsb	r3, r3, #3
 4208 0010 0193     		str	r3, [sp, #4]
 4209              	.LVL397:
 810:Src/stm32f429i_discovery_lcd.c ****   cury = Radius;
 4210              		.loc 1 810 3 is_stmt 1 view .LVU1057
 811:Src/stm32f429i_discovery_lcd.c ****   
 4211              		.loc 1 811 3 view .LVU1058
 811:Src/stm32f429i_discovery_lcd.c ****   
 4212              		.loc 1 811 8 is_stmt 0 view .LVU1059
 4213 0012 0092     		str	r2, [sp]
 4214              	.LVL398:
 813:Src/stm32f429i_discovery_lcd.c ****   {
 4215              		.loc 1 813 3 is_stmt 1 view .LVU1060
 810:Src/stm32f429i_discovery_lcd.c ****   cury = Radius;
 4216              		.loc 1 810 8 is_stmt 0 view .LVU1061
 4217 0014 4FF00009 		mov	r9, #0
 813:Src/stm32f429i_discovery_lcd.c ****   {
 4218              		.loc 1 813 9 view .LVU1062
 4219 0018 0BE0     		b	.L258
 4220              	.LVL399:
 4221              	.L259:
 830:Src/stm32f429i_discovery_lcd.c ****       cury--;
 4222              		.loc 1 830 7 is_stmt 1 view .LVU1063
 830:Src/stm32f429i_discovery_lcd.c ****       cury--;
 4223              		.loc 1 830 19 is_stmt 0 view .LVU1064
 4224 001a 009A     		ldr	r2, [sp]
 4225 001c A9EB0203 		sub	r3, r9, r2
 830:Src/stm32f429i_discovery_lcd.c ****       cury--;
 4226              		.loc 1 830 9 view .LVU1065
 4227 0020 0199     		ldr	r1, [sp, #4]
 4228 0022 01EB8303 		add	r3, r1, r3, lsl #2
 4229 0026 0A33     		adds	r3, r3, #10
 4230 0028 0193     		str	r3, [sp, #4]
 4231              	.LVL400:
 831:Src/stm32f429i_discovery_lcd.c ****     }
 4232              		.loc 1 831 7 is_stmt 1 view .LVU1066
 831:Src/stm32f429i_discovery_lcd.c ****     }
 4233              		.loc 1 831 11 is_stmt 0 view .LVU1067
 4234 002a 531E     		subs	r3, r2, #1
 4235              	.LVL401:
 831:Src/stm32f429i_discovery_lcd.c ****     }
 4236              		.loc 1 831 11 view .LVU1068
 4237 002c 0093     		str	r3, [sp]
 4238              	.LVL402:
 4239              	.L260:
 833:Src/stm32f429i_discovery_lcd.c ****   } 
 4240              		.loc 1 833 5 is_stmt 1 view .LVU1069
 833:Src/stm32f429i_discovery_lcd.c ****   } 
 4241              		.loc 1 833 9 is_stmt 0 view .LVU1070
 4242 002e 09F10109 		add	r9, r9, #1
 4243              	.LVL403:
 4244              	.L258:
ARM GAS  /tmp/ccky5mPs.s 			page 117


 813:Src/stm32f429i_discovery_lcd.c ****   {
 4245              		.loc 1 813 9 is_stmt 1 view .LVU1071
 4246 0032 009B     		ldr	r3, [sp]
 4247 0034 9945     		cmp	r9, r3
 4248 0036 6FD8     		bhi	.L263
 815:Src/stm32f429i_discovery_lcd.c ****     BSP_LCD_DrawPixel((Xpos - curx), (Ypos - cury), DrawProp[ActiveLayer].TextColor);
 4249              		.loc 1 815 5 view .LVU1072
 4250 0038 1FFA89F4 		uxth	r4, r9
 4251 003c 04EB0B03 		add	r3, r4, fp
 4252 0040 98B2     		uxth	r0, r3
 4253 0042 BDF80050 		ldrh	r5, [sp]
 4254 0046 AAEB0508 		sub	r8, r10, r5
 4255 004a 1FFA88F8 		uxth	r8, r8
 4256 004e 344E     		ldr	r6, .L264
 4257 0050 344F     		ldr	r7, .L264+4
 4258 0052 3B68     		ldr	r3, [r7]
 4259 0054 03EB4303 		add	r3, r3, r3, lsl #1
 4260 0058 56F82320 		ldr	r2, [r6, r3, lsl #2]
 4261 005c 4146     		mov	r1, r8
 4262 005e 0290     		str	r0, [sp, #8]
 4263 0060 FFF7FEFF 		bl	BSP_LCD_DrawPixel
 4264              	.LVL404:
 816:Src/stm32f429i_discovery_lcd.c ****     BSP_LCD_DrawPixel((Xpos + cury), (Ypos - curx), DrawProp[ActiveLayer].TextColor);
 4265              		.loc 1 816 5 view .LVU1073
 4266 0064 ABEB0403 		sub	r3, fp, r4
 4267 0068 9BB2     		uxth	r3, r3
 4268 006a 1846     		mov	r0, r3
 4269 006c 3B68     		ldr	r3, [r7]
 4270 006e 03EB4303 		add	r3, r3, r3, lsl #1
 4271 0072 56F82320 		ldr	r2, [r6, r3, lsl #2]
 4272 0076 4146     		mov	r1, r8
 4273 0078 0390     		str	r0, [sp, #12]
 4274 007a FFF7FEFF 		bl	BSP_LCD_DrawPixel
 4275              	.LVL405:
 817:Src/stm32f429i_discovery_lcd.c ****     BSP_LCD_DrawPixel((Xpos - cury), (Ypos - curx), DrawProp[ActiveLayer].TextColor);
 4276              		.loc 1 817 5 view .LVU1074
 4277 007e 05EB0B03 		add	r3, r5, fp
 4278 0082 9BB2     		uxth	r3, r3
 4279 0084 1846     		mov	r0, r3
 4280 0086 AAEB0403 		sub	r3, r10, r4
 4281 008a 99B2     		uxth	r1, r3
 4282 008c 3B68     		ldr	r3, [r7]
 4283 008e 03EB4303 		add	r3, r3, r3, lsl #1
 4284 0092 56F82320 		ldr	r2, [r6, r3, lsl #2]
 4285 0096 0591     		str	r1, [sp, #20]
 4286 0098 0490     		str	r0, [sp, #16]
 4287 009a FFF7FEFF 		bl	BSP_LCD_DrawPixel
 4288              	.LVL406:
 818:Src/stm32f429i_discovery_lcd.c ****     BSP_LCD_DrawPixel((Xpos + curx), (Ypos + cury), DrawProp[ActiveLayer].TextColor);
 4289              		.loc 1 818 5 view .LVU1075
 4290 009e ABEB0508 		sub	r8, fp, r5
 4291 00a2 1FFA88F8 		uxth	r8, r8
 4292 00a6 3B68     		ldr	r3, [r7]
 4293 00a8 03EB4303 		add	r3, r3, r3, lsl #1
 4294 00ac 56F82320 		ldr	r2, [r6, r3, lsl #2]
 4295 00b0 0599     		ldr	r1, [sp, #20]
 4296 00b2 4046     		mov	r0, r8
ARM GAS  /tmp/ccky5mPs.s 			page 118


 4297 00b4 FFF7FEFF 		bl	BSP_LCD_DrawPixel
 4298              	.LVL407:
 819:Src/stm32f429i_discovery_lcd.c ****     BSP_LCD_DrawPixel((Xpos - curx), (Ypos + cury), DrawProp[ActiveLayer].TextColor);
 4299              		.loc 1 819 5 view .LVU1076
 4300 00b8 5544     		add	r5, r5, r10
 4301 00ba ADB2     		uxth	r5, r5
 4302 00bc 3B68     		ldr	r3, [r7]
 4303 00be 03EB4303 		add	r3, r3, r3, lsl #1
 4304 00c2 56F82320 		ldr	r2, [r6, r3, lsl #2]
 4305 00c6 2946     		mov	r1, r5
 4306 00c8 0298     		ldr	r0, [sp, #8]
 4307 00ca FFF7FEFF 		bl	BSP_LCD_DrawPixel
 4308              	.LVL408:
 820:Src/stm32f429i_discovery_lcd.c ****     BSP_LCD_DrawPixel((Xpos + cury), (Ypos + curx), DrawProp[ActiveLayer].TextColor);
 4309              		.loc 1 820 5 view .LVU1077
 4310 00ce 3B68     		ldr	r3, [r7]
 4311 00d0 03EB4303 		add	r3, r3, r3, lsl #1
 4312 00d4 56F82320 		ldr	r2, [r6, r3, lsl #2]
 4313 00d8 2946     		mov	r1, r5
 4314 00da 0398     		ldr	r0, [sp, #12]
 4315 00dc FFF7FEFF 		bl	BSP_LCD_DrawPixel
 4316              	.LVL409:
 821:Src/stm32f429i_discovery_lcd.c ****     BSP_LCD_DrawPixel((Xpos - cury), (Ypos + curx), DrawProp[ActiveLayer].TextColor);   
 4317              		.loc 1 821 5 view .LVU1078
 4318 00e0 5444     		add	r4, r4, r10
 4319 00e2 A4B2     		uxth	r4, r4
 4320 00e4 3B68     		ldr	r3, [r7]
 4321 00e6 03EB4303 		add	r3, r3, r3, lsl #1
 4322 00ea 56F82320 		ldr	r2, [r6, r3, lsl #2]
 4323 00ee 2146     		mov	r1, r4
 4324 00f0 0498     		ldr	r0, [sp, #16]
 4325 00f2 FFF7FEFF 		bl	BSP_LCD_DrawPixel
 4326              	.LVL410:
 822:Src/stm32f429i_discovery_lcd.c **** 
 4327              		.loc 1 822 5 view .LVU1079
 4328 00f6 3B68     		ldr	r3, [r7]
 4329 00f8 03EB4303 		add	r3, r3, r3, lsl #1
 4330 00fc 56F82320 		ldr	r2, [r6, r3, lsl #2]
 4331 0100 2146     		mov	r1, r4
 4332 0102 4046     		mov	r0, r8
 4333 0104 FFF7FEFF 		bl	BSP_LCD_DrawPixel
 4334              	.LVL411:
 824:Src/stm32f429i_discovery_lcd.c ****     { 
 4335              		.loc 1 824 5 view .LVU1080
 824:Src/stm32f429i_discovery_lcd.c ****     { 
 4336              		.loc 1 824 8 is_stmt 0 view .LVU1081
 4337 0108 019B     		ldr	r3, [sp, #4]
 4338 010a 002B     		cmp	r3, #0
 4339 010c 85DA     		bge	.L259
 826:Src/stm32f429i_discovery_lcd.c ****     }
 4340              		.loc 1 826 7 is_stmt 1 view .LVU1082
 826:Src/stm32f429i_discovery_lcd.c ****     }
 4341              		.loc 1 826 9 is_stmt 0 view .LVU1083
 4342 010e 03EB8903 		add	r3, r3, r9, lsl #2
 4343 0112 0633     		adds	r3, r3, #6
 4344 0114 0193     		str	r3, [sp, #4]
 4345              	.LVL412:
ARM GAS  /tmp/ccky5mPs.s 			page 119


 826:Src/stm32f429i_discovery_lcd.c ****     }
 4346              		.loc 1 826 9 view .LVU1084
 4347 0116 8AE7     		b	.L260
 4348              	.LVL413:
 4349              	.L263:
 835:Src/stm32f429i_discovery_lcd.c **** 
 4350              		.loc 1 835 1 view .LVU1085
 4351 0118 07B0     		add	sp, sp, #28
 4352              	.LCFI71:
 4353              		.cfi_def_cfa_offset 36
 4354              		@ sp needed
 4355 011a BDE8F08F 		pop	{r4, r5, r6, r7, r8, r9, r10, fp, pc}
 4356              	.LVL414:
 4357              	.L265:
 835:Src/stm32f429i_discovery_lcd.c **** 
 4358              		.loc 1 835 1 view .LVU1086
 4359 011e 00BF     		.align	2
 4360              	.L264:
 4361 0120 00000000 		.word	.LANCHOR3
 4362 0124 00000000 		.word	.LANCHOR5
 4363              		.cfi_endproc
 4364              	.LFE164:
 4366              		.section	.text.BSP_LCD_FillCircle,"ax",%progbits
 4367              		.align	1
 4368              		.global	BSP_LCD_FillCircle
 4369              		.syntax unified
 4370              		.thumb
 4371              		.thumb_func
 4373              	BSP_LCD_FillCircle:
 4374              	.LVL415:
 4375              	.LFB169:
 979:Src/stm32f429i_discovery_lcd.c ****   int32_t  d;    /* Decision Variable */ 
 4376              		.loc 1 979 1 is_stmt 1 view -0
 4377              		.cfi_startproc
 4378              		@ args = 0, pretend = 0, frame = 8
 4379              		@ frame_needed = 0, uses_anonymous_args = 0
 979:Src/stm32f429i_discovery_lcd.c ****   int32_t  d;    /* Decision Variable */ 
 4380              		.loc 1 979 1 is_stmt 0 view .LVU1088
 4381 0000 2DE9F04F 		push	{r4, r5, r6, r7, r8, r9, r10, fp, lr}
 4382              	.LCFI72:
 4383              		.cfi_def_cfa_offset 36
 4384              		.cfi_offset 4, -36
 4385              		.cfi_offset 5, -32
 4386              		.cfi_offset 6, -28
 4387              		.cfi_offset 7, -24
 4388              		.cfi_offset 8, -20
 4389              		.cfi_offset 9, -16
 4390              		.cfi_offset 10, -12
 4391              		.cfi_offset 11, -8
 4392              		.cfi_offset 14, -4
 4393 0004 83B0     		sub	sp, sp, #12
 4394              	.LCFI73:
 4395              		.cfi_def_cfa_offset 48
 4396 0006 8246     		mov	r10, r0
 4397 0008 8946     		mov	r9, r1
 4398 000a 1546     		mov	r5, r2
 4399 000c 0192     		str	r2, [sp, #4]
ARM GAS  /tmp/ccky5mPs.s 			page 120


 980:Src/stm32f429i_discovery_lcd.c ****   uint32_t  curx;/* Current X Value */
 4400              		.loc 1 980 3 is_stmt 1 view .LVU1089
 981:Src/stm32f429i_discovery_lcd.c ****   uint32_t  cury;/* Current Y Value */ 
 4401              		.loc 1 981 3 view .LVU1090
 982:Src/stm32f429i_discovery_lcd.c ****   
 4402              		.loc 1 982 3 view .LVU1091
 984:Src/stm32f429i_discovery_lcd.c **** 
 4403              		.loc 1 984 3 view .LVU1092
 984:Src/stm32f429i_discovery_lcd.c **** 
 4404              		.loc 1 984 19 is_stmt 0 view .LVU1093
 4405 000e 5600     		lsls	r6, r2, #1
 984:Src/stm32f429i_discovery_lcd.c **** 
 4406              		.loc 1 984 5 view .LVU1094
 4407 0010 C6F10306 		rsb	r6, r6, #3
 4408              	.LVL416:
 986:Src/stm32f429i_discovery_lcd.c ****   cury = Radius;
 4409              		.loc 1 986 3 is_stmt 1 view .LVU1095
 987:Src/stm32f429i_discovery_lcd.c ****   
 4410              		.loc 1 987 3 view .LVU1096
 989:Src/stm32f429i_discovery_lcd.c **** 
 4411              		.loc 1 989 3 view .LVU1097
 4412 0014 2E4B     		ldr	r3, .L277
 4413 0016 1B68     		ldr	r3, [r3]
 4414 0018 03EB4303 		add	r3, r3, r3, lsl #1
 4415 001c 2D4A     		ldr	r2, .L277+4
 4416              	.LVL417:
 989:Src/stm32f429i_discovery_lcd.c **** 
 4417              		.loc 1 989 3 is_stmt 0 view .LVU1098
 4418 001e 52F82300 		ldr	r0, [r2, r3, lsl #2]
 4419              	.LVL418:
 989:Src/stm32f429i_discovery_lcd.c **** 
 4420              		.loc 1 989 3 view .LVU1099
 4421 0022 FFF7FEFF 		bl	BSP_LCD_SetTextColor
 4422              	.LVL419:
 991:Src/stm32f429i_discovery_lcd.c ****   {
 4423              		.loc 1 991 3 is_stmt 1 view .LVU1100
 986:Src/stm32f429i_discovery_lcd.c ****   cury = Radius;
 4424              		.loc 1 986 8 is_stmt 0 view .LVU1101
 4425 0026 0024     		movs	r4, #0
 991:Src/stm32f429i_discovery_lcd.c ****   {
 4426              		.loc 1 991 9 view .LVU1102
 4427 0028 35E0     		b	.L267
 4428              	.LVL420:
 4429              	.L275:
 995:Src/stm32f429i_discovery_lcd.c ****       BSP_LCD_DrawHLine(Xpos - cury, Ypos - curx, 2*cury);
 4430              		.loc 1 995 7 is_stmt 1 view .LVU1103
 4431 002a AFB2     		uxth	r7, r5
 4432 002c AAEB070B 		sub	fp, r10, r7
 4433 0030 1FFA8BFB 		uxth	fp, fp
 4434 0034 1FFA84F8 		uxth	r8, r4
 4435 0038 7F00     		lsls	r7, r7, #1
 4436 003a BFB2     		uxth	r7, r7
 4437 003c 08EB0901 		add	r1, r8, r9
 4438 0040 3A46     		mov	r2, r7
 4439 0042 89B2     		uxth	r1, r1
 4440 0044 5846     		mov	r0, fp
 4441 0046 FFF7FEFF 		bl	BSP_LCD_DrawHLine
ARM GAS  /tmp/ccky5mPs.s 			page 121


 4442              	.LVL421:
 996:Src/stm32f429i_discovery_lcd.c ****     }
 4443              		.loc 1 996 7 view .LVU1104
 4444 004a A9EB0801 		sub	r1, r9, r8
 4445 004e 3A46     		mov	r2, r7
 4446 0050 89B2     		uxth	r1, r1
 4447 0052 5846     		mov	r0, fp
 4448 0054 FFF7FEFF 		bl	BSP_LCD_DrawHLine
 4449              	.LVL422:
 4450 0058 21E0     		b	.L268
 4451              	.L276:
1001:Src/stm32f429i_discovery_lcd.c ****       BSP_LCD_DrawHLine(Xpos - curx, Ypos + cury, 2*curx);
 4452              		.loc 1 1001 7 view .LVU1105
 4453 005a A7B2     		uxth	r7, r4
 4454 005c AAEB070B 		sub	fp, r10, r7
 4455 0060 1FFA8BFB 		uxth	fp, fp
 4456 0064 1FFA85F8 		uxth	r8, r5
 4457 0068 7F00     		lsls	r7, r7, #1
 4458 006a BFB2     		uxth	r7, r7
 4459 006c A9EB0801 		sub	r1, r9, r8
 4460 0070 3A46     		mov	r2, r7
 4461 0072 89B2     		uxth	r1, r1
 4462 0074 5846     		mov	r0, fp
 4463 0076 FFF7FEFF 		bl	BSP_LCD_DrawHLine
 4464              	.LVL423:
1002:Src/stm32f429i_discovery_lcd.c ****     }
 4465              		.loc 1 1002 7 view .LVU1106
 4466 007a 08EB0901 		add	r1, r8, r9
 4467 007e 3A46     		mov	r2, r7
 4468 0080 89B2     		uxth	r1, r1
 4469 0082 5846     		mov	r0, fp
 4470 0084 FFF7FEFF 		bl	BSP_LCD_DrawHLine
 4471              	.LVL424:
 4472 0088 0BE0     		b	.L269
 4473              	.L270:
1010:Src/stm32f429i_discovery_lcd.c ****       cury--;
 4474              		.loc 1 1010 7 view .LVU1107
1010:Src/stm32f429i_discovery_lcd.c ****       cury--;
 4475              		.loc 1 1010 19 is_stmt 0 view .LVU1108
 4476 008a 631B     		subs	r3, r4, r5
1010:Src/stm32f429i_discovery_lcd.c ****       cury--;
 4477              		.loc 1 1010 9 view .LVU1109
 4478 008c 06EB8306 		add	r6, r6, r3, lsl #2
 4479              	.LVL425:
1010:Src/stm32f429i_discovery_lcd.c ****       cury--;
 4480              		.loc 1 1010 9 view .LVU1110
 4481 0090 0A36     		adds	r6, r6, #10
 4482              	.LVL426:
1011:Src/stm32f429i_discovery_lcd.c ****     }
 4483              		.loc 1 1011 7 is_stmt 1 view .LVU1111
1011:Src/stm32f429i_discovery_lcd.c ****     }
 4484              		.loc 1 1011 11 is_stmt 0 view .LVU1112
 4485 0092 013D     		subs	r5, r5, #1
 4486              	.LVL427:
 4487              	.L271:
1013:Src/stm32f429i_discovery_lcd.c ****   }
 4488              		.loc 1 1013 5 is_stmt 1 view .LVU1113
ARM GAS  /tmp/ccky5mPs.s 			page 122


1013:Src/stm32f429i_discovery_lcd.c ****   }
 4489              		.loc 1 1013 9 is_stmt 0 view .LVU1114
 4490 0094 0134     		adds	r4, r4, #1
 4491              	.LVL428:
 4492              	.L267:
 991:Src/stm32f429i_discovery_lcd.c ****   {
 4493              		.loc 1 991 9 is_stmt 1 view .LVU1115
 4494 0096 AC42     		cmp	r4, r5
 4495 0098 09D8     		bhi	.L274
 993:Src/stm32f429i_discovery_lcd.c ****     {
 4496              		.loc 1 993 5 view .LVU1116
 993:Src/stm32f429i_discovery_lcd.c ****     {
 4497              		.loc 1 993 7 is_stmt 0 view .LVU1117
 4498 009a 002D     		cmp	r5, #0
 4499 009c C5D1     		bne	.L275
 4500              	.L268:
 999:Src/stm32f429i_discovery_lcd.c ****     {
 4501              		.loc 1 999 5 is_stmt 1 view .LVU1118
 999:Src/stm32f429i_discovery_lcd.c ****     {
 4502              		.loc 1 999 7 is_stmt 0 view .LVU1119
 4503 009e 002C     		cmp	r4, #0
 4504 00a0 DBD1     		bne	.L276
 4505              	.L269:
1004:Src/stm32f429i_discovery_lcd.c ****     { 
 4506              		.loc 1 1004 5 is_stmt 1 view .LVU1120
1004:Src/stm32f429i_discovery_lcd.c ****     { 
 4507              		.loc 1 1004 8 is_stmt 0 view .LVU1121
 4508 00a2 002E     		cmp	r6, #0
 4509 00a4 F1DA     		bge	.L270
1006:Src/stm32f429i_discovery_lcd.c ****     }
 4510              		.loc 1 1006 7 is_stmt 1 view .LVU1122
1006:Src/stm32f429i_discovery_lcd.c ****     }
 4511              		.loc 1 1006 9 is_stmt 0 view .LVU1123
 4512 00a6 06EB8406 		add	r6, r6, r4, lsl #2
 4513              	.LVL429:
1006:Src/stm32f429i_discovery_lcd.c ****     }
 4514              		.loc 1 1006 9 view .LVU1124
 4515 00aa 0636     		adds	r6, r6, #6
 4516              	.LVL430:
1006:Src/stm32f429i_discovery_lcd.c ****     }
 4517              		.loc 1 1006 9 view .LVU1125
 4518 00ac F2E7     		b	.L271
 4519              	.L274:
1016:Src/stm32f429i_discovery_lcd.c ****   BSP_LCD_DrawCircle(Xpos, Ypos, Radius);
 4520              		.loc 1 1016 3 is_stmt 1 view .LVU1126
 4521 00ae 084B     		ldr	r3, .L277
 4522 00b0 1B68     		ldr	r3, [r3]
 4523 00b2 03EB4303 		add	r3, r3, r3, lsl #1
 4524 00b6 074A     		ldr	r2, .L277+4
 4525 00b8 52F82300 		ldr	r0, [r2, r3, lsl #2]
 4526 00bc FFF7FEFF 		bl	BSP_LCD_SetTextColor
 4527              	.LVL431:
1017:Src/stm32f429i_discovery_lcd.c **** }
 4528              		.loc 1 1017 3 view .LVU1127
 4529 00c0 019A     		ldr	r2, [sp, #4]
 4530 00c2 4946     		mov	r1, r9
 4531 00c4 5046     		mov	r0, r10
ARM GAS  /tmp/ccky5mPs.s 			page 123


 4532 00c6 FFF7FEFF 		bl	BSP_LCD_DrawCircle
 4533              	.LVL432:
1018:Src/stm32f429i_discovery_lcd.c **** 
 4534              		.loc 1 1018 1 is_stmt 0 view .LVU1128
 4535 00ca 03B0     		add	sp, sp, #12
 4536              	.LCFI74:
 4537              		.cfi_def_cfa_offset 36
 4538              		@ sp needed
 4539 00cc BDE8F08F 		pop	{r4, r5, r6, r7, r8, r9, r10, fp, pc}
 4540              	.LVL433:
 4541              	.L278:
1018:Src/stm32f429i_discovery_lcd.c **** 
 4542              		.loc 1 1018 1 view .LVU1129
 4543              		.align	2
 4544              	.L277:
 4545 00d0 00000000 		.word	.LANCHOR5
 4546 00d4 00000000 		.word	.LANCHOR3
 4547              		.cfi_endproc
 4548              	.LFE169:
 4550              		.section	.text.BSP_LCD_DrawEllipse,"ax",%progbits
 4551              		.align	1
 4552              		.global	BSP_LCD_DrawEllipse
 4553              		.syntax unified
 4554              		.thumb
 4555              		.thumb_func
 4557              	BSP_LCD_DrawEllipse:
 4558              	.LVL434:
 4559              	.LFB166:
 870:Src/stm32f429i_discovery_lcd.c ****   int x = 0, y = -YRadius, err = 2-2*XRadius, e2;
 4560              		.loc 1 870 1 is_stmt 1 view -0
 4561              		.cfi_startproc
 4562              		@ args = 0, pretend = 0, frame = 24
 4563              		@ frame_needed = 0, uses_anonymous_args = 0
 870:Src/stm32f429i_discovery_lcd.c ****   int x = 0, y = -YRadius, err = 2-2*XRadius, e2;
 4564              		.loc 1 870 1 is_stmt 0 view .LVU1131
 4565 0000 2DE9F04F 		push	{r4, r5, r6, r7, r8, r9, r10, fp, lr}
 4566              	.LCFI75:
 4567              		.cfi_def_cfa_offset 36
 4568              		.cfi_offset 4, -36
 4569              		.cfi_offset 5, -32
 4570              		.cfi_offset 6, -28
 4571              		.cfi_offset 7, -24
 4572              		.cfi_offset 8, -20
 4573              		.cfi_offset 9, -16
 4574              		.cfi_offset 10, -12
 4575              		.cfi_offset 11, -8
 4576              		.cfi_offset 14, -4
 4577 0004 2DED028B 		vpush.64	{d8}
 4578              	.LCFI76:
 4579              		.cfi_def_cfa_offset 44
 4580              		.cfi_offset 80, -44
 4581              		.cfi_offset 81, -40
 4582 0008 87B0     		sub	sp, sp, #28
 4583              	.LCFI77:
 4584              		.cfi_def_cfa_offset 72
 4585 000a 0490     		str	r0, [sp, #16]
 4586 000c 0591     		str	r1, [sp, #20]
ARM GAS  /tmp/ccky5mPs.s 			page 124


 871:Src/stm32f429i_discovery_lcd.c ****   float k = 0, rad1 = 0, rad2 = 0;
 4587              		.loc 1 871 3 is_stmt 1 view .LVU1132
 4588              	.LVL435:
 871:Src/stm32f429i_discovery_lcd.c ****   float k = 0, rad1 = 0, rad2 = 0;
 4589              		.loc 1 871 14 is_stmt 0 view .LVU1133
 4590 000e C3F1000B 		rsb	fp, r3, #0
 4591              	.LVL436:
 871:Src/stm32f429i_discovery_lcd.c ****   float k = 0, rad1 = 0, rad2 = 0;
 4592              		.loc 1 871 35 view .LVU1134
 4593 0012 C2F10101 		rsb	r1, r2, #1
 4594              	.LVL437:
 871:Src/stm32f429i_discovery_lcd.c ****   float k = 0, rad1 = 0, rad2 = 0;
 4595              		.loc 1 871 28 view .LVU1135
 4596 0016 4E00     		lsls	r6, r1, #1
 4597              	.LVL438:
 872:Src/stm32f429i_discovery_lcd.c ****   
 4598              		.loc 1 872 3 is_stmt 1 view .LVU1136
 874:Src/stm32f429i_discovery_lcd.c ****   rad2 = YRadius;
 4599              		.loc 1 874 3 view .LVU1137
 874:Src/stm32f429i_discovery_lcd.c ****   rad2 = YRadius;
 4600              		.loc 1 874 8 is_stmt 0 view .LVU1138
 4601 0018 07EE902A 		vmov	s15, r2	@ int
 4602 001c F8EEE77A 		vcvt.f32.s32	s15, s15
 4603              	.LVL439:
 875:Src/stm32f429i_discovery_lcd.c ****   
 4604              		.loc 1 875 3 is_stmt 1 view .LVU1139
 875:Src/stm32f429i_discovery_lcd.c ****   
 4605              		.loc 1 875 8 is_stmt 0 view .LVU1140
 4606 0020 07EE103A 		vmov	s14, r3	@ int
 4607 0024 B8EEC77A 		vcvt.f32.s32	s14, s14
 4608              	.LVL440:
 877:Src/stm32f429i_discovery_lcd.c ****   
 4609              		.loc 1 877 3 is_stmt 1 view .LVU1141
 877:Src/stm32f429i_discovery_lcd.c ****   
 4610              		.loc 1 877 5 is_stmt 0 view .LVU1142
 4611 0028 87EE278A 		vdiv.f32	s16, s14, s15
 4612              	.LVL441:
 871:Src/stm32f429i_discovery_lcd.c ****   float k = 0, rad1 = 0, rad2 = 0;
 4613              		.loc 1 871 7 view .LVU1143
 4614 002c 0023     		movs	r3, #0
 4615              	.LVL442:
 871:Src/stm32f429i_discovery_lcd.c ****   float k = 0, rad1 = 0, rad2 = 0;
 4616              		.loc 1 871 7 view .LVU1144
 4617 002e 0193     		str	r3, [sp, #4]
 4618 0030 0BE0     		b	.L282
 4619              	.LVL443:
 4620              	.L283:
 871:Src/stm32f429i_discovery_lcd.c ****   float k = 0, rad1 = 0, rad2 = 0;
 4621              		.loc 1 871 7 view .LVU1145
 4622 0032 3346     		mov	r3, r6
 4623              	.LVL444:
 4624              	.L280:
 890:Src/stm32f429i_discovery_lcd.c ****   }
 4625              		.loc 1 890 5 is_stmt 1 view .LVU1146
 890:Src/stm32f429i_discovery_lcd.c ****   }
 4626              		.loc 1 890 8 is_stmt 0 view .LVU1147
 4627 0034 B345     		cmp	fp, r6
ARM GAS  /tmp/ccky5mPs.s 			page 125


 4628 0036 61DA     		bge	.L285
 890:Src/stm32f429i_discovery_lcd.c ****   }
 4629              		.loc 1 890 17 is_stmt 1 discriminator 1 view .LVU1148
 890:Src/stm32f429i_discovery_lcd.c ****   }
 4630              		.loc 1 890 29 is_stmt 0 discriminator 1 view .LVU1149
 4631 0038 0BF1010B 		add	fp, fp, #1
 4632              	.LVL445:
 890:Src/stm32f429i_discovery_lcd.c ****   }
 4633              		.loc 1 890 27 discriminator 1 view .LVU1150
 4634 003c 4FEA4B06 		lsl	r6, fp, #1
 4635              	.LVL446:
 890:Src/stm32f429i_discovery_lcd.c ****   }
 4636              		.loc 1 890 29 discriminator 1 view .LVU1151
 4637 0040 0136     		adds	r6, r6, #1
 890:Src/stm32f429i_discovery_lcd.c ****   }
 4638              		.loc 1 890 21 discriminator 1 view .LVU1152
 4639 0042 1E44     		add	r6, r6, r3
 4640              	.LVL447:
 4641              	.L281:
 892:Src/stm32f429i_discovery_lcd.c **** }
 4642              		.loc 1 892 9 is_stmt 1 view .LVU1153
 892:Src/stm32f429i_discovery_lcd.c **** }
 4643              		.loc 1 892 3 is_stmt 0 view .LVU1154
 4644 0044 BBF1000F 		cmp	fp, #0
 4645 0048 5ADC     		bgt	.L287
 4646              	.LVL448:
 4647              	.L282:
 879:Src/stm32f429i_discovery_lcd.c ****     BSP_LCD_DrawPixel((Xpos-(uint16_t)(x/k)), (Ypos+y), DrawProp[ActiveLayer].TextColor);
 4648              		.loc 1 879 3 is_stmt 1 view .LVU1155
 880:Src/stm32f429i_discovery_lcd.c ****     BSP_LCD_DrawPixel((Xpos+(uint16_t)(x/k)), (Ypos+y), DrawProp[ActiveLayer].TextColor);
 4649              		.loc 1 880 5 view .LVU1156
 4650 004a BDF81030 		ldrh	r3, [sp, #16]
 880:Src/stm32f429i_discovery_lcd.c ****     BSP_LCD_DrawPixel((Xpos+(uint16_t)(x/k)), (Ypos+y), DrawProp[ActiveLayer].TextColor);
 4651              		.loc 1 880 41 is_stmt 0 view .LVU1157
 4652 004e DDED017A 		vldr.32	s15, [sp, #4]	@ int
 4653 0052 B8EEE77A 		vcvt.f32.s32	s14, s15
 4654 0056 C7EE087A 		vdiv.f32	s15, s14, s16
 880:Src/stm32f429i_discovery_lcd.c ****     BSP_LCD_DrawPixel((Xpos+(uint16_t)(x/k)), (Ypos+y), DrawProp[ActiveLayer].TextColor);
 4655              		.loc 1 880 29 view .LVU1158
 4656 005a FCEEE77A 		vcvt.u32.f32	s15, s15
 4657 005e 17EE902A 		vmov	r2, s15	@ int
 4658 0062 1FFA82F9 		uxth	r9, r2
 880:Src/stm32f429i_discovery_lcd.c ****     BSP_LCD_DrawPixel((Xpos+(uint16_t)(x/k)), (Ypos+y), DrawProp[ActiveLayer].TextColor);
 4659              		.loc 1 880 5 view .LVU1159
 4660 0066 0293     		str	r3, [sp, #8]
 4661 0068 A3EB0904 		sub	r4, r3, r9
 4662 006c A4B2     		uxth	r4, r4
 4663 006e BDF81430 		ldrh	r3, [sp, #20]
 4664 0072 1FFA8BFA 		uxth	r10, fp
 4665 0076 0393     		str	r3, [sp, #12]
 4666 0078 03EB0A08 		add	r8, r3, r10
 4667 007c 1FFA88F8 		uxth	r8, r8
 4668 0080 224D     		ldr	r5, .L288
 4669 0082 234F     		ldr	r7, .L288+4
 4670 0084 3B68     		ldr	r3, [r7]
 4671 0086 03EB4303 		add	r3, r3, r3, lsl #1
 4672 008a 55F82320 		ldr	r2, [r5, r3, lsl #2]
ARM GAS  /tmp/ccky5mPs.s 			page 126


 4673 008e 4146     		mov	r1, r8
 4674 0090 2046     		mov	r0, r4
 4675 0092 FFF7FEFF 		bl	BSP_LCD_DrawPixel
 4676              	.LVL449:
 881:Src/stm32f429i_discovery_lcd.c ****     BSP_LCD_DrawPixel((Xpos+(uint16_t)(x/k)), (Ypos-y), DrawProp[ActiveLayer].TextColor);
 4677              		.loc 1 881 5 is_stmt 1 view .LVU1160
 4678 0096 029B     		ldr	r3, [sp, #8]
 4679 0098 9944     		add	r9, r9, r3
 4680 009a 1FFA89F9 		uxth	r9, r9
 4681 009e 3B68     		ldr	r3, [r7]
 4682 00a0 03EB4303 		add	r3, r3, r3, lsl #1
 4683 00a4 55F82320 		ldr	r2, [r5, r3, lsl #2]
 4684 00a8 4146     		mov	r1, r8
 4685 00aa 4846     		mov	r0, r9
 4686 00ac FFF7FEFF 		bl	BSP_LCD_DrawPixel
 4687              	.LVL450:
 882:Src/stm32f429i_discovery_lcd.c ****     BSP_LCD_DrawPixel((Xpos-(uint16_t)(x/k)), (Ypos-y), DrawProp[ActiveLayer].TextColor);      
 4688              		.loc 1 882 5 view .LVU1161
 4689 00b0 039A     		ldr	r2, [sp, #12]
 4690 00b2 A2EB0A0A 		sub	r10, r2, r10
 4691 00b6 1FFA8AFA 		uxth	r10, r10
 4692 00ba 3B68     		ldr	r3, [r7]
 4693 00bc 03EB4303 		add	r3, r3, r3, lsl #1
 4694 00c0 55F82320 		ldr	r2, [r5, r3, lsl #2]
 4695 00c4 5146     		mov	r1, r10
 4696 00c6 4846     		mov	r0, r9
 4697 00c8 FFF7FEFF 		bl	BSP_LCD_DrawPixel
 4698              	.LVL451:
 883:Src/stm32f429i_discovery_lcd.c ****     
 4699              		.loc 1 883 5 view .LVU1162
 4700 00cc 3B68     		ldr	r3, [r7]
 4701 00ce 03EB4303 		add	r3, r3, r3, lsl #1
 4702 00d2 55F82320 		ldr	r2, [r5, r3, lsl #2]
 4703 00d6 5146     		mov	r1, r10
 4704 00d8 2046     		mov	r0, r4
 4705 00da FFF7FEFF 		bl	BSP_LCD_DrawPixel
 4706              	.LVL452:
 885:Src/stm32f429i_discovery_lcd.c ****     if (e2 <= x) {
 4707              		.loc 1 885 5 view .LVU1163
 886:Src/stm32f429i_discovery_lcd.c ****       err += ++x*2+1;
 4708              		.loc 1 886 5 view .LVU1164
 886:Src/stm32f429i_discovery_lcd.c ****       err += ++x*2+1;
 4709              		.loc 1 886 8 is_stmt 0 view .LVU1165
 4710 00de 019A     		ldr	r2, [sp, #4]
 4711 00e0 B242     		cmp	r2, r6
 4712 00e2 A6DB     		blt	.L283
 887:Src/stm32f429i_discovery_lcd.c ****       if (-y == x && e2 <= y) e2 = 0;
 4713              		.loc 1 887 7 is_stmt 1 view .LVU1166
 887:Src/stm32f429i_discovery_lcd.c ****       if (-y == x && e2 <= y) e2 = 0;
 4714              		.loc 1 887 19 is_stmt 0 view .LVU1167
 4715 00e4 0132     		adds	r2, r2, #1
 4716 00e6 0192     		str	r2, [sp, #4]
 4717              	.LVL453:
 887:Src/stm32f429i_discovery_lcd.c ****       if (-y == x && e2 <= y) e2 = 0;
 4718              		.loc 1 887 17 view .LVU1168
 4719 00e8 5300     		lsls	r3, r2, #1
 887:Src/stm32f429i_discovery_lcd.c ****       if (-y == x && e2 <= y) e2 = 0;
ARM GAS  /tmp/ccky5mPs.s 			page 127


 4720              		.loc 1 887 19 view .LVU1169
 4721 00ea 0133     		adds	r3, r3, #1
 887:Src/stm32f429i_discovery_lcd.c ****       if (-y == x && e2 <= y) e2 = 0;
 4722              		.loc 1 887 11 view .LVU1170
 4723 00ec 3344     		add	r3, r3, r6
 4724              	.LVL454:
 888:Src/stm32f429i_discovery_lcd.c ****     }
 4725              		.loc 1 888 7 is_stmt 1 view .LVU1171
 888:Src/stm32f429i_discovery_lcd.c ****     }
 4726              		.loc 1 888 10 is_stmt 0 view .LVU1172
 4727 00ee 12EB0B0F 		cmn	r2, fp
 4728 00f2 9FD1     		bne	.L280
 888:Src/stm32f429i_discovery_lcd.c ****     }
 4729              		.loc 1 888 19 discriminator 1 view .LVU1173
 4730 00f4 B345     		cmp	fp, r6
 4731 00f6 9DDB     		blt	.L280
 888:Src/stm32f429i_discovery_lcd.c ****     }
 4732              		.loc 1 888 34 view .LVU1174
 4733 00f8 0026     		movs	r6, #0
 4734              	.LVL455:
 888:Src/stm32f429i_discovery_lcd.c ****     }
 4735              		.loc 1 888 34 view .LVU1175
 4736 00fa 9BE7     		b	.L280
 4737              	.LVL456:
 4738              	.L285:
 888:Src/stm32f429i_discovery_lcd.c ****     }
 4739              		.loc 1 888 34 view .LVU1176
 4740 00fc 1E46     		mov	r6, r3
 4741              	.LVL457:
 888:Src/stm32f429i_discovery_lcd.c ****     }
 4742              		.loc 1 888 34 view .LVU1177
 4743 00fe A1E7     		b	.L281
 4744              	.LVL458:
 4745              	.L287:
 893:Src/stm32f429i_discovery_lcd.c **** 
 4746              		.loc 1 893 1 view .LVU1178
 4747 0100 07B0     		add	sp, sp, #28
 4748              	.LCFI78:
 4749              		.cfi_def_cfa_offset 44
 4750              		@ sp needed
 4751 0102 BDEC028B 		vldm	sp!, {d8}
 4752              	.LCFI79:
 4753              		.cfi_restore 80
 4754              		.cfi_restore 81
 4755              		.cfi_def_cfa_offset 36
 4756              	.LVL459:
 893:Src/stm32f429i_discovery_lcd.c **** 
 4757              		.loc 1 893 1 view .LVU1179
 4758 0106 BDE8F08F 		pop	{r4, r5, r6, r7, r8, r9, r10, fp, pc}
 4759              	.LVL460:
 4760              	.L289:
 893:Src/stm32f429i_discovery_lcd.c **** 
 4761              		.loc 1 893 1 view .LVU1180
 4762 010a 00BF     		.align	2
 4763              	.L288:
 4764 010c 00000000 		.word	.LANCHOR3
 4765 0110 00000000 		.word	.LANCHOR5
ARM GAS  /tmp/ccky5mPs.s 			page 128


 4766              		.cfi_endproc
 4767              	.LFE166:
 4769              		.global	LcdDrv
 4770              		.global	LtdcHandler
 4771              		.global	Font8
 4772              		.global	Font8_Table
 4773              		.global	Font12
 4774              		.global	Font12_Table
 4775              		.global	Font16
 4776              		.global	Font16_Table
 4777              		.global	Font20
 4778              		.global	Font20_Table
 4779              		.global	Font24
 4780              		.global	Font24_Table
 4781              		.section	.bss.ActiveLayer,"aw",%nobits
 4782              		.align	2
 4783              		.set	.LANCHOR5,. + 0
 4786              	ActiveLayer:
 4787 0000 00000000 		.space	4
 4788              		.section	.bss.Dma2dHandler,"aw",%nobits
 4789              		.align	2
 4790              		.set	.LANCHOR0,. + 0
 4793              	Dma2dHandler:
 4794 0000 00000000 		.space	64
 4794      00000000 
 4794      00000000 
 4794      00000000 
 4794      00000000 
 4795              		.section	.bss.DrawProp,"aw",%nobits
 4796              		.align	2
 4797              		.set	.LANCHOR3,. + 0
 4800              	DrawProp:
 4801 0000 00000000 		.space	24
 4801      00000000 
 4801      00000000 
 4801      00000000 
 4801      00000000 
 4802              		.section	.bss.LcdDrv,"aw",%nobits
 4803              		.align	2
 4804              		.set	.LANCHOR1,. + 0
 4807              	LcdDrv:
 4808 0000 00000000 		.space	4
 4809              		.section	.bss.LtdcHandler,"aw",%nobits
 4810              		.align	2
 4811              		.set	.LANCHOR2,. + 0
 4814              	LtdcHandler:
 4815 0000 00000000 		.space	168
 4815      00000000 
 4815      00000000 
 4815      00000000 
 4815      00000000 
 4816              		.section	.bss.PeriphClkInitStruct,"aw",%nobits
 4817              		.align	2
 4818              		.set	.LANCHOR6,. + 0
 4821              	PeriphClkInitStruct:
 4822 0000 00000000 		.space	48
 4822      00000000 
ARM GAS  /tmp/ccky5mPs.s 			page 129


 4822      00000000 
 4822      00000000 
 4822      00000000 
 4823              		.section	.data.Font12,"aw"
 4824              		.align	2
 4827              	Font12:
 4828 0000 00000000 		.word	Font12_Table
 4829 0004 0700     		.short	7
 4830 0006 0C00     		.short	12
 4831              		.section	.data.Font16,"aw"
 4832              		.align	2
 4835              	Font16:
 4836 0000 00000000 		.word	Font16_Table
 4837 0004 0B00     		.short	11
 4838 0006 1000     		.short	16
 4839              		.section	.data.Font20,"aw"
 4840              		.align	2
 4843              	Font20:
 4844 0000 00000000 		.word	Font20_Table
 4845 0004 0E00     		.short	14
 4846 0006 1400     		.short	20
 4847              		.section	.data.Font24,"aw"
 4848              		.align	2
 4849              		.set	.LANCHOR4,. + 0
 4852              	Font24:
 4853 0000 00000000 		.word	Font24_Table
 4854 0004 1100     		.short	17
 4855 0006 1800     		.short	24
 4856              		.section	.data.Font8,"aw"
 4857              		.align	2
 4860              	Font8:
 4861 0000 00000000 		.word	Font8_Table
 4862 0004 0500     		.short	5
 4863 0006 0800     		.short	8
 4864              		.section	.rodata.Font12_Table,"a"
 4865              		.align	2
 4868              	Font12_Table:
 4869 0000 00000000 		.ascii	"\000\000\000\000\000\000\000\000\000\000\000\000\000"
 4869      00000000 
 4869      00000000 
 4869      00
 4870 000d 10101010 		.ascii	"\020\020\020\020\020\000\000\020\000\000\000\000lHH"
 4870      10000010 
 4870      00000000 
 4870      6C4848
 4871 001c 00000000 		.ascii	"\000\000\000\000\000\000\000\000\000\024\024(|(|(PP"
 4871      00000000 
 4871      00141428 
 4871      7C287C28 
 4871      5050
 4872 002e 00000010 		.ascii	"\000\000\000\0208@@8Hp\020\020\000\000\000 P \014p\010"
 4872      38404038 
 4872      48701010 
 4872      00000020 
 4872      50200C70 
 4873 0043 14080000 		.ascii	"\024\010\000\000\000\000\000\000\030  TH4\000\000\000"
 4873      00000000 
ARM GAS  /tmp/ccky5mPs.s 			page 130


 4873      18202054 
 4873      48340000 
 4873      00
 4874 0054 00101010 		.ascii	"\000\020\020\020\020\000\000\000\000\000\000\000\000"
 4874      10000000 
 4874      00000000 
 4874      00
 4875 0061 08081010 		.ascii	"\010\010\020\020\020\020\020\020\010\010\000\000  \020"
 4875      10101010 
 4875      08080000 
 4875      202010
 4876 0070 10101010 		.ascii	"\020\020\020\020\020  \000\000\020|\020((\000\000\000"
 4876      10202000 
 4876      00107C10 
 4876      28280000 
 4876      00
 4877 0081 00000000 		.ascii	"\000\000\000\000\000\020\020\020\376\020\020\020\000"
 4877      00101010 
 4877      FE101010 
 4877      00
 4878 008e 00000000 		.ascii	"\000\000\000\000\000\000\000\000\000\030\0200 \000\000"
 4878      00000000 
 4878      00181030 
 4878      200000
 4879 009d 00000000 		.ascii	"\000\000\000\000|\000\000\000\000\000\000\000\000\000"
 4879      7C000000 
 4879      00000000 
 4879      0000
 4880 00ab 00000000 		.ascii	"\000\000\000\00000\000\000\000\000\004\004\010\010\020"
 4880      30300000 
 4880      00000404 
 4880      080810
 4881 00ba 10202040 		.ascii	"\020  @\000\000\0008DDDDDD8\000\000\000\0000\020\020"
 4881      00000038 
 4881      44444444 
 4881      44443800 
 4881      00000030 
 4882 00d0 10101010 		.ascii	"\020\020\020\020|\000\000\000\0008D\004\010\020 D|\000"
 4882      7C000000 
 4882      00384404 
 4882      08102044 
 4882      7C00
 4883 00e2 00000038 		.ascii	"\000\000\0008D\004\030\004\004D8\000\000\000\000\014"
 4883      44041804 
 4883      04443800 
 4883      0000000C 
 4884 00f2 14142444 		.ascii	"\024\024$D~\004\016\000\000\000\000<  8\004\004D8\000"
 4884      7E040E00 
 4884      0000003C 
 4884      20203804 
 4884      04443800 
 4885 0106 0000001C 		.ascii	"\000\000\000\034 @xDDD8\000\000\000\000|D\004\010\010"
 4885      20407844 
 4885      44443800 
 4885      0000007C 
 4885      44040808 
 4886 011a 08101000 		.ascii	"\010\020\020\000\000\000\0008DD8DDD8\000\000\000\000"
ARM GAS  /tmp/ccky5mPs.s 			page 131


 4886      00000038 
 4886      44443844 
 4886      44443800 
 4886      000000
 4887 012d 38444444 		.ascii	"8DDD<\004\010p\000\000\000\000\000\00000\000\00000\000"
 4887      3C040870 
 4887      00000000 
 4887      00003030 
 4887      00003030 
 4888 0142 00000000 		.ascii	"\000\000\000\000\000\030\030\000\000\0300 \000\000\000"
 4888      00181800 
 4888      00183020 
 4888      000000
 4889 0151 000C1060 		.ascii	"\000\014\020`\200`\020\014\000\000\000\000\000\000\000"
 4889      8060100C 
 4889      00000000 
 4889      000000
 4890 0160 7C007C00 		.ascii	"|\000|\000\000\000\000\000\000\000\300 \030\004\030"
 4890      00000000 
 4890      0000C020 
 4890      180418
 4891 016f 20C00000 		.ascii	" \300\000\000\000\000\000\030$\004\010\020\0000\000"
 4891      00000018 
 4891      24040810 
 4891      003000
 4892 017e 00003844 		.ascii	"\000\0008DDLTTL@D8\000\000\0000\020(((|D\356\000\000"
 4892      444C5454 
 4892      4C404438 
 4892      00000030 
 4892      10282828 
 4893 0197 0000F844 		.ascii	"\000\000\370DDxDDD\370\000\000\000\000<D@@@@D8\000\000"
 4893      44784444 
 4893      44F80000 
 4893      00003C44 
 4893      40404040 
 4894 01af 0000F048 		.ascii	"\000\000\360HDDDDH\360\000\000\000\000\374DPpP@D\374"
 4894      44444444 
 4894      48F00000 
 4894      0000FC44 
 4894      50705040 
 4895 01c5 00000000 		.ascii	"\000\000\000\000~\"(8(  p\000\000\000\000<D@@NDD8\000"
 4895      7E222838 
 4895      28202070 
 4895      00000000 
 4895      3C444040 
 4896 01de 000000EE 		.ascii	"\000\000\000\356DD|DDD\356\000\000\000\000|\020\020"
 4896      44447C44 
 4896      4444EE00 
 4896      0000007C 
 4896      1010
 4897 01f0 10101010 		.ascii	"\020\020\020\020|\000\000\000\000<\010\010\010HHH0\000"
 4897      7C000000 
 4897      003C0808 
 4897      08484848 
 4897      3000
 4898 0202 000000EE 		.ascii	"\000\000\000\356DHPpHD\346\000\000\000\000p    $$|\000"
 4898      44485070 
ARM GAS  /tmp/ccky5mPs.s 			page 132


 4898      4844E600 
 4898      00000070 
 4898      20202020 
 4899 021a 000000EE 		.ascii	"\000\000\000\356llTTDD\356\000\000\000\000\356ddTTT"
 4899      6C6C5454 
 4899      4444EE00 
 4899      000000EE 
 4899      64645454 
 4900 022f 4CEC0000 		.ascii	"L\354\000\000\000\0008DDDDDD8\000\000\000\000x$$$8 "
 4900      00003844 
 4900      44444444 
 4900      44380000 
 4900      00007824 
 4901 0247 20700000 		.ascii	" p\000\000\000\0008DDDDDD8\034\000\000\000\370DDDxH"
 4901      00003844 
 4901      44444444 
 4901      44381C00 
 4901      0000F844 
 4902 025f 44E20000 		.ascii	"D\342\000\000\000\0004L@8\004\004dX\000\000\000\000"
 4902      0000344C 
 4902      40380404 
 4902      64580000 
 4902      0000
 4903 0271 FE921010 		.ascii	"\376\222\020\020\020\020\0208\000\000\000\000\356DD"
 4903      10101038 
 4903      00000000 
 4903      EE4444
 4904 0280 44444444 		.ascii	"DDDD8\000\000\000\000\356DD(((\020\020\000\000\000\000"
 4904      38000000 
 4904      00EE4444 
 4904      28282810 
 4904      10000000 
 4905 0295 EE444454 		.ascii	"\356DDTTTT(\000\000\000\000\306D(\020\020(D\306\000"
 4905      54545428 
 4905      00000000 
 4905      C6442810 
 4905      102844C6 
 4906 02aa 000000EE 		.ascii	"\000\000\000\356D((\020\020\0208\000\000\000\000|D\010"
 4906      44282810 
 4906      10103800 
 4906      0000007C 
 4906      4408
 4907 02bc 10102044 		.ascii	"\020\020 D|\000\000\000\0008        8\000\000@   \020"
 4907      7C000000 
 4907      00382020 
 4907      20202020 
 4907      20203800 
 4908 02d6 10080808 		.ascii	"\020\010\010\010\000\000\0008\010\010\010\010\010\010"
 4908      00000038 
 4908      08080808 
 4908      0808
 4909 02e4 08083800 		.ascii	"\010\0108\000\000\020\020(D\000\000\000\000\000\000"
 4909      00101028 
 4909      44000000 
 4909      000000
 4910 02f3 00000000 		.ascii	"\000\000\000\000\000\000\000\000\000\000\000\000\376"
 4910      00000000 
ARM GAS  /tmp/ccky5mPs.s 			page 133


 4910      00000000 
 4910      FE
 4911 0300 00100800 		.ascii	"\000\020\010\000\000\000\000\000\000\000\000\000\000"
 4911      00000000 
 4911      00000000 
 4911      00
 4912 030d 00003844 		.ascii	"\000\0008D<DD>\000\000\000\000\300@XdDDD\370\000\000"
 4912      3C44443E 
 4912      00000000 
 4912      C0405864 
 4912      444444F8 
 4913 0323 00000000 		.ascii	"\000\000\000\000<D@@D8\000\000\000\000\014\0044LDDD"
 4913      3C444040 
 4913      44380000 
 4913      00000C04 
 4913      344C4444 
 4914 0338 3E000000 		.ascii	">\000\000\000\000\000\0008D|@@<\000\000\000\000\034"
 4914      00000038 
 4914      447C4040 
 4914      3C000000 
 4914      001C
 4915 034a 207C2020 		.ascii	" |    |\000\000\000\000\000\0006LDDD<\0048\000\000\300"
 4915      20207C00 
 4915      00000000 
 4915      00364C44 
 4915      44443C04 
 4916 0362 40586444 		.ascii	"@XdDDD\356\000\000\000\000\020\000p\020\020\020\020"
 4916      4444EE00 
 4916      00000010 
 4916      00701010 
 4916      1010
 4917 0374 7C000000 		.ascii	"|\000\000\000\000\020\000x\010\010\010\010\010\010p"
 4917      00100078 
 4917      08080808 
 4917      080870
 4918 0383 0000C040 		.ascii	"\000\000\300@\\HpPH\334\000\000\000\0000\020\020\020"
 4918      5C487050 
 4918      48DC0000 
 4918      00003010 
 4918      1010
 4919 0395 1010107C 		.ascii	"\020\020\020|\000\000\000\000\000\000\350TTTT\376\000"
 4919      00000000 
 4919      0000E854 
 4919      545454FE 
 4919      00
 4920 03a6 00000000 		.ascii	"\000\000\000\000\000\330dDDD\356\000\000\000\000\000"
 4920      00D86444 
 4920      4444EE00 
 4920      00000000 
 4921 03b6 00384444 		.ascii	"\0008DDDD8\000\000\000\000\000\000\330dDDDx@\340\000"
 4921      44443800 
 4921      00000000 
 4921      00D86444 
 4921      44447840 
 4922 03cc 00000036 		.ascii	"\000\000\0006LDDD<\004\016\000\000\000\000l0   |\000"
 4922      4C444444 
 4922      3C040E00 
ARM GAS  /tmp/ccky5mPs.s 			page 134


 4922      0000006C 
 4922      30202020 
 4923 03e2 00000000 		.ascii	"\000\000\000\000\000<D8\004Dx\000\000\000\000\000 |"
 4923      003C4438 
 4923      04447800 
 4923      00000000 
 4923      207C
 4924 03f4 20202022 		.ascii	"   \"\034\000\000\000\000\000\000\314DDDL6\000\000\000"
 4924      1C000000 
 4924      000000CC 
 4924      4444444C 
 4924      36000000 
 4925 0408 000000EE 		.ascii	"\000\000\000\356DD((\020\000\000\000\000\000\000\356"
 4925      44442828 
 4925      10000000 
 4925      000000EE 
 4926 0418 44545454 		.ascii	"DTTT(\000\000\000\000\000\000\314H00H\314\000\000\000"
 4926      28000000 
 4926      000000CC 
 4926      48303048 
 4926      CC000000 
 4927 042c 000000EE 		.ascii	"\000\000\000\356D$(\030\020\020x\000\000\000\000|H\020"
 4927      44242818 
 4927      10107800 
 4927      0000007C 
 4927      4810
 4928 043e 20447C00 		.ascii	" D|\000\000\000\000\010\020\020\020\020 \020\020\020"
 4928      00000008 
 4928      10101010 
 4928      20101010 
 4929 044e 08000010 		.ascii	"\010\000\000\020\020\020\020\020\020\020\020\020\000"
 4929      10101010 
 4929      10101010 
 4929      00
 4930 045b 00002010 		.ascii	"\000\000 \020\020\020\020\010\020\020\020 \000\000\000"
 4930      10101008 
 4930      10101020 
 4930      000000
 4931 046a 00000024 		.ascii	"\000\000\000$X\000\000\000\000\000"
 4931      58000000 
 4931      0000
 4932              		.section	.rodata.Font16_Table,"a"
 4933              		.align	2
 4936              	Font16_Table:
 4937 0000 00000000 		.ascii	"\000\000\000\000\000\000\000\000\000\000\000\000\000"
 4937      00000000 
 4937      00000000 
 4937      00
 4938 000d 00000000 		.ascii	"\000\000\000\000\000\000\000\000\000\000\000\000\000"
 4938      00000000 
 4938      00000000 
 4938      00
 4939 001a 00000000 		.ascii	"\000\000\000\000\000\000\000\000\014\000\014\000\014"
 4939      00000000 
 4939      0C000C00 
 4939      0C
 4940 0027 000C000C 		.ascii	"\000\014\000\014\000\014\000\014\000\014\000\000\000"
ARM GAS  /tmp/ccky5mPs.s 			page 135


 4940      000C000C 
 4940      000C0000 
 4940      00
 4941 0034 0C000000 		.ascii	"\014\000\000\000\000\000\000\000\000\000\000\000\000"
 4941      00000000 
 4941      00000000 
 4941      00
 4942 0041 0000001D 		.ascii	"\000\000\000\035\300\035\300\010\200\010\200\010\200"
 4942      C01DC008 
 4942      80088008 
 4942      80
 4943 004e 00000000 		.ascii	"\000\000\000\000\000\000\000\000\000\000\000\000\000"
 4943      00000000 
 4943      00000000 
 4943      00
 4944 005b 00000000 		.ascii	"\000\000\000\000\000\000\000\015\200\015\200\015\200"
 4944      0000000D 
 4944      800D800D 
 4944      80
 4945 0068 0D803FC0 		.ascii	"\015\200?\300\033\000?\300\033\000\033\000\033\000\033"
 4945      1B003FC0 
 4945      1B001B00 
 4945      1B001B
 4946 0077 00000000 		.ascii	"\000\000\000\000\000\000\000\000\000\004\000\037\200"
 4946      00000000 
 4946      0004001F 
 4946      80
 4947 0084 31803180 		.ascii	"1\2001\2008\000\036\000\017\000\003\2001\2001\200?\000"
 4947      38001E00 
 4947      0F000380 
 4947      31803180 
 4947      3F00
 4948 0096 04000400 		.ascii	"\004\000\004\000\000\000\000\000\000\000\000\000\030"
 4948      00000000 
 4948      00000000 
 4948      18
 4949 00a3 00240024 		.ascii	"\000$\000$\000\030\300\007\200\036\0001\200\002@\002"
 4949      0018C007 
 4949      801E0031 
 4949      80024002 
 4950 00b3 40018000 		.ascii	"@\001\200\000\000\000\000\000\000\000\000\000\000\000"
 4950      00000000 
 4950      00000000 
 4950      0000
 4951 00c1 0000000F 		.ascii	"\000\000\000\017\000\030\000\030\000\030\000\014\000"
 4951      00180018 
 4951      0018000C 
 4951      00
 4952 00ce 1D803700 		.ascii	"\035\2007\0003\000\035\200\000\000\000\000\000\000\000"
 4952      33001D80 
 4952      00000000 
 4952      000000
 4953 00dd 00000000 		.ascii	"\000\000\000\000\000\000\000\007\000\007\000\002\000"
 4953      00000007 
 4953      00070002 
 4953      00
 4954 00ea 02000200 		.ascii	"\002\000\002\000\000\000\000\000\000\000\000\000\000"
ARM GAS  /tmp/ccky5mPs.s 			page 136


 4954      00000000 
 4954      00000000 
 4954      00
 4955 00f7 00000000 		.ascii	"\000\000\000\000\000\000\000\000\000\000\000\003\000"
 4955      00000000 
 4955      00000003 
 4955      00
 4956 0104 03000600 		.ascii	"\003\000\006\000\016\000\014\000\014\000\014\000\014"
 4956      0E000C00 
 4956      0C000C00 
 4956      0C
 4957 0111 000E0006 		.ascii	"\000\016\000\006\000\003\000\003\000\000\000\000\000"
 4957      00030003 
 4957      00000000 
 4957      00
 4958 011e 00000000 		.ascii	"\000\000\000\000\030\000\030\000\014\000\006\000\006"
 4958      18001800 
 4958      0C000600 
 4958      06
 4959 012b 00060006 		.ascii	"\000\006\000\006\000\006\000\006\000\014\000\034\000"
 4959      00060006 
 4959      000C001C 
 4959      00
 4960 0138 18000000 		.ascii	"\030\000\000\000\000\000\000\000\000\000\006\000\006"
 4960      00000000 
 4960      00000600 
 4960      06
 4961 0145 003FC03F 		.ascii	"\000?\300?\300\017\000\037\200\031\200\000\000\000\000"
 4961      C00F001F 
 4961      80198000 
 4961      000000
 4962 0154 00000000 		.ascii	"\000\000\000\000\000\000\000\000\000\000\000\000\000"
 4962      00000000 
 4962      00000000 
 4962      00
 4963 0161 00000000 		.ascii	"\000\000\000\000\000\004\000\004\000\004\000?\200\004"
 4963      00040004 
 4963      0004003F 
 4963      8004
 4964 016f 00040004 		.ascii	"\000\004\000\004\000\000\000\000\000\000\000\000\000"
 4964      00000000 
 4964      00000000 
 4964      00
 4965 017c 00000000 		.ascii	"\000\000\000\000\000\000\000\000\000\000\000\000\000"
 4965      00000000 
 4965      00000000 
 4965      00
 4966 0189 00000000 		.ascii	"\000\000\000\000\000\000\000\000\000\006\000\004\000"
 4966      00000000 
 4966      00060004 
 4966      00
 4967 0196 0C000800 		.ascii	"\014\000\010\000\010\000\000\000\000\000\000\000\000"
 4967      08000000 
 4967      00000000 
 4967      00
 4968 01a3 00000000 		.ascii	"\000\000\000\000\000\000\000\000\000?\200\000\000\000"
 4968      00000000 
ARM GAS  /tmp/ccky5mPs.s 			page 137


 4968      003F8000 
 4968      0000
 4969 01b1 00000000 		.ascii	"\000\000\000\000\000\000\000\000\000\000\000\000\000"
 4969      00000000 
 4969      00000000 
 4969      00
 4970 01be 00000000 		.ascii	"\000\000\000\000\000\000\000\000\000\000\000\000\000"
 4970      00000000 
 4970      00000000 
 4970      00
 4971 01cb 00000000 		.ascii	"\000\000\000\000\000\000\000\014\000\014\000\000\000"
 4971      0000000C 
 4971      000C0000 
 4971      00
 4972 01d8 00000000 		.ascii	"\000\000\000\000\000\000\000\000\000\300\000\300\001"
 4972      00000000 
 4972      00C000C0 
 4972      01
 4973 01e5 80018003 		.ascii	"\200\001\200\003\000\003\000\006\000\014\000\014\000"
 4973      00030006 
 4973      000C000C 
 4973      00
 4974 01f2 18001800 		.ascii	"\030\000\030\0000\0000\000\000\000\000\000\000\000\000"
 4974      30003000 
 4974      00000000 
 4974      000000
 4975 0201 000E001B 		.ascii	"\000\016\000\033\0001\2001\2001\2001\2001\2001\200\033"
 4975      00318031 
 4975      80318031 
 4975      80318031 
 4975      801B
 4976 0213 000E0000 		.ascii	"\000\016\000\000\000\000\000\000\000\000\000\000\000"
 4976      00000000 
 4976      00000000 
 4976      00
 4977 0220 00000600 		.ascii	"\000\000\006\000>\000\006\000\006\000\006\000\006\000"
 4977      3E000600 
 4977      06000600 
 4977      0600
 4978 022e 06000600 		.ascii	"\006\000\006\000\006\000?\300\000\000\000\000\000\000"
 4978      06003FC0 
 4978      00000000 
 4978      0000
 4979 023c 00000000 		.ascii	"\000\000\000\000\000\000\017\000\031\2001\2001\200\003"
 4979      00000F00 
 4979      19803180 
 4979      318003
 4980 024b 0006000C 		.ascii	"\000\006\000\014\000\030\0000\000?\200\000\000\000\000"
 4980      00180030 
 4980      003F8000 
 4980      000000
 4981 025a 00000000 		.ascii	"\000\000\000\000\000\000\000\000?\000a\200\001\200\003"
 4981      00000000 
 4981      3F006180 
 4981      018003
 4982 0269 001F0003 		.ascii	"\000\037\000\003\200\001\200\001\200a\200?\000\000\000"
 4982      80018001 
ARM GAS  /tmp/ccky5mPs.s 			page 138


 4982      8061803F 
 4982      000000
 4983 0278 00000000 		.ascii	"\000\000\000\000\000\000\000\000\000\000\007\000\007"
 4983      00000000 
 4983      00000700 
 4983      07
 4984 0285 000F000B 		.ascii	"\000\017\000\013\000\033\000\023\0003\000?\200\003\000"
 4984      001B0013 
 4984      0033003F 
 4984      800300
 4985 0294 0F800000 		.ascii	"\017\200\000\000\000\000\000\000\000\000\000\000\000"
 4985      00000000 
 4985      00000000 
 4985      00
 4986 02a1 001F8018 		.ascii	"\000\037\200\030\000\030\000\030\000\037\000\021\200"
 4986      00180018 
 4986      001F0011 
 4986      80
 4987 02ae 01800180 		.ascii	"\001\200\001\200!\200\037\000\000\000\000\000\000\000"
 4987      21801F00 
 4987      00000000 
 4987      0000
 4988 02bc 00000000 		.ascii	"\000\000\000\000\000\000\007\200\034\000\030\0000\000"
 4988      00000780 
 4988      1C001800 
 4988      3000
 4989 02ca 37003980 		.ascii	"7\0009\2001\2001\200\031\200\017\000\000\000\000\000"
 4989      31803180 
 4989      19800F00 
 4989      00000000 
 4990 02da 00000000 		.ascii	"\000\000\000\000\000\000\000\000\177\000C\000\003\000"
 4990      00000000 
 4990      7F004300 
 4990      0300
 4991 02e8 06000600 		.ascii	"\006\000\006\000\006\000\006\000\014\000\014\000\014"
 4991      06000600 
 4991      0C000C00 
 4991      0C
 4992 02f5 00000000 		.ascii	"\000\000\000\000\000\000\000\000\000\000\000\000\000"
 4992      00000000 
 4992      00000000 
 4992      00
 4993 0302 1F003180 		.ascii	"\037\0001\2001\2001\200\037\0001\2001\2001\2001\200"
 4993      31803180 
 4993      1F003180 
 4993      31803180 
 4993      3180
 4994 0314 1F000000 		.ascii	"\037\000\000\000\000\000\000\000\000\000\000\000\000"
 4994      00000000 
 4994      00000000 
 4994      00
 4995 0321 001E0033 		.ascii	"\000\036\0003\0001\2001\2003\200\035\200\001\200\003"
 4995      00318031 
 4995      8033801D 
 4995      80018003 
 4996 0331 0007003C 		.ascii	"\000\007\000<\000\000\000\000\000\000\000\000\000\000"
 4996      00000000 
ARM GAS  /tmp/ccky5mPs.s 			page 139


 4996      00000000 
 4996      0000
 4997 033f 00000000 		.ascii	"\000\000\000\000\000\000\000\000\000\014\000\014\000"
 4997      00000000 
 4997      000C000C 
 4997      00
 4998 034c 00000000 		.ascii	"\000\000\000\000\000\000\014\000\014\000\000\000\000"
 4998      00000C00 
 4998      0C000000 
 4998      00
 4999 0359 00000000 		.ascii	"\000\000\000\000\000\000\000\000\000\000\000\000\000"
 4999      00000000 
 4999      00000000 
 4999      00
 5000 0366 00000300 		.ascii	"\000\000\003\000\003\000\000\000\000\000\000\000\006"
 5000      03000000 
 5000      00000000 
 5000      06
 5001 0373 00040008 		.ascii	"\000\004\000\010\000\010\000\000\000\000\000\000\000"
 5001      00080000 
 5001      00000000 
 5001      00
 5002 0380 00000000 		.ascii	"\000\000\000\000\000\300\003\000\004\000\030\000`\000"
 5002      00C00300 
 5002      04001800 
 5002      6000
 5003 038e 18000400 		.ascii	"\030\000\004\000\003\000\000\300\000\000\000\000\000"
 5003      030000C0 
 5003      00000000 
 5003      00
 5004 039b 00000000 		.ascii	"\000\000\000\000\000\000\000\000\000\000\000\000\000"
 5004      00000000 
 5004      00000000 
 5004      00
 5005 03a8 00007FC0 		.ascii	"\000\000\177\300\000\000\177\300\000\000\000\000\000"
 5005      00007FC0 
 5005      00000000 
 5005      00
 5006 03b5 00000000 		.ascii	"\000\000\000\000\000\000\000\000\000\000\000\000\000"
 5006      00000000 
 5006      00000000 
 5006      00
 5007 03c2 00006000 		.ascii	"\000\000`\000\030\000\004\000\003\000\000\300\003\000"
 5007      18000400 
 5007      030000C0 
 5007      0300
 5008 03d0 04001800 		.ascii	"\004\000\030\000`\000\000\000\000\000\000\000\000\000"
 5008      60000000 
 5008      00000000 
 5008      0000
 5009 03de 00000000 		.ascii	"\000\000\000\000\000\000\037\0001\2001\200\001\200\007"
 5009      00001F00 
 5009      31803180 
 5009      018007
 5010 03ed 000C000C 		.ascii	"\000\014\000\014\000\000\000\014\000\000\000\000\000"
 5010      0000000C 
 5010      00000000 
ARM GAS  /tmp/ccky5mPs.s 			page 140


 5010      00
 5011 03fa 00000000 		.ascii	"\000\000\000\000\000\000\000\000\016\000\021\000!\000"
 5011      00000000 
 5011      0E001100 
 5011      2100
 5012 0408 21002700 		.ascii	"!\000'\000)\000)\000'\000 \000\021\000\016\000\000\000"
 5012      29002900 
 5012      27002000 
 5012      11000E00 
 5012      0000
 5013 041a 00000000 		.ascii	"\000\000\000\000\000\000\000\000\000\000?\000\017\000"
 5013      00000000 
 5013      00003F00 
 5013      0F00
 5014 0428 09001980 		.ascii	"\011\000\031\200\031\200\037\2000\3000\300y\340\000"
 5014      19801F80 
 5014      30C030C0 
 5014      79E000
 5015 0437 00000000 		.ascii	"\000\000\000\000\000\000\000\000\000\000\000\000\000"
 5015      00000000 
 5015      00000000 
 5015      00
 5016 0444 7F003180 		.ascii	"\177\0001\2001\2001\200?\0001\2001\2001\200\177\000"
 5016      31803180 
 5016      3F003180 
 5016      31803180 
 5016      7F00
 5017 0456 00000000 		.ascii	"\000\000\000\000\000\000\000\000\000\000\000\000\000"
 5017      00000000 
 5017      00000000 
 5017      00
 5018 0463 001F4030 		.ascii	"\000\037@0\300`@`\000`\000`\000`@0\200\037\000\000\000"
 5018      C0604060 
 5018      00600060 
 5018      00604030 
 5018      801F0000 
 5019 0478 00000000 		.ascii	"\000\000\000\000\000\000\000\000\000\000\000\000\177"
 5019      00000000 
 5019      00000000 
 5019      7F
 5020 0485 00318030 		.ascii	"\0001\2000\3000\3000\3000\3000\3001\200\177\000\000"
 5020      C030C030 
 5020      C030C030 
 5020      C031807F 
 5020      0000
 5021 0497 00000000 		.ascii	"\000\000\000\000\000\000\000\000\000\000\000\000\000"
 5021      00000000 
 5021      00000000 
 5021      00
 5022 04a4 7F803080 		.ascii	"\177\2000\2000\2002\000>\0002\0000\2000\200\177\200"
 5022      30803200 
 5022      3E003200 
 5022      30803080 
 5022      7F80
 5023 04b6 00000000 		.ascii	"\000\000\000\000\000\000\000\000\000\000\000\000\000"
 5023      00000000 
 5023      00000000 
ARM GAS  /tmp/ccky5mPs.s 			page 141


 5023      00
 5024 04c3 007FC030 		.ascii	"\000\177\3000@0@2\000>\0002\0000\0000\000|\000\000\000"
 5024      40304032 
 5024      003E0032 
 5024      00300030 
 5024      007C0000 
 5025 04d8 00000000 		.ascii	"\000\000\000\000\000\000\000\000\000\000\000\000\036"
 5025      00000000 
 5025      00000000 
 5025      1E
 5026 04e5 80318060 		.ascii	"\2001\200`\200`\000`\000g\300a\2001\200\037\000\000"
 5026      80600060 
 5026      0067C061 
 5026      8031801F 
 5026      0000
 5027 04f7 00000000 		.ascii	"\000\000\000\000\000\000\000\000\000\000\000\000\000"
 5027      00000000 
 5027      00000000 
 5027      00
 5028 0504 7BC03180 		.ascii	"{\3001\2001\2001\200?\2001\2001\2001\200{\300\000\000"
 5028      31803180 
 5028      3F803180 
 5028      31803180 
 5028      7BC00000 
 5029 0518 00000000 		.ascii	"\000\000\000\000\000\000\000\000\000\000\000\000?\300"
 5029      00000000 
 5029      00000000 
 5029      3FC0
 5030 0526 06000600 		.ascii	"\006\000\006\000\006\000\006\000\006\000\006\000\006"
 5030      06000600 
 5030      06000600 
 5030      06
 5031 0533 003FC000 		.ascii	"\000?\300\000\000\000\000\000\000\000\000\000\000\000"
 5031      00000000 
 5031      00000000 
 5031      0000
 5032 0541 0000001F 		.ascii	"\000\000\000\037\300\003\000\003\000\003\000\003\000"
 5032      C0030003 
 5032      00030003 
 5032      00
 5033 054e 63006300 		.ascii	"c\000c\000c\000>\000\000\000\000\000\000\000\000\000"
 5033      63003E00 
 5033      00000000 
 5033      00000000 
 5034 055e 00000000 		.ascii	"\000\000\000\000\000\000{\3001\2003\0006\000<\000>\000"
 5034      00007BC0 
 5034      31803300 
 5034      36003C00 
 5034      3E00
 5035 0570 33003180 		.ascii	"3\0001\200y\300\000\000\000\000\000\000\000\000\000"
 5035      79C00000 
 5035      00000000 
 5035      000000
 5036 057f 00000000 		.ascii	"\000\000\000\000\000~\000\030\000\030\000\030\000\030"
 5036      007E0018 
 5036      00180018 
 5036      0018
ARM GAS  /tmp/ccky5mPs.s 			page 142


 5037 058d 00184018 		.ascii	"\000\030@\030@\030@\177\300\000\000\000\000\000\000"
 5037      4018407F 
 5037      C0000000 
 5037      000000
 5038 059c 00000000 		.ascii	"\000\000\000\000\000\000\000\000\340\340`\300q\300{"
 5038      00000000 
 5038      E0E060C0 
 5038      71C07B
 5039 05ab C06AC06E 		.ascii	"\300j\300n\300d\300`\300\373\340\000\000\000\000\000"
 5039      C064C060 
 5039      C0FBE000 
 5039      00000000 
 5040 05bb 00000000 		.ascii	"\000\000\000\000\000\000\000\000\000s\3001\2009\200"
 5040      00000000 
 5040      0073C031 
 5040      803980
 5041 05ca 3D803580 		.ascii	"=\2005\2007\2003\2001\200y\200\000\000\000\000\000\000"
 5041      37803380 
 5041      31807980 
 5041      00000000 
 5041      0000
 5042 05dc 00000000 		.ascii	"\000\000\000\000\000\000\000\000\037\0001\200`\300`"
 5042      00000000 
 5042      1F003180 
 5042      60C060
 5043 05eb C060C060 		.ascii	"\300`\300`\300`\3001\200\037\000\000\000\000\000\000"
 5043      C060C031 
 5043      801F0000 
 5043      00000000 
 5044 05fb 00000000 		.ascii	"\000\000\000\000\000\000\000\000\000\177\0001\2001\200"
 5044      00000000 
 5044      007F0031 
 5044      803180
 5045 060a 31803180 		.ascii	"1\2001\200?\0000\0000\000~\000\000\000\000\000\000\000"
 5045      3F003000 
 5045      30007E00 
 5045      00000000 
 5045      0000
 5046 061c 00000000 		.ascii	"\000\000\000\000\000\000\000\000\037\0001\200`\300`"
 5046      00000000 
 5046      1F003180 
 5046      60C060
 5047 062b C060C060 		.ascii	"\300`\300`\300`\3001\200\037\000\014\300\037\200\000"
 5047      C060C031 
 5047      801F000C 
 5047      C01F8000 
 5048 063b 00000000 		.ascii	"\000\000\000\000\000\000\000\000\000\177\0001\2001\200"
 5048      00000000 
 5048      007F0031 
 5048      803180
 5049 064a 31803E00 		.ascii	"1\200>\0003\0001\2001\200|\340\000\000\000\000\000\000"
 5049      33003180 
 5049      31807CE0 
 5049      00000000 
 5049      0000
 5050 065c 00000000 		.ascii	"\000\000\000\000\000\000\000\000\037\2001\2001\2008"
 5050      00000000 
ARM GAS  /tmp/ccky5mPs.s 			page 143


 5050      1F803180 
 5050      318038
 5051 066b 001F0003 		.ascii	"\000\037\000\003\2001\2001\200?\000\000\000\000\000"
 5051      80318031 
 5051      803F0000 
 5051      000000
 5052 067a 00000000 		.ascii	"\000\000\000\000\000\000\000\000\000\000\177\200L\200"
 5052      00000000 
 5052      00007F80 
 5052      4C80
 5053 0688 4C804C80 		.ascii	"L\200L\200\014\000\014\000\014\000\014\000?\000\000"
 5053      0C000C00 
 5053      0C000C00 
 5053      3F0000
 5054 0697 00000000 		.ascii	"\000\000\000\000\000\000\000\000\000\000\000\000\000"
 5054      00000000 
 5054      00000000 
 5054      00
 5055 06a4 7BC03180 		.ascii	"{\3001\2001\2001\2001\2001\2001\2001\200\037\000\000"
 5055      31803180 
 5055      31803180 
 5055      31803180 
 5055      1F0000
 5056 06b7 00000000 		.ascii	"\000\000\000\000\000\000\000\000\000\000\000\000\000"
 5056      00000000 
 5056      00000000 
 5056      00
 5057 06c4 7BC03180 		.ascii	"{\3001\2001\200\033\000\033\000\033\000\012\000\016"
 5057      31801B00 
 5057      1B001B00 
 5057      0A000E
 5058 06d3 000E0000 		.ascii	"\000\016\000\000\000\000\000\000\000\000\000\000\000"
 5058      00000000 
 5058      00000000 
 5058      00
 5059 06e0 00000000 		.ascii	"\000\000\000\000\373\340`\300d\300n\300n\300*\200;\200"
 5059      FBE060C0 
 5059      64C06EC0 
 5059      6EC02A80 
 5059      3B80
 5060 06f2 3B803180 		.ascii	";\2001\200\000\000\000\000\000\000\000\000\000\000\000"
 5060      00000000 
 5060      00000000 
 5060      000000
 5061 0701 0000007B 		.ascii	"\000\000\000{\3001\200\033\000\016\000\016\000\016\000"
 5061      C031801B 
 5061      000E000E 
 5061      000E00
 5062 0710 1B003180 		.ascii	"\033\0001\200{\300\000\000\000\000\000\000\000\000\000"
 5062      7BC00000 
 5062      00000000 
 5062      000000
 5063 071f 00000000 		.ascii	"\000\000\000\000\000y\3400\300\031\200\017\000\006\000"
 5063      0079E030 
 5063      C019800F 
 5063      000600
 5064 072e 06000600 		.ascii	"\006\000\006\000\006\000\037\200\000\000\000\000\000"
ARM GAS  /tmp/ccky5mPs.s 			page 144


 5064      06001F80 
 5064      00000000 
 5064      00
 5065 073b 00000000 		.ascii	"\000\000\000\000\000\000\000\000\000?\200!\200#\000"
 5065      00000000 
 5065      003F8021 
 5065      802300
 5066 074a 06000400 		.ascii	"\006\000\004\000\014\000\030\2000\200?\200\000\000\000"
 5066      0C001880 
 5066      30803F80 
 5066      000000
 5067 0759 00000000 		.ascii	"\000\000\000\000\000\000\000\000\000\007\200\006\000"
 5067      00000000 
 5067      00078006 
 5067      00
 5068 0766 06000600 		.ascii	"\006\000\006\000\006\000\006\000\006\000\006\000\006"
 5068      06000600 
 5068      06000600 
 5068      06
 5069 0773 00060006 		.ascii	"\000\006\000\006\000\007\200\000\000\000\000\000\000"
 5069      00078000 
 5069      00000000 
 5069      00
 5070 0780 30003000 		.ascii	"0\0000\000\030\000\030\000\014\000\014\000\006\000\003"
 5070      18001800 
 5070      0C000C00 
 5070      060003
 5071 078f 00030001 		.ascii	"\000\003\000\001\200\001\200\000\300\000\300\000\000"
 5071      80018000 
 5071      C000C000 
 5071      00
 5072 079c 00000000 		.ascii	"\000\000\000\000\000\000\036\000\006\000\006\000\006"
 5072      00001E00 
 5072      06000600 
 5072      06
 5073 07a9 00060006 		.ascii	"\000\006\000\006\000\006\000\006\000\006\000\006\000"
 5073      00060006 
 5073      00060006 
 5073      00
 5074 07b6 06001E00 		.ascii	"\006\000\036\000\000\000\000\000\000\000\004\000\012"
 5074      00000000 
 5074      00000400 
 5074      0A
 5075 07c3 000A0011 		.ascii	"\000\012\000\021\000 \200 \200\000\000\000\000"
 5075      00208020 
 5075      80000000 
 5075      00
 5076 07d0 00000000 		.ascii	"\000\000\000\000\000\000\000\000\000\000\000\000\000"
 5076      00000000 
 5076      00000000 
 5076      00
 5077 07dd 00000000 		.ascii	"\000\000\000\000\000\000\000\000\000\000\000\000\000"
 5077      00000000 
 5077      00000000 
 5077      00
 5078 07ea 00000000 		.ascii	"\000\000\000\000\000\000\000\000\000\000\000\000\000"
 5078      00000000 
ARM GAS  /tmp/ccky5mPs.s 			page 145


 5078      00000000 
 5078      00
 5079 07f7 00000000 		.ascii	"\000\000\000\000\000\000\000\377\340\010\000\004\000"
 5079      000000FF 
 5079      E0080004 
 5079      00
 5080 0804 02000000 		.ascii	"\002\000\000\000\000\000\000\000\000\000\000\000\000"
 5080      00000000 
 5080      00000000 
 5080      00
 5081 0811 00000000 		.ascii	"\000\000\000\000\000\000\000\000\000\000\000\000\000"
 5081      00000000 
 5081      00000000 
 5081      00
 5082 081e 00000000 		.ascii	"\000\000\000\000\000\000\000\000\000\000\037\000\001"
 5082      00000000 
 5082      00001F00 
 5082      01
 5083 082b 8001801F 		.ascii	"\200\001\200\037\2001\2003\200\035\300\000\000\000\000"
 5083      80318033 
 5083      801DC000 
 5083      000000
 5084 083a 00000000 		.ascii	"\000\000\000\000\000\000\000\000p\0000\0000\0007\000"
 5084      00000000 
 5084      70003000 
 5084      30003700 
 5085 084a 398030C0 		.ascii	"9\2000\3000\3000\3009\200w\000\000\000\000\000\000\000"
 5085      30C030C0 
 5085      39807700 
 5085      00000000 
 5085      0000
 5086 085c 00000000 		.ascii	"\000\000\000\000\000\000\000\000\000\000\000\000\036"
 5086      00000000 
 5086      00000000 
 5086      1E
 5087 0869 80318060 		.ascii	"\2001\200`\200`\000`\2001\200\037\000\000\000\000\000"
 5087      80600060 
 5087      8031801F 
 5087      00000000 
 5087      00
 5088 087a 00000000 		.ascii	"\000\000\000\000\000\000\000\000\003\200\001\200\001"
 5088      00000000 
 5088      03800180 
 5088      01
 5089 0887 801D8033 		.ascii	"\200\035\2003\200a\200a\200a\2003\200\035\300\000\000"
 5089      80618061 
 5089      80618033 
 5089      801DC000 
 5089      00
 5090 0898 00000000 		.ascii	"\000\000\000\000\000\000\000\000\000\000\000\000\000"
 5090      00000000 
 5090      00000000 
 5090      00
 5091 08a5 0000001F 		.ascii	"\000\000\000\037\0001\200`\300\177\300`\0000\300\037"
 5091      00318060 
 5091      C07FC060 
 5091      0030C01F 
ARM GAS  /tmp/ccky5mPs.s 			page 146


 5092 08b5 80000000 		.ascii	"\200\000\000\000\000\000\000\000\000\000\000\000\000"
 5092      00000000 
 5092      00000000 
 5092      00
 5093 08c2 07E00C00 		.ascii	"\007\340\014\000\014\000?\200\014\000\014\000\014\000"
 5093      0C003F80 
 5093      0C000C00 
 5093      0C00
 5094 08d0 0C000C00 		.ascii	"\014\000\014\000?\200\000\000\000\000\000\000\000\000"
 5094      3F800000 
 5094      00000000 
 5094      0000
 5095 08de 00000000 		.ascii	"\000\000\000\000\000\000\000\000\000\000\035\3003\200"
 5095      00000000 
 5095      00001DC0 
 5095      3380
 5096 08ec 61806180 		.ascii	"a\200a\200a\2003\200\035\200\001\200\001\200\037\000"
 5096      61803380 
 5096      1D800180 
 5096      01801F00 
 5097 08fc 00000000 		.ascii	"\000\000\000\000\000\000p\0000\0000\0007\0009\2001\200"
 5097      00007000 
 5097      30003000 
 5097      37003980 
 5097      3180
 5098 090e 31803180 		.ascii	"1\2001\2001\200{\300\000\000\000\000\000\000\000\000"
 5098      31807BC0 
 5098      00000000 
 5098      00000000 
 5099 091e 00000000 		.ascii	"\000\000\000\000\006\000\006\000\000\000\036\000\006"
 5099      06000600 
 5099      00001E00 
 5099      06
 5100 092b 00060006 		.ascii	"\000\006\000\006\000\006\000\006\000?\300\000\000\000"
 5100      00060006 
 5100      003FC000 
 5100      0000
 5101 0939 00000000 		.ascii	"\000\000\000\000\000\000\000\000\000\006\000\006\000"
 5101      00000000 
 5101      00060006 
 5101      00
 5102 0946 00003F00 		.ascii	"\000\000?\000\003\000\003\000\003\000\003\000\003\000"
 5102      03000300 
 5102      03000300 
 5102      0300
 5103 0954 03000300 		.ascii	"\003\000\003\000\003\000>\000\000\000\000\000\000\000"
 5103      03003E00 
 5103      00000000 
 5103      0000
 5104 0962 70003000 		.ascii	"p\0000\0000\0007\2006\000<\000<\0006\0003\000w\300\000"
 5104      30003780 
 5104      36003C00 
 5104      3C003600 
 5104      330077C0 
 5105 0977 00000000 		.ascii	"\000\000\000\000\000\000\000\000\000\000\000\036\000"
 5105      00000000 
 5105      0000001E 
ARM GAS  /tmp/ccky5mPs.s 			page 147


 5105      00
 5106 0984 06000600 		.ascii	"\006\000\006\000\006\000\006\000\006\000\006\000\006"
 5106      06000600 
 5106      06000600 
 5106      06
 5107 0991 0006003F 		.ascii	"\000\006\000?\300\000\000\000\000\000\000\000\000\000"
 5107      C0000000 
 5107      00000000 
 5107      0000
 5108 099f 00000000 		.ascii	"\000\000\000\000\000\000\000\000\000\177\2006\3006\300"
 5108      00000000 
 5108      007F8036 
 5108      C036C0
 5109 09ae 36C036C0 		.ascii	"6\3006\3006\300v\340\000\000\000\000\000\000\000\000"
 5109      36C076E0 
 5109      00000000 
 5109      00000000 
 5110 09be 00000000 		.ascii	"\000\000\000\000\000\000\000\000\000\000w\0009\2001"
 5110      00000000 
 5110      00007700 
 5110      398031
 5111 09cd 80318031 		.ascii	"\2001\2001\2001\200{\300\000\000\000\000\000\000\000"
 5111      8031807B 
 5111      C0000000 
 5111      00000000 
 5112 09dd 00000000 		.ascii	"\000\000\000\000\000\000\000\000\000\000\000\037\000"
 5112      00000000 
 5112      0000001F 
 5112      00
 5113 09ea 318060C0 		.ascii	"1\200`\300`\300`\3001\200\037\000\000\000\000\000\000"
 5113      60C060C0 
 5113      31801F00 
 5113      00000000 
 5113      00
 5114 09fb 00000000 		.ascii	"\000\000\000\000\000\000\000\000\000\000\000\000\000"
 5114      00000000 
 5114      00000000 
 5114      00
 5115 0a08 77003980 		.ascii	"w\0009\2000\3000\3000\3009\2007\0000\0000\000|\000\000"
 5115      30C030C0 
 5115      30C03980 
 5115      37003000 
 5115      30007C00 
 5116 0a1d 00000000 		.ascii	"\000\000\000\000\000\000\000\000\000\000\000\035\300"
 5116      00000000 
 5116      0000001D 
 5116      C0
 5117 0a2a 33806180 		.ascii	"3\200a\200a\200a\2003\200\035\200\001\200\001\200\007"
 5117      61806180 
 5117      33801D80 
 5117      01800180 
 5117      07
 5118 0a3b C0000000 		.ascii	"\300\000\000\000\000\000\000\000\000\000\000\000\000"
 5118      00000000 
 5118      00000000 
 5118      00
 5119 0a48 7B801CC0 		.ascii	"{\200\034\300\030\000\030\000\030\000\030\000\177\000"
ARM GAS  /tmp/ccky5mPs.s 			page 148


 5119      18001800 
 5119      18001800 
 5119      7F00
 5120 0a56 00000000 		.ascii	"\000\000\000\000\000\000\000\000\000\000\000\000\000"
 5120      00000000 
 5120      00000000 
 5120      00
 5121 0a63 00000000 		.ascii	"\000\000\000\000\000\037\2001\200<\000\037\000\003\200"
 5121      001F8031 
 5121      803C001F 
 5121      000380
 5122 0a72 31803F00 		.ascii	"1\200?\000\000\000\000\000\000\000\000\000\000\000\000"
 5122      00000000 
 5122      00000000 
 5122      000000
 5123 0a81 00180018 		.ascii	"\000\030\000\030\000\030\000\177\000\030\000\030\000"
 5123      0018007F 
 5123      00180018 
 5123      00
 5124 0a8e 18001800 		.ascii	"\030\000\030\000\030\200\017\000\000\000\000\000\000"
 5124      18800F00 
 5124      00000000 
 5124      00
 5125 0a9b 00000000 		.ascii	"\000\000\000\000\000\000\000\000\000\000\000\000\000"
 5125      00000000 
 5125      00000000 
 5125      00
 5126 0aa8 73803180 		.ascii	"s\2001\2001\2001\2001\2003\200\035\300\000\000\000\000"
 5126      31803180 
 5126      31803380 
 5126      1DC00000 
 5126      0000
 5127 0aba 00000000 		.ascii	"\000\000\000\000\000\000\000\000\000\000\000\000\000"
 5127      00000000 
 5127      00000000 
 5127      00
 5128 0ac7 007BC031 		.ascii	"\000{\3001\2001\200\033\000\033\000\016\000\016\000"
 5128      8031801B 
 5128      001B000E 
 5128      000E00
 5129 0ad6 00000000 		.ascii	"\000\000\000\000\000\000\000\000\000\000\000\000\000"
 5129      00000000 
 5129      00000000 
 5129      00
 5130 0ae3 00000000 		.ascii	"\000\000\000\000\000\361\340`\300d\300n\300;\200;\200"
 5130      00F1E060 
 5130      C064C06E 
 5130      C03B803B 
 5130      80
 5131 0af4 31800000 		.ascii	"1\200\000\000\000\000\000\000\000\000\000\000\000\000"
 5131      00000000 
 5131      00000000 
 5131      0000
 5132 0b02 00000000 		.ascii	"\000\000\000\000\000\000{\300\033\000\016\000\016\000"
 5132      00007BC0 
 5132      1B000E00 
 5132      0E00
ARM GAS  /tmp/ccky5mPs.s 			page 149


 5133 0b10 0E001B00 		.ascii	"\016\000\033\000{\300\000\000\000\000\000\000\000\000"
 5133      7BC00000 
 5133      00000000 
 5133      0000
 5134 0b1e 00000000 		.ascii	"\000\000\000\000\000\000\000\000\000\000y\3400\300\031"
 5134      00000000 
 5134      000079E0 
 5134      30C019
 5135 0b2d 8019800B 		.ascii	"\200\031\200\013\000\017\000\006\000\006\000\014\000"
 5135      000F0006 
 5135      0006000C 
 5135      00
 5136 0b3a 3E000000 		.ascii	">\000\000\000\000\000\000\000\000\000\000\000\000\000"
 5136      00000000 
 5136      00000000 
 5136      0000
 5137 0b48 3F802180 		.ascii	"?\200!\200\003\000\016\000\030\0000\200?\200\000\000"
 5137      03000E00 
 5137      18003080 
 5137      3F800000 
 5138 0b58 00000000 		.ascii	"\000\000\000\000\000\000\000\000\000\000\006\000\014"
 5138      00000000 
 5138      00000600 
 5138      0C
 5139 0b65 000C000C 		.ascii	"\000\014\000\014\000\014\000\014\000\030\000\014\000"
 5139      000C000C 
 5139      0018000C 
 5139      00
 5140 0b72 0C000C00 		.ascii	"\014\000\014\000\014\000\006\000\000\000\000\000\000"
 5140      0C000600 
 5140      00000000 
 5140      00
 5141 0b7f 00000006 		.ascii	"\000\000\000\006\000\006\000\006\000\006\000\006\000"
 5141      00060006 
 5141      00060006 
 5141      00
 5142 0b8c 06000600 		.ascii	"\006\000\006\000\006\000\006\000\006\000\006\000\006"
 5142      06000600 
 5142      06000600 
 5142      06
 5143 0b99 00000000 		.ascii	"\000\000\000\000\000\000\000\000\000\014\000\006\000"
 5143      00000000 
 5143      000C0006 
 5143      00
 5144 0ba6 06000600 		.ascii	"\006\000\006\000\006\000\006\000\003\000\006\000\006"
 5144      06000600 
 5144      03000600 
 5144      06
 5145 0bb3 00060006 		.ascii	"\000\006\000\006\000\014\000\000\000\000\000\000\000"
 5145      000C0000 
 5145      00000000 
 5145      00
 5146 0bc0 00000000 		.ascii	"\000\000\000\000\000\000\000\000\000\000\030\000$\200"
 5146      00000000 
 5146      00001800 
 5146      2480
 5147 0bce 03000000 		.ascii	"\003\000\000\000\000\000\000\000\000\000\000\000\000"
ARM GAS  /tmp/ccky5mPs.s 			page 150


 5147      00000000 
 5147      00000000 
 5147      00
 5148 0bdb 00000000 		.ascii	"\000\000\000\000\000"
 5148      00
 5149              		.section	.rodata.Font20_Table,"a"
 5150              		.align	2
 5153              	Font20_Table:
 5154 0000 00000000 		.ascii	"\000\000\000\000\000\000\000\000\000\000\000\000\000"
 5154      00000000 
 5154      00000000 
 5154      00
 5155 000d 00000000 		.ascii	"\000\000\000\000\000\000\000\000\000\000\000\000\000"
 5155      00000000 
 5155      00000000 
 5155      00
 5156 001a 00000000 		.ascii	"\000\000\000\000\000\000\000\000\000\000\000\000\000"
 5156      00000000 
 5156      00000000 
 5156      00
 5157 0027 00000007 		.ascii	"\000\000\000\007\000\007\000\007\000\007\000\007\000"
 5157      00070007 
 5157      00070007 
 5157      00
 5158 0034 07000700 		.ascii	"\007\000\007\000\002\000\002\000\000\000\000\000\007"
 5158      02000200 
 5158      00000000 
 5158      07
 5159 0041 00070000 		.ascii	"\000\007\000\000\000\000\000\000\000\000\000\000\000"
 5159      00000000 
 5159      00000000 
 5159      00
 5160 004e 00000000 		.ascii	"\000\000\000\000\000\000\034\340\034\340\034\340\010"
 5160      00001CE0 
 5160      1CE01CE0 
 5160      08
 5161 005b 40084008 		.ascii	"@\010@\010@\000\000\000\000\000\000\000\000\000\000"
 5161      40000000 
 5161      00000000 
 5161      000000
 5162 006a 00000000 		.ascii	"\000\000\000\000\000\000\000\000\000\000\000\000\000"
 5162      00000000 
 5162      00000000 
 5162      00
 5163 0077 000CC00C 		.ascii	"\000\014\300\014\300\014\300\014\300\014\300?\360?\360"
 5163      C00CC00C 
 5163      C00CC03F 
 5163      F03FF0
 5164 0086 0CC00CC0 		.ascii	"\014\300\014\300?\360?\360\014\300\014\300\014\300\014"
 5164      3FF03FF0 
 5164      0CC00CC0 
 5164      0CC00C
 5165 0095 C00CC000 		.ascii	"\300\014\300\000\000\000\000\000\000\000\000\003\000"
 5165      00000000 
 5165      00000003 
 5165      00
 5166 00a2 030007E0 		.ascii	"\003\000\007\340\017\340\030`\030\000\037\000\017\300"
ARM GAS  /tmp/ccky5mPs.s 			page 151


 5166      0FE01860 
 5166      18001F00 
 5166      0FC0
 5167 00b0 00E01860 		.ascii	"\000\340\030`\030`\037\300\037\200\003\000\003\000\003"
 5167      18601FC0 
 5167      1F800300 
 5167      030003
 5168 00bf 00000000 		.ascii	"\000\000\000\000\000\000\000\000\000\000\000\034\000"
 5168      00000000 
 5168      0000001C 
 5168      00
 5169 00cc 22002200 		.ascii	"\"\000\"\000\"\000\034`\001\340\017\200<\0001\300\002"
 5169      22001C60 
 5169      01E00F80 
 5169      3C0031C0 
 5169      02
 5170 00dd 20022002 		.ascii	" \002 \002 \001\300\000\000\000\000\000\000\000\000"
 5170      2001C000 
 5170      00000000 
 5170      000000
 5171 00ec 00000000 		.ascii	"\000\000\000\000\000\000\000\000\000\000\003\340\017"
 5171      00000000 
 5171      000003E0 
 5171      0F
 5172 00f9 E00C000C 		.ascii	"\340\014\000\014\000\006\000\0170\037\360\031\340\030"
 5172      0006000F 
 5172      301FF019 
 5172      E018
 5173 0107 C01FF007 		.ascii	"\300\037\360\007\260\000\000\000\000\000\000\000\000"
 5173      B0000000 
 5173      00000000 
 5173      00
 5174 0114 00000000 		.ascii	"\000\000\000\000\000\000\000\000\003\200\003\200\003"
 5174      00000000 
 5174      03800380 
 5174      03
 5175 0121 80010001 		.ascii	"\200\001\000\001\000\001\000\000\000\000\000\000\000"
 5175      00010000 
 5175      00000000 
 5175      00
 5176 012e 00000000 		.ascii	"\000\000\000\000\000\000\000\000\000\000\000\000\000"
 5176      00000000 
 5176      00000000 
 5176      00
 5177 013b 00000000 		.ascii	"\000\000\000\000\000\000\000\000\300\000\300\001\200"
 5177      00000000 
 5177      C000C001 
 5177      80
 5178 0148 01800180 		.ascii	"\001\200\001\200\003\000\003\000\003\000\003\000\003"
 5178      03000300 
 5178      03000300 
 5178      03
 5179 0155 00030001 		.ascii	"\000\003\000\001\200\001\200\001\200\000\300\000\300"
 5179      80018001 
 5179      8000C000 
 5179      C0
 5180 0162 00000000 		.ascii	"\000\000\000\000\000\000\000\000\014\000\014\000\006"
ARM GAS  /tmp/ccky5mPs.s 			page 152


 5180      00000000 
 5180      0C000C00 
 5180      06
 5181 016f 00060006 		.ascii	"\000\006\000\006\000\003\000\003\000\003\000\003\000"
 5181      00030003 
 5181      00030003 
 5181      00
 5182 017c 03000300 		.ascii	"\003\000\003\000\006\000\006\000\006\000\014\000\014"
 5182      06000600 
 5182      06000C00 
 5182      0C
 5183 0189 00000000 		.ascii	"\000\000\000\000\000\000\000\000\000\003\000\003\000"
 5183      00000000 
 5183      00030003 
 5183      00
 5184 0196 03001B60 		.ascii	"\003\000\033`\037\340\007\200\007\200\017\300\014\300"
 5184      1FE00780 
 5184      07800FC0 
 5184      0CC0
 5185 01a4 00000000 		.ascii	"\000\000\000\000\000\000\000\000\000\000\000\000\000"
 5185      00000000 
 5185      00000000 
 5185      00
 5186 01b1 00000000 		.ascii	"\000\000\000\000\000\000\000\000\000\000\000\000\000"
 5186      00000000 
 5186      00000000 
 5186      00
 5187 01be 03000300 		.ascii	"\003\000\003\000\003\000\003\000?\360?\360\003\000\003"
 5187      03000300 
 5187      3FF03FF0 
 5187      030003
 5188 01cd 00030003 		.ascii	"\000\003\000\003\000\000\000\000\000\000\000\000\000"
 5188      00000000 
 5188      00000000 
 5188      00
 5189 01da 00000000 		.ascii	"\000\000\000\000\000\000\000\000\000\000\000\000\000"
 5189      00000000 
 5189      00000000 
 5189      00
 5190 01e7 00000000 		.ascii	"\000\000\000\000\000\000\000\000\000\000\000\000\000"
 5190      00000000 
 5190      00000000 
 5190      00
 5191 01f4 00000380 		.ascii	"\000\000\003\200\003\000\003\000\006\000\006\000\004"
 5191      03000300 
 5191      06000600 
 5191      04
 5192 0201 00000000 		.ascii	"\000\000\000\000\000\000\000\000\000\000\000\000\000"
 5192      00000000 
 5192      00000000 
 5192      00
 5193 020e 00000000 		.ascii	"\000\000\000\000\000\000\000\000?\340?\340\000\000\000"
 5193      00000000 
 5193      3FE03FE0 
 5193      000000
 5194 021d 00000000 		.ascii	"\000\000\000\000\000\000\000\000\000\000\000\000\000"
 5194      00000000 
ARM GAS  /tmp/ccky5mPs.s 			page 153


 5194      00000000 
 5194      00
 5195 022a 00000000 		.ascii	"\000\000\000\000\000\000\000\000\000\000\000\000\000"
 5195      00000000 
 5195      00000000 
 5195      00
 5196 0237 00000000 		.ascii	"\000\000\000\000\000\000\000\000\000\000\000\000\000"
 5196      00000000 
 5196      00000000 
 5196      00
 5197 0244 00000380 		.ascii	"\000\000\003\200\003\200\003\200\000\000\000\000\000"
 5197      03800380 
 5197      00000000 
 5197      00
 5198 0251 00000000 		.ascii	"\000\000\000\000\000\000\000\000`\000`\000\300\000\300"
 5198      00000000 
 5198      60006000 
 5198      C000C0
 5199 0260 00C00180 		.ascii	"\000\300\001\200\001\200\003\000\003\000\006\000\006"
 5199      01800300 
 5199      03000600 
 5199      06
 5200 026d 000C000C 		.ascii	"\000\014\000\014\000\014\000\030\000\030\000\000\000"
 5200      000C0018 
 5200      00180000 
 5200      00
 5201 027a 00000000 		.ascii	"\000\000\000\000\000\000\000\000\017\200\037\300\030"
 5201      00000000 
 5201      0F801FC0 
 5201      18
 5202 0287 C0306030 		.ascii	"\3000`0`0`0`0`0`0`\030\300\037\300\017\200\000\000\000"
 5202      60306030 
 5202      60306030 
 5202      60306018 
 5202      C01FC00F 
 5203 029f 00000000 		.ascii	"\000\000\000\000\000\000\000\000\000\000\000\003\000"
 5203      00000000 
 5203      00000003 
 5203      00
 5204 02ac 1F001F00 		.ascii	"\037\000\037\000\003\000\003\000\003\000\003\000\003"
 5204      03000300 
 5204      03000300 
 5204      03
 5205 02b9 00030003 		.ascii	"\000\003\000\003\000\003\000\037\340\037\340\000\000"
 5205      0003001F 
 5205      E01FE000 
 5205      00
 5206 02c6 00000000 		.ascii	"\000\000\000\000\000\000\000\000\000\000\000\000\017"
 5206      00000000 
 5206      00000000 
 5206      0F
 5207 02d3 801FC038 		.ascii	"\200\037\3008\3400`\000`\000\300\001\200\003\000\006"
 5207      E0306000 
 5207      6000C001 
 5207      80030006 
 5208 02e3 000C0018 		.ascii	"\000\014\000\030\000?\340?\340\000\000\000\000\000\000"
 5208      003FE03F 
ARM GAS  /tmp/ccky5mPs.s 			page 154


 5208      E0000000 
 5208      000000
 5209 02f2 00000000 		.ascii	"\000\000\000\000\000\000\000\000\017\200?\3000\340\000"
 5209      00000000 
 5209      0F803FC0 
 5209      30E000
 5210 0301 6000E007 		.ascii	"`\000\340\007\300\007\300\000\340\000`\000``\340\177"
 5210      C007C000 
 5210      E0006000 
 5210      6060E07F 
 5211 0311 C03F8000 		.ascii	"\300?\200\000\000\000\000\000\000\000\000\000\000\000"
 5211      00000000 
 5211      00000000 
 5211      0000
 5212 031f 00000001 		.ascii	"\000\000\000\001\300\003\300\003\300\006\300\014\300"
 5212      C003C003 
 5212      C006C00C 
 5212      C0
 5213 032c 0CC018C0 		.ascii	"\014\300\030\3000\300?\340?\340\000\300\003\340\003"
 5213      30C03FE0 
 5213      3FE000C0 
 5213      03E003
 5214 033b E0000000 		.ascii	"\340\000\000\000\000\000\000\000\000\000\000\000\000"
 5214      00000000 
 5214      00000000 
 5214      00
 5215 0348 00001FC0 		.ascii	"\000\000\037\300\037\300\030\000\030\000\037\200\037"
 5215      1FC01800 
 5215      18001F80 
 5215      1F
 5216 0355 C018E000 		.ascii	"\300\030\340\000`\000`\000`0\340?\300\037\200\000\000"
 5216      60006000 
 5216      6030E03F 
 5216      C01F8000 
 5216      00
 5217 0366 00000000 		.ascii	"\000\000\000\000\000\000\000\000\000\000\000\000\003"
 5217      00000000 
 5217      00000000 
 5217      03
 5218 0373 E00FE01E 		.ascii	"\340\017\340\036\000\030\0008\0007\200?\3008\3400`0"
 5218      00180038 
 5218      0037803F 
 5218      C038E030 
 5218      6030
 5219 0385 6018E01F 		.ascii	"`\030\340\037\300\007\200\000\000\000\000\000\000\000"
 5219      C0078000 
 5219      00000000 
 5219      0000
 5220 0393 00000000 		.ascii	"\000\000\000\000\000\000\000?\340?\3400`\000`\000\300"
 5220      0000003F 
 5220      E03FE030 
 5220      60006000 
 5220      C0
 5221 03a4 00C000C0 		.ascii	"\000\300\000\300\001\200\001\200\001\200\003\000\003"
 5221      01800180 
 5221      01800300 
 5221      03
ARM GAS  /tmp/ccky5mPs.s 			page 155


 5222 03b1 00030000 		.ascii	"\000\003\000\000\000\000\000\000\000\000\000\000\000"
 5222      00000000 
 5222      00000000 
 5222      00
 5223 03be 00000000 		.ascii	"\000\000\000\000\017\200\037\3008\3400`8\340\037\300"
 5223      0F801FC0 
 5223      38E03060 
 5223      38E01FC0 
 5224 03ce 1FC038E0 		.ascii	"\037\3008\3400`0`8\340\037\300\017\200\000\000\000\000"
 5224      30603060 
 5224      38E01FC0 
 5224      0F800000 
 5224      0000
 5225 03e0 00000000 		.ascii	"\000\000\000\000\000\000\000\000\000\000\017\000\037"
 5225      00000000 
 5225      00000F00 
 5225      1F
 5226 03ed C038C030 		.ascii	"\3008\3000`0`8\340\037\340\017`\000\340\000\300\003"
 5226      60306038 
 5226      E01FE00F 
 5226      6000E000 
 5226      C003
 5227 03ff C03F803E 		.ascii	"\300?\200>\000\000\000\000\000\000\000\000\000\000\000"
 5227      00000000 
 5227      00000000 
 5227      000000
 5228 040e 00000000 		.ascii	"\000\000\000\000\000\000\000\000\000\000\000\000\003"
 5228      00000000 
 5228      00000000 
 5228      03
 5229 041b 80038003 		.ascii	"\200\003\200\003\200\000\000\000\000\000\000\003\200"
 5229      80000000 
 5229      00000003 
 5229      80
 5230 0428 03800380 		.ascii	"\003\200\003\200\000\000\000\000\000\000\000\000\000"
 5230      00000000 
 5230      00000000 
 5230      00
 5231 0435 00000000 		.ascii	"\000\000\000\000\000\000\000\000\000\000\000\000\000"
 5231      00000000 
 5231      00000000 
 5231      00
 5232 0442 01C001C0 		.ascii	"\001\300\001\300\001\300\000\000\000\000\000\000\003"
 5232      01C00000 
 5232      00000000 
 5232      03
 5233 044f 80030006 		.ascii	"\200\003\000\006\000\006\000\004\000\000\000\000\000"
 5233      00060004 
 5233      00000000 
 5233      00
 5234 045c 00000000 		.ascii	"\000\000\000\000\000\000\000\000\000\000\0000\000\360"
 5234      00000000 
 5234      00000030 
 5234      00F0
 5235 046a 03C00700 		.ascii	"\003\300\007\000\034\000x\000\034\000\007\000\003\300"
 5235      1C007800 
 5235      1C000700 
ARM GAS  /tmp/ccky5mPs.s 			page 156


 5235      03C0
 5236 0478 00F00030 		.ascii	"\000\360\0000\000\000\000\000\000\000\000\000\000\000"
 5236      00000000 
 5236      00000000 
 5236      0000
 5237 0486 00000000 		.ascii	"\000\000\000\000\000\000\000\000\000\000\000\000\177"
 5237      00000000 
 5237      00000000 
 5237      7F
 5238 0493 F07FF000 		.ascii	"\360\177\360\000\000\000\000\177\360\177\360\000\000"
 5238      0000007F 
 5238      F07FF000 
 5238      00
 5239 04a0 00000000 		.ascii	"\000\000\000\000\000\000\000\000\000\000\000\000\000"
 5239      00000000 
 5239      00000000 
 5239      00
 5240 04ad 00000000 		.ascii	"\000\000\000\000\000\000\000\000\0000\000<\000\017\000"
 5240      00000000 
 5240      0030003C 
 5240      000F00
 5241 04bc 038000E0 		.ascii	"\003\200\000\340\000x\000\340\003\200\017\000<\0000"
 5241      007800E0 
 5241      03800F00 
 5241      3C0030
 5242 04cb 00000000 		.ascii	"\000\000\000\000\000\000\000\000\000\000\000\000\000"
 5242      00000000 
 5242      00000000 
 5242      00
 5243 04d8 00000000 		.ascii	"\000\000\000\000\017\200\037\300\030`\030`\000`\001"
 5243      0F801FC0 
 5243      18601860 
 5243      006001
 5244 04e7 C0038003 		.ascii	"\300\003\200\003\000\000\000\000\000\007\000\007\000"
 5244      00000000 
 5244      00070007 
 5244      00
 5245 04f4 00000000 		.ascii	"\000\000\000\000\000\000\000\000\000\000\000\000\000"
 5245      00000000 
 5245      00000000 
 5245      00
 5246 0501 0003800C 		.ascii	"\000\003\200\014\200\010@\020@\020@\021\300\022@\022"
 5246      80084010 
 5246      40104011 
 5246      C0124012 
 5247 0511 40124011 		.ascii	"@\022@\021\300\020\000\010\000\010@\007\200\000\000"
 5247      C0100008 
 5247      00084007 
 5247      800000
 5248 0520 00000000 		.ascii	"\000\000\000\000\000\000\000\000\000\000\000\000\037"
 5248      00000000 
 5248      00000000 
 5248      1F
 5249 052d 801F8003 		.ascii	"\200\037\200\003\200\006\300\006\300\014\300\014`\037"
 5249      8006C006 
 5249      C00CC00C 
 5249      601F
ARM GAS  /tmp/ccky5mPs.s 			page 157


 5250 053b E01FE030 		.ascii	"\340\037\34000xxxx\000\000\000\000\000\000\000\000\000"
 5250      30787878 
 5250      78000000 
 5250      00000000 
 5250      0000
 5251 054d 00000000 		.ascii	"\000\000\000\000\000\000\000?\200?\300\030`\030`\030"
 5251      0000003F 
 5251      803FC018 
 5251      60186018 
 5252 055d E01FC01F 		.ascii	"\340\037\300\037\340\030p\0300\0300?\360?\340\000\000"
 5252      E0187018 
 5252      3018303F 
 5252      F03FE000 
 5252      00
 5253 056e 00000000 		.ascii	"\000\000\000\000\000\000\000\000\000\000\000\000\000"
 5253      00000000 
 5253      00000000 
 5253      00
 5254 057b 0007B00F 		.ascii	"\000\007\260\017\360\034p800\0000\0000\0000\00080\034"
 5254      F01C7038 
 5254      30300030 
 5254      00300030 
 5254      0038301C 
 5255 058f 700FE007 		.ascii	"p\017\340\007\300\000\000\000\000\000\000\000\000\000"
 5255      C0000000 
 5255      00000000 
 5255      0000
 5256 059d 00000000 		.ascii	"\000\000\000\000\000\000\000\177\200\177\3000\3400p"
 5256      0000007F 
 5256      807FC030 
 5256      E03070
 5257 05ac 30303030 		.ascii	"000000000p0\340\177\300\177\200\000\000\000\000\000"
 5257      30303030 
 5257      307030E0 
 5257      7FC07F80 
 5257      00000000 
 5258 05c1 00000000 		.ascii	"\000\000\000\000\000\000\000\000\000\000\000?\360?\360"
 5258      00000000 
 5258      0000003F 
 5258      F03FF0
 5259 05d0 18301830 		.ascii	"\0300\0300\031\200\037\200\037\200\031\200\0300\030"
 5259      19801F80 
 5259      1F801980 
 5259      183018
 5260 05df 303FF03F 		.ascii	"0?\360?\360\000\000\000\000\000\000\000\000\000\000"
 5260      F0000000 
 5260      00000000 
 5260      000000
 5261 05ee 00000000 		.ascii	"\000\000\000\000\000\000?\360?\360\0300\0300\031\200"
 5261      00003FF0 
 5261      3FF01830 
 5261      18301980 
 5262 05fe 1F801F80 		.ascii	"\037\200\037\200\031\200\030\000\030\000?\000?\000\000"
 5262      19801800 
 5262      18003F00 
 5262      3F0000
 5263 060d 00000000 		.ascii	"\000\000\000\000\000\000\000\000\000\000\000\000\000"
ARM GAS  /tmp/ccky5mPs.s 			page 158


 5263      00000000 
 5263      00000000 
 5263      00
 5264 061a 000007B0 		.ascii	"\000\000\007\260\037\360\030p000\0000\0001\3701\370"
 5264      1FF01870 
 5264      30303000 
 5264      300031F8 
 5264      31F8
 5265 062c 30301830 		.ascii	"00\0300\037\360\007\300\000\000\000\000\000\000\000"
 5265      1FF007C0 
 5265      00000000 
 5265      000000
 5266 063b 00000000 		.ascii	"\000\000\000\000\000\000\000\000\000<\360<\360\030`"
 5266      00000000 
 5266      003CF03C 
 5266      F01860
 5267 064a 18601860 		.ascii	"\030`\030`\037\340\037\340\030`\030`\030`<\360<\360"
 5267      1FE01FE0 
 5267      18601860 
 5267      18603CF0 
 5267      3CF0
 5268 065c 00000000 		.ascii	"\000\000\000\000\000\000\000\000\000\000\000\000\000"
 5268      00000000 
 5268      00000000 
 5268      00
 5269 0669 0000001F 		.ascii	"\000\000\000\037\340\037\340\003\000\003\000\003\000"
 5269      E01FE003 
 5269      00030003 
 5269      00
 5270 0676 03000300 		.ascii	"\003\000\003\000\003\000\003\000\003\000\037\340\037"
 5270      03000300 
 5270      03001FE0 
 5270      1F
 5271 0683 E0000000 		.ascii	"\340\000\000\000\000\000\000\000\000\000\000\000\000"
 5271      00000000 
 5271      00000000 
 5271      00
 5272 0690 00000000 		.ascii	"\000\000\000\000\003\370\003\370\000`\000`\000`\000"
 5272      03F803F8 
 5272      00600060 
 5272      006000
 5273 069f 60306030 		.ascii	"`0`0`0`0\340?\300\017\200\000\000\000\000\000\000\000"
 5273      60306030 
 5273      E03FC00F 
 5273      80000000 
 5273      00000000 
 5274 06b3 00000000 		.ascii	"\000\000\000\000\000\000\000\000\000>\370>\370\030\340"
 5274      00000000 
 5274      003EF83E 
 5274      F818E0
 5275 06c2 19801B00 		.ascii	"\031\200\033\000\037\000\035\200\030\300\030\300\030"
 5275      1F001D80 
 5275      18C018C0 
 5275      18
 5276 06cf 603E783E 		.ascii	"`>x>8\000\000\000\000\000\000\000\000\000\000\000\000"
 5276      38000000 
 5276      00000000 
ARM GAS  /tmp/ccky5mPs.s 			page 159


 5276      00000000 
 5276      00
 5277 06e0 00000000 		.ascii	"\000\000\000\000?\000?\000\014\000\014\000\014\000\014"
 5277      3F003F00 
 5277      0C000C00 
 5277      0C000C
 5278 06ef 000C000C 		.ascii	"\000\014\000\0140\0140\0140?\360?\360\000\000\000\000"
 5278      300C300C 
 5278      303FF03F 
 5278      F0000000 
 5278      00
 5279 0700 00000000 		.ascii	"\000\000\000\000\000\000\000\000\000\000\000\000xxx"
 5279      00000000 
 5279      00000000 
 5279      787878
 5280 070f 7838703C 		.ascii	"x8p<\3604\2607\2607\260303000|\370|\370\000\000\000"
 5280      F034B037 
 5280      B037B033 
 5280      30333030 
 5280      307CF87C 
 5281 0727 00000000 		.ascii	"\000\000\000\000\000\000\000\000\000\000\000\000\000"
 5281      00000000 
 5281      00000000 
 5281      00
 5282 0734 39F03DF0 		.ascii	"9\360=\360\034`\036`\036`\033`\033`\031\340\031\340"
 5282      1C601E60 
 5282      1E601B60 
 5282      1B6019E0 
 5282      19E0
 5283 0746 18E03EE0 		.ascii	"\030\340>\340>`\000\000\000\000\000\000\000\000\000"
 5283      3E600000 
 5283      00000000 
 5283      000000
 5284 0755 00000000 		.ascii	"\000\000\000\000\000\000\000\007\200\017\300\034\340"
 5284      00000007 
 5284      800FC01C 
 5284      E0
 5285 0762 38703030 		.ascii	"8p000000008p\034\340\017\300\007\200\000\000\000\000"
 5285      30303030 
 5285      30303870 
 5285      1CE00FC0 
 5285      07800000 
 5286 0778 00000000 		.ascii	"\000\000\000\000\000\000\000\000\000\000\000\000?\300"
 5286      00000000 
 5286      00000000 
 5286      3FC0
 5287 0786 3FE01870 		.ascii	"?\340\030p\0300\0300\030p\037\340\037\300\030\000\030"
 5287      18301830 
 5287      18701FE0 
 5287      1FC01800 
 5287      18
 5288 0797 003F003F 		.ascii	"\000?\000?\000\000\000\000\000\000\000\000\000\000\000"
 5288      00000000 
 5288      00000000 
 5288      000000
 5289 07a6 00000000 		.ascii	"\000\000\000\000\000\000\007\200\017\300\034\3408p0"
 5289      00000780 
ARM GAS  /tmp/ccky5mPs.s 			page 160


 5289      0FC01CE0 
 5289      387030
 5290 07b5 30303030 		.ascii	"00000008p\034\340\017\300\007\200\007\260\017\360\014"
 5290      30303038 
 5290      701CE00F 
 5290      C0078007 
 5290      B00FF00C 
 5291 07c9 E0000000 		.ascii	"\340\000\000\000\000\000\000"
 5291      000000
 5292 07d0 00000000 		.ascii	"\000\000\000\000?\300?\340\030p\0300\030p\037\340\037"
 5292      3FC03FE0 
 5292      18701830 
 5292      18701FE0 
 5292      1F
 5293 07e1 C018E018 		.ascii	"\300\030\340\030`\030p>8>\030\000\000\000\000\000\000"
 5293      6018703E 
 5293      383E1800 
 5293      00000000 
 5293      00
 5294 07f2 00000000 		.ascii	"\000\000\000\000\000\000\000\000\000\000\017\260\037"
 5294      00000000 
 5294      00000FB0 
 5294      1F
 5295 07ff F0387030 		.ascii	"\3608p008\000\037\200\007\340\000p008p?\3407\300\000"
 5295      3038001F 
 5295      8007E000 
 5295      70303038 
 5295      703FE037 
 5296 0815 00000000 		.ascii	"\000\000\000\000\000\000\000\000\000\000\000\000\000"
 5296      00000000 
 5296      00000000 
 5296      00
 5297 0822 00003FF0 		.ascii	"\000\000?\360?\360303030\003\000\003\000\003\000\003"
 5297      3FF03330 
 5297      33303330 
 5297      03000300 
 5297      030003
 5298 0835 0003000F 		.ascii	"\000\003\000\017\300\017\300\000\000\000\000\000\000"
 5298      C00FC000 
 5298      00000000 
 5298      00
 5299 0842 00000000 		.ascii	"\000\000\000\000\000\000\000\000\000\000<\360<\360\030"
 5299      00000000 
 5299      00003CF0 
 5299      3CF018
 5300 0851 60186018 		.ascii	"`\030`\030`\030`\030`\030`\030`\034\340\017\300\007"
 5300      60186018 
 5300      60186018 
 5300      601CE00F 
 5300      C007
 5301 0863 80000000 		.ascii	"\200\000\000\000\000\000\000\000\000\000\000\000\000"
 5301      00000000 
 5301      00000000 
 5301      00
 5302 0870 00000000 		.ascii	"\000\000\000\000x\360x\3600`0`\030\300\030\300\015\200"
 5302      78F078F0 
 5302      30603060 
ARM GAS  /tmp/ccky5mPs.s 			page 161


 5302      18C018C0 
 5302      0D80
 5303 0882 0D800D80 		.ascii	"\015\200\015\200\007\000\007\000\007\000\000\000\000"
 5303      07000700 
 5303      07000000 
 5303      00
 5304 088f 00000000 		.ascii	"\000\000\000\000\000\000\000\000\000\000\000\000\000"
 5304      00000000 
 5304      00000000 
 5304      00
 5305 089c 7C7C7C7C 		.ascii	"||||0\0303\2303\2303\2306\330\026\320\034p\034p\034"
 5305      30183398 
 5305      33983398 
 5305      36D816D0 
 5305      1C701C70 
 5306 08b1 70183000 		.ascii	"p\0300\000\000\000\000\000\000\000\000\000\000\000\000"
 5306      00000000 
 5306      00000000 
 5306      000000
 5307 08c0 00000000 		.ascii	"\000\000\000\000x\360x\3600`\030\300\015\200\007\000"
 5307      78F078F0 
 5307      306018C0 
 5307      0D800700 
 5308 08d0 07000D80 		.ascii	"\007\000\015\200\030\3000`x\360x\360\000\000\000\000"
 5308      18C03060 
 5308      78F078F0 
 5308      00000000 
 5309 08e0 00000000 		.ascii	"\000\000\000\000\000\000\000\000\000\000\000\000<\360"
 5309      00000000 
 5309      00000000 
 5309      3CF0
 5310 08ee 3CF01860 		.ascii	"<\360\030`\014\300\007\200\007\200\003\000\003\000\003"
 5310      0CC00780 
 5310      07800300 
 5310      030003
 5311 08fd 0003000F 		.ascii	"\000\003\000\017\300\017\300\000\000\000\000\000\000"
 5311      C00FC000 
 5311      00000000 
 5311      00
 5312 090a 00000000 		.ascii	"\000\000\000\000\000\000\000\000\000\000\037\340\037"
 5312      00000000 
 5312      00001FE0 
 5312      1F
 5313 0917 E0186018 		.ascii	"\340\030`\030\300\001\200\003\000\003\000\006\000\014"
 5313      C0018003 
 5313      00030006 
 5313      000C
 5314 0925 6018601F 		.ascii	"`\030`\037\340\037\340\000\000\000\000\000\000\000\000"
 5314      E01FE000 
 5314      00000000 
 5314      000000
 5315 0934 00000000 		.ascii	"\000\000\000\000\000\000\003\300\003\300\003\000\003"
 5315      000003C0 
 5315      03C00300 
 5315      03
 5316 0941 00030003 		.ascii	"\000\003\000\003\000\003\000\003\000\003\000\003\000"
 5316      00030003 
ARM GAS  /tmp/ccky5mPs.s 			page 162


 5316      00030003 
 5316      00
 5317 094e 03000300 		.ascii	"\003\000\003\000\003\000\003\000\003\300\003\300\000"
 5317      03000300 
 5317      03C003C0 
 5317      00
 5318 095b 00000000 		.ascii	"\000\000\000\000\000\030\000\030\000\014\000\014\000"
 5318      00180018 
 5318      000C000C 
 5318      00
 5319 0968 0C000600 		.ascii	"\014\000\006\000\006\000\003\000\003\000\001\200\001"
 5319      06000300 
 5319      03000180 
 5319      01
 5320 0975 8000C000 		.ascii	"\200\000\300\000\300\000\300\000`\000`\000\000\000\000"
 5320      C000C000 
 5320      60006000 
 5320      000000
 5321 0984 00000000 		.ascii	"\000\000\000\000\000\000\017\000\017\000\003\000\003"
 5321      00000F00 
 5321      0F000300 
 5321      03
 5322 0991 00030003 		.ascii	"\000\003\000\003\000\003\000\003\000\003\000\003\000"
 5322      00030003 
 5322      00030003 
 5322      00
 5323 099e 03000300 		.ascii	"\003\000\003\000\003\000\003\000\017\000\017\000\000"
 5323      03000300 
 5323      0F000F00 
 5323      00
 5324 09ab 00000000 		.ascii	"\000\000\000\000\000\000\000\002\000\007\000\015\200"
 5324      00000002 
 5324      0007000D 
 5324      80
 5325 09b8 18C03060 		.ascii	"\030\3000`  \000\000\000\000\000\000\000\000\000\000"
 5325      20200000 
 5325      00000000 
 5325      00000000 
 5326 09c8 00000000 		.ascii	"\000\000\000\000\000\000\000\000\000\000\000\000\000"
 5326      00000000 
 5326      00000000 
 5326      00
 5327 09d5 00000000 		.ascii	"\000\000\000\000\000\000\000\000\000\000\000\000\000"
 5327      00000000 
 5327      00000000 
 5327      00
 5328 09e2 00000000 		.ascii	"\000\000\000\000\000\000\000\000\000\000\000\000\000"
 5328      00000000 
 5328      00000000 
 5328      00
 5329 09ef 00000000 		.ascii	"\000\000\000\000\000\000\000\000\000\000\000\000\000"
 5329      00000000 
 5329      00000000 
 5329      00
 5330 09fc FFFCFFFC 		.ascii	"\377\374\377\374\000\000\004\000\003\000\000\200\000"
 5330      00000400 
 5330      03000080 
ARM GAS  /tmp/ccky5mPs.s 			page 163


 5330      00
 5331 0a09 00000000 		.ascii	"\000\000\000\000\000\000\000\000\000\000\000\000\000"
 5331      00000000 
 5331      00000000 
 5331      00
 5332 0a16 00000000 		.ascii	"\000\000\000\000\000\000\000\000\000\000\000\000\000"
 5332      00000000 
 5332      00000000 
 5332      00
 5333 0a23 00000000 		.ascii	"\000\000\000\000\000\000\000\000\000\000\000\000\000"
 5333      00000000 
 5333      00000000 
 5333      00
 5334 0a30 00000FC0 		.ascii	"\000\000\017\300\037\340\000`\017\340\037\3408`0\340"
 5334      1FE00060 
 5334      0FE01FE0 
 5334      386030E0 
 5335 0a40 3FF01F70 		.ascii	"?\360\037p\000\000\000\000\000\000\000\000\000\000\000"
 5335      00000000 
 5335      00000000 
 5335      000000
 5336 0a4f 00000070 		.ascii	"\000\000\000p\000p\0000\0000\0007\200?\3408`0000008"
 5336      00700030 
 5336      00300037 
 5336      803FE038 
 5336      60303030 
 5337 0a67 607FE077 		.ascii	"`\177\340w\200\000\000\000\000\000\000\000\000\000\000"
 5337      80000000 
 5337      00000000 
 5337      000000
 5338 0a76 00000000 		.ascii	"\000\000\000\000\000\000\000\000\000\000\000\000\007"
 5338      00000000 
 5338      00000000 
 5338      07
 5339 0a83 B01FF018 		.ascii	"\260\037\360\0300000\0000\00080\037\360\017\300\000"
 5339      30303030 
 5339      00300038 
 5339      301FF00F 
 5339      C000
 5340 0a95 00000000 		.ascii	"\000\000\000\000\000\000\000\000\000\000\000\000\000"
 5340      00000000 
 5340      00000000 
 5340      00
 5341 0aa2 00700070 		.ascii	"\000p\000p\0000\0000\007\260\037\360\030p0000008p\037"
 5341      00300030 
 5341      07B01FF0 
 5341      18703030 
 5341      30303030 
 5342 0ab9 F807B800 		.ascii	"\370\007\270\000\000\000\000\000\000\000\000\000\000"
 5342      00000000 
 5342      00000000 
 5342      00
 5343 0ac6 00000000 		.ascii	"\000\000\000\000\000\000\000\000\000\000\000\000\007"
 5343      00000000 
 5343      00000000 
 5343      07
 5344 0ad3 801FE018 		.ascii	"\200\037\340\030`?\360?\3600\000\0300\037\360\007\300"
ARM GAS  /tmp/ccky5mPs.s 			page 164


 5344      603FF03F 
 5344      F0300018 
 5344      301FF007 
 5344      C0
 5345 0ae4 00000000 		.ascii	"\000\000\000\000\000\000\000\000\000\000\000\000\000"
 5345      00000000 
 5345      00000000 
 5345      00
 5346 0af1 0003F007 		.ascii	"\000\003\360\007\360\006\000\006\000\037\340\037\340"
 5346      F0060006 
 5346      001FE01F 
 5346      E0
 5347 0afe 06000600 		.ascii	"\006\000\006\000\006\000\006\000\006\000\037\340\037"
 5347      06000600 
 5347      06001FE0 
 5347      1F
 5348 0b0b E0000000 		.ascii	"\340\000\000\000\000\000\000\000\000\000\000\000\000"
 5348      00000000 
 5348      00000000 
 5348      00
 5349 0b18 00000000 		.ascii	"\000\000\000\000\000\000\000\000\000\000\007\270\037"
 5349      00000000 
 5349      000007B8 
 5349      1F
 5350 0b25 F8187030 		.ascii	"\370\030p000000\030p\037\360\007\260\0000\000p\017\340"
 5350      30303030 
 5350      3018701F 
 5350      F007B000 
 5350      3000700F 
 5351 0b3a 0FC00000 		.ascii	"\017\300\000\000\000\000\000\0008\0008\000\030\000\030"
 5351      00000000 
 5351      38003800 
 5351      180018
 5352 0b49 001BC01F 		.ascii	"\000\033\300\037\340\034`\030`\030`\030`\030`<\360<"
 5352      E01C6018 
 5352      60186018 
 5352      6018603C 
 5352      F03C
 5353 0b5b F0000000 		.ascii	"\360\000\000\000\000\000\000\000\000\000\000\000\000"
 5353      00000000 
 5353      00000000 
 5353      00
 5354 0b68 00000300 		.ascii	"\000\000\003\000\003\000\000\000\000\000\037\000\037"
 5354      03000000 
 5354      00001F00 
 5354      1F
 5355 0b75 00030003 		.ascii	"\000\003\000\003\000\003\000\003\000\003\000\037\340"
 5355      00030003 
 5355      0003001F 
 5355      E0
 5356 0b82 1FE00000 		.ascii	"\037\340\000\000\000\000\000\000\000\000\000\000\000"
 5356      00000000 
 5356      00000000 
 5356      00
 5357 0b8f 00000003 		.ascii	"\000\000\000\003\000\003\000\000\000\000\000\037\300"
 5357      00030000 
 5357      0000001F 
ARM GAS  /tmp/ccky5mPs.s 			page 165


 5357      C0
 5358 0b9c 1FC000C0 		.ascii	"\037\300\000\300\000\300\000\300\000\300\000\300\000"
 5358      00C000C0 
 5358      00C000C0 
 5358      00
 5359 0ba9 C000C000 		.ascii	"\300\000\300\000\300\001\300?\200?\000\000\000\000\000"
 5359      C001C03F 
 5359      803F0000 
 5359      000000
 5360 0bb8 00003800 		.ascii	"\000\0008\0008\000\030\000\030\000\033\340\033\340\033"
 5360      38001800 
 5360      18001BE0 
 5360      1BE01B
 5361 0bc7 001E001E 		.ascii	"\000\036\000\036\000\033\000\031\2009\3609\360\000\000"
 5361      001B0019 
 5361      8039F039 
 5361      F00000
 5362 0bd6 00000000 		.ascii	"\000\000\000\000\000\000\000\000\000\000\000\000\037"
 5362      00000000 
 5362      00000000 
 5362      1F
 5363 0be3 001F0003 		.ascii	"\000\037\000\003\000\003\000\003\000\003\000\003\000"
 5363      00030003 
 5363      00030003 
 5363      00
 5364 0bf0 03000300 		.ascii	"\003\000\003\000\003\000\003\000\037\340\037\340\000"
 5364      03000300 
 5364      1FE01FE0 
 5364      00
 5365 0bfd 00000000 		.ascii	"\000\000\000\000\000\000\000\000\000\000\000\000\000"
 5365      00000000 
 5365      00000000 
 5365      00
 5366 0c0a 00000000 		.ascii	"\000\000\000\000\000\000\000\000~\340\177\360303030"
 5366      00000000 
 5366      7EE07FF0 
 5366      33303330 
 5366      3330
 5367 0c1c 33303330 		.ascii	"3030{\270{\270\000\000\000\000\000\000\000\000\000\000"
 5367      7BB87BB8 
 5367      00000000 
 5367      00000000 
 5367      0000
 5368 0c2e 00000000 		.ascii	"\000\000\000\000\000\000\000\000\000\000\000\000;\300"
 5368      00000000 
 5368      00000000 
 5368      3BC0
 5369 0c3c 3FE01C60 		.ascii	"?\340\034`\030`\030`\030`\030`<\360<\360\000\000\000"
 5369      18601860 
 5369      18601860 
 5369      3CF03CF0 
 5369      000000
 5370 0c4f 00000000 		.ascii	"\000\000\000\000\000\000\000\000\000\000\000\000\000"
 5370      00000000 
 5370      00000000 
 5370      00
 5371 0c5c 00000000 		.ascii	"\000\000\000\000\000\000\007\200\037\340\030`000000"
ARM GAS  /tmp/ccky5mPs.s 			page 166


 5371      00000780 
 5371      1FE01860 
 5371      30303030 
 5371      3030
 5372 0c6e 18601FE0 		.ascii	"\030`\037\340\007\200\000\000\000\000\000\000\000\000"
 5372      07800000 
 5372      00000000 
 5372      0000
 5373 0c7c 00000000 		.ascii	"\000\000\000\000\000\000\000\000\000\000\000\000\000"
 5373      00000000 
 5373      00000000 
 5373      00
 5374 0c89 0077807F 		.ascii	"\000w\200\177\3408`0000008`?\3407\2000\0000\000|\000"
 5374      E0386030 
 5374      30303030 
 5374      3038603F 
 5374      E0378030 
 5375 0ca2 7C000000 		.ascii	"|\000\000\000\000\000\000\000\000\000\000\000\000\000"
 5375      00000000 
 5375      00000000 
 5375      0000
 5376 0cb0 000007B8 		.ascii	"\000\000\007\270\037\370\030p000000\030p\037\360\007"
 5376      1FF81870 
 5376      30303030 
 5376      30301870 
 5376      1FF007
 5377 0cc3 B0003000 		.ascii	"\260\0000\0000\000\370\000\370\000\000\000\000\000\000"
 5377      3000F800 
 5377      F8000000 
 5377      000000
 5378 0cd2 00000000 		.ascii	"\000\000\000\000\000\000\000\000<\340=\360\0170\016"
 5378      00000000 
 5378      3CE03DF0 
 5378      0F300E
 5379 0ce1 000C000C 		.ascii	"\000\014\000\014\000\014\000?\300?\300\000\000\000\000"
 5379      000C003F 
 5379      C03FC000 
 5379      000000
 5380 0cf0 00000000 		.ascii	"\000\000\000\000\000\000\000\000\000\000\000\000\000"
 5380      00000000 
 5380      00000000 
 5380      00
 5381 0cfd 00000000 		.ascii	"\000\000\000\000\000\007\340\037\340\030`\036\000\017"
 5381      0007E01F 
 5381      E018601E 
 5381      000F
 5382 0d0b C001E018 		.ascii	"\300\001\340\030`\037\340\037\200\000\000\000\000\000"
 5382      601FE01F 
 5382      80000000 
 5382      0000
 5383 0d19 00000000 		.ascii	"\000\000\000\000\000\000\000\000\000\000\000\014\000"
 5383      00000000 
 5383      0000000C 
 5383      00
 5384 0d26 0C000C00 		.ascii	"\014\000\014\000?\340?\340\014\000\014\000\014\000\014"
 5384      3FE03FE0 
 5384      0C000C00 
ARM GAS  /tmp/ccky5mPs.s 			page 167


 5384      0C000C
 5385 0d35 000C300F 		.ascii	"\000\0140\017\360\007\300\000\000\000\000\000\000\000"
 5385      F007C000 
 5385      00000000 
 5385      0000
 5386 0d43 00000000 		.ascii	"\000\000\000\000\000\000\000\000\000\000\000\000\000"
 5386      00000000 
 5386      00000000 
 5386      00
 5387 0d50 000038E0 		.ascii	"\000\0008\3408\340\030`\030`\030`\030`\030\340\037\360"
 5387      38E01860 
 5387      18601860 
 5387      186018E0 
 5387      1FF0
 5388 0d62 0F700000 		.ascii	"\017p\000\000\000\000\000\000\000\000\000\000\000\000"
 5388      00000000 
 5388      00000000 
 5388      0000
 5389 0d70 00000000 		.ascii	"\000\000\000\000\000\000\000\000\000\000x\360x\3600"
 5389      00000000 
 5389      000078F0 
 5389      78F030
 5390 0d7f 6018C018 		.ascii	"`\030\300\030\300\015\200\015\200\007\000\007\000\000"
 5390      C00D800D 
 5390      80070007 
 5390      0000
 5391 0d8d 00000000 		.ascii	"\000\000\000\000\000\000\000\000\000\000\000\000\000"
 5391      00000000 
 5391      00000000 
 5391      00
 5392 0d9a 00000000 		.ascii	"\000\000\000\000\000\000\000\000x\360x\3602`2`7\340"
 5392      00000000 
 5392      78F078F0 
 5392      32603260 
 5392      37E0
 5393 0dac 1DC01DC0 		.ascii	"\035\300\035\300\030\300\030\300\000\000\000\000\000"
 5393      18C018C0 
 5393      00000000 
 5393      00
 5394 0db9 00000000 		.ascii	"\000\000\000\000\000\000\000\000\000\000\000\000\000"
 5394      00000000 
 5394      00000000 
 5394      00
 5395 0dc6 00000000 		.ascii	"\000\000\000\000<\360<\360\014\300\007\200\003\000\007"
 5395      3CF03CF0 
 5395      0CC00780 
 5395      030007
 5396 0dd5 800CC03C 		.ascii	"\200\014\300<\360<\360\000\000\000\000\000\000\000\000"
 5396      F03CF000 
 5396      00000000 
 5396      000000
 5397 0de4 00000000 		.ascii	"\000\000\000\000\000\000\000\000\000\000\000\000\000"
 5397      00000000 
 5397      00000000 
 5397      00
 5398 0df1 0078F078 		.ascii	"\000x\360x\3600`\030\300\030\300\015\200\017\200\007"
 5398      F0306018 
ARM GAS  /tmp/ccky5mPs.s 			page 168


 5398      C018C00D 
 5398      800F8007 
 5399 0e01 00060006 		.ascii	"\000\006\000\006\000\014\000\177\000\177\000\000\000"
 5399      000C007F 
 5399      007F0000 
 5399      00
 5400 0e0e 00000000 		.ascii	"\000\000\000\000\000\000\000\000\000\000\000\000\037"
 5400      00000000 
 5400      00000000 
 5400      1F
 5401 0e1b E01FE018 		.ascii	"\340\037\340\030\300\001\200\003\000\006\000\014`\037"
 5401      C0018003 
 5401      0006000C 
 5401      601F
 5402 0e29 E01FE000 		.ascii	"\340\037\340\000\000\000\000\000\000\000\000\000\000"
 5402      00000000 
 5402      00000000 
 5402      00
 5403 0e36 00000000 		.ascii	"\000\000\000\000\001\300\003\300\003\000\003\000\003"
 5403      01C003C0 
 5403      03000300 
 5403      03
 5404 0e43 00030003 		.ascii	"\000\003\000\003\000\007\000\016\000\007\000\003\000"
 5404      0007000E 
 5404      00070003 
 5404      00
 5405 0e50 03000300 		.ascii	"\003\000\003\000\003\000\003\300\001\300\000\000\000"
 5405      030003C0 
 5405      01C00000 
 5405      00
 5406 0e5d 00000000 		.ascii	"\000\000\000\000\000\003\000\003\000\003\000\003\000"
 5406      00030003 
 5406      00030003 
 5406      00
 5407 0e6a 03000300 		.ascii	"\003\000\003\000\003\000\003\000\003\000\003\000\003"
 5407      03000300 
 5407      03000300 
 5407      03
 5408 0e77 00030003 		.ascii	"\000\003\000\003\000\003\000\003\000\003\000\000\000"
 5408      00030003 
 5408      00030000 
 5408      00
 5409 0e84 00000000 		.ascii	"\000\000\000\000\000\000\034\000\036\000\006\000\006"
 5409      00001C00 
 5409      1E000600 
 5409      06
 5410 0e91 00060006 		.ascii	"\000\006\000\006\000\006\000\007\000\003\200\007\000"
 5410      00060007 
 5410      00038007 
 5410      00
 5411 0e9e 06000600 		.ascii	"\006\000\006\000\006\000\006\000\036\000\034\000\000"
 5411      06000600 
 5411      1E001C00 
 5411      00
 5412 0eab 00000000 		.ascii	"\000\000\000\000\000\000\000\000\000\000\000\000\000"
 5412      00000000 
 5412      00000000 
ARM GAS  /tmp/ccky5mPs.s 			page 169


 5412      00
 5413 0eb8 00000000 		.ascii	"\000\000\000\000\016\000?03\360\001\340\000\000\000"
 5413      0E003F30 
 5413      33F001E0 
 5413      000000
 5414 0ec7 00000000 		.ascii	"\000\000\000\000\000\000\000\000\000\000\000\000\000"
 5414      00000000 
 5414      00000000 
 5414      00
 5415 0ed4 00000000 		.ascii	"\000\000\000\000"
 5416              		.section	.rodata.Font24_Table,"a"
 5417              		.align	2
 5420              	Font24_Table:
 5421 0000 00000000 		.ascii	"\000\000\000\000\000\000\000\000\000\000\000\000\000"
 5421      00000000 
 5421      00000000 
 5421      00
 5422 000d 00000000 		.ascii	"\000\000\000\000\000\000\000\000\000\000\000\000\000"
 5422      00000000 
 5422      00000000 
 5422      00
 5423 001a 00000000 		.ascii	"\000\000\000\000\000\000\000\000\000\000\000\000\000"
 5423      00000000 
 5423      00000000 
 5423      00
 5424 0027 00000000 		.ascii	"\000\000\000\000\000\000\000\000\000\000\000\000\000"
 5424      00000000 
 5424      00000000 
 5424      00
 5425 0034 00000000 		.ascii	"\000\000\000\000\000\000\000\000\000\000\000\000\000"
 5425      00000000 
 5425      00000000 
 5425      00
 5426 0041 00000000 		.ascii	"\000\000\000\000\000\000\000\000\000\000\000\000\000"
 5426      00000000 
 5426      00000000 
 5426      00
 5427 004e 03800003 		.ascii	"\003\200\000\003\200\000\003\200\000\003\200\000\003"
 5427      80000380 
 5427      00038000 
 5427      03
 5428 005b 80000380 		.ascii	"\200\000\003\200\000\003\200\000\003\200\000\003\200"
 5428      00038000 
 5428      03800003 
 5428      80
 5429 0068 00010000 		.ascii	"\000\001\000\000\001\000\000\000\000\000\000\000\000"
 5429      01000000 
 5429      00000000 
 5429      00
 5430 0075 03800003 		.ascii	"\003\200\000\003\200\000\000\000\000\000\000\000\000"
 5430      80000000 
 5430      00000000 
 5430      00
 5431 0082 00000000 		.ascii	"\000\000\000\000\000\000\000\000\000\000\000\000\000"
 5431      00000000 
 5431      00000000 
 5431      00
ARM GAS  /tmp/ccky5mPs.s 			page 170


 5432 008f 00000000 		.ascii	"\000\000\000\000\000\000\000\000\000\000\016p\000\016"
 5432      00000000 
 5432      00000E70 
 5432      000E
 5433 009d 70000E70 		.ascii	"p\000\016p\000\004 \000\004 \000\004 \000\004 \000\000"
 5433      00042000 
 5433      04200004 
 5433      20000420 
 5433      0000
 5434 00af 00000000 		.ascii	"\000\000\000\000\000\000\000\000\000\000\000\000\000"
 5434      00000000 
 5434      00000000 
 5434      00
 5435 00bc 00000000 		.ascii	"\000\000\000\000\000\000\000\000\000\000\000\000\000"
 5435      00000000 
 5435      00000000 
 5435      00
 5436 00c9 00000000 		.ascii	"\000\000\000\000\000\000\000\000\000\000\000\000\000"
 5436      00000000 
 5436      00000000 
 5436      00
 5437 00d6 00000000 		.ascii	"\000\000\000\000\000\000\000\000\006`\000\006`\000\006"
 5437      00000000 
 5437      06600006 
 5437      600006
 5438 00e5 60000660 		.ascii	"`\000\006`\000\006`\000?\370\000?\370\000\006`\000\014"
 5438      00066000 
 5438      3FF8003F 
 5438      F8000660 
 5438      000C
 5439 00f7 C0003FF8 		.ascii	"\300\000?\370\000?\370\000\014\300\000\014\300\000\014"
 5439      003FF800 
 5439      0CC0000C 
 5439      C0000C
 5440 0106 C0000CC0 		.ascii	"\300\000\014\300\000\014\300\000\000\000\000\000\000"
 5440      000CC000 
 5440      00000000 
 5440      00
 5441 0113 00000000 		.ascii	"\000\000\000\000\000\000\000\000\000\000\000\000\000"
 5441      00000000 
 5441      00000000 
 5441      00
 5442 0120 00000001 		.ascii	"\000\000\000\001\200\000\001\200\000\007\260\000\017"
 5442      80000180 
 5442      0007B000 
 5442      0F
 5443 012d F0001870 		.ascii	"\360\000\030p\000\030p\000\034\000\000\017\200\000\007"
 5443      00187000 
 5443      1C00000F 
 5443      800007
 5444 013c E00000F0 		.ascii	"\340\000\000\360\000\0300\000\0340\000\034p\000\037"
 5444      00183000 
 5444      1C30001C 
 5444      70001F
 5445 014b E0001BC0 		.ascii	"\340\000\033\300\000\001\200\000\001\200\000\001\200"
 5445      00018000 
 5445      01800001 
ARM GAS  /tmp/ccky5mPs.s 			page 171


 5445      80
 5446 0158 00018000 		.ascii	"\000\001\200\000\000\000\000\000\000\000\000\000\000"
 5446      00000000 
 5446      00000000 
 5446      00
 5447 0165 00000000 		.ascii	"\000\000\000\000\000\000\000\000\000\007\200\000\017"
 5447      00000000 
 5447      00078000 
 5447      0F
 5448 0172 C0001CE0 		.ascii	"\300\000\034\340\000\030`\000\030`\000\034\340\000\017"
 5448      00186000 
 5448      1860001C 
 5448      E0000F
 5449 0181 F80007E0 		.ascii	"\370\000\007\340\000\037\360\000\0078\000\006\030\000"
 5449      001FF000 
 5449      07380006 
 5449      1800
 5450 018f 06180007 		.ascii	"\006\030\000\0078\000\003\360\000\001\340\000\000\000"
 5450      380003F0 
 5450      0001E000 
 5450      0000
 5451 019d 00000000 		.ascii	"\000\000\000\000\000\000\000\000\000\000\000\000\000"
 5451      00000000 
 5451      00000000 
 5451      00
 5452 01aa 00000000 		.ascii	"\000\000\000\000\000\000\000\000\000\000\000\000\000"
 5452      00000000 
 5452      00000000 
 5452      00
 5453 01b7 00000000 		.ascii	"\000\000\000\000\000\003\360\000\007\360\000\014`\000"
 5453      0003F000 
 5453      07F0000C 
 5453      6000
 5454 01c5 0C00000C 		.ascii	"\014\000\000\014\000\000\006\000\000\007\000\000\017"
 5454      00000600 
 5454      00070000 
 5454      0F
 5455 01d2 9C001DFC 		.ascii	"\234\000\035\374\000\030\360\000\030p\000\017\374\000"
 5455      0018F000 
 5455      1870000F 
 5455      FC00
 5456 01e0 07DC0000 		.ascii	"\007\334\000\000\000\000\000\000\000\000\000\000\000"
 5456      00000000 
 5456      00000000 
 5456      00
 5457 01ed 00000000 		.ascii	"\000\000\000\000\000\000\000\000\000\000\000\000\000"
 5457      00000000 
 5457      00000000 
 5457      00
 5458 01fa 00000000 		.ascii	"\000\000\000\000\000\000\000\003\200\000\003\200\000"
 5458      00000003 
 5458      80000380 
 5458      00
 5459 0207 03800001 		.ascii	"\003\200\000\001\000\000\001\000\000\001\000\000\001"
 5459      00000100 
 5459      00010000 
 5459      01
ARM GAS  /tmp/ccky5mPs.s 			page 172


 5460 0214 00000000 		.ascii	"\000\000\000\000\000\000\000\000\000\000\000\000\000"
 5460      00000000 
 5460      00000000 
 5460      00
 5461 0221 00000000 		.ascii	"\000\000\000\000\000\000\000\000\000\000\000\000\000"
 5461      00000000 
 5461      00000000 
 5461      00
 5462 022e 00000000 		.ascii	"\000\000\000\000\000\000\000\000\000\000\000\000\000"
 5462      00000000 
 5462      00000000 
 5462      00
 5463 023b 00000000 		.ascii	"\000\000\000\000\000\000\000\000\000\000\000\000\030"
 5463      00000000 
 5463      00000000 
 5463      18
 5464 0248 00003800 		.ascii	"\000\0008\000\000p\000\000\360\000\000\340\000\000\340"
 5464      00700000 
 5464      F00000E0 
 5464      0000E0
 5465 0257 0001C000 		.ascii	"\000\001\300\000\001\300\000\001\300\000\001\300\000"
 5465      01C00001 
 5465      C00001C0 
 5465      00
 5466 0264 01C00001 		.ascii	"\001\300\000\001\300\000\000\340\000\000\340\000\000"
 5466      C00000E0 
 5466      0000E000 
 5466      00
 5467 0271 70000070 		.ascii	"p\000\000p\000\0008\000\000\030\000\000\000\000\000"
 5467      00003800 
 5467      00180000 
 5467      000000
 5468 0280 00000000 		.ascii	"\000\000\000\000\000\000\000\000\000\000\000\000\000"
 5468      00000000 
 5468      00000000 
 5468      00
 5469 028d 00180000 		.ascii	"\000\030\000\000\034\000\000\016\000\000\016\000\000"
 5469      1C00000E 
 5469      00000E00 
 5469      00
 5470 029a 07000007 		.ascii	"\007\000\000\007\000\000\003\200\000\003\200\000\003"
 5470      00000380 
 5470      00038000 
 5470      03
 5471 02a7 80000380 		.ascii	"\200\000\003\200\000\003\200\000\003\200\000\007\000"
 5471      00038000 
 5471      03800007 
 5471      00
 5472 02b4 00070000 		.ascii	"\000\007\000\000\017\000\000\016\000\000\034\000\000"
 5472      0F00000E 
 5472      00001C00 
 5472      00
 5473 02c1 18000000 		.ascii	"\030\000\000\000\000\000\000\000\000\000\000\000\000"
 5473      00000000 
 5473      00000000 
 5473      00
 5474 02ce 00000000 		.ascii	"\000\000\000\000\000\000\000\000\001\200\000\001\200"
ARM GAS  /tmp/ccky5mPs.s 			page 173


 5474      00000000 
 5474      01800001 
 5474      80
 5475 02db 00018000 		.ascii	"\000\001\200\000\035\270\000\037\370\000\007\340\000"
 5475      1DB8001F 
 5475      F80007E0 
 5475      00
 5476 02e8 03C00003 		.ascii	"\003\300\000\003\300\000\006`\000\006`\000\000\000\000"
 5476      C0000660 
 5476      00066000 
 5476      000000
 5477 02f7 00000000 		.ascii	"\000\000\000\000\000\000\000\000\000\000\000\000\000"
 5477      00000000 
 5477      00000000 
 5477      00
 5478 0304 00000000 		.ascii	"\000\000\000\000\000\000\000\000\000\000\000\000\000"
 5478      00000000 
 5478      00000000 
 5478      00
 5479 0311 00000000 		.ascii	"\000\000\000\000\000\000\000\000\000\000\000\000\000"
 5479      00000000 
 5479      00000000 
 5479      00
 5480 031e 00000000 		.ascii	"\000\000\000\000\000\000\001\200\000\001\200\000\001"
 5480      00000180 
 5480      00018000 
 5480      01
 5481 032b 80000180 		.ascii	"\200\000\001\200\000\001\200\000?\374\000?\374\000\001"
 5481      00018000 
 5481      3FFC003F 
 5481      FC0001
 5482 033a 80000180 		.ascii	"\200\000\001\200\000\001\200\000\001\200\000\001\200"
 5482      00018000 
 5482      01800001 
 5482      80
 5483 0347 00000000 		.ascii	"\000\000\000\000\000\000\000\000\000\000\000\000\000"
 5483      00000000 
 5483      00000000 
 5483      00
 5484 0354 00000000 		.ascii	"\000\000\000\000\000\000\000\000\000\000\000\000\000"
 5484      00000000 
 5484      00000000 
 5484      00
 5485 0361 00000000 		.ascii	"\000\000\000\000\000\000\000\000\000\000\000\000\000"
 5485      00000000 
 5485      00000000 
 5485      00
 5486 036e 00000000 		.ascii	"\000\000\000\000\000\000\000\000\000\000\000\000\000"
 5486      00000000 
 5486      00000000 
 5486      00
 5487 037b 00000000 		.ascii	"\000\000\000\000\000\000\000\000\000\000\000\000\000"
 5487      00000000 
 5487      00000000 
 5487      00
 5488 0388 000000E0 		.ascii	"\000\000\000\340\000\000\300\000\001\300\000\001\200"
 5488      0000C000 
ARM GAS  /tmp/ccky5mPs.s 			page 174


 5488      01C00001 
 5488      80
 5489 0395 00018000 		.ascii	"\000\001\200\000\003\000\000\003\000\000\000\000\000"
 5489      03000003 
 5489      00000000 
 5489      00
 5490 03a2 00000000 		.ascii	"\000\000\000\000\000\000\000\000\000\000\000\000\000"
 5490      00000000 
 5490      00000000 
 5490      00
 5491 03af 00000000 		.ascii	"\000\000\000\000\000\000\000\000\000\000\000\000\000"
 5491      00000000 
 5491      00000000 
 5491      00
 5492 03bc 00000000 		.ascii	"\000\000\000\000\000\000\000\037\370\000\037\370\000"
 5492      0000001F 
 5492      F8001FF8 
 5492      00
 5493 03c9 00000000 		.ascii	"\000\000\000\000\000\000\000\000\000\000\000\000\000"
 5493      00000000 
 5493      00000000 
 5493      00
 5494 03d6 00000000 		.ascii	"\000\000\000\000\000\000\000\000\000\000\000\000\000"
 5494      00000000 
 5494      00000000 
 5494      00
 5495 03e3 00000000 		.ascii	"\000\000\000\000\000\000\000\000\000\000\000\000\000"
 5495      00000000 
 5495      00000000 
 5495      00
 5496 03f0 00000000 		.ascii	"\000\000\000\000\000\000\000\000\000\000\000\000\000"
 5496      00000000 
 5496      00000000 
 5496      00
 5497 03fd 00000000 		.ascii	"\000\000\000\000\000\000\000\000\000\000\000\000\000"
 5497      00000000 
 5497      00000000 
 5497      00
 5498 040a 00000000 		.ascii	"\000\000\000\000\000\000\000\000\000\000\000\000\000"
 5498      00000000 
 5498      00000000 
 5498      00
 5499 0417 00000003 		.ascii	"\000\000\000\003\300\000\003\300\000\003\300\000\000"
 5499      C00003C0 
 5499      0003C000 
 5499      00
 5500 0424 00000000 		.ascii	"\000\000\000\000\000\000\000\000\000\000\000\000\000"
 5500      00000000 
 5500      00000000 
 5500      00
 5501 0431 00000000 		.ascii	"\000\000\000\000\000\000\000\000\030\000\000\030\000"
 5501      00000000 
 5501      18000018 
 5501      00
 5502 043e 00380000 		.ascii	"\0008\000\0000\000\000p\000\000`\000\000`\000\000\300"
 5502      30000070 
 5502      00006000 
ARM GAS  /tmp/ccky5mPs.s 			page 175


 5502      00600000 
 5502      C0
 5503 044f 0000C000 		.ascii	"\000\000\300\000\001\200\000\001\200\000\003\000\000"
 5503      01800001 
 5503      80000300 
 5503      00
 5504 045c 03000006 		.ascii	"\003\000\000\006\000\000\006\000\000\016\000\000\014"
 5504      00000600 
 5504      000E0000 
 5504      0C
 5505 0469 00001C00 		.ascii	"\000\000\034\000\000\030\000\000\030\000\000\000\000"
 5505      00180000 
 5505      18000000 
 5505      00
 5506 0476 00000000 		.ascii	"\000\000\000\000\000\000\000\000\000\000\000\000\000"
 5506      00000000 
 5506      00000000 
 5506      00
 5507 0483 00000003 		.ascii	"\000\000\000\003\300\000\007\340\000\0140\000\0140\000"
 5507      C00007E0 
 5507      000C3000 
 5507      0C3000
 5508 0492 18180018 		.ascii	"\030\030\000\030\030\000\030\030\000\030\030\000\030"
 5508      18001818 
 5508      00181800 
 5508      18
 5509 049f 18001818 		.ascii	"\030\000\030\030\000\030\030\000\0140\000\0140\000\007"
 5509      00181800 
 5509      0C30000C 
 5509      300007
 5510 04ae E00003C0 		.ascii	"\340\000\003\300\000\000\000\000\000\000\000\000\000"
 5510      00000000 
 5510      00000000 
 5510      00
 5511 04bb 00000000 		.ascii	"\000\000\000\000\000\000\000\000\000\000\000\000\000"
 5511      00000000 
 5511      00000000 
 5511      00
 5512 04c8 00000000 		.ascii	"\000\000\000\000\000\000\000\200\000\007\200\000\037"
 5512      00000080 
 5512      00078000 
 5512      1F
 5513 04d5 80001D80 		.ascii	"\200\000\035\200\000\001\200\000\001\200\000\001\200"
 5513      00018000 
 5513      01800001 
 5513      80
 5514 04e2 00018000 		.ascii	"\000\001\200\000\001\200\000\001\200\000\001\200\000"
 5514      01800001 
 5514      80000180 
 5514      00
 5515 04ef 01800001 		.ascii	"\001\200\000\001\200\000\037\370\000\037\370\000\000"
 5515      80001FF8 
 5515      001FF800 
 5515      00
 5516 04fc 00000000 		.ascii	"\000\000\000\000\000\000\000\000\000\000\000\000\000"
 5516      00000000 
 5516      00000000 
ARM GAS  /tmp/ccky5mPs.s 			page 176


 5516      00
 5517 0509 00000000 		.ascii	"\000\000\000\000\000\000\000\000\000\000\000\000\000"
 5517      00000000 
 5517      00000000 
 5517      00
 5518 0516 07C0001F 		.ascii	"\007\300\000\037\360\00080\0000\030\0000\030\000\000"
 5518      F0003830 
 5518      00301800 
 5518      30180000 
 5519 0526 18000030 		.ascii	"\030\000\0000\000\000`\000\001\300\000\003\200\000\006"
 5519      00006000 
 5519      01C00003 
 5519      800006
 5520 0535 00000C00 		.ascii	"\000\000\014\000\000\030\000\000?\370\000?\370\000\000"
 5520      00180000 
 5520      3FF8003F 
 5520      F80000
 5521 0544 00000000 		.ascii	"\000\000\000\000\000\000\000\000\000\000\000\000\000"
 5521      00000000 
 5521      00000000 
 5521      00
 5522 0551 00000000 		.ascii	"\000\000\000\000\000\000\000\000\000\000\000\000\000"
 5522      00000000 
 5522      00000000 
 5522      00
 5523 055e 03C0000F 		.ascii	"\003\300\000\017\340\000\014p\000\0000\000\0000\000"
 5523      E0000C70 
 5523      00003000 
 5523      003000
 5524 056d 00600003 		.ascii	"\000`\000\003\300\000\003\340\000\000p\000\000\030\000"
 5524      C00003E0 
 5524      00007000 
 5524      001800
 5525 057c 00180000 		.ascii	"\000\030\000\000\030\000\0308\000\037\360\000\017\300"
 5525      18001838 
 5525      001FF000 
 5525      0FC0
 5526 058a 00000000 		.ascii	"\000\000\000\000\000\000\000\000\000\000\000\000\000"
 5526      00000000 
 5526      00000000 
 5526      00
 5527 0597 00000000 		.ascii	"\000\000\000\000\000\000\000\000\000\000\000\000\000"
 5527      00000000 
 5527      00000000 
 5527      00
 5528 05a4 000000E0 		.ascii	"\000\000\000\340\000\001\340\000\001\340\000\003`\000"
 5528      0001E000 
 5528      01E00003 
 5528      6000
 5529 05b2 06600006 		.ascii	"\006`\000\006`\000\014`\000\014`\000\030`\0000`\000"
 5529      60000C60 
 5529      000C6000 
 5529      18600030 
 5529      6000
 5530 05c4 3FF8003F 		.ascii	"?\370\000?\370\000\000`\000\003\370\000\003\370\000"
 5530      F8000060 
 5530      0003F800 
ARM GAS  /tmp/ccky5mPs.s 			page 177


 5530      03F800
 5531 05d3 00000000 		.ascii	"\000\000\000\000\000\000\000\000\000\000\000\000\000"
 5531      00000000 
 5531      00000000 
 5531      00
 5532 05e0 00000000 		.ascii	"\000\000\000\000\000\000\000\000\000\000\000\000\000"
 5532      00000000 
 5532      00000000 
 5532      00
 5533 05ed 001FF000 		.ascii	"\000\037\360\000\037\360\000\030\000\000\030\000\000"
 5533      1FF00018 
 5533      00001800 
 5533      00
 5534 05fa 1800001B 		.ascii	"\030\000\000\033\300\000\037\360\000\0340\000\000\030"
 5534      C0001FF0 
 5534      001C3000 
 5534      0018
 5535 0608 00001800 		.ascii	"\000\000\030\000\000\030\000\000\030\00000\000?\360"
 5535      00180000 
 5535      18003030 
 5535      003FF0
 5536 0617 000FC000 		.ascii	"\000\017\300\000\000\000\000\000\000\000\000\000\000"
 5536      00000000 
 5536      00000000 
 5536      00
 5537 0624 00000000 		.ascii	"\000\000\000\000\000\000\000\000\000\000\000\000\000"
 5537      00000000 
 5537      00000000 
 5537      00
 5538 0631 00000000 		.ascii	"\000\000\000\000\000\000\370\000\003\370\000\007\000"
 5538      0000F800 
 5538      03F80007 
 5538      00
 5539 063e 000E0000 		.ascii	"\000\016\000\000\014\000\000\030\000\000\033\300\000"
 5539      0C000018 
 5539      00001BC0 
 5539      00
 5540 064b 1FF0001C 		.ascii	"\037\360\000\0340\000\030\030\000\030\030\000\030\030"
 5540      30001818 
 5540      00181800 
 5540      1818
 5541 0659 000C3800 		.ascii	"\000\0148\000\017\360\000\003\340\000\000\000\000\000"
 5541      0FF00003 
 5541      E0000000 
 5541      0000
 5542 0667 00000000 		.ascii	"\000\000\000\000\000\000\000\000\000\000\000\000\000"
 5542      00000000 
 5542      00000000 
 5542      00
 5543 0674 00000000 		.ascii	"\000\000\000\000\000\000\000\000\000\000\037\370\000"
 5543      00000000 
 5543      00001FF8 
 5543      00
 5544 0681 1FF80018 		.ascii	"\037\370\000\030\030\000\0308\000\0000\000\0000\000"
 5544      18001838 
 5544      00003000 
 5544      003000
ARM GAS  /tmp/ccky5mPs.s 			page 178


 5545 0690 00700000 		.ascii	"\000p\000\000`\000\000`\000\000\340\000\000\300\000"
 5545      60000060 
 5545      0000E000 
 5545      00C000
 5546 069f 00C00001 		.ascii	"\000\300\000\001\300\000\001\200\000\001\200\000\000"
 5546      C0000180 
 5546      00018000 
 5546      00
 5547 06ac 00000000 		.ascii	"\000\000\000\000\000\000\000\000\000\000\000\000\000"
 5547      00000000 
 5547      00000000 
 5547      00
 5548 06b9 00000000 		.ascii	"\000\000\000\000\000\000\000\000\000\000\000\000\000"
 5548      00000000 
 5548      00000000 
 5548      00
 5549 06c6 07E0000F 		.ascii	"\007\340\000\017\360\000\0348\000\030\030\000\030\030"
 5549      F0001C38 
 5549      00181800 
 5549      1818
 5550 06d4 000C3000 		.ascii	"\000\0140\000\007\340\000\007\340\000\0140\000\030\030"
 5550      07E00007 
 5550      E0000C30 
 5550      001818
 5551 06e3 00181800 		.ascii	"\000\030\030\000\030\030\000\0348\000\017\360\000\007"
 5551      1818001C 
 5551      38000FF0 
 5551      0007
 5552 06f1 E0000000 		.ascii	"\340\000\000\000\000\000\000\000\000\000\000\000\000"
 5552      00000000 
 5552      00000000 
 5552      00
 5553 06fe 00000000 		.ascii	"\000\000\000\000\000\000\000\000\000\000\000\000\000"
 5553      00000000 
 5553      00000000 
 5553      00
 5554 070b 00000007 		.ascii	"\000\000\000\007\300\000\017\360\000\0340\000\030\030"
 5554      C0000FF0 
 5554      001C3000 
 5554      1818
 5555 0719 00181800 		.ascii	"\000\030\030\000\030\030\000\0148\000\017\370\000\003"
 5555      1818000C 
 5555      38000FF8 
 5555      0003
 5556 0727 D8000018 		.ascii	"\330\000\000\030\000\0000\000\000p\000\000\340\000\037"
 5556      00003000 
 5556      00700000 
 5556      E0001F
 5557 0736 C0001F00 		.ascii	"\300\000\037\000\000\000\000\000\000\000\000\000\000"
 5557      00000000 
 5557      00000000 
 5557      00
 5558 0743 00000000 		.ascii	"\000\000\000\000\000\000\000\000\000\000\000\000\000"
 5558      00000000 
 5558      00000000 
 5558      00
 5559 0750 00000000 		.ascii	"\000\000\000\000\000\000\000\000\000\000\000\000\000"
ARM GAS  /tmp/ccky5mPs.s 			page 179


 5559      00000000 
 5559      00000000 
 5559      00
 5560 075d 00000000 		.ascii	"\000\000\000\000\000\003\300\000\003\300\000\003\300"
 5560      0003C000 
 5560      03C00003 
 5560      C0
 5561 076a 00000000 		.ascii	"\000\000\000\000\000\000\000\000\000\000\000\000\000"
 5561      00000000 
 5561      00000000 
 5561      00
 5562 0777 00000003 		.ascii	"\000\000\000\003\300\000\003\300\000\003\300\000\000"
 5562      C00003C0 
 5562      0003C000 
 5562      00
 5563 0784 00000000 		.ascii	"\000\000\000\000\000\000\000\000\000\000\000\000\000"
 5563      00000000 
 5563      00000000 
 5563      00
 5564 0791 00000000 		.ascii	"\000\000\000\000\000\000\000\000\000\000\000\000\000"
 5564      00000000 
 5564      00000000 
 5564      00
 5565 079e 00000000 		.ascii	"\000\000\000\000\000\000\000\000\000\000\000\000\000"
 5565      00000000 
 5565      00000000 
 5565      00
 5566 07ab F00000F0 		.ascii	"\360\000\000\360\000\000\360\000\000\000\000\000\000"
 5566      0000F000 
 5566      00000000 
 5566      00
 5567 07b8 00000000 		.ascii	"\000\000\000\000\000\000\000\000\340\000\001\300\000"
 5567      00000000 
 5567      E00001C0 
 5567      00
 5568 07c5 01800001 		.ascii	"\001\200\000\001\200\000\003\000\000\002\000"
 5568      80000300 
 5568      000200
 5569 07d0 00000000 		.ascii	"\000\000\000\000\000\000\000\000\000\000\000\000\000"
 5569      00000000 
 5569      00000000 
 5569      00
 5570 07dd 00000000 		.ascii	"\000\000\000\000\000\000\000\000\000\000\000\000\000"
 5570      00000000 
 5570      00000000 
 5570      00
 5571 07ea 0000001C 		.ascii	"\000\000\000\034\000\000<\000\000\360\000\003\300\000"
 5571      00003C00 
 5571      00F00003 
 5571      C000
 5572 07f8 0F00003C 		.ascii	"\017\000\000<\000\000\360\000\000<\000\000\017\000\000"
 5572      0000F000 
 5572      003C0000 
 5572      0F0000
 5573 0807 03C00000 		.ascii	"\003\300\000\000\360\000\000<\000\000\034\000\000\000"
 5573      F000003C 
 5573      00001C00 
ARM GAS  /tmp/ccky5mPs.s 			page 180


 5573      0000
 5574 0815 00000000 		.ascii	"\000\000\000\000\000\000\000\000\000\000\000\000\000"
 5574      00000000 
 5574      00000000 
 5574      00
 5575 0822 00000000 		.ascii	"\000\000\000\000\000\000\000\000\000\000\000\000\000"
 5575      00000000 
 5575      00000000 
 5575      00
 5576 082f 00000000 		.ascii	"\000\000\000\000\000\000\000\000\000\000\000\000\000"
 5576      00000000 
 5576      00000000 
 5576      00
 5577 083c 007FFC00 		.ascii	"\000\177\374\000\177\374\000\000\000\000\000\000\000"
 5577      7FFC0000 
 5577      00000000 
 5577      00
 5578 0849 7FFC007F 		.ascii	"\177\374\000\177\374\000\000\000\000\000\000\000\000"
 5578      FC000000 
 5578      00000000 
 5578      00
 5579 0856 00000000 		.ascii	"\000\000\000\000\000\000\000\000\000\000\000\000\000"
 5579      00000000 
 5579      00000000 
 5579      00
 5580 0863 00000000 		.ascii	"\000\000\000\000\000\000\000\000\000\000\000\000\000"
 5580      00000000 
 5580      00000000 
 5580      00
 5581 0870 00000000 		.ascii	"\000\000\000\000\000\000\000\000\000\000\000\000p\000"
 5581      00000000 
 5581      00000000 
 5581      7000
 5582 087e 00780000 		.ascii	"\000x\000\000\036\000\000\007\200\000\001\340\000\000"
 5582      1E000007 
 5582      800001E0 
 5582      0000
 5583 088c 7800001E 		.ascii	"x\000\000\036\000\000x\000\001\340\000\007\200\000\036"
 5583      00007800 
 5583      01E00007 
 5583      80001E
 5584 089b 00007800 		.ascii	"\000\000x\000\000p\000\000\000\000\000\000\000\000\000"
 5584      00700000 
 5584      00000000 
 5584      000000
 5585 08aa 00000000 		.ascii	"\000\000\000\000\000\000\000\000\000\000\000\000\000"
 5585      00000000 
 5585      00000000 
 5585      00
 5586 08b7 00000000 		.ascii	"\000\000\000\000\000\000\000\000\000\000\007\300\000"
 5586      00000000 
 5586      000007C0 
 5586      00
 5587 08c4 0FE00018 		.ascii	"\017\340\000\030p\000\0300\000\0300\000\000p\000\000"
 5587      70001830 
 5587      00183000 
 5587      00700000 
ARM GAS  /tmp/ccky5mPs.s 			page 181


 5588 08d4 E00003C0 		.ascii	"\340\000\003\300\000\003\200\000\003\000\000\000\000"
 5588      00038000 
 5588      03000000 
 5588      00
 5589 08e1 00000000 		.ascii	"\000\000\000\000\007\000\000\007\000\000\000\000\000"
 5589      07000007 
 5589      00000000 
 5589      00
 5590 08ee 00000000 		.ascii	"\000\000\000\000\000\000\000\000\000\000\000\000\000"
 5590      00000000 
 5590      00000000 
 5590      00
 5591 08fb 00000000 		.ascii	"\000\000\000\000\000\000\000\000\000\000\000\003\340"
 5591      00000000 
 5591      00000003 
 5591      E0
 5592 0908 0007F000 		.ascii	"\000\007\360\000\0168\000\014\030\000\030x\000\030\370"
 5592      0E38000C 
 5592      18001878 
 5592      0018F8
 5593 0917 0019D800 		.ascii	"\000\031\330\000\031\230\000\031\230\000\031\230\000"
 5593      19980019 
 5593      98001998 
 5593      00
 5594 0924 18F80018 		.ascii	"\030\370\000\030x\000\030\000\000\014\000\000\016\030"
 5594      78001800 
 5594      000C0000 
 5594      0E18
 5595 0932 0007F800 		.ascii	"\000\007\370\000\003\340\000\000\000\000\000\000\000"
 5595      03E00000 
 5595      00000000 
 5595      00
 5596 093f 00000000 		.ascii	"\000\000\000\000\000\000\000\000\000\000\000\000\000"
 5596      00000000 
 5596      00000000 
 5596      00
 5597 094c 00000000 		.ascii	"\000\000\000\000\000\037\200\000\037\300\000\001\300"
 5597      001F8000 
 5597      1FC00001 
 5597      C0
 5598 0959 00036000 		.ascii	"\000\003`\000\003`\000\0060\000\0060\000\0140\000\017"
 5598      03600006 
 5598      30000630 
 5598      000C3000 
 5598      0F
 5599 096a F8001FF8 		.ascii	"\370\000\037\370\000\030\014\0000\014\000\374\177\000"
 5599      00180C00 
 5599      300C00FC 
 5599      7F00
 5600 0978 FC7F0000 		.ascii	"\374\177\000\000\000\000\000\000\000\000\000\000\000"
 5600      00000000 
 5600      00000000 
 5600      00
 5601 0985 00000000 		.ascii	"\000\000\000\000\000\000\000\000\000\000\000\000\000"
 5601      00000000 
 5601      00000000 
 5601      00
ARM GAS  /tmp/ccky5mPs.s 			page 182


 5602 0992 00000000 		.ascii	"\000\000\000\000\000\000\000\177\340\000\177\360\000"
 5602      0000007F 
 5602      E0007FF0 
 5602      00
 5603 099f 18380018 		.ascii	"\0308\000\030\030\000\030\030\000\0308\000\037\360\000"
 5603      18001818 
 5603      00183800 
 5603      1FF000
 5604 09ae 1FF80018 		.ascii	"\037\370\000\030\034\000\030\014\000\030\014\000\030"
 5604      1C00180C 
 5604      00180C00 
 5604      18
 5605 09bb 0C007FF8 		.ascii	"\014\000\177\370\000\177\360\000\000\000\000\000\000"
 5605      007FF000 
 5605      00000000 
 5605      00
 5606 09c8 00000000 		.ascii	"\000\000\000\000\000\000\000\000\000\000\000\000\000"
 5606      00000000 
 5606      00000000 
 5606      00
 5607 09d5 00000000 		.ascii	"\000\000\000\000\000\000\000\000\000\000\000\000\003"
 5607      00000000 
 5607      00000000 
 5607      03
 5608 09e2 EC000FFC 		.ascii	"\354\000\017\374\000\034\034\000\030\014\0000\014\000"
 5608      001C1C00 
 5608      180C0030 
 5608      0C00
 5609 09f0 30000030 		.ascii	"0\000\0000\000\0000\000\0000\000\0000\000\000\030\014"
 5609      00003000 
 5609      00300000 
 5609      30000018 
 5609      0C
 5610 0a01 001C1C00 		.ascii	"\000\034\034\000\017\370\000\003\360\000\000\000\000"
 5610      0FF80003 
 5610      F0000000 
 5610      00
 5611 0a0e 00000000 		.ascii	"\000\000\000\000\000\000\000\000\000\000\000\000\000"
 5611      00000000 
 5611      00000000 
 5611      00
 5612 0a1b 00000000 		.ascii	"\000\000\000\000\000\000\000\000\000\000\000\000\000"
 5612      00000000 
 5612      00000000 
 5612      00
 5613 0a28 007FC000 		.ascii	"\000\177\300\000\177\360\000\0308\000\030\030\000\030"
 5613      7FF00018 
 5613      38001818 
 5613      0018
 5614 0a36 0C00180C 		.ascii	"\014\000\030\014\000\030\014\000\030\014\000\030\014"
 5614      00180C00 
 5614      180C0018 
 5614      0C
 5615 0a43 00180C00 		.ascii	"\000\030\014\000\030\030\000\0308\000\177\360\000\177"
 5615      18180018 
 5615      38007FF0 
 5615      007F
ARM GAS  /tmp/ccky5mPs.s 			page 183


 5616 0a51 E0000000 		.ascii	"\340\000\000\000\000\000\000\000\000\000\000\000\000"
 5616      00000000 
 5616      00000000 
 5616      00
 5617 0a5e 00000000 		.ascii	"\000\000\000\000\000\000\000\000\000\000\000\000\000"
 5617      00000000 
 5617      00000000 
 5617      00
 5618 0a6b 00000000 		.ascii	"\000\000\000\000\000\000\177\370\000\177\370\000\030"
 5618      00007FF8 
 5618      007FF800 
 5618      18
 5619 0a78 18001818 		.ascii	"\030\000\030\030\000\031\230\000\031\200\000\037\200"
 5619      00199800 
 5619      1980001F 
 5619      80
 5620 0a85 001F8000 		.ascii	"\000\037\200\000\031\200\000\031\230\000\030\030\000"
 5620      19800019 
 5620      98001818 
 5620      00
 5621 0a92 1818007F 		.ascii	"\030\030\000\177\370\000\177\370\000\000\000\000\000"
 5621      F8007FF8 
 5621      00000000 
 5621      00
 5622 0a9f 00000000 		.ascii	"\000\000\000\000\000\000\000\000\000\000\000\000\000"
 5622      00000000 
 5622      00000000 
 5622      00
 5623 0aac 00000000 		.ascii	"\000\000\000\000\000\000\000\000\000\000\000\000\000"
 5623      00000000 
 5623      00000000 
 5623      00
 5624 0ab9 3FFC003F 		.ascii	"?\374\000?\374\000\014\014\000\014\014\000\014\314\000"
 5624      FC000C0C 
 5624      000C0C00 
 5624      0CCC00
 5625 0ac8 0CC0000F 		.ascii	"\014\300\000\017\300\000\017\300\000\014\300\000\014"
 5625      C0000FC0 
 5625      000CC000 
 5625      0C
 5626 0ad5 C0000C00 		.ascii	"\300\000\014\000\000\014\000\000?\300\000?\300\000\000"
 5626      000C0000 
 5626      3FC0003F 
 5626      C00000
 5627 0ae4 00000000 		.ascii	"\000\000\000\000\000\000\000\000\000\000\000\000\000"
 5627      00000000 
 5627      00000000 
 5627      00
 5628 0af1 00000000 		.ascii	"\000\000\000\000\000\000\000\000\000\000\000\000\000"
 5628      00000000 
 5628      00000000 
 5628      00
 5629 0afe 00000003 		.ascii	"\000\000\000\003\354\000\017\374\000\034\034\000\030"
 5629      EC000FFC 
 5629      001C1C00 
 5629      18
 5630 0b0b 0C00300C 		.ascii	"\014\0000\014\0000\000\0000\000\0000\376\0000\376\000"
ARM GAS  /tmp/ccky5mPs.s 			page 184


 5630      00300000 
 5630      30000030 
 5630      FE0030FE 
 5630      00
 5631 0b1c 300C0038 		.ascii	"0\014\0008\014\000\034\034\000\017\374\000\003\360\000"
 5631      0C001C1C 
 5631      000FFC00 
 5631      03F000
 5632 0b2b 00000000 		.ascii	"\000\000\000\000\000\000\000\000\000\000\000\000\000"
 5632      00000000 
 5632      00000000 
 5632      00
 5633 0b38 00000000 		.ascii	"\000\000\000\000\000\000\000\000\000\000\000\000\000"
 5633      00000000 
 5633      00000000 
 5633      00
 5634 0b45 00000000 		.ascii	"\000\000\000\000~~\000~~\000\030\030\000\030\030\000"
 5634      7E7E007E 
 5634      7E001818 
 5634      00181800 
 5635 0b55 18180018 		.ascii	"\030\030\000\030\030\000\037\370\000\037\370\000\030"
 5635      18001FF8 
 5635      001FF800 
 5635      18
 5636 0b62 18001818 		.ascii	"\030\000\030\030\000\030\030\000\030\030\000~~\000~"
 5636      00181800 
 5636      1818007E 
 5636      7E007E
 5637 0b71 7E000000 		.ascii	"~\000\000\000\000\000\000\000\000\000\000\000\000\000"
 5637      00000000 
 5637      00000000 
 5637      0000
 5638 0b7f 00000000 		.ascii	"\000\000\000\000\000\000\000\000\000\000\000\000\000"
 5638      00000000 
 5638      00000000 
 5638      00
 5639 0b8c 00000000 		.ascii	"\000\000\000\000\000\037\370\000\037\370\000\001\200"
 5639      001FF800 
 5639      1FF80001 
 5639      80
 5640 0b99 00018000 		.ascii	"\000\001\200\000\001\200\000\001\200\000\001\200\000"
 5640      01800001 
 5640      80000180 
 5640      00
 5641 0ba6 01800001 		.ascii	"\001\200\000\001\200\000\001\200\000\001\200\000\001"
 5641      80000180 
 5641      00018000 
 5641      01
 5642 0bb3 80001FF8 		.ascii	"\200\000\037\370\000\037\370\000\000\000\000\000\000"
 5642      001FF800 
 5642      00000000 
 5642      00
 5643 0bc0 00000000 		.ascii	"\000\000\000\000\000\000\000\000\000\000\000\000\000"
 5643      00000000 
 5643      00000000 
 5643      00
 5644 0bcd 00000000 		.ascii	"\000\000\000\000\000\000\000\000\000\000\000\000\007"
ARM GAS  /tmp/ccky5mPs.s 			page 185


 5644      00000000 
 5644      00000000 
 5644      07
 5645 0bda FE0007FE 		.ascii	"\376\000\007\376\000\0000\000\0000\000\0000\000\000"
 5645      00003000 
 5645      00300000 
 5645      300000
 5646 0be9 30000030 		.ascii	"0\000\0000\00000\00000\00000\00000\0000`\000?\340\000"
 5646      00303000 
 5646      30300030 
 5646      30003030 
 5646      00306000 
 5647 0c00 0F800000 		.ascii	"\017\200\000\000\000\000\000\000\000\000\000\000\000"
 5647      00000000 
 5647      00000000 
 5647      00
 5648 0c0d 00000000 		.ascii	"\000\000\000\000\000\000\000\000\000\000\000\000\000"
 5648      00000000 
 5648      00000000 
 5648      00
 5649 0c1a 00000000 		.ascii	"\000\000\000\000\000\000\000\177>\000\177>\000\0300"
 5649      0000007F 
 5649      3E007F3E 
 5649      001830
 5650 0c29 00186000 		.ascii	"\000\030`\000\030\300\000\031\200\000\033\200\000\037"
 5650      18C00019 
 5650      80001B80 
 5650      001F
 5651 0c37 C0001CE0 		.ascii	"\300\000\034\340\000\030p\000\0300\000\0308\000\177"
 5651      00187000 
 5651      18300018 
 5651      38007F
 5652 0c46 1F007F1F 		.ascii	"\037\000\177\037\000\000\000\000\000\000\000\000\000"
 5652      00000000 
 5652      00000000 
 5652      00
 5653 0c53 00000000 		.ascii	"\000\000\000\000\000\000\000\000\000\000\000\000\000"
 5653      00000000 
 5653      00000000 
 5653      00
 5654 0c60 00000000 		.ascii	"\000\000\000\000\000\000\000\000\000\177\200\000\177"
 5654      00000000 
 5654      007F8000 
 5654      7F
 5655 0c6d 80000C00 		.ascii	"\200\000\014\000\000\014\000\000\014\000\000\014\000"
 5655      000C0000 
 5655      0C00000C 
 5655      00
 5656 0c7a 000C0000 		.ascii	"\000\014\000\000\014\000\000\014\014\000\014\014\000"
 5656      0C00000C 
 5656      0C000C0C 
 5656      00
 5657 0c87 0C0C000C 		.ascii	"\014\014\000\014\014\000\177\374\000\177\374\000\000"
 5657      0C007FFC 
 5657      007FFC00 
 5657      00
 5658 0c94 00000000 		.ascii	"\000\000\000\000\000\000\000\000\000\000\000\000\000"
ARM GAS  /tmp/ccky5mPs.s 			page 186


 5658      00000000 
 5658      00000000 
 5658      00
 5659 0ca1 00000000 		.ascii	"\000\000\000\000\000\000\000\000\000\000\000\000\000"
 5659      00000000 
 5659      00000000 
 5659      00
 5660 0cae 000000F0 		.ascii	"\000\000\000\360\017\000\370\037\0008\034\000<<\000"
 5660      0F00F81F 
 5660      00381C00 
 5660      3C3C00
 5661 0cbd 3C3C0036 		.ascii	"<<\0006l\0006l\0003\314\0003\314\0001\214\0000\014\000"
 5661      6C00366C 
 5661      0033CC00 
 5661      33CC0031 
 5661      8C00300C 
 5662 0cd2 300C00FE 		.ascii	"0\014\000\376\177\000\376\177\000\000\000\000\000\000"
 5662      7F00FE7F 
 5662      00000000 
 5662      0000
 5663 0ce0 00000000 		.ascii	"\000\000\000\000\000\000\000\000\000\000\000\000\000"
 5663      00000000 
 5663      00000000 
 5663      00
 5664 0ced 00000000 		.ascii	"\000\000\000\000\000\000\000\000\000\000\000\000x\376"
 5664      00000000 
 5664      00000000 
 5664      78FE
 5665 0cfb 0078FE00 		.ascii	"\000x\376\000\034\030\000\036\030\000\037\030\000\033"
 5665      1C18001E 
 5665      18001F18 
 5665      001B
 5666 0d09 18001B98 		.ascii	"\030\000\033\230\000\031\330\000\030\330\000\030\370"
 5666      0019D800 
 5666      18D80018 
 5666      F8
 5667 0d16 00187800 		.ascii	"\000\030x\000\0308\000\177\030\000\177\030\000\000\000"
 5667      1838007F 
 5667      18007F18 
 5667      000000
 5668 0d25 00000000 		.ascii	"\000\000\000\000\000\000\000\000\000\000\000\000\000"
 5668      00000000 
 5668      00000000 
 5668      00
 5669 0d32 00000000 		.ascii	"\000\000\000\000\000\000\000\000\000\000\000\000\000"
 5669      00000000 
 5669      00000000 
 5669      00
 5670 0d3f 000003C0 		.ascii	"\000\000\003\300\000\017\360\000\0348\000\030\030\000"
 5670      000FF000 
 5670      1C380018 
 5670      1800
 5671 0d4d 381C0030 		.ascii	"8\034\0000\014\0000\014\0000\014\0000\014\0008\034\000"
 5671      0C00300C 
 5671      00300C00 
 5671      300C0038 
 5671      1C00
ARM GAS  /tmp/ccky5mPs.s 			page 187


 5672 0d5f 1818001C 		.ascii	"\030\030\000\0348\000\017\360\000\003\300\000\000\000"
 5672      38000FF0 
 5672      0003C000 
 5672      0000
 5673 0d6d 00000000 		.ascii	"\000\000\000\000\000\000\000\000\000\000\000\000\000"
 5673      00000000 
 5673      00000000 
 5673      00
 5674 0d7a 00000000 		.ascii	"\000\000\000\000\000\000\000\000\000\000\000\000\000"
 5674      00000000 
 5674      00000000 
 5674      00
 5675 0d87 00003FF0 		.ascii	"\000\000?\360\000?\370\000\014\034\000\014\014\000\014"
 5675      003FF800 
 5675      0C1C000C 
 5675      0C000C
 5676 0d96 0C000C0C 		.ascii	"\014\000\014\014\000\014\030\000\017\370\000\017\340"
 5676      000C1800 
 5676      0FF8000F 
 5676      E0
 5677 0da3 000C0000 		.ascii	"\000\014\000\000\014\000\000\014\000\000?\300\000?\300"
 5677      0C00000C 
 5677      00003FC0 
 5677      003FC0
 5678 0db2 00000000 		.ascii	"\000\000\000\000\000\000\000\000\000\000\000\000\000"
 5678      00000000 
 5678      00000000 
 5678      00
 5679 0dbf 00000000 		.ascii	"\000\000\000\000\000\000\000\000\000\000\000\000\000"
 5679      00000000 
 5679      00000000 
 5679      00
 5680 0dcc 00000000 		.ascii	"\000\000\000\000\000\003\300\000\017\360\000\0348\000"
 5680      0003C000 
 5680      0FF0001C 
 5680      3800
 5681 0dda 18180038 		.ascii	"\030\030\0008\034\0000\014\0000\014\0000\014\0000\014"
 5681      1C00300C 
 5681      00300C00 
 5681      300C0030 
 5681      0C
 5682 0deb 00381C00 		.ascii	"\0008\034\000\030\030\000\0348\000\017\360\000\007\300"
 5682      1818001C 
 5682      38000FF0 
 5682      0007C0
 5683 0dfa 0007CC00 		.ascii	"\000\007\314\000\017\374\000\0148\000\000\000\000\000"
 5683      0FFC000C 
 5683      38000000 
 5683      0000
 5684 0e08 00000000 		.ascii	"\000\000\000\000\000\000\000\000\000\000\000\000\000"
 5684      00000000 
 5684      00000000 
 5684      00
 5685 0e15 00000000 		.ascii	"\000\000\000\000\177\340\000\177\360\000\0308\000\030"
 5685      7FE0007F 
 5685      F0001838 
 5685      0018
ARM GAS  /tmp/ccky5mPs.s 			page 188


 5686 0e23 18001818 		.ascii	"\030\000\030\030\000\0308\000\037\360\000\037\300\000"
 5686      00183800 
 5686      1FF0001F 
 5686      C000
 5687 0e31 18E00018 		.ascii	"\030\340\000\030p\000\0300\000\0308\000\177\036\000"
 5687      70001830 
 5687      00183800 
 5687      7F1E00
 5688 0e40 7F0E0000 		.ascii	"\177\016\000\000\000\000\000\000\000\000\000\000\000"
 5688      00000000 
 5688      00000000 
 5688      00
 5689 0e4d 00000000 		.ascii	"\000\000\000\000\000\000\000\000\000\000\000\000\000"
 5689      00000000 
 5689      00000000 
 5689      00
 5690 0e5a 00000000 		.ascii	"\000\000\000\000\000\000\000\007\330\000\017\370\000"
 5690      00000007 
 5690      D8000FF8 
 5690      00
 5691 0e67 1C380018 		.ascii	"\0348\000\030\030\000\030\030\000\036\000\000\017\300"
 5691      18001818 
 5691      001E0000 
 5691      0FC0
 5692 0e75 0003F000 		.ascii	"\000\003\360\000\000x\000\030\030\000\030\030\000\034"
 5692      00780018 
 5692      18001818 
 5692      001C
 5693 0e83 38001FF0 		.ascii	"8\000\037\360\000\033\340\000\000\000\000\000\000\000"
 5693      001BE000 
 5693      00000000 
 5693      0000
 5694 0e91 00000000 		.ascii	"\000\000\000\000\000\000\000\000\000\000\000\000\000"
 5694      00000000 
 5694      00000000 
 5694      00
 5695 0e9e 00000000 		.ascii	"\000\000\000\000\000\000\000\000\000\000\000?\374\000"
 5695      00000000 
 5695      0000003F 
 5695      FC00
 5696 0eac 3FFC0031 		.ascii	"?\374\0001\214\0001\214\0001\214\0001\214\000\001\200"
 5696      8C00318C 
 5696      00318C00 
 5696      318C0001 
 5696      80
 5697 0ebd 00018000 		.ascii	"\000\001\200\000\001\200\000\001\200\000\001\200\000"
 5697      01800001 
 5697      80000180 
 5697      00
 5698 0eca 0180000F 		.ascii	"\001\200\000\017\360\000\017\360\000\000\000\000\000"
 5698      F0000FF0 
 5698      00000000 
 5698      00
 5699 0ed7 00000000 		.ascii	"\000\000\000\000\000\000\000\000\000\000\000\000\000"
 5699      00000000 
 5699      00000000 
 5699      00
ARM GAS  /tmp/ccky5mPs.s 			page 189


 5700 0ee4 00000000 		.ascii	"\000\000\000\000\000\000\000\000\000\000\000\000\000"
 5700      00000000 
 5700      00000000 
 5700      00
 5701 0ef1 7E7E007E 		.ascii	"~~\000~~\000\030\030\000\030\030\000\030\030\000\030"
 5701      7E001818 
 5701      00181800 
 5701      18180018 
 5702 0f01 18001818 		.ascii	"\030\000\030\030\000\030\030\000\030\030\000\030\030"
 5702      00181800 
 5702      18180018 
 5702      18
 5703 0f0e 00181800 		.ascii	"\000\030\030\000\0140\000\017\360\000\003\300\000\000"
 5703      0C30000F 
 5703      F00003C0 
 5703      0000
 5704 0f1c 00000000 		.ascii	"\000\000\000\000\000\000\000\000\000\000\000\000\000"
 5704      00000000 
 5704      00000000 
 5704      00
 5705 0f29 00000000 		.ascii	"\000\000\000\000\000\000\000\000\000\000\000\000\000"
 5705      00000000 
 5705      00000000 
 5705      00
 5706 0f36 0000007F 		.ascii	"\000\000\000\177\177\000\177\177\000\030\014\000\014"
 5706      7F007F7F 
 5706      00180C00 
 5706      0C
 5707 0f43 18000C18 		.ascii	"\030\000\014\030\000\014\030\000\0060\000\0060\000\003"
 5707      000C1800 
 5707      06300006 
 5707      300003
 5708 0f52 60000360 		.ascii	"`\000\003`\000\003`\000\001\300\000\001\300\000\000"
 5708      00036000 
 5708      01C00001 
 5708      C00000
 5709 0f61 80000000 		.ascii	"\200\000\000\000\000\000\000\000\000\000\000\000\000"
 5709      00000000 
 5709      00000000 
 5709      00
 5710 0f6e 00000000 		.ascii	"\000\000\000\000\000\000\000\000\000\000\000\000\000"
 5710      00000000 
 5710      00000000 
 5710      00
 5711 0f7b 00000000 		.ascii	"\000\000\000\000\000\000\376?\200\376?\2000\006\000"
 5711      0000FE3F 
 5711      80FE3F80 
 5711      300600
 5712 0f8a 30060030 		.ascii	"0\006\0000\206\000\031\314\000\031\314\000\033l\000"
 5712      860019CC 
 5712      0019CC00 
 5712      1B6C00
 5713 0f99 1B6C001E 		.ascii	"\033l\000\036|\000\016"
 5713      7C000E
 5714 0fa0 38000E38 		.ascii	"8\000\0168\000\014\030\000\014\030\000\000\000\000\000"
 5714      000C1800 
 5714      0C180000 
ARM GAS  /tmp/ccky5mPs.s 			page 190


 5714      000000
 5715 0faf 00000000 		.ascii	"\000\000\000\000\000\000\000\000\000\000\000\000\000"
 5715      00000000 
 5715      00000000 
 5715      00
 5716 0fbc 00000000 		.ascii	"\000\000\000\000\000\000\000\000\000\000\000\000\000"
 5716      00000000 
 5716      00000000 
 5716      00
 5717 0fc9 7E7E007E 		.ascii	"~~\000~~\000\030\030\000\0140\000\006`\000\003\300\000"
 5717      7E001818 
 5717      000C3000 
 5717      06600003 
 5717      C000
 5718 0fdb 01800001 		.ascii	"\001\200\000\001\200\000\003\300\000\006`\000\0140\000"
 5718      800003C0 
 5718      00066000 
 5718      0C3000
 5719 0fea 1818007E 		.ascii	"\030\030\000~~\000~~\000\000\000\000\000\000\000\000"
 5719      7E007E7E 
 5719      00000000 
 5719      00000000 
 5720 0ffa 00000000 		.ascii	"\000\000\000\000\000\000\000\000\000\000\000\000\000"
 5720      00000000 
 5720      00000000 
 5720      00
 5721 1007 00000000 		.ascii	"\000\000\000\000\000\000\000\000\000\000|~\000|~\000"
 5721      00000000 
 5721      00007C7E 
 5721      007C7E00 
 5722 1017 1818000C 		.ascii	"\030\030\000\0140\000\006`\000\006`\000\003\300\000"
 5722      30000660 
 5722      00066000 
 5722      03C000
 5723 1026 01800001 		.ascii	"\001\200\000\001\200\000\001\200\000\001\200\000\001"
 5723      80000180 
 5723      00018000 
 5723      01
 5724 1033 80000FF0 		.ascii	"\200\000\017\360\000\017\360\000\000\000\000\000\000"
 5724      000FF000 
 5724      00000000 
 5724      00
 5725 1040 00000000 		.ascii	"\000\000\000\000\000\000\000\000\000\000\000\000\000"
 5725      00000000 
 5725      00000000 
 5725      00
 5726 104d 00000000 		.ascii	"\000\000\000\000\000\000\000\000\000\000\000\000\037"
 5726      00000000 
 5726      00000000 
 5726      1F
 5727 105a F8001FF8 		.ascii	"\370\000\037\370\000\030\030\000\0300\000\030`\000\030"
 5727      00181800 
 5727      18300018 
 5727      600018
 5728 1069 C0000180 		.ascii	"\300\000\001\200\000\003\000\000\006\030\000\014\030"
 5728      00030000 
 5728      0618000C 
ARM GAS  /tmp/ccky5mPs.s 			page 191


 5728      18
 5729 1076 00181800 		.ascii	"\000\030\030\0000\030\000?\370\000?\370\000\000\000"
 5729      3018003F 
 5729      F8003FF8 
 5729      000000
 5730 1085 00000000 		.ascii	"\000\000\000\000\000\000\000\000\000\000\000\000\000"
 5730      00000000 
 5730      00000000 
 5730      00
 5731 1092 00000000 		.ascii	"\000\000\000\000\000\000\000\000\000\000\000\000\001"
 5731      00000000 
 5731      00000000 
 5731      01
 5732 109f F00001F0 		.ascii	"\360\000\001\360\000\001\200\000\001\200\000\001\200"
 5732      00018000 
 5732      01800001 
 5732      80
 5733 10ac 00018000 		.ascii	"\000\001\200\000\001\200\000\001\200\000\001\200\000"
 5733      01800001 
 5733      80000180 
 5733      00
 5734 10b9 01800001 		.ascii	"\001\200\000\001\200\000\001\200\000\001\200\000\001"
 5734      80000180 
 5734      00018000 
 5734      01
 5735 10c6 80000180 		.ascii	"\200\000\001\200\000\001\200\000\001\360\000\001\360"
 5735      00018000 
 5735      01F00001 
 5735      F0
 5736 10d3 00000000 		.ascii	"\000\000\000\000\000\000\000\000\000\000\000\000\000"
 5736      00000000 
 5736      00000000 
 5736      00
 5737 10e0 18000018 		.ascii	"\030\000\000\030\000\000\034\000\000\014\000\000\016"
 5737      00001C00 
 5737      000C0000 
 5737      0E
 5738 10ed 00000600 		.ascii	"\000\000\006\000\000\006\000\000\003\000\000\003\000"
 5738      00060000 
 5738      03000003 
 5738      00
 5739 10fa 00018000 		.ascii	"\000\001\200\000\001\200\000\000\300\000\000\300\000"
 5739      01800000 
 5739      C00000C0 
 5739      00
 5740 1107 00600000 		.ascii	"\000`\000\000`\000\000p\000\0000\000\0008\000\000\030"
 5740      60000070 
 5740      00003000 
 5740      00380000 
 5740      18
 5741 1118 00001800 		.ascii	"\000\000\030\000\000\000\000\000\000\000\000\000\000"
 5741      00000000 
 5741      00000000 
 5741      00
 5742 1125 00000000 		.ascii	"\000\000\000\000\000\000\000\000\000\017\200\000\017"
 5742      00000000 
 5742      000F8000 
ARM GAS  /tmp/ccky5mPs.s 			page 192


 5742      0F
 5743 1132 80000180 		.ascii	"\200\000\001\200\000\001\200\000\001\200\000\001\200"
 5743      00018000 
 5743      01800001 
 5743      80
 5744 113f 00018000 		.ascii	"\000\001\200\000\001\200\000\001\200\000\001\200\000"
 5744      01800001 
 5744      80000180 
 5744      00
 5745 114c 01800001 		.ascii	"\001\200\000\001\200\000\001\200\000\001\200\000\001"
 5745      80000180 
 5745      00018000 
 5745      01
 5746 1159 80000180 		.ascii	"\200\000\001\200\000\017\200\000\017\200\000\000\000"
 5746      000F8000 
 5746      0F800000 
 5746      00
 5747 1166 00000000 		.ascii	"\000\000\000\000\000\000\000\000\000\000\000\000\000"
 5747      00000000 
 5747      00000000 
 5747      00
 5748 1173 00800001 		.ascii	"\000\200\000\001\300\000\003\340\000\007p\000\0060\000"
 5748      C00003E0 
 5748      00077000 
 5748      063000
 5749 1182 0C180018 		.ascii	"\014\030\000\030\014\000\020\004\000\000\000\000\000"
 5749      0C001004 
 5749      00000000 
 5749      00
 5750 118f 00000000 		.ascii	"\000\000\000\000\000\000\000\000\000\000\000\000\000"
 5750      00000000 
 5750      00000000 
 5750      00
 5751 119c 00000000 		.ascii	"\000\000\000\000\000\000\000\000\000\000\000\000\000"
 5751      00000000 
 5751      00000000 
 5751      00
 5752 11a9 00000000 		.ascii	"\000\000\000\000\000\000\000\000\000\000\000\000\000"
 5752      00000000 
 5752      00000000 
 5752      00
 5753 11b6 00000000 		.ascii	"\000\000\000\000\000\000\000\000\000\000\000\000\000"
 5753      00000000 
 5753      00000000 
 5753      00
 5754 11c3 00000000 		.ascii	"\000\000\000\000\000\000\000\000\000\000\000\000\000"
 5754      00000000 
 5754      00000000 
 5754      00
 5755 11d0 00000000 		.ascii	"\000\000\000\000\000\000\000\000\000\000\000\000\000"
 5755      00000000 
 5755      00000000 
 5755      00
 5756 11dd 00000000 		.ascii	"\000\000\000\000\000\000\000\000\000\000\000\000\000"
 5756      00000000 
 5756      00000000 
 5756      00
ARM GAS  /tmp/ccky5mPs.s 			page 193


 5757 11ea 00000000 		.ascii	"\000\000\000\000\000\000\000\000\000\000\000\000\000"
 5757      00000000 
 5757      00000000 
 5757      00
 5758 11f7 000000FF 		.ascii	"\000\000\000\377\377\000\377\377\000\000\000\000\003"
 5758      FF00FFFF 
 5758      00000000 
 5758      03
 5759 1204 00000380 		.ascii	"\000\000\003\200\000\000\340\000\000`\000\000\000\000"
 5759      0000E000 
 5759      00600000 
 5759      0000
 5760 1212 00000000 		.ascii	"\000\000\000\000\000\000\000\000\000\000\000\000\000"
 5760      00000000 
 5760      00000000 
 5760      00
 5761 121f 00000000 		.ascii	"\000\000\000\000\000\000\000\000\000\000\000\000\000"
 5761      00000000 
 5761      00000000 
 5761      00
 5762 122c 00000000 		.ascii	"\000\000\000\000\000\000\000\000\000\000\000\000\000"
 5762      00000000 
 5762      00000000 
 5762      00
 5763 1239 00000000 		.ascii	"\000\000\000\000\000\000\000\000\000\000\000\000\000"
 5763      00000000 
 5763      00000000 
 5763      00
 5764 1246 00000000 		.ascii	"\000\000\000\000\000\000\000\000\000\000\000\000\000"
 5764      00000000 
 5764      00000000 
 5764      00
 5765 1253 00000000 		.ascii	"\000\000\000\000\000\000\000\017\300\000\037\340\000"
 5765      0000000F 
 5765      C0001FE0 
 5765      00
 5766 1260 00300000 		.ascii	"\0000\000\0000\000\007\360\000\037\360\00080\00000\000"
 5766      300007F0 
 5766      001FF000 
 5766      38300030 
 5766      3000
 5767 1272 3070001F 		.ascii	"0p\000\037\374\000\017\274\000\000\000\000\000\000\000"
 5767      FC000FBC 
 5767      00000000 
 5767      000000
 5768 1281 00000000 		.ascii	"\000\000\000\000\000\000\000\000\000\000\000\000\000"
 5768      00000000 
 5768      00000000 
 5768      00
 5769 128e 00000000 		.ascii	"\000\000\000\000\000\000\000\000x\000\000x\000\000\030"
 5769      00000000 
 5769      78000078 
 5769      000018
 5770 129d 00001800 		.ascii	"\000\000\030\000\000\033\340\000\037\370\000\034\030"
 5770      001BE000 
 5770      1FF8001C 
 5770      18
ARM GAS  /tmp/ccky5mPs.s 			page 194


 5771 12aa 00180C00 		.ascii	"\000\030\014\000\030\014\000\030\014\000\030\014\000"
 5771      180C0018 
 5771      0C00180C 
 5771      00
 5772 12b7 180C001C 		.ascii	"\030\014\000\034\030\000\177\370\000{\340\000\000\000"
 5772      18007FF8 
 5772      007BE000 
 5772      0000
 5773 12c5 00000000 		.ascii	"\000\000\000\000\000\000\000\000\000\000\000\000\000"
 5773      00000000 
 5773      00000000 
 5773      00
 5774 12d2 00000000 		.ascii	"\000\000\000\000\000\000\000\000\000\000\000\000\000"
 5774      00000000 
 5774      00000000 
 5774      00
 5775 12df 00000000 		.ascii	"\000\000\000\000\000\000\000\000\000\000\000\003\354"
 5775      00000000 
 5775      00000003 
 5775      EC
 5776 12ec 000FFC00 		.ascii	"\000\017\374\000\034\034\0008\014\0000\014\0000\000"
 5776      1C1C0038 
 5776      0C00300C 
 5776      003000
 5777 12fb 00300000 		.ascii	"\0000\000\0008\014\000\034\034\000\017\370\000\003\360"
 5777      380C001C 
 5777      1C000FF8 
 5777      0003F0
 5778 130a 00000000 		.ascii	"\000\000\000\000\000\000\000\000\000\000\000\000\000"
 5778      00000000 
 5778      00000000 
 5778      00
 5779 1317 00000000 		.ascii	"\000\000\000\000\000\000\000\000\000\000\000\000\000"
 5779      00000000 
 5779      00000000 
 5779      00
 5780 1324 00000078 		.ascii	"\000\000\000x\000\000x\000\000\030\000\000\030\000\007"
 5780      00007800 
 5780      00180000 
 5780      180007
 5781 1333 D8001FF8 		.ascii	"\330\000\037\370\000\0308\0000\030\0000\030\0000\030"
 5781      00183800 
 5781      30180030 
 5781      18003018 
 5782 1343 00301800 		.ascii	"\0000\030\0000\030\000\0308\000\037\376\000\007\336"
 5782      30180018 
 5782      38001FFE 
 5782      0007DE
 5783 1352 00000000 		.ascii	"\000\000\000\000\000\000\000\000\000\000\000\000\000"
 5783      00000000 
 5783      00000000 
 5783      00
 5784 135f 00000000 		.ascii	"\000\000\000\000\000\000\000\000\000\000\000\000\000"
 5784      00000000 
 5784      00000000 
 5784      00
 5785 136c 00000000 		.ascii	"\000\000\000\000\000\000\000\000\000\000\000\000\000"
ARM GAS  /tmp/ccky5mPs.s 			page 195


 5785      00000000 
 5785      00000000 
 5785      00
 5786 1379 0007E000 		.ascii	"\000\007\340\000\037\370\000\030\030\0000\014\000?\374"
 5786      1FF80018 
 5786      1800300C 
 5786      003FFC
 5787 1388 003FFC00 		.ascii	"\000?\374\0000\000\0000\000\000\030\014\000\037\374"
 5787      30000030 
 5787      0000180C 
 5787      001FFC
 5788 1397 0007F000 		.ascii	"\000\007\360\000\000\000\000\000\000\000\000\000\000"
 5788      00000000 
 5788      00000000 
 5788      00
 5789 13a4 00000000 		.ascii	"\000\000\000\000\000\000\000\000\000\000\000\000\000"
 5789      00000000 
 5789      00000000 
 5789      00
 5790 13b1 00000000 		.ascii	"\000\000\000\000\000\001\374\000\003\374\000\006\000"
 5790      0001FC00 
 5790      03FC0006 
 5790      00
 5791 13be 00060000 		.ascii	"\000\006\000\000?\370\000?\370\000\006\000\000\006\000"
 5791      3FF8003F 
 5791      F8000600 
 5791      000600
 5792 13cd 00060000 		.ascii	"\000\006\000\000\006\000\000\006\000\000\006\000\000"
 5792      06000006 
 5792      00000600 
 5792      00
 5793 13da 0600003F 		.ascii	"\006\000\000?\360\000?\360\000\000\000\000\000\000\000"
 5793      F0003FF0 
 5793      00000000 
 5793      000000
 5794 13e9 00000000 		.ascii	"\000\000\000\000\000\000\000\000\000\000\000\000\000"
 5794      00000000 
 5794      00000000 
 5794      00
 5795 13f6 00000000 		.ascii	"\000\000\000\000\000\000\000\000\000\000\000\000\000"
 5795      00000000 
 5795      00000000 
 5795      00
 5796 1403 00000000 		.ascii	"\000\000\000\000\000\000\000\007\336\000\037\376\000"
 5796      00000007 
 5796      DE001FFE 
 5796      00
 5797 1410 18380030 		.ascii	"\0308\0000\030\0000\030\0000\030\0000\030\0000\030\000"
 5797      18003018 
 5797      00301800 
 5797      30180030 
 5797      1800
 5798 1422 1838001F 		.ascii	"\0308\000\037\370\000\007\330\000\000\030\000\000\030"
 5798      F80007D8 
 5798      00001800 
 5798      0018
 5799 1430 00003800 		.ascii	"\000\0008\000\017\360\000\017\300\000\000\000\000\000"
ARM GAS  /tmp/ccky5mPs.s 			page 196


 5799      0FF0000F 
 5799      C0000000 
 5799      0000
 5800 143e 00000000 		.ascii	"\000\000\000\000\000\000\000\000x\000\000x\000\000\030"
 5800      00000000 
 5800      78000078 
 5800      000018
 5801 144d 00001800 		.ascii	"\000\000\030\000\000\033\340\000\037\360\000\0348\000"
 5801      001BE000 
 5801      1FF0001C 
 5801      3800
 5802 145b 18180018 		.ascii	"\030\030\000\030\030\000\030\030\000\030\030\000\030"
 5802      18001818 
 5802      00181800 
 5802      18
 5803 1468 18001818 		.ascii	"\030\000\030\030\000~~\000~~\000\000\000\000\000\000"
 5803      007E7E00 
 5803      7E7E0000 
 5803      00000000 
 5804 1478 00000000 		.ascii	"\000\000\000\000\000\000\000\000\000\000\000\000\000"
 5804      00000000 
 5804      00000000 
 5804      00
 5805 1485 00000000 		.ascii	"\000\000\000\000\000\000\000\000\000\001\200\000\001"
 5805      00000000 
 5805      00018000 
 5805      01
 5806 1492 80000000 		.ascii	"\200\000\000\000\000\000\000\000\037\200\000\037\200"
 5806      00000000 
 5806      1F80001F 
 5806      80
 5807 149f 00018000 		.ascii	"\000\001\200\000\001\200\000\001\200\000\001\200\000"
 5807      01800001 
 5807      80000180 
 5807      00
 5808 14ac 01800001 		.ascii	"\001\200\000\001\200\000\001\200\000?\374\000?\374\000"
 5808      80000180 
 5808      003FFC00 
 5808      3FFC00
 5809 14bb 00000000 		.ascii	"\000\000\000\000\000\000\000\000\000\000\000\000\000"
 5809      00000000 
 5809      00000000 
 5809      00
 5810 14c8 00000000 		.ascii	"\000\000\000\000\000\000\000\000\000\000\000\000\000"
 5810      00000000 
 5810      00000000 
 5810      00
 5811 14d5 0000C000 		.ascii	"\000\000\300\000\000\300\000\000\000\000\000\000\000"
 5811      00C00000 
 5811      00000000 
 5811      00
 5812 14e2 1FF0001F 		.ascii	"\037\360\000\037\360\000\0000\000\0000\000\0000\000"
 5812      F0000030 
 5812      00003000 
 5812      003000
 5813 14f1 00300000 		.ascii	"\0000\000\0000\000\0000\000\0000\000\0000\000\0000\000"
 5813      30000030 
ARM GAS  /tmp/ccky5mPs.s 			page 197


 5813      00003000 
 5813      00300000 
 5813      3000
 5814 1503 00300000 		.ascii	"\0000\000\0000\000\000p\000\037\340\000\037\200\000"
 5814      30000070 
 5814      001FE000 
 5814      1F8000
 5815 1512 00000000 		.ascii	"\000\000\000\000\000\000\000\000\000\000\000\000<\000"
 5815      00000000 
 5815      00000000 
 5815      3C00
 5816 1520 003C0000 		.ascii	"\000<\000\000\014\000\000\014\000\000\014\370\000\014"
 5816      0C00000C 
 5816      00000CF8 
 5816      000C
 5817 152e F8000CC0 		.ascii	"\370\000\014\300\000\015\200\000\017\200\000\017\000"
 5817      000D8000 
 5817      0F80000F 
 5817      00
 5818 153b 000F8000 		.ascii	"\000\017\200\000\015\300\000\014\340\000<|\000<|\000"
 5818      0DC0000C 
 5818      E0003C7C 
 5818      003C7C00 
 5819 154b 00000000 		.ascii	"\000\000\000\000\000\000\000\000\000\000\000\000\000"
 5819      00000000 
 5819      00000000 
 5819      00
 5820 1558 00000000 		.ascii	"\000\000\000\000\000\000\000\000\000\000\000\000\000"
 5820      00000000 
 5820      00000000 
 5820      00
 5821 1565 001F8000 		.ascii	"\000\037\200\000\037\200\000\001\200\000\001\200\000"
 5821      1F800001 
 5821      80000180 
 5821      00
 5822 1572 01800001 		.ascii	"\001\200\000\001\200\000\001\200\000\001\200\000\001"
 5822      80000180 
 5822      00018000 
 5822      01
 5823 157f 80000180 		.ascii	"\200\000\001\200\000\001\200\000\001\200\000\001\200"
 5823      00018000 
 5823      01800001 
 5823      80
 5824 158c 003FFC00 		.ascii	"\000?\374\000?\374\000\000\000\000\000\000\000\000\000"
 5824      3FFC0000 
 5824      00000000 
 5824      000000
 5825 159b 00000000 		.ascii	"\000\000\000\000\000\000\000\000\000\000\000\000\000"
 5825      00000000 
 5825      00000000 
 5825      00
 5826 15a8 00000000 		.ascii	"\000\000\000\000\000\000\000\000\000\000\000\000\000"
 5826      00000000 
 5826      00000000 
 5826      00
 5827 15b5 00000000 		.ascii	"\000\000\000\000\000\367x\000\377\374\0009\314\0001"
 5827      00F77800 
ARM GAS  /tmp/ccky5mPs.s 			page 198


 5827      FFFC0039 
 5827      CC0031
 5828 15c4 8C00318C 		.ascii	"\214\0001\214\0001\214\0001\214\0001\214\0001\214\000"
 5828      00318C00 
 5828      318C0031 
 5828      8C00318C 
 5828      00
 5829 15d5 FDEF00FD 		.ascii	"\375\357\000\375\357\000\000\000\000\000\000\000\000"
 5829      EF000000 
 5829      00000000 
 5829      00
 5830 15e2 00000000 		.ascii	"\000\000\000\000\000\000\000\000\000\000\000\000\000"
 5830      00000000 
 5830      00000000 
 5830      00
 5831 15ef 00000000 		.ascii	"\000\000\000\000\000\000\000\000\000\000\000\000\000"
 5831      00000000 
 5831      00000000 
 5831      00
 5832 15fc 00000000 		.ascii	"\000\000\000\000\000\000{\340\000\177\360\000\0348\000"
 5832      00007BE0 
 5832      007FF000 
 5832      1C3800
 5833 160b 18180018 		.ascii	"\030\030\000\030\030\000\030\030\000\030\030\000\030"
 5833      18001818 
 5833      00181800 
 5833      18
 5834 1618 18001818 		.ascii	"\030\000\030\030\000~~\000~~\000\000\000\000\000\000"
 5834      007E7E00 
 5834      7E7E0000 
 5834      00000000 
 5835 1628 00000000 		.ascii	"\000\000\000\000\000\000\000\000\000\000\000\000\000"
 5835      00000000 
 5835      00000000 
 5835      00
 5836 1635 00000000 		.ascii	"\000\000\000\000\000\000\000\000\000\000\000\000\000"
 5836      00000000 
 5836      00000000 
 5836      00
 5837 1642 00000000 		.ascii	"\000\000\000\000\000\000\000\000\003\300\000\017\360"
 5837      00000000 
 5837      03C0000F 
 5837      F0
 5838 164f 001C3800 		.ascii	"\000\0348\0008\034\0000\014\0000\014\0000\014\0008\034"
 5838      381C0030 
 5838      0C00300C 
 5838      00300C00 
 5838      381C
 5839 1661 001C3800 		.ascii	"\000\0348\000\017\360\000\003\300\000\000\000\000\000"
 5839      0FF00003 
 5839      C0000000 
 5839      0000
 5840 166f 00000000 		.ascii	"\000\000\000\000\000\000\000\000\000\000\000\000\000"
 5840      00000000 
 5840      00000000 
 5840      00
 5841 167c 00000000 		.ascii	"\000\000\000\000\000\000\000\000\000\000\000\000\000"
ARM GAS  /tmp/ccky5mPs.s 			page 199


 5841      00000000 
 5841      00000000 
 5841      00
 5842 1689 00000000 		.ascii	"\000\000\000\000\000\000\000\000\000{\340\000\177\370"
 5842      00000000 
 5842      007BE000 
 5842      7FF8
 5843 1697 001C1800 		.ascii	"\000\034\030\000\030\014\000\030\014\000\030\014\000"
 5843      180C0018 
 5843      0C00180C 
 5843      00
 5844 16a4 180C0018 		.ascii	"\030\014\000\030\014\000\034\030\000\037\370\000\033"
 5844      0C001C18 
 5844      001FF800 
 5844      1B
 5845 16b1 E0001800 		.ascii	"\340\000\030\000\000\030\000\000\030\000\000\177\000"
 5845      00180000 
 5845      1800007F 
 5845      00
 5846 16be 007F0000 		.ascii	"\000\177\000\000\000\000\000\000\000\000\000\000\000"
 5846      00000000 
 5846      00000000 
 5846      00
 5847 16cb 00000000 		.ascii	"\000\000\000\000\000\000\000\000\000\000\000\000\000"
 5847      00000000 
 5847      00000000 
 5847      00
 5848 16d8 000007DE 		.ascii	"\000\000\007\336\000\037\376\000\0308\0000\030\0000"
 5848      001FFE00 
 5848      18380030 
 5848      180030
 5849 16e7 18003018 		.ascii	"\030\0000\030\0000\030\0000\030\000\0308\000\037\370"
 5849      00301800 
 5849      30180018 
 5849      38001FF8 
 5850 16f7 0007D800 		.ascii	"\000\007\330\000\000\030\000\000\030\000\000\030\000"
 5850      00180000 
 5850      18000018 
 5850      00
 5851 1704 00FE0000 		.ascii	"\000\376\000\000\376\000\000\000\000\000\000\000\000"
 5851      FE000000 
 5851      00000000 
 5851      00
 5852 1711 00000000 		.ascii	"\000\000\000\000\000\000\000\000\000\000\000\000\000"
 5852      00000000 
 5852      00000000 
 5852      00
 5853 171e 00000000 		.ascii	"\000\000\000\000>x\000>\374\000\007\314\000\007\000"
 5853      3E78003E 
 5853      FC0007CC 
 5853      000700
 5854 172d 00060000 		.ascii	"\000\006\000\000\006\000\000\006\000\000\006\000\000"
 5854      06000006 
 5854      00000600 
 5854      00
 5855 173a 0600003F 		.ascii	"\006\000\000?\360\000?\360\000\000\000\000\000\000\000"
 5855      F0003FF0 
ARM GAS  /tmp/ccky5mPs.s 			page 200


 5855      00000000 
 5855      000000
 5856 1749 00000000 		.ascii	"\000\000\000\000\000\000\000\000\000\000\000\000\000"
 5856      00000000 
 5856      00000000 
 5856      00
 5857 1756 00000000 		.ascii	"\000\000\000\000\000\000\000\000\000\000\000\000\000"
 5857      00000000 
 5857      00000000 
 5857      00
 5858 1763 00000000 		.ascii	"\000\000\000\000\000\000\000\007\370\000\017\370\000"
 5858      00000007 
 5858      F8000FF8 
 5858      00
 5859 1770 18180018 		.ascii	"\030\030\000\030\030\000\037\200\000\017\360\000\000"
 5859      18001F80 
 5859      000FF000 
 5859      00
 5860 177d F8001818 		.ascii	"\370\000\030\030\000\0308\000\037\360\000\037\340\000"
 5860      00183800 
 5860      1FF0001F 
 5860      E000
 5861 178b 00000000 		.ascii	"\000\000\000\000\000\000\000\000\000\000\000\000\000"
 5861      00000000 
 5861      00000000 
 5861      00
 5862 1798 00000000 		.ascii	"\000\000\000\000\000\000\000\000\000\000\000\000\000"
 5862      00000000 
 5862      00000000 
 5862      00
 5863 17a5 000C0000 		.ascii	"\000\014\000\000\014\000\000\014\000\000\014\000\000"
 5863      0C00000C 
 5863      00000C00 
 5863      00
 5864 17b2 3FF0003F 		.ascii	"?\360\000?\360\000\014\000\000\014\000\000\014\000\000"
 5864      F0000C00 
 5864      000C0000 
 5864      0C0000
 5865 17c1 0C00000C 		.ascii	"\014\000\000\014\000\000\014\000\000\014\034\000\007"
 5865      00000C00 
 5865      000C1C00 
 5865      07
 5866 17ce FC0003F0 		.ascii	"\374\000\003\360\000\000\000\000\000\000\000\000\000"
 5866      00000000 
 5866      00000000 
 5866      00
 5867 17db 00000000 		.ascii	"\000\000\000\000\000\000\000\000\000\000\000\000\000"
 5867      00000000 
 5867      00000000 
 5867      00
 5868 17e8 00000000 		.ascii	"\000\000\000\000\000\000\000\000\000\000\000\000\000"
 5868      00000000 
 5868      00000000 
 5868      00
 5869 17f5 00000000 		.ascii	"\000\000\000\000\000xx\000xx\000\030\030\000\030\030"
 5869      00787800 
 5869      78780018 
ARM GAS  /tmp/ccky5mPs.s 			page 201


 5869      18001818 
 5870 1805 00181800 		.ascii	"\000\030\030\000\030\030\000\030\030\000\030\030\000"
 5870      18180018 
 5870      18001818 
 5870      00
 5871 1812 1838000F 		.ascii	"\0308\000\017\376\000\007\336\000\000\000\000\000\000"
 5871      FE0007DE 
 5871      00000000 
 5871      0000
 5872 1820 00000000 		.ascii	"\000\000\000\000\000\000\000\000\000\000\000\000\000"
 5872      00000000 
 5872      00000000 
 5872      00
 5873 182d 00000000 		.ascii	"\000\000\000\000\000\000\000\000\000\000\000\000\000"
 5873      00000000 
 5873      00000000 
 5873      00
 5874 183a 00000000 		.ascii	"\000\000\000\000\000\000\000\000|>\000|>\000\030\030"
 5874      00000000 
 5874      7C3E007C 
 5874      3E001818 
 5875 184a 00181800 		.ascii	"\000\030\030\000\0140\000\0140\000\006`\000\006`\000"
 5875      0C30000C 
 5875      30000660 
 5875      00066000 
 5876 185a 07E00003 		.ascii	"\007\340\000\003\300\000\003\300\000\000\000\000\000"
 5876      C00003C0 
 5876      00000000 
 5876      00
 5877 1867 00000000 		.ascii	"\000\000\000\000\000\000\000\000\000\000\000\000\000"
 5877      00000000 
 5877      00000000 
 5877      00
 5878 1874 00000000 		.ascii	"\000\000\000\000\000\000\000\000\000\000\000\000\000"
 5878      00000000 
 5878      00000000 
 5878      00
 5879 1881 00000000 		.ascii	"\000\000\000\000\000\000\000\000\000x<\000x<\0001\030"
 5879      00000000 
 5879      00783C00 
 5879      783C0031 
 5879      18
 5880 1892 00339800 		.ascii	"\0003\230\0003\230\000\032\260\000\036\360\000\036\360"
 5880      3398001A 
 5880      B0001EF0 
 5880      001EF0
 5881 18a1 001C6000 		.ascii	"\000\034`\000\014`\000\014`\000\000\000\000\000\000"
 5881      0C60000C 
 5881      60000000 
 5881      000000
 5882 18b0 00000000 		.ascii	"\000\000\000\000\000\000\000\000\000\000\000\000\000"
 5882      00000000 
 5882      00000000 
 5882      00
 5883 18bd 00000000 		.ascii	"\000\000\000\000\000\000\000\000\000\000\000\000\000"
 5883      00000000 
 5883      00000000 
ARM GAS  /tmp/ccky5mPs.s 			page 202


 5883      00
 5884 18ca 00000000 		.ascii	"\000\000\000\000\000\000\000\000>|\000>|\000\0140\000"
 5884      00000000 
 5884      3E7C003E 
 5884      7C000C30 
 5884      00
 5885 18db 06600003 		.ascii	"\006`\000\003\300\000\001\200\000\003\300\000\006`\000"
 5885      C0000180 
 5885      0003C000 
 5885      066000
 5886 18ea 0C30003E 		.ascii	"\0140\000>|\000>|\000\000\000\000\000\000\000\000\000"
 5886      7C003E7C 
 5886      00000000 
 5886      00000000 
 5886      00
 5887 18fb 00000000 		.ascii	"\000\000\000\000\000\000\000\000\000\000\000\000\000"
 5887      00000000 
 5887      00000000 
 5887      00
 5888 1908 00000000 		.ascii	"\000\000\000\000\000\000\000\000\000\000\000\000\000"
 5888      00000000 
 5888      00000000 
 5888      00
 5889 1915 00000000 		.ascii	"\000\000\000\000\000~\037\000~\037\000\030\014\000\014"
 5889      007E1F00 
 5889      7E1F0018 
 5889      0C000C
 5890 1924 18000C18 		.ascii	"\030\000\014\030\000\0060\000\0060\000\003`\000\003"
 5890      00063000 
 5890      06300003 
 5890      600003
 5891 1933 E00001C0 		.ascii	"\340\000\001\300\000\000\300\000\001\200\000\001\200"
 5891      0000C000 
 5891      01800001 
 5891      80
 5892 1940 00030000 		.ascii	"\000\003\000\000?\300\000?\300\000\000\000\000\000\000"
 5892      3FC0003F 
 5892      C0000000 
 5892      000000
 5893 194f 00000000 		.ascii	"\000\000\000\000\000\000\000\000\000\000\000\000\000"
 5893      00000000 
 5893      00000000 
 5893      00
 5894 195c 00000000 		.ascii	"\000\000\000\000\000\000\037\370\000\037\370\000\030"
 5894      00001FF8 
 5894      001FF800 
 5894      18
 5895 1969 30001860 		.ascii	"0\000\030`\000\000\300\000\001\200\000\003\000\000\006"
 5895      0000C000 
 5895      01800003 
 5895      000006
 5896 1978 18000C18 		.ascii	"\030\000\014\030\000\037\370\000\037\370\000\000\000"
 5896      001FF800 
 5896      1FF80000 
 5896      00
 5897 1985 00000000 		.ascii	"\000\000\000\000\000\000\000\000\000\000\000\000\000"
 5897      00000000 
ARM GAS  /tmp/ccky5mPs.s 			page 203


 5897      00000000 
 5897      00
 5898 1992 00000000 		.ascii	"\000\000\000\000\000\000\000\000\000\000\000\000\000"
 5898      00000000 
 5898      00000000 
 5898      00
 5899 199f E00001E0 		.ascii	"\340\000\001\340\000\001\200\000\001\200\000\001\200"
 5899      00018000 
 5899      01800001 
 5899      80
 5900 19ac 00018000 		.ascii	"\000\001\200\000\001\200\000\001\200\000\003\200\000"
 5900      01800001 
 5900      80000380 
 5900      00
 5901 19b9 07000003 		.ascii	"\007\000\000\003\200\000\001\200\000\001\200\000\001"
 5901      80000180 
 5901      00018000 
 5901      01
 5902 19c6 80000180 		.ascii	"\200\000\001\200\000\001\200\000\001\340\000\000\340"
 5902      00018000 
 5902      01E00000 
 5902      E0
 5903 19d3 00000000 		.ascii	"\000\000\000\000\000\000\000\000\000\000\000\000\000"
 5903      00000000 
 5903      00000000 
 5903      00
 5904 19e0 00000000 		.ascii	"\000\000\000\000\000\000\001\200\000\001\200\000\001"
 5904      00000180 
 5904      00018000 
 5904      01
 5905 19ed 80000180 		.ascii	"\200\000\001\200\000\001\200\000\001\200\000\001\200"
 5905      00018000 
 5905      01800001 
 5905      80
 5906 19fa 00018000 		.ascii	"\000\001\200\000\001\200\000\001\200\000\001\200\000"
 5906      01800001 
 5906      80000180 
 5906      00
 5907 1a07 01800001 		.ascii	"\001\200\000\001\200\000\001\200\000\001\200\000\001"
 5907      80000180 
 5907      00018000 
 5907      01
 5908 1a14 80000180 		.ascii	"\200\000\001\200\000\001\200\000\000\000\000\000\000"
 5908      00018000 
 5908      00000000 
 5908      00
 5909 1a21 00000000 		.ascii	"\000\000\000\000\000\000\000\000\000\000\000\000\000"
 5909      00000000 
 5909      00000000 
 5909      00
 5910 1a2e 07000007 		.ascii	"\007\000\000\007\200\000\001\200\000\001\200\000\001"
 5910      80000180 
 5910      00018000 
 5910      01
 5911 1a3b 80000180 		.ascii	"\200\000\001\200\000\001\200\000\001\200\000\001\300"
 5911      00018000 
 5911      01800001 
ARM GAS  /tmp/ccky5mPs.s 			page 204


 5911      C0
 5912 1a48 0000E000 		.ascii	"\000\000\340\000\001\300\000\001\200\000\001\200\000"
 5912      01C00001 
 5912      80000180 
 5912      00
 5913 1a55 01800001 		.ascii	"\001\200\000\001\200\000\001\200\000\007\200\000\007"
 5913      80000180 
 5913      00078000 
 5913      07
 5914 1a62 00000000 		.ascii	"\000\000\000\000\000\000\000\000\000\000\000\000\000"
 5914      00000000 
 5914      00000000 
 5914      00
 5915 1a6f 00000000 		.ascii	"\000\000\000\000\000\000\000\000\000\000\000\000\000"
 5915      00000000 
 5915      00000000 
 5915      00
 5916 1a7c 00000000 		.ascii	"\000\000\000\000\000\000\000\000\000\000\000\000\016"
 5916      00000000 
 5916      00000000 
 5916      0E
 5917 1a89 00001F18 		.ascii	"\000\000\037\030\000;\270\0001\360\000\000\340\000\000"
 5917      003BB800 
 5917      31F00000 
 5917      E00000
 5918 1a98 00000000 		.ascii	"\000\000\000\000\000\000\000\000\000\000\000\000\000"
 5918      00000000 
 5918      00000000 
 5918      00
 5919 1aa5 00000000 		.ascii	"\000\000\000\000\000\000\000\000\000\000\000\000\000"
 5919      00000000 
 5919      00000000 
 5919      00
 5920 1ab2 00000000 		.ascii	"\000\000\000\000\000\000"
 5920      0000
 5921              		.section	.rodata.Font8_Table,"a"
 5922              		.align	2
 5925              	Font8_Table:
 5926 0000 00000000 		.ascii	"\000\000\000\000\000\000\000\000    \000 \000\000PP"
 5926      00000000 
 5926      20202020 
 5926      00200000 
 5926      5050
 5927 0012 00000000 		.ascii	"\000\000\000\000\000\000(P\370P\370P\240\000 0`0\020"
 5927      00002850 
 5927      F850F850 
 5927      A0002030 
 5927      603010
 5928 0025 60200020 		.ascii	"` \000  \030`\020\020\000\000\0008 `Px\000\000   \000"
 5928      20186010 
 5928      10000000 
 5928      38206050 
 5928      78000020 
 5929 003c 00000000 		.ascii	"\000\000\000\000\020     \020\000@     @\000 p P\000"
 5929      10202020 
 5929      20201000 
 5929      40202020 
ARM GAS  /tmp/ccky5mPs.s 			page 205


 5929      20204000 
 5930 0055 00000000 		.ascii	"\000\000\000\000  \370  \000\000\000\000\000\000\020"
 5930      2020F820 
 5930      20000000 
 5930      00000010 
 5931 0065 20200000 		.ascii	"  \000\000\000\000p\000\000\000\000\000\000\000\000"
 5931      00007000 
 5931      00000000 
 5931      000000
 5932 0074 00200000 		.ascii	"\000 \000\000\020   @@\200\000 PPPP \000\000`    \370"
 5932      10202020 
 5932      40408000 
 5932      20505050 
 5932      50200000 
 5933 008e 00002050 		.ascii	"\000\000 P  @p\000\000 P\020 \020`\000\000\0200Px\020"
 5933      20204070 
 5933      00002050 
 5933      10201060 
 5933      00001030 
 5934 00a5 38000070 		.ascii	"8\000\000p@`\020P \000\0000@`PP`\000\000pP\020   \000"
 5934      40601050 
 5934      20000030 
 5934      40605050 
 5934      60000070 
 5935 00bf 00205020 		.ascii	"\000 P PP \000\0000PP0\020`\000\000\000\000 \000\000"
 5935      50502000 
 5935      00305050 
 5935      30106000 
 5935      00000020 
 5936 00d5 20000000 		.ascii	" \000\000\000\000\020\000\020 \000\000\000\020 \300"
 5936      00100010 
 5936      20000000 
 5936      1020C0
 5937 00e4 20100000 		.ascii	" \020\000\000\000p\000p\000\000\000\000\000@ \030 @"
 5937      00700070 
 5937      00000000 
 5937      00402018 
 5937      2040
 5938 00f6 00002050 		.ascii	"\000\000 P\020 \000 \000\0000HHXH@8\000` Pp\210\330"
 5938      10200020 
 5938      00003048 
 5938      48584840 
 5938      38006020 
 5939 010e 0000F048 		.ascii	"\000\000\360HpHH\360\000\000pP@@@0\000\000\360HHHH\360"
 5939      704848F0 
 5939      00007050 
 5939      40404030 
 5939      0000F048 
 5940 0126 0000F848 		.ascii	"\000\000\370H`@H\370\000\000\370H`@@\340\000\000p@@"
 5940      604048F8 
 5940      0000F848 
 5940      604040E0 
 5940      00007040 
 5941 013b 58503000 		.ascii	"XP0\000\000\350HxHH\350\000\000p    p\000\0008\020\020"
 5941      00E84878 
 5941      4848E800 
 5941      00702020 
ARM GAS  /tmp/ccky5mPs.s 			page 206


 5941      20207000 
 5942 0153 50502000 		.ascii	"PP \000\000\330P`pP\330\000\000\340@@@H\370\000\000"
 5942      00D85060 
 5942      7050D800 
 5942      00E04040 
 5942      4048F800 
 5943 0168 D8D8D8A8 		.ascii	"\330\330\330\250\210\330\000\000\330hhXX\350\000\000"
 5943      88D80000 
 5943      D8686858 
 5943      58E80000 
 5944 0178 30484848 		.ascii	"0HHHH0\000\000\360HHp@\340\000\0000HHHH0\030\000\360"
 5944      48300000 
 5944      F0484870 
 5944      40E00000 
 5944      30484848 
 5945 0191 48487048 		.ascii	"HHpH\350\000\000pP \020Pp\000\000\370\250   p\000\000"
 5945      E8000070 
 5945      50201050 
 5945      700000F8 
 5945      A8202020 
 5946 01a8 D8484848 		.ascii	"\330HHHH0\000\000\330\210HPP0\000\000\330\210\250\250"
 5946      48300000 
 5946      D8884850 
 5946      50300000 
 5946      D888A8A8 
 5947 01bc A8500000 		.ascii	"\250P\000\000\330P  P\330\000\000\330\210P  p\000\000"
 5947      D8502020 
 5947      50D80000 
 5947      D8885020 
 5947      20700000 
 5948 01d0 78481020 		.ascii	"xH\020 Hx\000\0000     0\000\200@@   \020\000`     "
 5948      48780000 
 5948      30202020 
 5948      20203000 
 5948      80404020 
 5949 01ee 60002020 		.ascii	"`\000  P\000\000\000\000\000\000\000\000\000\000\000"
 5949      50000000 
 5949      00000000 
 5949      00000000 
 5950 01fe 00F82010 		.ascii	"\000\370 \020\000\000\000\000\000\000\000\0000\020p"
 5950      00000000 
 5950      00000000 
 5950      301070
 5951 020d 780000C0 		.ascii	"x\000\000\300@pHH\360\000\000\000\000p@@p\000\000\030"
 5951      40704848 
 5951      F0000000 
 5951      00704040 
 5951      70000018 
 5952 0221 08384848 		.ascii	"\0108HH8\000\000\000\000pp@0\000\000\020 p  p\000\000"
 5952      38000000 
 5952      00707040 
 5952      30000010 
 5952      20702020 
 5953 0238 00003848 		.ascii	"\000\0008HH8\0100\300@pHH\350\000\000 \000`  p\000\000"
 5953      48380830 
 5953      C0407048 
 5953      48E80000 
ARM GAS  /tmp/ccky5mPs.s 			page 207


 5953      20006020 
 5954 0250 20007010 		.ascii	" \000p\020\020\020\020p\300@XpP\330\000\000`    p\000"
 5954      10101070 
 5954      C0405870 
 5954      50D80000 
 5954      60202020 
 5955 0267 000000D0 		.ascii	"\000\000\000\320\250\250\250\000\000\000\000\360HH\310"
 5955      A8A8A800 
 5955      000000F0 
 5955      4848C8
 5956 0276 00000000 		.ascii	"\000\000\000\0000HH0\000\000\000\000\360HHp@\340\000"
 5956      30484830 
 5956      00000000 
 5956      F0484870 
 5956      40E000
 5957 0289 00384848 		.ascii	"\0008HH8\010\030\000\000x  p\000\000\000\0000 \020`"
 5957      38081800 
 5957      00782020 
 5957      70000000 
 5957      00302010 
 5958 029e 00000040 		.ascii	"\000\000\000@\360@H0\000\000\000\000\330HH8\000\000"
 5958      F0404830 
 5958      00000000 
 5958      D8484838 
 5958      0000
 5959 02b0 0000C848 		.ascii	"\000\000\310H00\000\000\000\000\330\250\250P\000\000"
 5959      30300000 
 5959      0000D8A8 
 5959      A8500000 
 5960 02c0 00004830 		.ascii	"\000\000H00H\000\000\000\000\330PP  `\000\000xP(x\000"
 5960      30480000 
 5960      0000D850 
 5960      50202060 
 5960      00007850 
 5961 02d7 00102020 		.ascii	"\000\020  `  \020\000       \000@  0  @\000\000\000"
 5961      60202010 
 5961      00202020 
 5961      20202020 
 5961      00402020 
 5962 02f2 00285000 		.ascii	"\000(P\000\000\000"
 5962      0000
 5963              		.text
 5964              	.Letext0:
 5965              		.file 2 "/home/irfan/Desktop/arm/gcc-arm-none-eabi-10.3-2021.10-x86_64-linux/gcc-arm-none-eabi-10.
 5966              		.file 3 "/home/irfan/Desktop/arm/gcc-arm-none-eabi-10.3-2021.10-x86_64-linux/gcc-arm-none-eabi-10.
 5967              		.file 4 "Drivers/CMSIS/Device/ST/STM32F4xx/Include/stm32f429xx.h"
 5968              		.file 5 "Drivers/CMSIS/Device/ST/STM32F4xx/Include/stm32f4xx.h"
 5969              		.file 6 "Drivers/STM32F4xx_HAL_Driver/Inc/stm32f4xx_hal_def.h"
 5970              		.file 7 "Drivers/STM32F4xx_HAL_Driver/Inc/stm32f4xx_hal_rcc_ex.h"
 5971              		.file 8 "Drivers/STM32F4xx_HAL_Driver/Inc/stm32f4xx_hal_gpio.h"
 5972              		.file 9 "Drivers/STM32F4xx_HAL_Driver/Inc/stm32f4xx_hal_dma2d.h"
 5973              		.file 10 "Drivers/STM32F4xx_HAL_Driver/Inc/stm32f4xx_hal_ltdc.h"
 5974              		.file 11 "Drivers/STM32F4xx_HAL_Driver/Inc/../../../Utilities/Fonts/fonts.h"
 5975              		.file 12 "Inc/lcd.h"
 5976              		.file 13 "Inc/ili9341.h"
 5977              		.file 14 "Inc/stm32f429i_discovery_lcd.h"
 5978              		.file 15 "Drivers/STM32F4xx_HAL_Driver/Inc/../../../Utilities/Fonts/font24.c"
ARM GAS  /tmp/ccky5mPs.s 			page 208


 5979              		.file 16 "Drivers/STM32F4xx_HAL_Driver/Inc/../../../Utilities/Fonts/font20.c"
 5980              		.file 17 "Drivers/STM32F4xx_HAL_Driver/Inc/../../../Utilities/Fonts/font16.c"
 5981              		.file 18 "Drivers/STM32F4xx_HAL_Driver/Inc/../../../Utilities/Fonts/font12.c"
 5982              		.file 19 "Drivers/STM32F4xx_HAL_Driver/Inc/../../../Utilities/Fonts/font8.c"
 5983              		.file 20 "Inc/stm32f429i_discovery_sdram.h"
ARM GAS  /tmp/ccky5mPs.s 			page 209


DEFINED SYMBOLS
                            *ABS*:0000000000000000 stm32f429i_discovery_lcd.c
     /tmp/ccky5mPs.s:20     .text.FillBuffer:0000000000000000 $t
     /tmp/ccky5mPs.s:25     .text.FillBuffer:0000000000000000 FillBuffer
     /tmp/ccky5mPs.s:119    .text.FillBuffer:0000000000000054 $d
     /tmp/ccky5mPs.s:125    .text.ConvertLineToARGB8888:0000000000000000 $t
     /tmp/ccky5mPs.s:130    .text.ConvertLineToARGB8888:0000000000000000 ConvertLineToARGB8888
     /tmp/ccky5mPs.s:237    .text.ConvertLineToARGB8888:000000000000005c $d
     /tmp/ccky5mPs.s:243    .text.BSP_LCD_GetXSize:0000000000000000 $t
     /tmp/ccky5mPs.s:249    .text.BSP_LCD_GetXSize:0000000000000000 BSP_LCD_GetXSize
     /tmp/ccky5mPs.s:273    .text.BSP_LCD_GetXSize:000000000000000c $d
     /tmp/ccky5mPs.s:278    .text.BSP_LCD_GetYSize:0000000000000000 $t
     /tmp/ccky5mPs.s:284    .text.BSP_LCD_GetYSize:0000000000000000 BSP_LCD_GetYSize
     /tmp/ccky5mPs.s:308    .text.BSP_LCD_GetYSize:000000000000000c $d
     /tmp/ccky5mPs.s:313    .text.BSP_LCD_LayerDefaultInit:0000000000000000 $t
     /tmp/ccky5mPs.s:319    .text.BSP_LCD_LayerDefaultInit:0000000000000000 BSP_LCD_LayerDefaultInit
     /tmp/ccky5mPs.s:440    .text.BSP_LCD_LayerDefaultInit:0000000000000080 $d
     /tmp/ccky5mPs.s:447    .text.BSP_LCD_SelectLayer:0000000000000000 $t
     /tmp/ccky5mPs.s:453    .text.BSP_LCD_SelectLayer:0000000000000000 BSP_LCD_SelectLayer
     /tmp/ccky5mPs.s:470    .text.BSP_LCD_SelectLayer:0000000000000008 $d
     /tmp/ccky5mPs.s:475    .text.BSP_LCD_SetLayerVisible:0000000000000000 $t
     /tmp/ccky5mPs.s:481    .text.BSP_LCD_SetLayerVisible:0000000000000000 BSP_LCD_SetLayerVisible
     /tmp/ccky5mPs.s:526    .text.BSP_LCD_SetLayerVisible:000000000000003c $d
     /tmp/ccky5mPs.s:531    .text.BSP_LCD_SetLayerVisible_NoReload:0000000000000000 $t
     /tmp/ccky5mPs.s:537    .text.BSP_LCD_SetLayerVisible_NoReload:0000000000000000 BSP_LCD_SetLayerVisible_NoReload
     /tmp/ccky5mPs.s:575    .text.BSP_LCD_SetLayerVisible_NoReload:0000000000000030 $d
     /tmp/ccky5mPs.s:580    .text.BSP_LCD_SetTransparency:0000000000000000 $t
     /tmp/ccky5mPs.s:586    .text.BSP_LCD_SetTransparency:0000000000000000 BSP_LCD_SetTransparency
     /tmp/ccky5mPs.s:611    .text.BSP_LCD_SetTransparency:000000000000000c $d
     /tmp/ccky5mPs.s:616    .text.BSP_LCD_SetTransparency_NoReload:0000000000000000 $t
     /tmp/ccky5mPs.s:622    .text.BSP_LCD_SetTransparency_NoReload:0000000000000000 BSP_LCD_SetTransparency_NoReload
     /tmp/ccky5mPs.s:647    .text.BSP_LCD_SetTransparency_NoReload:000000000000000c $d
     /tmp/ccky5mPs.s:652    .text.BSP_LCD_SetLayerAddress:0000000000000000 $t
     /tmp/ccky5mPs.s:658    .text.BSP_LCD_SetLayerAddress:0000000000000000 BSP_LCD_SetLayerAddress
     /tmp/ccky5mPs.s:683    .text.BSP_LCD_SetLayerAddress:000000000000000c $d
     /tmp/ccky5mPs.s:688    .text.BSP_LCD_SetLayerAddress_NoReload:0000000000000000 $t
     /tmp/ccky5mPs.s:694    .text.BSP_LCD_SetLayerAddress_NoReload:0000000000000000 BSP_LCD_SetLayerAddress_NoReload
     /tmp/ccky5mPs.s:719    .text.BSP_LCD_SetLayerAddress_NoReload:000000000000000c $d
     /tmp/ccky5mPs.s:724    .text.BSP_LCD_SetLayerWindow:0000000000000000 $t
     /tmp/ccky5mPs.s:730    .text.BSP_LCD_SetLayerWindow:0000000000000000 BSP_LCD_SetLayerWindow
     /tmp/ccky5mPs.s:779    .text.BSP_LCD_SetLayerWindow:0000000000000028 $d
     /tmp/ccky5mPs.s:784    .text.BSP_LCD_SetLayerWindow_NoReload:0000000000000000 $t
     /tmp/ccky5mPs.s:790    .text.BSP_LCD_SetLayerWindow_NoReload:0000000000000000 BSP_LCD_SetLayerWindow_NoReload
     /tmp/ccky5mPs.s:839    .text.BSP_LCD_SetLayerWindow_NoReload:0000000000000028 $d
     /tmp/ccky5mPs.s:844    .text.BSP_LCD_SetColorKeying:0000000000000000 $t
     /tmp/ccky5mPs.s:850    .text.BSP_LCD_SetColorKeying:0000000000000000 BSP_LCD_SetColorKeying
     /tmp/ccky5mPs.s:886    .text.BSP_LCD_SetColorKeying:0000000000000018 $d
     /tmp/ccky5mPs.s:891    .text.BSP_LCD_SetColorKeying_NoReload:0000000000000000 $t
     /tmp/ccky5mPs.s:897    .text.BSP_LCD_SetColorKeying_NoReload:0000000000000000 BSP_LCD_SetColorKeying_NoReload
     /tmp/ccky5mPs.s:933    .text.BSP_LCD_SetColorKeying_NoReload:0000000000000018 $d
     /tmp/ccky5mPs.s:938    .text.BSP_LCD_ResetColorKeying:0000000000000000 $t
     /tmp/ccky5mPs.s:944    .text.BSP_LCD_ResetColorKeying:0000000000000000 BSP_LCD_ResetColorKeying
     /tmp/ccky5mPs.s:969    .text.BSP_LCD_ResetColorKeying:000000000000000c $d
     /tmp/ccky5mPs.s:974    .text.BSP_LCD_ResetColorKeying_NoReload:0000000000000000 $t
     /tmp/ccky5mPs.s:980    .text.BSP_LCD_ResetColorKeying_NoReload:0000000000000000 BSP_LCD_ResetColorKeying_NoReload
     /tmp/ccky5mPs.s:1005   .text.BSP_LCD_ResetColorKeying_NoReload:000000000000000c $d
     /tmp/ccky5mPs.s:1010   .text.BSP_LCD_Relaod:0000000000000000 $t
ARM GAS  /tmp/ccky5mPs.s 			page 210


     /tmp/ccky5mPs.s:1016   .text.BSP_LCD_Relaod:0000000000000000 BSP_LCD_Relaod
     /tmp/ccky5mPs.s:1041   .text.BSP_LCD_Relaod:000000000000000c $d
     /tmp/ccky5mPs.s:1046   .text.BSP_LCD_GetTextColor:0000000000000000 $t
     /tmp/ccky5mPs.s:1052   .text.BSP_LCD_GetTextColor:0000000000000000 BSP_LCD_GetTextColor
     /tmp/ccky5mPs.s:1072   .text.BSP_LCD_GetTextColor:0000000000000010 $d
     /tmp/ccky5mPs.s:1078   .text.BSP_LCD_GetBackColor:0000000000000000 $t
     /tmp/ccky5mPs.s:1084   .text.BSP_LCD_GetBackColor:0000000000000000 BSP_LCD_GetBackColor
     /tmp/ccky5mPs.s:1105   .text.BSP_LCD_GetBackColor:0000000000000014 $d
     /tmp/ccky5mPs.s:1111   .text.BSP_LCD_SetTextColor:0000000000000000 $t
     /tmp/ccky5mPs.s:1117   .text.BSP_LCD_SetTextColor:0000000000000000 BSP_LCD_SetTextColor
     /tmp/ccky5mPs.s:1138   .text.BSP_LCD_SetTextColor:0000000000000010 $d
     /tmp/ccky5mPs.s:1144   .text.BSP_LCD_SetBackColor:0000000000000000 $t
     /tmp/ccky5mPs.s:1150   .text.BSP_LCD_SetBackColor:0000000000000000 BSP_LCD_SetBackColor
     /tmp/ccky5mPs.s:1172   .text.BSP_LCD_SetBackColor:0000000000000014 $d
     /tmp/ccky5mPs.s:1178   .text.BSP_LCD_SetFont:0000000000000000 $t
     /tmp/ccky5mPs.s:1184   .text.BSP_LCD_SetFont:0000000000000000 BSP_LCD_SetFont
     /tmp/ccky5mPs.s:1206   .text.BSP_LCD_SetFont:0000000000000014 $d
     /tmp/ccky5mPs.s:1212   .text.BSP_LCD_GetFont:0000000000000000 $t
     /tmp/ccky5mPs.s:1218   .text.BSP_LCD_GetFont:0000000000000000 BSP_LCD_GetFont
     /tmp/ccky5mPs.s:1239   .text.BSP_LCD_GetFont:0000000000000014 $d
     /tmp/ccky5mPs.s:1245   .text.BSP_LCD_ReadPixel:0000000000000000 $t
     /tmp/ccky5mPs.s:1251   .text.BSP_LCD_ReadPixel:0000000000000000 BSP_LCD_ReadPixel
     /tmp/ccky5mPs.s:1381   .text.BSP_LCD_ReadPixel:000000000000008c $d
     /tmp/ccky5mPs.s:1387   .text.BSP_LCD_Clear:0000000000000000 $t
     /tmp/ccky5mPs.s:1393   .text.BSP_LCD_Clear:0000000000000000 BSP_LCD_Clear
     /tmp/ccky5mPs.s:1448   .text.BSP_LCD_Clear:0000000000000034 $d
     /tmp/ccky5mPs.s:1454   .text.BSP_LCD_DrawHLine:0000000000000000 $t
     /tmp/ccky5mPs.s:1460   .text.BSP_LCD_DrawHLine:0000000000000000 BSP_LCD_DrawHLine
     /tmp/ccky5mPs.s:1527   .text.BSP_LCD_DrawHLine:0000000000000048 $d
     /tmp/ccky5mPs.s:1534   .text.BSP_LCD_DrawVLine:0000000000000000 $t
     /tmp/ccky5mPs.s:1540   .text.BSP_LCD_DrawVLine:0000000000000000 BSP_LCD_DrawVLine
     /tmp/ccky5mPs.s:1615   .text.BSP_LCD_DrawVLine:0000000000000054 $d
     /tmp/ccky5mPs.s:1622   .text.BSP_LCD_DrawRect:0000000000000000 $t
     /tmp/ccky5mPs.s:1628   .text.BSP_LCD_DrawRect:0000000000000000 BSP_LCD_DrawRect
     /tmp/ccky5mPs.s:1678   .text.BSP_LCD_DrawBitmap:0000000000000000 $t
     /tmp/ccky5mPs.s:1684   .text.BSP_LCD_DrawBitmap:0000000000000000 BSP_LCD_DrawBitmap
     /tmp/ccky5mPs.s:1869   .text.BSP_LCD_DrawBitmap:00000000000000c4 $d
     /tmp/ccky5mPs.s:1875   .text.BSP_LCD_FillRect:0000000000000000 $t
     /tmp/ccky5mPs.s:1881   .text.BSP_LCD_FillRect:0000000000000000 BSP_LCD_FillRect
     /tmp/ccky5mPs.s:1965   .text.BSP_LCD_FillRect:0000000000000068 $d
     /tmp/ccky5mPs.s:1972   .text.BSP_LCD_ClearStringLine:0000000000000000 $t
     /tmp/ccky5mPs.s:1978   .text.BSP_LCD_ClearStringLine:0000000000000000 BSP_LCD_ClearStringLine
     /tmp/ccky5mPs.s:2053   .text.BSP_LCD_ClearStringLine:0000000000000058 $d
     /tmp/ccky5mPs.s:2059   .text.BSP_LCD_FillEllipse:0000000000000000 $t
     /tmp/ccky5mPs.s:2065   .text.BSP_LCD_FillEllipse:0000000000000000 BSP_LCD_FillEllipse
     /tmp/ccky5mPs.s:2238   .text.BSP_LCD_DisplayOn:0000000000000000 $t
     /tmp/ccky5mPs.s:2244   .text.BSP_LCD_DisplayOn:0000000000000000 BSP_LCD_DisplayOn
     /tmp/ccky5mPs.s:2271   .text.BSP_LCD_DisplayOn:0000000000000010 $d
     /tmp/ccky5mPs.s:2276   .text.BSP_LCD_DisplayOff:0000000000000000 $t
     /tmp/ccky5mPs.s:2282   .text.BSP_LCD_DisplayOff:0000000000000000 BSP_LCD_DisplayOff
     /tmp/ccky5mPs.s:2309   .text.BSP_LCD_DisplayOff:0000000000000010 $d
     /tmp/ccky5mPs.s:2314   .text.BSP_LCD_MspInit:0000000000000000 $t
     /tmp/ccky5mPs.s:2320   .text.BSP_LCD_MspInit:0000000000000000 BSP_LCD_MspInit
     /tmp/ccky5mPs.s:2567   .text.BSP_LCD_MspInit:000000000000012c $d
     /tmp/ccky5mPs.s:2578   .text.BSP_LCD_Init:0000000000000000 $t
     /tmp/ccky5mPs.s:2584   .text.BSP_LCD_Init:0000000000000000 BSP_LCD_Init
     /tmp/ccky5mPs.s:2708   .text.BSP_LCD_Init:0000000000000080 $d
ARM GAS  /tmp/ccky5mPs.s 			page 211


     /tmp/ccky5mPs.s:2718   .text.BSP_LCD_DrawPixel:0000000000000000 $t
     /tmp/ccky5mPs.s:2724   .text.BSP_LCD_DrawPixel:0000000000000000 BSP_LCD_DrawPixel
     /tmp/ccky5mPs.s:2770   .text.BSP_LCD_DrawPixel:0000000000000024 $d
     /tmp/ccky5mPs.s:2776   .text.DrawChar:0000000000000000 $t
     /tmp/ccky5mPs.s:2781   .text.DrawChar:0000000000000000 DrawChar
     /tmp/ccky5mPs.s:2988   .text.DrawChar:00000000000000e0 $d
     /tmp/ccky5mPs.s:2994   .text.BSP_LCD_DisplayChar:0000000000000000 $t
     /tmp/ccky5mPs.s:3000   .text.BSP_LCD_DisplayChar:0000000000000000 BSP_LCD_DisplayChar
     /tmp/ccky5mPs.s:3046   .text.BSP_LCD_DisplayChar:0000000000000030 $d
     /tmp/ccky5mPs.s:3052   .text.BSP_LCD_DisplayStringAt:0000000000000000 $t
     /tmp/ccky5mPs.s:3058   .text.BSP_LCD_DisplayStringAt:0000000000000000 BSP_LCD_DisplayStringAt
     /tmp/ccky5mPs.s:3233   .text.BSP_LCD_DisplayStringAt:00000000000000c0 $d
     /tmp/ccky5mPs.s:3239   .text.BSP_LCD_DisplayStringAtLine:0000000000000000 $t
     /tmp/ccky5mPs.s:3245   .text.BSP_LCD_DisplayStringAtLine:0000000000000000 BSP_LCD_DisplayStringAtLine
     /tmp/ccky5mPs.s:3283   .text.BSP_LCD_DrawLine:0000000000000000 $t
     /tmp/ccky5mPs.s:3289   .text.BSP_LCD_DrawLine:0000000000000000 BSP_LCD_DrawLine
     /tmp/ccky5mPs.s:3530   .text.BSP_LCD_DrawLine:00000000000000e0 $d
     /tmp/ccky5mPs.s:3536   .text.BSP_LCD_DrawPolygon:0000000000000000 $t
     /tmp/ccky5mPs.s:3542   .text.BSP_LCD_DrawPolygon:0000000000000000 BSP_LCD_DrawPolygon
     /tmp/ccky5mPs.s:3641   .text.BSP_LCD_FillTriangle:0000000000000000 $t
     /tmp/ccky5mPs.s:3647   .text.BSP_LCD_FillTriangle:0000000000000000 BSP_LCD_FillTriangle
     /tmp/ccky5mPs.s:3891   .text.BSP_LCD_FillPolygon:0000000000000000 $t
     /tmp/ccky5mPs.s:3897   .text.BSP_LCD_FillPolygon:0000000000000000 BSP_LCD_FillPolygon
     /tmp/ccky5mPs.s:4169   .text.BSP_LCD_DrawCircle:0000000000000000 $t
     /tmp/ccky5mPs.s:4175   .text.BSP_LCD_DrawCircle:0000000000000000 BSP_LCD_DrawCircle
     /tmp/ccky5mPs.s:4361   .text.BSP_LCD_DrawCircle:0000000000000120 $d
     /tmp/ccky5mPs.s:4367   .text.BSP_LCD_FillCircle:0000000000000000 $t
     /tmp/ccky5mPs.s:4373   .text.BSP_LCD_FillCircle:0000000000000000 BSP_LCD_FillCircle
     /tmp/ccky5mPs.s:4545   .text.BSP_LCD_FillCircle:00000000000000d0 $d
     /tmp/ccky5mPs.s:4551   .text.BSP_LCD_DrawEllipse:0000000000000000 $t
     /tmp/ccky5mPs.s:4557   .text.BSP_LCD_DrawEllipse:0000000000000000 BSP_LCD_DrawEllipse
     /tmp/ccky5mPs.s:4764   .text.BSP_LCD_DrawEllipse:000000000000010c $d
     /tmp/ccky5mPs.s:4807   .bss.LcdDrv:0000000000000000 LcdDrv
     /tmp/ccky5mPs.s:4814   .bss.LtdcHandler:0000000000000000 LtdcHandler
     /tmp/ccky5mPs.s:4860   .data.Font8:0000000000000000 Font8
     /tmp/ccky5mPs.s:5925   .rodata.Font8_Table:0000000000000000 Font8_Table
     /tmp/ccky5mPs.s:4827   .data.Font12:0000000000000000 Font12
     /tmp/ccky5mPs.s:4868   .rodata.Font12_Table:0000000000000000 Font12_Table
     /tmp/ccky5mPs.s:4835   .data.Font16:0000000000000000 Font16
     /tmp/ccky5mPs.s:4936   .rodata.Font16_Table:0000000000000000 Font16_Table
     /tmp/ccky5mPs.s:4843   .data.Font20:0000000000000000 Font20
     /tmp/ccky5mPs.s:5153   .rodata.Font20_Table:0000000000000000 Font20_Table
     /tmp/ccky5mPs.s:4852   .data.Font24:0000000000000000 Font24
     /tmp/ccky5mPs.s:5420   .rodata.Font24_Table:0000000000000000 Font24_Table
     /tmp/ccky5mPs.s:4782   .bss.ActiveLayer:0000000000000000 $d
     /tmp/ccky5mPs.s:4786   .bss.ActiveLayer:0000000000000000 ActiveLayer
     /tmp/ccky5mPs.s:4789   .bss.Dma2dHandler:0000000000000000 $d
     /tmp/ccky5mPs.s:4793   .bss.Dma2dHandler:0000000000000000 Dma2dHandler
     /tmp/ccky5mPs.s:4796   .bss.DrawProp:0000000000000000 $d
     /tmp/ccky5mPs.s:4800   .bss.DrawProp:0000000000000000 DrawProp
     /tmp/ccky5mPs.s:4803   .bss.LcdDrv:0000000000000000 $d
     /tmp/ccky5mPs.s:4810   .bss.LtdcHandler:0000000000000000 $d
     /tmp/ccky5mPs.s:4817   .bss.PeriphClkInitStruct:0000000000000000 $d
     /tmp/ccky5mPs.s:4821   .bss.PeriphClkInitStruct:0000000000000000 PeriphClkInitStruct
     /tmp/ccky5mPs.s:4824   .data.Font12:0000000000000000 $d
     /tmp/ccky5mPs.s:4832   .data.Font16:0000000000000000 $d
     /tmp/ccky5mPs.s:4840   .data.Font20:0000000000000000 $d
ARM GAS  /tmp/ccky5mPs.s 			page 212


     /tmp/ccky5mPs.s:4848   .data.Font24:0000000000000000 $d
     /tmp/ccky5mPs.s:4857   .data.Font8:0000000000000000 $d
     /tmp/ccky5mPs.s:4865   .rodata.Font12_Table:0000000000000000 $d
     /tmp/ccky5mPs.s:4933   .rodata.Font16_Table:0000000000000000 $d
     /tmp/ccky5mPs.s:5150   .rodata.Font20_Table:0000000000000000 $d
     /tmp/ccky5mPs.s:5417   .rodata.Font24_Table:0000000000000000 $d
     /tmp/ccky5mPs.s:5922   .rodata.Font8_Table:0000000000000000 $d

UNDEFINED SYMBOLS
HAL_DMA2D_Init
HAL_DMA2D_ConfigLayer
HAL_DMA2D_Start
HAL_DMA2D_PollForTransfer
HAL_LTDC_ConfigLayer
HAL_LTDC_EnableDither
HAL_LTDC_SetAlpha
HAL_LTDC_SetAlpha_NoReload
HAL_LTDC_SetAddress
HAL_LTDC_SetAddress_NoReload
HAL_LTDC_SetWindowSize
HAL_LTDC_SetWindowPosition
HAL_LTDC_SetWindowSize_NoReload
HAL_LTDC_SetWindowPosition_NoReload
HAL_LTDC_ConfigColorKeying
HAL_LTDC_EnableColorKeying
HAL_LTDC_ConfigColorKeying_NoReload
HAL_LTDC_EnableColorKeying_NoReload
HAL_LTDC_DisableColorKeying
HAL_LTDC_DisableColorKeying_NoReload
HAL_LTDC_Reload
HAL_GPIO_Init
HAL_RCCEx_PeriphCLKConfig
HAL_LTDC_Init
BSP_SDRAM_Init
ili9341_drv
