ARM GAS  /tmp/cc785GWs.s 			page 1


   1              		.cpu cortex-m4
   2              		.arch armv7e-m
   3              		.fpu fpv4-sp-d16
   4              		.eabi_attribute 27, 1
   5              		.eabi_attribute 28, 1
   6              		.eabi_attribute 20, 1
   7              		.eabi_attribute 21, 1
   8              		.eabi_attribute 23, 3
   9              		.eabi_attribute 24, 1
  10              		.eabi_attribute 25, 1
  11              		.eabi_attribute 26, 1
  12              		.eabi_attribute 30, 1
  13              		.eabi_attribute 34, 1
  14              		.eabi_attribute 18, 4
  15              		.file	"usbh_ctlreq.c"
  16              		.text
  17              	.Ltext0:
  18              		.cfi_sections	.debug_frame
  19              		.section	.text.USBH_ParseDevDesc,"ax",%progbits
  20              		.align	1
  21              		.syntax unified
  22              		.thumb
  23              		.thumb_func
  25              	USBH_ParseDevDesc:
  26              	.LVL0:
  27              	.LFB147:
  28              		.file 1 "Middlewares/ST/STM32_USB_Host_Library/Core/Src/usbh_ctlreq.c"
   1:Middlewares/ST/STM32_USB_Host_Library/Core/Src/usbh_ctlreq.c **** /**
   2:Middlewares/ST/STM32_USB_Host_Library/Core/Src/usbh_ctlreq.c ****   ******************************************************************************
   3:Middlewares/ST/STM32_USB_Host_Library/Core/Src/usbh_ctlreq.c ****   * @file    usbh_ctlreq.c
   4:Middlewares/ST/STM32_USB_Host_Library/Core/Src/usbh_ctlreq.c ****   * @author  MCD Application Team
   5:Middlewares/ST/STM32_USB_Host_Library/Core/Src/usbh_ctlreq.c ****   * @brief   This file implements the control requests for device enumeration
   6:Middlewares/ST/STM32_USB_Host_Library/Core/Src/usbh_ctlreq.c ****   ******************************************************************************
   7:Middlewares/ST/STM32_USB_Host_Library/Core/Src/usbh_ctlreq.c ****   * @attention
   8:Middlewares/ST/STM32_USB_Host_Library/Core/Src/usbh_ctlreq.c ****   *
   9:Middlewares/ST/STM32_USB_Host_Library/Core/Src/usbh_ctlreq.c ****   * <h2><center>&copy; Copyright (c) 2015 STMicroelectronics.
  10:Middlewares/ST/STM32_USB_Host_Library/Core/Src/usbh_ctlreq.c ****   * All rights reserved.</center></h2>
  11:Middlewares/ST/STM32_USB_Host_Library/Core/Src/usbh_ctlreq.c ****   *
  12:Middlewares/ST/STM32_USB_Host_Library/Core/Src/usbh_ctlreq.c ****   * This software component is licensed by ST under Ultimate Liberty license
  13:Middlewares/ST/STM32_USB_Host_Library/Core/Src/usbh_ctlreq.c ****   * SLA0044, the "License"; You may not use this file except in compliance with
  14:Middlewares/ST/STM32_USB_Host_Library/Core/Src/usbh_ctlreq.c ****   * the License. You may obtain a copy of the License at:
  15:Middlewares/ST/STM32_USB_Host_Library/Core/Src/usbh_ctlreq.c ****   *                      www.st.com/SLA0044
  16:Middlewares/ST/STM32_USB_Host_Library/Core/Src/usbh_ctlreq.c ****   *
  17:Middlewares/ST/STM32_USB_Host_Library/Core/Src/usbh_ctlreq.c ****   ******************************************************************************
  18:Middlewares/ST/STM32_USB_Host_Library/Core/Src/usbh_ctlreq.c ****   */
  19:Middlewares/ST/STM32_USB_Host_Library/Core/Src/usbh_ctlreq.c **** 
  20:Middlewares/ST/STM32_USB_Host_Library/Core/Src/usbh_ctlreq.c **** /* Includes ------------------------------------------------------------------*/
  21:Middlewares/ST/STM32_USB_Host_Library/Core/Src/usbh_ctlreq.c **** #include "usbh_ctlreq.h"
  22:Middlewares/ST/STM32_USB_Host_Library/Core/Src/usbh_ctlreq.c **** 
  23:Middlewares/ST/STM32_USB_Host_Library/Core/Src/usbh_ctlreq.c **** /** @addtogroup USBH_LIB
  24:Middlewares/ST/STM32_USB_Host_Library/Core/Src/usbh_ctlreq.c **** * @{
  25:Middlewares/ST/STM32_USB_Host_Library/Core/Src/usbh_ctlreq.c **** */
  26:Middlewares/ST/STM32_USB_Host_Library/Core/Src/usbh_ctlreq.c **** 
  27:Middlewares/ST/STM32_USB_Host_Library/Core/Src/usbh_ctlreq.c **** /** @addtogroup USBH_LIB_CORE
  28:Middlewares/ST/STM32_USB_Host_Library/Core/Src/usbh_ctlreq.c **** * @{
  29:Middlewares/ST/STM32_USB_Host_Library/Core/Src/usbh_ctlreq.c **** */
  30:Middlewares/ST/STM32_USB_Host_Library/Core/Src/usbh_ctlreq.c **** 
ARM GAS  /tmp/cc785GWs.s 			page 2


  31:Middlewares/ST/STM32_USB_Host_Library/Core/Src/usbh_ctlreq.c **** /** @defgroup USBH_CTLREQ
  32:Middlewares/ST/STM32_USB_Host_Library/Core/Src/usbh_ctlreq.c **** * @brief This file implements the standard requests for device enumeration
  33:Middlewares/ST/STM32_USB_Host_Library/Core/Src/usbh_ctlreq.c **** * @{
  34:Middlewares/ST/STM32_USB_Host_Library/Core/Src/usbh_ctlreq.c **** */
  35:Middlewares/ST/STM32_USB_Host_Library/Core/Src/usbh_ctlreq.c **** 
  36:Middlewares/ST/STM32_USB_Host_Library/Core/Src/usbh_ctlreq.c **** 
  37:Middlewares/ST/STM32_USB_Host_Library/Core/Src/usbh_ctlreq.c **** /** @defgroup USBH_CTLREQ_Private_Defines
  38:Middlewares/ST/STM32_USB_Host_Library/Core/Src/usbh_ctlreq.c **** * @{
  39:Middlewares/ST/STM32_USB_Host_Library/Core/Src/usbh_ctlreq.c **** */
  40:Middlewares/ST/STM32_USB_Host_Library/Core/Src/usbh_ctlreq.c **** /**
  41:Middlewares/ST/STM32_USB_Host_Library/Core/Src/usbh_ctlreq.c **** * @}
  42:Middlewares/ST/STM32_USB_Host_Library/Core/Src/usbh_ctlreq.c **** */
  43:Middlewares/ST/STM32_USB_Host_Library/Core/Src/usbh_ctlreq.c **** 
  44:Middlewares/ST/STM32_USB_Host_Library/Core/Src/usbh_ctlreq.c **** 
  45:Middlewares/ST/STM32_USB_Host_Library/Core/Src/usbh_ctlreq.c **** /** @defgroup USBH_CTLREQ_Private_TypesDefinitions
  46:Middlewares/ST/STM32_USB_Host_Library/Core/Src/usbh_ctlreq.c **** * @{
  47:Middlewares/ST/STM32_USB_Host_Library/Core/Src/usbh_ctlreq.c **** */
  48:Middlewares/ST/STM32_USB_Host_Library/Core/Src/usbh_ctlreq.c **** /**
  49:Middlewares/ST/STM32_USB_Host_Library/Core/Src/usbh_ctlreq.c **** * @}
  50:Middlewares/ST/STM32_USB_Host_Library/Core/Src/usbh_ctlreq.c **** */
  51:Middlewares/ST/STM32_USB_Host_Library/Core/Src/usbh_ctlreq.c **** 
  52:Middlewares/ST/STM32_USB_Host_Library/Core/Src/usbh_ctlreq.c **** 
  53:Middlewares/ST/STM32_USB_Host_Library/Core/Src/usbh_ctlreq.c **** 
  54:Middlewares/ST/STM32_USB_Host_Library/Core/Src/usbh_ctlreq.c **** /** @defgroup USBH_CTLREQ_Private_Macros
  55:Middlewares/ST/STM32_USB_Host_Library/Core/Src/usbh_ctlreq.c **** * @{
  56:Middlewares/ST/STM32_USB_Host_Library/Core/Src/usbh_ctlreq.c **** */
  57:Middlewares/ST/STM32_USB_Host_Library/Core/Src/usbh_ctlreq.c **** /**
  58:Middlewares/ST/STM32_USB_Host_Library/Core/Src/usbh_ctlreq.c **** * @}
  59:Middlewares/ST/STM32_USB_Host_Library/Core/Src/usbh_ctlreq.c **** */
  60:Middlewares/ST/STM32_USB_Host_Library/Core/Src/usbh_ctlreq.c **** 
  61:Middlewares/ST/STM32_USB_Host_Library/Core/Src/usbh_ctlreq.c **** 
  62:Middlewares/ST/STM32_USB_Host_Library/Core/Src/usbh_ctlreq.c **** /** @defgroup USBH_CTLREQ_Private_Variables
  63:Middlewares/ST/STM32_USB_Host_Library/Core/Src/usbh_ctlreq.c **** * @{
  64:Middlewares/ST/STM32_USB_Host_Library/Core/Src/usbh_ctlreq.c **** */
  65:Middlewares/ST/STM32_USB_Host_Library/Core/Src/usbh_ctlreq.c **** /**
  66:Middlewares/ST/STM32_USB_Host_Library/Core/Src/usbh_ctlreq.c **** * @}
  67:Middlewares/ST/STM32_USB_Host_Library/Core/Src/usbh_ctlreq.c **** */
  68:Middlewares/ST/STM32_USB_Host_Library/Core/Src/usbh_ctlreq.c **** 
  69:Middlewares/ST/STM32_USB_Host_Library/Core/Src/usbh_ctlreq.c **** /** @defgroup USBH_CTLREQ_Private_FunctionPrototypes
  70:Middlewares/ST/STM32_USB_Host_Library/Core/Src/usbh_ctlreq.c **** * @{
  71:Middlewares/ST/STM32_USB_Host_Library/Core/Src/usbh_ctlreq.c **** */
  72:Middlewares/ST/STM32_USB_Host_Library/Core/Src/usbh_ctlreq.c **** static USBH_StatusTypeDef USBH_HandleControl(USBH_HandleTypeDef *phost);
  73:Middlewares/ST/STM32_USB_Host_Library/Core/Src/usbh_ctlreq.c **** 
  74:Middlewares/ST/STM32_USB_Host_Library/Core/Src/usbh_ctlreq.c **** static void USBH_ParseDevDesc(USBH_DevDescTypeDef *dev_desc,
  75:Middlewares/ST/STM32_USB_Host_Library/Core/Src/usbh_ctlreq.c ****                               uint8_t *buf, uint16_t length);
  76:Middlewares/ST/STM32_USB_Host_Library/Core/Src/usbh_ctlreq.c **** 
  77:Middlewares/ST/STM32_USB_Host_Library/Core/Src/usbh_ctlreq.c **** static void USBH_ParseCfgDesc(USBH_CfgDescTypeDef *cfg_desc,
  78:Middlewares/ST/STM32_USB_Host_Library/Core/Src/usbh_ctlreq.c ****                               uint8_t *buf, uint16_t length);
  79:Middlewares/ST/STM32_USB_Host_Library/Core/Src/usbh_ctlreq.c **** 
  80:Middlewares/ST/STM32_USB_Host_Library/Core/Src/usbh_ctlreq.c **** static void USBH_ParseEPDesc(USBH_EpDescTypeDef  *ep_descriptor, uint8_t *buf);
  81:Middlewares/ST/STM32_USB_Host_Library/Core/Src/usbh_ctlreq.c **** static void USBH_ParseStringDesc(uint8_t *psrc, uint8_t *pdest, uint16_t length);
  82:Middlewares/ST/STM32_USB_Host_Library/Core/Src/usbh_ctlreq.c **** static void USBH_ParseInterfaceDesc(USBH_InterfaceDescTypeDef  *if_descriptor, uint8_t *buf);
  83:Middlewares/ST/STM32_USB_Host_Library/Core/Src/usbh_ctlreq.c **** 
  84:Middlewares/ST/STM32_USB_Host_Library/Core/Src/usbh_ctlreq.c **** 
  85:Middlewares/ST/STM32_USB_Host_Library/Core/Src/usbh_ctlreq.c **** /**
  86:Middlewares/ST/STM32_USB_Host_Library/Core/Src/usbh_ctlreq.c **** * @}
  87:Middlewares/ST/STM32_USB_Host_Library/Core/Src/usbh_ctlreq.c **** */
ARM GAS  /tmp/cc785GWs.s 			page 3


  88:Middlewares/ST/STM32_USB_Host_Library/Core/Src/usbh_ctlreq.c **** 
  89:Middlewares/ST/STM32_USB_Host_Library/Core/Src/usbh_ctlreq.c **** 
  90:Middlewares/ST/STM32_USB_Host_Library/Core/Src/usbh_ctlreq.c **** /** @defgroup USBH_CTLREQ_Private_Functions
  91:Middlewares/ST/STM32_USB_Host_Library/Core/Src/usbh_ctlreq.c **** * @{
  92:Middlewares/ST/STM32_USB_Host_Library/Core/Src/usbh_ctlreq.c **** */
  93:Middlewares/ST/STM32_USB_Host_Library/Core/Src/usbh_ctlreq.c **** 
  94:Middlewares/ST/STM32_USB_Host_Library/Core/Src/usbh_ctlreq.c **** 
  95:Middlewares/ST/STM32_USB_Host_Library/Core/Src/usbh_ctlreq.c **** /**
  96:Middlewares/ST/STM32_USB_Host_Library/Core/Src/usbh_ctlreq.c ****   * @brief  USBH_Get_DevDesc
  97:Middlewares/ST/STM32_USB_Host_Library/Core/Src/usbh_ctlreq.c ****   *         Issue Get Device Descriptor command to the device. Once the response
  98:Middlewares/ST/STM32_USB_Host_Library/Core/Src/usbh_ctlreq.c ****   *         received, it parses the device descriptor and updates the status.
  99:Middlewares/ST/STM32_USB_Host_Library/Core/Src/usbh_ctlreq.c ****   * @param  phost: Host Handle
 100:Middlewares/ST/STM32_USB_Host_Library/Core/Src/usbh_ctlreq.c ****   * @param  length: Length of the descriptor
 101:Middlewares/ST/STM32_USB_Host_Library/Core/Src/usbh_ctlreq.c ****   * @retval USBH Status
 102:Middlewares/ST/STM32_USB_Host_Library/Core/Src/usbh_ctlreq.c ****   */
 103:Middlewares/ST/STM32_USB_Host_Library/Core/Src/usbh_ctlreq.c **** USBH_StatusTypeDef USBH_Get_DevDesc(USBH_HandleTypeDef *phost, uint8_t length)
 104:Middlewares/ST/STM32_USB_Host_Library/Core/Src/usbh_ctlreq.c **** {
 105:Middlewares/ST/STM32_USB_Host_Library/Core/Src/usbh_ctlreq.c ****   USBH_StatusTypeDef status;
 106:Middlewares/ST/STM32_USB_Host_Library/Core/Src/usbh_ctlreq.c **** 
 107:Middlewares/ST/STM32_USB_Host_Library/Core/Src/usbh_ctlreq.c ****   if ((status = USBH_GetDescriptor(phost,
 108:Middlewares/ST/STM32_USB_Host_Library/Core/Src/usbh_ctlreq.c ****                                    USB_REQ_RECIPIENT_DEVICE | USB_REQ_TYPE_STANDARD,
 109:Middlewares/ST/STM32_USB_Host_Library/Core/Src/usbh_ctlreq.c ****                                    USB_DESC_DEVICE, phost->device.Data,
 110:Middlewares/ST/STM32_USB_Host_Library/Core/Src/usbh_ctlreq.c ****                                    (uint16_t)length)) == USBH_OK)
 111:Middlewares/ST/STM32_USB_Host_Library/Core/Src/usbh_ctlreq.c ****   {
 112:Middlewares/ST/STM32_USB_Host_Library/Core/Src/usbh_ctlreq.c ****     /* Commands successfully sent and Response Received */
 113:Middlewares/ST/STM32_USB_Host_Library/Core/Src/usbh_ctlreq.c ****     USBH_ParseDevDesc(&phost->device.DevDesc, phost->device.Data,
 114:Middlewares/ST/STM32_USB_Host_Library/Core/Src/usbh_ctlreq.c ****                       (uint16_t)length);
 115:Middlewares/ST/STM32_USB_Host_Library/Core/Src/usbh_ctlreq.c ****   }
 116:Middlewares/ST/STM32_USB_Host_Library/Core/Src/usbh_ctlreq.c **** 
 117:Middlewares/ST/STM32_USB_Host_Library/Core/Src/usbh_ctlreq.c ****   return status;
 118:Middlewares/ST/STM32_USB_Host_Library/Core/Src/usbh_ctlreq.c **** }
 119:Middlewares/ST/STM32_USB_Host_Library/Core/Src/usbh_ctlreq.c **** 
 120:Middlewares/ST/STM32_USB_Host_Library/Core/Src/usbh_ctlreq.c **** 
 121:Middlewares/ST/STM32_USB_Host_Library/Core/Src/usbh_ctlreq.c **** /**
 122:Middlewares/ST/STM32_USB_Host_Library/Core/Src/usbh_ctlreq.c ****   * @brief  USBH_Get_CfgDesc
 123:Middlewares/ST/STM32_USB_Host_Library/Core/Src/usbh_ctlreq.c ****   *         Issues Configuration Descriptor to the device. Once the response
 124:Middlewares/ST/STM32_USB_Host_Library/Core/Src/usbh_ctlreq.c ****   *         received, it parses the configuration descriptor and updates the
 125:Middlewares/ST/STM32_USB_Host_Library/Core/Src/usbh_ctlreq.c ****   *         status.
 126:Middlewares/ST/STM32_USB_Host_Library/Core/Src/usbh_ctlreq.c ****   * @param  phost: Host Handle
 127:Middlewares/ST/STM32_USB_Host_Library/Core/Src/usbh_ctlreq.c ****   * @param  length: Length of the descriptor
 128:Middlewares/ST/STM32_USB_Host_Library/Core/Src/usbh_ctlreq.c ****   * @retval USBH Status
 129:Middlewares/ST/STM32_USB_Host_Library/Core/Src/usbh_ctlreq.c ****   */
 130:Middlewares/ST/STM32_USB_Host_Library/Core/Src/usbh_ctlreq.c **** USBH_StatusTypeDef USBH_Get_CfgDesc(USBH_HandleTypeDef *phost,
 131:Middlewares/ST/STM32_USB_Host_Library/Core/Src/usbh_ctlreq.c ****                                     uint16_t length)
 132:Middlewares/ST/STM32_USB_Host_Library/Core/Src/usbh_ctlreq.c **** 
 133:Middlewares/ST/STM32_USB_Host_Library/Core/Src/usbh_ctlreq.c **** {
 134:Middlewares/ST/STM32_USB_Host_Library/Core/Src/usbh_ctlreq.c ****   USBH_StatusTypeDef status;
 135:Middlewares/ST/STM32_USB_Host_Library/Core/Src/usbh_ctlreq.c ****   uint8_t *pData = phost->device.CfgDesc_Raw;;
 136:Middlewares/ST/STM32_USB_Host_Library/Core/Src/usbh_ctlreq.c **** 
 137:Middlewares/ST/STM32_USB_Host_Library/Core/Src/usbh_ctlreq.c ****   if ((status = USBH_GetDescriptor(phost, (USB_REQ_RECIPIENT_DEVICE | USB_REQ_TYPE_STANDARD),
 138:Middlewares/ST/STM32_USB_Host_Library/Core/Src/usbh_ctlreq.c ****                                    USB_DESC_CONFIGURATION, pData, length)) == USBH_OK)
 139:Middlewares/ST/STM32_USB_Host_Library/Core/Src/usbh_ctlreq.c ****   {
 140:Middlewares/ST/STM32_USB_Host_Library/Core/Src/usbh_ctlreq.c ****     /* Commands successfully sent and Response Received  */
 141:Middlewares/ST/STM32_USB_Host_Library/Core/Src/usbh_ctlreq.c ****     USBH_ParseCfgDesc(&phost->device.CfgDesc, pData, length);
 142:Middlewares/ST/STM32_USB_Host_Library/Core/Src/usbh_ctlreq.c ****   }
 143:Middlewares/ST/STM32_USB_Host_Library/Core/Src/usbh_ctlreq.c **** 
 144:Middlewares/ST/STM32_USB_Host_Library/Core/Src/usbh_ctlreq.c ****   return status;
ARM GAS  /tmp/cc785GWs.s 			page 4


 145:Middlewares/ST/STM32_USB_Host_Library/Core/Src/usbh_ctlreq.c **** }
 146:Middlewares/ST/STM32_USB_Host_Library/Core/Src/usbh_ctlreq.c **** 
 147:Middlewares/ST/STM32_USB_Host_Library/Core/Src/usbh_ctlreq.c **** 
 148:Middlewares/ST/STM32_USB_Host_Library/Core/Src/usbh_ctlreq.c **** /**
 149:Middlewares/ST/STM32_USB_Host_Library/Core/Src/usbh_ctlreq.c ****   * @brief  USBH_Get_StringDesc
 150:Middlewares/ST/STM32_USB_Host_Library/Core/Src/usbh_ctlreq.c ****   *         Issues string Descriptor command to the device. Once the response
 151:Middlewares/ST/STM32_USB_Host_Library/Core/Src/usbh_ctlreq.c ****   *         received, it parses the string descriptor and updates the status.
 152:Middlewares/ST/STM32_USB_Host_Library/Core/Src/usbh_ctlreq.c ****   * @param  phost: Host Handle
 153:Middlewares/ST/STM32_USB_Host_Library/Core/Src/usbh_ctlreq.c ****   * @param  string_index: String index for the descriptor
 154:Middlewares/ST/STM32_USB_Host_Library/Core/Src/usbh_ctlreq.c ****   * @param  buff: Buffer address for the descriptor
 155:Middlewares/ST/STM32_USB_Host_Library/Core/Src/usbh_ctlreq.c ****   * @param  length: Length of the descriptor
 156:Middlewares/ST/STM32_USB_Host_Library/Core/Src/usbh_ctlreq.c ****   * @retval USBH Status
 157:Middlewares/ST/STM32_USB_Host_Library/Core/Src/usbh_ctlreq.c ****   */
 158:Middlewares/ST/STM32_USB_Host_Library/Core/Src/usbh_ctlreq.c **** USBH_StatusTypeDef USBH_Get_StringDesc(USBH_HandleTypeDef *phost,
 159:Middlewares/ST/STM32_USB_Host_Library/Core/Src/usbh_ctlreq.c ****                                        uint8_t string_index, uint8_t *buff,
 160:Middlewares/ST/STM32_USB_Host_Library/Core/Src/usbh_ctlreq.c ****                                        uint16_t length)
 161:Middlewares/ST/STM32_USB_Host_Library/Core/Src/usbh_ctlreq.c **** {
 162:Middlewares/ST/STM32_USB_Host_Library/Core/Src/usbh_ctlreq.c ****   USBH_StatusTypeDef status;
 163:Middlewares/ST/STM32_USB_Host_Library/Core/Src/usbh_ctlreq.c **** 
 164:Middlewares/ST/STM32_USB_Host_Library/Core/Src/usbh_ctlreq.c ****   if ((status = USBH_GetDescriptor(phost,
 165:Middlewares/ST/STM32_USB_Host_Library/Core/Src/usbh_ctlreq.c ****                                    USB_REQ_RECIPIENT_DEVICE | USB_REQ_TYPE_STANDARD,
 166:Middlewares/ST/STM32_USB_Host_Library/Core/Src/usbh_ctlreq.c ****                                    USB_DESC_STRING | string_index,
 167:Middlewares/ST/STM32_USB_Host_Library/Core/Src/usbh_ctlreq.c ****                                    phost->device.Data, length)) == USBH_OK)
 168:Middlewares/ST/STM32_USB_Host_Library/Core/Src/usbh_ctlreq.c ****   {
 169:Middlewares/ST/STM32_USB_Host_Library/Core/Src/usbh_ctlreq.c ****     /* Commands successfully sent and Response Received  */
 170:Middlewares/ST/STM32_USB_Host_Library/Core/Src/usbh_ctlreq.c ****     USBH_ParseStringDesc(phost->device.Data, buff, length);
 171:Middlewares/ST/STM32_USB_Host_Library/Core/Src/usbh_ctlreq.c ****   }
 172:Middlewares/ST/STM32_USB_Host_Library/Core/Src/usbh_ctlreq.c **** 
 173:Middlewares/ST/STM32_USB_Host_Library/Core/Src/usbh_ctlreq.c ****   return status;
 174:Middlewares/ST/STM32_USB_Host_Library/Core/Src/usbh_ctlreq.c **** }
 175:Middlewares/ST/STM32_USB_Host_Library/Core/Src/usbh_ctlreq.c **** 
 176:Middlewares/ST/STM32_USB_Host_Library/Core/Src/usbh_ctlreq.c **** 
 177:Middlewares/ST/STM32_USB_Host_Library/Core/Src/usbh_ctlreq.c **** /**
 178:Middlewares/ST/STM32_USB_Host_Library/Core/Src/usbh_ctlreq.c ****   * @brief  USBH_GetDescriptor
 179:Middlewares/ST/STM32_USB_Host_Library/Core/Src/usbh_ctlreq.c ****   *         Issues Descriptor command to the device. Once the response received,
 180:Middlewares/ST/STM32_USB_Host_Library/Core/Src/usbh_ctlreq.c ****   *         it parses the descriptor and updates the status.
 181:Middlewares/ST/STM32_USB_Host_Library/Core/Src/usbh_ctlreq.c ****   * @param  phost: Host Handle
 182:Middlewares/ST/STM32_USB_Host_Library/Core/Src/usbh_ctlreq.c ****   * @param  req_type: Descriptor type
 183:Middlewares/ST/STM32_USB_Host_Library/Core/Src/usbh_ctlreq.c ****   * @param  value_idx: Value for the GetDescriptr request
 184:Middlewares/ST/STM32_USB_Host_Library/Core/Src/usbh_ctlreq.c ****   * @param  buff: Buffer to store the descriptor
 185:Middlewares/ST/STM32_USB_Host_Library/Core/Src/usbh_ctlreq.c ****   * @param  length: Length of the descriptor
 186:Middlewares/ST/STM32_USB_Host_Library/Core/Src/usbh_ctlreq.c ****   * @retval USBH Status
 187:Middlewares/ST/STM32_USB_Host_Library/Core/Src/usbh_ctlreq.c ****   */
 188:Middlewares/ST/STM32_USB_Host_Library/Core/Src/usbh_ctlreq.c **** USBH_StatusTypeDef USBH_GetDescriptor(USBH_HandleTypeDef *phost,
 189:Middlewares/ST/STM32_USB_Host_Library/Core/Src/usbh_ctlreq.c ****                                       uint8_t  req_type,
 190:Middlewares/ST/STM32_USB_Host_Library/Core/Src/usbh_ctlreq.c ****                                       uint16_t value_idx,
 191:Middlewares/ST/STM32_USB_Host_Library/Core/Src/usbh_ctlreq.c ****                                       uint8_t *buff,
 192:Middlewares/ST/STM32_USB_Host_Library/Core/Src/usbh_ctlreq.c ****                                       uint16_t length)
 193:Middlewares/ST/STM32_USB_Host_Library/Core/Src/usbh_ctlreq.c **** {
 194:Middlewares/ST/STM32_USB_Host_Library/Core/Src/usbh_ctlreq.c ****   if (phost->RequestState == CMD_SEND)
 195:Middlewares/ST/STM32_USB_Host_Library/Core/Src/usbh_ctlreq.c ****   {
 196:Middlewares/ST/STM32_USB_Host_Library/Core/Src/usbh_ctlreq.c ****     phost->Control.setup.b.bmRequestType = USB_D2H | req_type;
 197:Middlewares/ST/STM32_USB_Host_Library/Core/Src/usbh_ctlreq.c ****     phost->Control.setup.b.bRequest = USB_REQ_GET_DESCRIPTOR;
 198:Middlewares/ST/STM32_USB_Host_Library/Core/Src/usbh_ctlreq.c ****     phost->Control.setup.b.wValue.w = value_idx;
 199:Middlewares/ST/STM32_USB_Host_Library/Core/Src/usbh_ctlreq.c **** 
 200:Middlewares/ST/STM32_USB_Host_Library/Core/Src/usbh_ctlreq.c ****     if ((value_idx & 0xff00U) == USB_DESC_STRING)
 201:Middlewares/ST/STM32_USB_Host_Library/Core/Src/usbh_ctlreq.c ****     {
ARM GAS  /tmp/cc785GWs.s 			page 5


 202:Middlewares/ST/STM32_USB_Host_Library/Core/Src/usbh_ctlreq.c ****       phost->Control.setup.b.wIndex.w = 0x0409U;
 203:Middlewares/ST/STM32_USB_Host_Library/Core/Src/usbh_ctlreq.c ****     }
 204:Middlewares/ST/STM32_USB_Host_Library/Core/Src/usbh_ctlreq.c ****     else
 205:Middlewares/ST/STM32_USB_Host_Library/Core/Src/usbh_ctlreq.c ****     {
 206:Middlewares/ST/STM32_USB_Host_Library/Core/Src/usbh_ctlreq.c ****       phost->Control.setup.b.wIndex.w = 0U;
 207:Middlewares/ST/STM32_USB_Host_Library/Core/Src/usbh_ctlreq.c ****     }
 208:Middlewares/ST/STM32_USB_Host_Library/Core/Src/usbh_ctlreq.c ****     phost->Control.setup.b.wLength.w = length;
 209:Middlewares/ST/STM32_USB_Host_Library/Core/Src/usbh_ctlreq.c ****   }
 210:Middlewares/ST/STM32_USB_Host_Library/Core/Src/usbh_ctlreq.c **** 
 211:Middlewares/ST/STM32_USB_Host_Library/Core/Src/usbh_ctlreq.c ****   return USBH_CtlReq(phost, buff, length);
 212:Middlewares/ST/STM32_USB_Host_Library/Core/Src/usbh_ctlreq.c **** }
 213:Middlewares/ST/STM32_USB_Host_Library/Core/Src/usbh_ctlreq.c **** 
 214:Middlewares/ST/STM32_USB_Host_Library/Core/Src/usbh_ctlreq.c **** 
 215:Middlewares/ST/STM32_USB_Host_Library/Core/Src/usbh_ctlreq.c **** /**
 216:Middlewares/ST/STM32_USB_Host_Library/Core/Src/usbh_ctlreq.c ****   * @brief  USBH_SetAddress
 217:Middlewares/ST/STM32_USB_Host_Library/Core/Src/usbh_ctlreq.c ****   *         This command sets the address to the connected device
 218:Middlewares/ST/STM32_USB_Host_Library/Core/Src/usbh_ctlreq.c ****   * @param  phost: Host Handle
 219:Middlewares/ST/STM32_USB_Host_Library/Core/Src/usbh_ctlreq.c ****   * @param  DeviceAddress: Device address to assign
 220:Middlewares/ST/STM32_USB_Host_Library/Core/Src/usbh_ctlreq.c ****   * @retval USBH Status
 221:Middlewares/ST/STM32_USB_Host_Library/Core/Src/usbh_ctlreq.c ****   */
 222:Middlewares/ST/STM32_USB_Host_Library/Core/Src/usbh_ctlreq.c **** USBH_StatusTypeDef USBH_SetAddress(USBH_HandleTypeDef *phost,
 223:Middlewares/ST/STM32_USB_Host_Library/Core/Src/usbh_ctlreq.c ****                                    uint8_t DeviceAddress)
 224:Middlewares/ST/STM32_USB_Host_Library/Core/Src/usbh_ctlreq.c **** {
 225:Middlewares/ST/STM32_USB_Host_Library/Core/Src/usbh_ctlreq.c ****   if (phost->RequestState == CMD_SEND)
 226:Middlewares/ST/STM32_USB_Host_Library/Core/Src/usbh_ctlreq.c ****   {
 227:Middlewares/ST/STM32_USB_Host_Library/Core/Src/usbh_ctlreq.c ****     phost->Control.setup.b.bmRequestType = USB_H2D | USB_REQ_RECIPIENT_DEVICE | \
 228:Middlewares/ST/STM32_USB_Host_Library/Core/Src/usbh_ctlreq.c ****                                            USB_REQ_TYPE_STANDARD;
 229:Middlewares/ST/STM32_USB_Host_Library/Core/Src/usbh_ctlreq.c **** 
 230:Middlewares/ST/STM32_USB_Host_Library/Core/Src/usbh_ctlreq.c ****     phost->Control.setup.b.bRequest = USB_REQ_SET_ADDRESS;
 231:Middlewares/ST/STM32_USB_Host_Library/Core/Src/usbh_ctlreq.c **** 
 232:Middlewares/ST/STM32_USB_Host_Library/Core/Src/usbh_ctlreq.c ****     phost->Control.setup.b.wValue.w = (uint16_t)DeviceAddress;
 233:Middlewares/ST/STM32_USB_Host_Library/Core/Src/usbh_ctlreq.c ****     phost->Control.setup.b.wIndex.w = 0U;
 234:Middlewares/ST/STM32_USB_Host_Library/Core/Src/usbh_ctlreq.c ****     phost->Control.setup.b.wLength.w = 0U;
 235:Middlewares/ST/STM32_USB_Host_Library/Core/Src/usbh_ctlreq.c ****   }
 236:Middlewares/ST/STM32_USB_Host_Library/Core/Src/usbh_ctlreq.c **** 
 237:Middlewares/ST/STM32_USB_Host_Library/Core/Src/usbh_ctlreq.c ****   return USBH_CtlReq(phost, 0U, 0U);
 238:Middlewares/ST/STM32_USB_Host_Library/Core/Src/usbh_ctlreq.c **** }
 239:Middlewares/ST/STM32_USB_Host_Library/Core/Src/usbh_ctlreq.c **** 
 240:Middlewares/ST/STM32_USB_Host_Library/Core/Src/usbh_ctlreq.c **** 
 241:Middlewares/ST/STM32_USB_Host_Library/Core/Src/usbh_ctlreq.c **** /**
 242:Middlewares/ST/STM32_USB_Host_Library/Core/Src/usbh_ctlreq.c ****   * @brief  USBH_SetCfg
 243:Middlewares/ST/STM32_USB_Host_Library/Core/Src/usbh_ctlreq.c ****   *         The command sets the configuration value to the connected device
 244:Middlewares/ST/STM32_USB_Host_Library/Core/Src/usbh_ctlreq.c ****   * @param  phost: Host Handle
 245:Middlewares/ST/STM32_USB_Host_Library/Core/Src/usbh_ctlreq.c ****   * @param  cfg_idx: Configuration value
 246:Middlewares/ST/STM32_USB_Host_Library/Core/Src/usbh_ctlreq.c ****   * @retval USBH Status
 247:Middlewares/ST/STM32_USB_Host_Library/Core/Src/usbh_ctlreq.c ****   */
 248:Middlewares/ST/STM32_USB_Host_Library/Core/Src/usbh_ctlreq.c **** USBH_StatusTypeDef USBH_SetCfg(USBH_HandleTypeDef *phost, uint16_t cfg_idx)
 249:Middlewares/ST/STM32_USB_Host_Library/Core/Src/usbh_ctlreq.c **** {
 250:Middlewares/ST/STM32_USB_Host_Library/Core/Src/usbh_ctlreq.c ****   if (phost->RequestState == CMD_SEND)
 251:Middlewares/ST/STM32_USB_Host_Library/Core/Src/usbh_ctlreq.c ****   {
 252:Middlewares/ST/STM32_USB_Host_Library/Core/Src/usbh_ctlreq.c ****     phost->Control.setup.b.bmRequestType = USB_H2D | USB_REQ_RECIPIENT_DEVICE
 253:Middlewares/ST/STM32_USB_Host_Library/Core/Src/usbh_ctlreq.c ****                                            | USB_REQ_TYPE_STANDARD;
 254:Middlewares/ST/STM32_USB_Host_Library/Core/Src/usbh_ctlreq.c **** 
 255:Middlewares/ST/STM32_USB_Host_Library/Core/Src/usbh_ctlreq.c ****     phost->Control.setup.b.bRequest = USB_REQ_SET_CONFIGURATION;
 256:Middlewares/ST/STM32_USB_Host_Library/Core/Src/usbh_ctlreq.c ****     phost->Control.setup.b.wValue.w = cfg_idx;
 257:Middlewares/ST/STM32_USB_Host_Library/Core/Src/usbh_ctlreq.c ****     phost->Control.setup.b.wIndex.w = 0U;
 258:Middlewares/ST/STM32_USB_Host_Library/Core/Src/usbh_ctlreq.c ****     phost->Control.setup.b.wLength.w = 0U;
ARM GAS  /tmp/cc785GWs.s 			page 6


 259:Middlewares/ST/STM32_USB_Host_Library/Core/Src/usbh_ctlreq.c ****   }
 260:Middlewares/ST/STM32_USB_Host_Library/Core/Src/usbh_ctlreq.c **** 
 261:Middlewares/ST/STM32_USB_Host_Library/Core/Src/usbh_ctlreq.c ****   return USBH_CtlReq(phost, 0U, 0U);
 262:Middlewares/ST/STM32_USB_Host_Library/Core/Src/usbh_ctlreq.c **** }
 263:Middlewares/ST/STM32_USB_Host_Library/Core/Src/usbh_ctlreq.c **** 
 264:Middlewares/ST/STM32_USB_Host_Library/Core/Src/usbh_ctlreq.c **** 
 265:Middlewares/ST/STM32_USB_Host_Library/Core/Src/usbh_ctlreq.c **** /**
 266:Middlewares/ST/STM32_USB_Host_Library/Core/Src/usbh_ctlreq.c ****   * @brief  USBH_SetInterface
 267:Middlewares/ST/STM32_USB_Host_Library/Core/Src/usbh_ctlreq.c ****   *         The command sets the Interface value to the connected device
 268:Middlewares/ST/STM32_USB_Host_Library/Core/Src/usbh_ctlreq.c ****   * @param  phost: Host Handle
 269:Middlewares/ST/STM32_USB_Host_Library/Core/Src/usbh_ctlreq.c ****   * @param  altSetting: Interface value
 270:Middlewares/ST/STM32_USB_Host_Library/Core/Src/usbh_ctlreq.c ****   * @retval USBH Status
 271:Middlewares/ST/STM32_USB_Host_Library/Core/Src/usbh_ctlreq.c ****   */
 272:Middlewares/ST/STM32_USB_Host_Library/Core/Src/usbh_ctlreq.c **** USBH_StatusTypeDef USBH_SetInterface(USBH_HandleTypeDef *phost, uint8_t ep_num,
 273:Middlewares/ST/STM32_USB_Host_Library/Core/Src/usbh_ctlreq.c ****                                      uint8_t altSetting)
 274:Middlewares/ST/STM32_USB_Host_Library/Core/Src/usbh_ctlreq.c **** {
 275:Middlewares/ST/STM32_USB_Host_Library/Core/Src/usbh_ctlreq.c ****   if (phost->RequestState == CMD_SEND)
 276:Middlewares/ST/STM32_USB_Host_Library/Core/Src/usbh_ctlreq.c ****   {
 277:Middlewares/ST/STM32_USB_Host_Library/Core/Src/usbh_ctlreq.c ****     phost->Control.setup.b.bmRequestType = USB_H2D | USB_REQ_RECIPIENT_INTERFACE
 278:Middlewares/ST/STM32_USB_Host_Library/Core/Src/usbh_ctlreq.c ****                                            | USB_REQ_TYPE_STANDARD;
 279:Middlewares/ST/STM32_USB_Host_Library/Core/Src/usbh_ctlreq.c **** 
 280:Middlewares/ST/STM32_USB_Host_Library/Core/Src/usbh_ctlreq.c ****     phost->Control.setup.b.bRequest = USB_REQ_SET_INTERFACE;
 281:Middlewares/ST/STM32_USB_Host_Library/Core/Src/usbh_ctlreq.c ****     phost->Control.setup.b.wValue.w = altSetting;
 282:Middlewares/ST/STM32_USB_Host_Library/Core/Src/usbh_ctlreq.c ****     phost->Control.setup.b.wIndex.w = ep_num;
 283:Middlewares/ST/STM32_USB_Host_Library/Core/Src/usbh_ctlreq.c ****     phost->Control.setup.b.wLength.w = 0U;
 284:Middlewares/ST/STM32_USB_Host_Library/Core/Src/usbh_ctlreq.c ****   }
 285:Middlewares/ST/STM32_USB_Host_Library/Core/Src/usbh_ctlreq.c **** 
 286:Middlewares/ST/STM32_USB_Host_Library/Core/Src/usbh_ctlreq.c ****   return USBH_CtlReq(phost, 0U, 0U);
 287:Middlewares/ST/STM32_USB_Host_Library/Core/Src/usbh_ctlreq.c **** }
 288:Middlewares/ST/STM32_USB_Host_Library/Core/Src/usbh_ctlreq.c **** 
 289:Middlewares/ST/STM32_USB_Host_Library/Core/Src/usbh_ctlreq.c **** 
 290:Middlewares/ST/STM32_USB_Host_Library/Core/Src/usbh_ctlreq.c **** /**
 291:Middlewares/ST/STM32_USB_Host_Library/Core/Src/usbh_ctlreq.c ****   * @brief  USBH_SetFeature
 292:Middlewares/ST/STM32_USB_Host_Library/Core/Src/usbh_ctlreq.c ****   *         The command sets the device features (remote wakeup feature,..)
 293:Middlewares/ST/STM32_USB_Host_Library/Core/Src/usbh_ctlreq.c ****   * @param  pdev: Selected device
 294:Middlewares/ST/STM32_USB_Host_Library/Core/Src/usbh_ctlreq.c ****   * @param  itf_idx
 295:Middlewares/ST/STM32_USB_Host_Library/Core/Src/usbh_ctlreq.c ****   * @retval Status
 296:Middlewares/ST/STM32_USB_Host_Library/Core/Src/usbh_ctlreq.c **** */
 297:Middlewares/ST/STM32_USB_Host_Library/Core/Src/usbh_ctlreq.c **** USBH_StatusTypeDef USBH_SetFeature(USBH_HandleTypeDef *phost, uint8_t wValue)
 298:Middlewares/ST/STM32_USB_Host_Library/Core/Src/usbh_ctlreq.c **** {
 299:Middlewares/ST/STM32_USB_Host_Library/Core/Src/usbh_ctlreq.c ****   if (phost->RequestState == CMD_SEND)
 300:Middlewares/ST/STM32_USB_Host_Library/Core/Src/usbh_ctlreq.c ****   {
 301:Middlewares/ST/STM32_USB_Host_Library/Core/Src/usbh_ctlreq.c ****     phost->Control.setup.b.bmRequestType = USB_H2D | USB_REQ_RECIPIENT_DEVICE
 302:Middlewares/ST/STM32_USB_Host_Library/Core/Src/usbh_ctlreq.c ****                                            | USB_REQ_TYPE_STANDARD;
 303:Middlewares/ST/STM32_USB_Host_Library/Core/Src/usbh_ctlreq.c **** 
 304:Middlewares/ST/STM32_USB_Host_Library/Core/Src/usbh_ctlreq.c ****     phost->Control.setup.b.bRequest = USB_REQ_SET_FEATURE;
 305:Middlewares/ST/STM32_USB_Host_Library/Core/Src/usbh_ctlreq.c ****     phost->Control.setup.b.wValue.w = wValue;
 306:Middlewares/ST/STM32_USB_Host_Library/Core/Src/usbh_ctlreq.c ****     phost->Control.setup.b.wIndex.w = 0U;
 307:Middlewares/ST/STM32_USB_Host_Library/Core/Src/usbh_ctlreq.c ****     phost->Control.setup.b.wLength.w = 0U;
 308:Middlewares/ST/STM32_USB_Host_Library/Core/Src/usbh_ctlreq.c ****   }
 309:Middlewares/ST/STM32_USB_Host_Library/Core/Src/usbh_ctlreq.c **** 
 310:Middlewares/ST/STM32_USB_Host_Library/Core/Src/usbh_ctlreq.c ****   return USBH_CtlReq(phost, 0U, 0U);
 311:Middlewares/ST/STM32_USB_Host_Library/Core/Src/usbh_ctlreq.c **** }
 312:Middlewares/ST/STM32_USB_Host_Library/Core/Src/usbh_ctlreq.c **** 
 313:Middlewares/ST/STM32_USB_Host_Library/Core/Src/usbh_ctlreq.c **** 
 314:Middlewares/ST/STM32_USB_Host_Library/Core/Src/usbh_ctlreq.c **** /**
 315:Middlewares/ST/STM32_USB_Host_Library/Core/Src/usbh_ctlreq.c ****   * @brief  USBH_ClrFeature
ARM GAS  /tmp/cc785GWs.s 			page 7


 316:Middlewares/ST/STM32_USB_Host_Library/Core/Src/usbh_ctlreq.c ****   *         This request is used to clear or disable a specific feature.
 317:Middlewares/ST/STM32_USB_Host_Library/Core/Src/usbh_ctlreq.c ****   * @param  phost: Host Handle
 318:Middlewares/ST/STM32_USB_Host_Library/Core/Src/usbh_ctlreq.c ****   * @param  ep_num: endpoint number
 319:Middlewares/ST/STM32_USB_Host_Library/Core/Src/usbh_ctlreq.c ****   * @param  hc_num: Host channel number
 320:Middlewares/ST/STM32_USB_Host_Library/Core/Src/usbh_ctlreq.c ****   * @retval USBH Status
 321:Middlewares/ST/STM32_USB_Host_Library/Core/Src/usbh_ctlreq.c ****   */
 322:Middlewares/ST/STM32_USB_Host_Library/Core/Src/usbh_ctlreq.c **** USBH_StatusTypeDef USBH_ClrFeature(USBH_HandleTypeDef *phost, uint8_t ep_num)
 323:Middlewares/ST/STM32_USB_Host_Library/Core/Src/usbh_ctlreq.c **** {
 324:Middlewares/ST/STM32_USB_Host_Library/Core/Src/usbh_ctlreq.c ****   if (phost->RequestState == CMD_SEND)
 325:Middlewares/ST/STM32_USB_Host_Library/Core/Src/usbh_ctlreq.c ****   {
 326:Middlewares/ST/STM32_USB_Host_Library/Core/Src/usbh_ctlreq.c ****     phost->Control.setup.b.bmRequestType = USB_H2D | USB_REQ_RECIPIENT_ENDPOINT
 327:Middlewares/ST/STM32_USB_Host_Library/Core/Src/usbh_ctlreq.c ****                                            | USB_REQ_TYPE_STANDARD;
 328:Middlewares/ST/STM32_USB_Host_Library/Core/Src/usbh_ctlreq.c **** 
 329:Middlewares/ST/STM32_USB_Host_Library/Core/Src/usbh_ctlreq.c ****     phost->Control.setup.b.bRequest = USB_REQ_CLEAR_FEATURE;
 330:Middlewares/ST/STM32_USB_Host_Library/Core/Src/usbh_ctlreq.c ****     phost->Control.setup.b.wValue.w = FEATURE_SELECTOR_ENDPOINT;
 331:Middlewares/ST/STM32_USB_Host_Library/Core/Src/usbh_ctlreq.c ****     phost->Control.setup.b.wIndex.w = ep_num;
 332:Middlewares/ST/STM32_USB_Host_Library/Core/Src/usbh_ctlreq.c ****     phost->Control.setup.b.wLength.w = 0U;
 333:Middlewares/ST/STM32_USB_Host_Library/Core/Src/usbh_ctlreq.c ****   }
 334:Middlewares/ST/STM32_USB_Host_Library/Core/Src/usbh_ctlreq.c ****   return USBH_CtlReq(phost, 0U, 0U);
 335:Middlewares/ST/STM32_USB_Host_Library/Core/Src/usbh_ctlreq.c **** }
 336:Middlewares/ST/STM32_USB_Host_Library/Core/Src/usbh_ctlreq.c **** 
 337:Middlewares/ST/STM32_USB_Host_Library/Core/Src/usbh_ctlreq.c **** 
 338:Middlewares/ST/STM32_USB_Host_Library/Core/Src/usbh_ctlreq.c **** /**
 339:Middlewares/ST/STM32_USB_Host_Library/Core/Src/usbh_ctlreq.c ****   * @brief  USBH_ParseDevDesc
 340:Middlewares/ST/STM32_USB_Host_Library/Core/Src/usbh_ctlreq.c ****   *         This function Parses the device descriptor
 341:Middlewares/ST/STM32_USB_Host_Library/Core/Src/usbh_ctlreq.c ****   * @param  dev_desc: device_descriptor destination address
 342:Middlewares/ST/STM32_USB_Host_Library/Core/Src/usbh_ctlreq.c ****   * @param  buf: Buffer where the source descriptor is available
 343:Middlewares/ST/STM32_USB_Host_Library/Core/Src/usbh_ctlreq.c ****   * @param  length: Length of the descriptor
 344:Middlewares/ST/STM32_USB_Host_Library/Core/Src/usbh_ctlreq.c ****   * @retval None
 345:Middlewares/ST/STM32_USB_Host_Library/Core/Src/usbh_ctlreq.c ****   */
 346:Middlewares/ST/STM32_USB_Host_Library/Core/Src/usbh_ctlreq.c **** static void  USBH_ParseDevDesc(USBH_DevDescTypeDef *dev_desc, uint8_t *buf,
 347:Middlewares/ST/STM32_USB_Host_Library/Core/Src/usbh_ctlreq.c ****                                uint16_t length)
 348:Middlewares/ST/STM32_USB_Host_Library/Core/Src/usbh_ctlreq.c **** {
  29              		.loc 1 348 1 view -0
  30              		.cfi_startproc
  31              		@ args = 0, pretend = 0, frame = 0
  32              		@ frame_needed = 0, uses_anonymous_args = 0
  33              		@ link register save eliminated.
 349:Middlewares/ST/STM32_USB_Host_Library/Core/Src/usbh_ctlreq.c ****   dev_desc->bLength            = *(uint8_t *)(buf +  0);
  34              		.loc 1 349 3 view .LVU1
  35              		.loc 1 349 34 is_stmt 0 view .LVU2
  36 0000 0B78     		ldrb	r3, [r1]	@ zero_extendqisi2
  37              		.loc 1 349 32 view .LVU3
  38 0002 0370     		strb	r3, [r0]
 350:Middlewares/ST/STM32_USB_Host_Library/Core/Src/usbh_ctlreq.c ****   dev_desc->bDescriptorType    = *(uint8_t *)(buf +  1);
  39              		.loc 1 350 3 is_stmt 1 view .LVU4
  40              		.loc 1 350 32 is_stmt 0 view .LVU5
  41 0004 4B78     		ldrb	r3, [r1, #1]	@ zero_extendqisi2
  42 0006 4370     		strb	r3, [r0, #1]
 351:Middlewares/ST/STM32_USB_Host_Library/Core/Src/usbh_ctlreq.c ****   dev_desc->bcdUSB             = LE16(buf +  2);
  43              		.loc 1 351 3 is_stmt 1 view .LVU6
  44              		.loc 1 351 34 is_stmt 0 view .LVU7
  45 0008 8B78     		ldrb	r3, [r1, #2]	@ zero_extendqisi2
  46 000a 91F803C0 		ldrb	ip, [r1, #3]	@ zero_extendqisi2
  47 000e 43EA0C23 		orr	r3, r3, ip, lsl #8
  48              		.loc 1 351 32 view .LVU8
  49 0012 4380     		strh	r3, [r0, #2]	@ movhi
ARM GAS  /tmp/cc785GWs.s 			page 8


 352:Middlewares/ST/STM32_USB_Host_Library/Core/Src/usbh_ctlreq.c ****   dev_desc->bDeviceClass       = *(uint8_t *)(buf +  4);
  50              		.loc 1 352 3 is_stmt 1 view .LVU9
  51              		.loc 1 352 32 is_stmt 0 view .LVU10
  52 0014 0B79     		ldrb	r3, [r1, #4]	@ zero_extendqisi2
  53 0016 0371     		strb	r3, [r0, #4]
 353:Middlewares/ST/STM32_USB_Host_Library/Core/Src/usbh_ctlreq.c ****   dev_desc->bDeviceSubClass    = *(uint8_t *)(buf +  5);
  54              		.loc 1 353 3 is_stmt 1 view .LVU11
  55              		.loc 1 353 32 is_stmt 0 view .LVU12
  56 0018 4B79     		ldrb	r3, [r1, #5]	@ zero_extendqisi2
  57 001a 4371     		strb	r3, [r0, #5]
 354:Middlewares/ST/STM32_USB_Host_Library/Core/Src/usbh_ctlreq.c ****   dev_desc->bDeviceProtocol    = *(uint8_t *)(buf +  6);
  58              		.loc 1 354 3 is_stmt 1 view .LVU13
  59              		.loc 1 354 32 is_stmt 0 view .LVU14
  60 001c 8B79     		ldrb	r3, [r1, #6]	@ zero_extendqisi2
  61 001e 8371     		strb	r3, [r0, #6]
 355:Middlewares/ST/STM32_USB_Host_Library/Core/Src/usbh_ctlreq.c ****   dev_desc->bMaxPacketSize     = *(uint8_t *)(buf +  7);
  62              		.loc 1 355 3 is_stmt 1 view .LVU15
  63              		.loc 1 355 32 is_stmt 0 view .LVU16
  64 0020 CB79     		ldrb	r3, [r1, #7]	@ zero_extendqisi2
  65 0022 C371     		strb	r3, [r0, #7]
 356:Middlewares/ST/STM32_USB_Host_Library/Core/Src/usbh_ctlreq.c **** 
 357:Middlewares/ST/STM32_USB_Host_Library/Core/Src/usbh_ctlreq.c ****   if (length > 8U)
  66              		.loc 1 357 3 is_stmt 1 view .LVU17
  67              		.loc 1 357 6 is_stmt 0 view .LVU18
  68 0024 082A     		cmp	r2, #8
  69 0026 16D9     		bls	.L1
 358:Middlewares/ST/STM32_USB_Host_Library/Core/Src/usbh_ctlreq.c ****   {
 359:Middlewares/ST/STM32_USB_Host_Library/Core/Src/usbh_ctlreq.c ****     /* For 1st time after device connection, Host may issue only 8 bytes for
 360:Middlewares/ST/STM32_USB_Host_Library/Core/Src/usbh_ctlreq.c ****     Device Descriptor Length  */
 361:Middlewares/ST/STM32_USB_Host_Library/Core/Src/usbh_ctlreq.c ****     dev_desc->idVendor           = LE16(buf +  8);
  70              		.loc 1 361 5 is_stmt 1 view .LVU19
  71              		.loc 1 361 36 is_stmt 0 view .LVU20
  72 0028 0B7A     		ldrb	r3, [r1, #8]	@ zero_extendqisi2
  73 002a 4A7A     		ldrb	r2, [r1, #9]	@ zero_extendqisi2
  74              	.LVL1:
  75              		.loc 1 361 36 view .LVU21
  76 002c 43EA0223 		orr	r3, r3, r2, lsl #8
  77              		.loc 1 361 34 view .LVU22
  78 0030 0381     		strh	r3, [r0, #8]	@ movhi
 362:Middlewares/ST/STM32_USB_Host_Library/Core/Src/usbh_ctlreq.c ****     dev_desc->idProduct          = LE16(buf + 10);
  79              		.loc 1 362 5 is_stmt 1 view .LVU23
  80              		.loc 1 362 36 is_stmt 0 view .LVU24
  81 0032 8B7A     		ldrb	r3, [r1, #10]	@ zero_extendqisi2
  82 0034 CA7A     		ldrb	r2, [r1, #11]	@ zero_extendqisi2
  83 0036 43EA0223 		orr	r3, r3, r2, lsl #8
  84              		.loc 1 362 34 view .LVU25
  85 003a 4381     		strh	r3, [r0, #10]	@ movhi
 363:Middlewares/ST/STM32_USB_Host_Library/Core/Src/usbh_ctlreq.c ****     dev_desc->bcdDevice          = LE16(buf + 12);
  86              		.loc 1 363 5 is_stmt 1 view .LVU26
  87              		.loc 1 363 36 is_stmt 0 view .LVU27
  88 003c 0B7B     		ldrb	r3, [r1, #12]	@ zero_extendqisi2
  89 003e 4A7B     		ldrb	r2, [r1, #13]	@ zero_extendqisi2
  90 0040 43EA0223 		orr	r3, r3, r2, lsl #8
  91              		.loc 1 363 34 view .LVU28
  92 0044 8381     		strh	r3, [r0, #12]	@ movhi
 364:Middlewares/ST/STM32_USB_Host_Library/Core/Src/usbh_ctlreq.c ****     dev_desc->iManufacturer      = *(uint8_t *)(buf + 14);
  93              		.loc 1 364 5 is_stmt 1 view .LVU29
ARM GAS  /tmp/cc785GWs.s 			page 9


  94              		.loc 1 364 34 is_stmt 0 view .LVU30
  95 0046 8B7B     		ldrb	r3, [r1, #14]	@ zero_extendqisi2
  96 0048 8373     		strb	r3, [r0, #14]
 365:Middlewares/ST/STM32_USB_Host_Library/Core/Src/usbh_ctlreq.c ****     dev_desc->iProduct           = *(uint8_t *)(buf + 15);
  97              		.loc 1 365 5 is_stmt 1 view .LVU31
  98              		.loc 1 365 34 is_stmt 0 view .LVU32
  99 004a CB7B     		ldrb	r3, [r1, #15]	@ zero_extendqisi2
 100 004c C373     		strb	r3, [r0, #15]
 366:Middlewares/ST/STM32_USB_Host_Library/Core/Src/usbh_ctlreq.c ****     dev_desc->iSerialNumber      = *(uint8_t *)(buf + 16);
 101              		.loc 1 366 5 is_stmt 1 view .LVU33
 102              		.loc 1 366 34 is_stmt 0 view .LVU34
 103 004e 0B7C     		ldrb	r3, [r1, #16]	@ zero_extendqisi2
 104 0050 0374     		strb	r3, [r0, #16]
 367:Middlewares/ST/STM32_USB_Host_Library/Core/Src/usbh_ctlreq.c ****     dev_desc->bNumConfigurations = *(uint8_t *)(buf + 17);
 105              		.loc 1 367 5 is_stmt 1 view .LVU35
 106              		.loc 1 367 34 is_stmt 0 view .LVU36
 107 0052 4B7C     		ldrb	r3, [r1, #17]	@ zero_extendqisi2
 108 0054 4374     		strb	r3, [r0, #17]
 109              	.L1:
 368:Middlewares/ST/STM32_USB_Host_Library/Core/Src/usbh_ctlreq.c ****   }
 369:Middlewares/ST/STM32_USB_Host_Library/Core/Src/usbh_ctlreq.c **** }
 110              		.loc 1 369 1 view .LVU37
 111 0056 7047     		bx	lr
 112              		.cfi_endproc
 113              	.LFE147:
 115              		.section	.text.USBH_ParseInterfaceDesc,"ax",%progbits
 116              		.align	1
 117              		.syntax unified
 118              		.thumb
 119              		.thumb_func
 121              	USBH_ParseInterfaceDesc:
 122              	.LVL2:
 123              	.LFB149:
 370:Middlewares/ST/STM32_USB_Host_Library/Core/Src/usbh_ctlreq.c **** 
 371:Middlewares/ST/STM32_USB_Host_Library/Core/Src/usbh_ctlreq.c **** 
 372:Middlewares/ST/STM32_USB_Host_Library/Core/Src/usbh_ctlreq.c **** /**
 373:Middlewares/ST/STM32_USB_Host_Library/Core/Src/usbh_ctlreq.c ****   * @brief  USBH_ParseCfgDesc
 374:Middlewares/ST/STM32_USB_Host_Library/Core/Src/usbh_ctlreq.c ****   *         This function Parses the configuration descriptor
 375:Middlewares/ST/STM32_USB_Host_Library/Core/Src/usbh_ctlreq.c ****   * @param  cfg_desc: Configuration Descriptor address
 376:Middlewares/ST/STM32_USB_Host_Library/Core/Src/usbh_ctlreq.c ****   * @param  buf: Buffer where the source descriptor is available
 377:Middlewares/ST/STM32_USB_Host_Library/Core/Src/usbh_ctlreq.c ****   * @param  length: Length of the descriptor
 378:Middlewares/ST/STM32_USB_Host_Library/Core/Src/usbh_ctlreq.c ****   * @retval None
 379:Middlewares/ST/STM32_USB_Host_Library/Core/Src/usbh_ctlreq.c ****   */
 380:Middlewares/ST/STM32_USB_Host_Library/Core/Src/usbh_ctlreq.c **** static void USBH_ParseCfgDesc(USBH_CfgDescTypeDef *cfg_desc, uint8_t *buf,
 381:Middlewares/ST/STM32_USB_Host_Library/Core/Src/usbh_ctlreq.c ****                               uint16_t length)
 382:Middlewares/ST/STM32_USB_Host_Library/Core/Src/usbh_ctlreq.c **** {
 383:Middlewares/ST/STM32_USB_Host_Library/Core/Src/usbh_ctlreq.c ****   USBH_InterfaceDescTypeDef    *pif ;
 384:Middlewares/ST/STM32_USB_Host_Library/Core/Src/usbh_ctlreq.c ****   USBH_EpDescTypeDef           *pep;
 385:Middlewares/ST/STM32_USB_Host_Library/Core/Src/usbh_ctlreq.c ****   USBH_DescHeader_t            *pdesc = (USBH_DescHeader_t *)(void *)buf;
 386:Middlewares/ST/STM32_USB_Host_Library/Core/Src/usbh_ctlreq.c ****   uint16_t                     ptr;
 387:Middlewares/ST/STM32_USB_Host_Library/Core/Src/usbh_ctlreq.c ****   uint8_t                      if_ix = 0U;
 388:Middlewares/ST/STM32_USB_Host_Library/Core/Src/usbh_ctlreq.c ****   uint8_t                      ep_ix = 0U;
 389:Middlewares/ST/STM32_USB_Host_Library/Core/Src/usbh_ctlreq.c **** 
 390:Middlewares/ST/STM32_USB_Host_Library/Core/Src/usbh_ctlreq.c ****   pdesc   = (USBH_DescHeader_t *)(void *)buf;
 391:Middlewares/ST/STM32_USB_Host_Library/Core/Src/usbh_ctlreq.c **** 
 392:Middlewares/ST/STM32_USB_Host_Library/Core/Src/usbh_ctlreq.c ****   /* Parse configuration descriptor */
 393:Middlewares/ST/STM32_USB_Host_Library/Core/Src/usbh_ctlreq.c ****   cfg_desc->bLength             = *(uint8_t *)(buf + 0);
ARM GAS  /tmp/cc785GWs.s 			page 10


 394:Middlewares/ST/STM32_USB_Host_Library/Core/Src/usbh_ctlreq.c ****   cfg_desc->bDescriptorType     = *(uint8_t *)(buf + 1);
 395:Middlewares/ST/STM32_USB_Host_Library/Core/Src/usbh_ctlreq.c ****   cfg_desc->wTotalLength        = LE16(buf + 2);
 396:Middlewares/ST/STM32_USB_Host_Library/Core/Src/usbh_ctlreq.c ****   cfg_desc->bNumInterfaces      = *(uint8_t *)(buf + 4);
 397:Middlewares/ST/STM32_USB_Host_Library/Core/Src/usbh_ctlreq.c ****   cfg_desc->bConfigurationValue = *(uint8_t *)(buf + 5);
 398:Middlewares/ST/STM32_USB_Host_Library/Core/Src/usbh_ctlreq.c ****   cfg_desc->iConfiguration      = *(uint8_t *)(buf + 6);
 399:Middlewares/ST/STM32_USB_Host_Library/Core/Src/usbh_ctlreq.c ****   cfg_desc->bmAttributes        = *(uint8_t *)(buf + 7);
 400:Middlewares/ST/STM32_USB_Host_Library/Core/Src/usbh_ctlreq.c ****   cfg_desc->bMaxPower           = *(uint8_t *)(buf + 8);
 401:Middlewares/ST/STM32_USB_Host_Library/Core/Src/usbh_ctlreq.c **** 
 402:Middlewares/ST/STM32_USB_Host_Library/Core/Src/usbh_ctlreq.c ****   if (length > USB_CONFIGURATION_DESC_SIZE)
 403:Middlewares/ST/STM32_USB_Host_Library/Core/Src/usbh_ctlreq.c ****   {
 404:Middlewares/ST/STM32_USB_Host_Library/Core/Src/usbh_ctlreq.c ****     ptr = USB_LEN_CFG_DESC;
 405:Middlewares/ST/STM32_USB_Host_Library/Core/Src/usbh_ctlreq.c ****     pif = (USBH_InterfaceDescTypeDef *)0;
 406:Middlewares/ST/STM32_USB_Host_Library/Core/Src/usbh_ctlreq.c **** 
 407:Middlewares/ST/STM32_USB_Host_Library/Core/Src/usbh_ctlreq.c ****     while ((if_ix < USBH_MAX_NUM_INTERFACES) && (ptr < cfg_desc->wTotalLength))
 408:Middlewares/ST/STM32_USB_Host_Library/Core/Src/usbh_ctlreq.c ****     {
 409:Middlewares/ST/STM32_USB_Host_Library/Core/Src/usbh_ctlreq.c ****       pdesc = USBH_GetNextDesc((uint8_t *)(void *)pdesc, &ptr);
 410:Middlewares/ST/STM32_USB_Host_Library/Core/Src/usbh_ctlreq.c ****       if (pdesc->bDescriptorType   == USB_DESC_TYPE_INTERFACE)
 411:Middlewares/ST/STM32_USB_Host_Library/Core/Src/usbh_ctlreq.c ****       {
 412:Middlewares/ST/STM32_USB_Host_Library/Core/Src/usbh_ctlreq.c ****         pif = &cfg_desc->Itf_Desc[if_ix];
 413:Middlewares/ST/STM32_USB_Host_Library/Core/Src/usbh_ctlreq.c ****         USBH_ParseInterfaceDesc(pif, (uint8_t *)(void *)pdesc);
 414:Middlewares/ST/STM32_USB_Host_Library/Core/Src/usbh_ctlreq.c **** 
 415:Middlewares/ST/STM32_USB_Host_Library/Core/Src/usbh_ctlreq.c ****         ep_ix = 0U;
 416:Middlewares/ST/STM32_USB_Host_Library/Core/Src/usbh_ctlreq.c ****         pep = (USBH_EpDescTypeDef *)0;
 417:Middlewares/ST/STM32_USB_Host_Library/Core/Src/usbh_ctlreq.c ****         while ((ep_ix < pif->bNumEndpoints) && (ptr < cfg_desc->wTotalLength))
 418:Middlewares/ST/STM32_USB_Host_Library/Core/Src/usbh_ctlreq.c ****         {
 419:Middlewares/ST/STM32_USB_Host_Library/Core/Src/usbh_ctlreq.c ****           pdesc = USBH_GetNextDesc((uint8_t *)(void *)pdesc, &ptr);
 420:Middlewares/ST/STM32_USB_Host_Library/Core/Src/usbh_ctlreq.c ****           if (pdesc->bDescriptorType   == USB_DESC_TYPE_ENDPOINT)
 421:Middlewares/ST/STM32_USB_Host_Library/Core/Src/usbh_ctlreq.c ****           {
 422:Middlewares/ST/STM32_USB_Host_Library/Core/Src/usbh_ctlreq.c ****             pep = &cfg_desc->Itf_Desc[if_ix].Ep_Desc[ep_ix];
 423:Middlewares/ST/STM32_USB_Host_Library/Core/Src/usbh_ctlreq.c ****             USBH_ParseEPDesc(pep, (uint8_t *)(void *)pdesc);
 424:Middlewares/ST/STM32_USB_Host_Library/Core/Src/usbh_ctlreq.c ****             ep_ix++;
 425:Middlewares/ST/STM32_USB_Host_Library/Core/Src/usbh_ctlreq.c ****           }
 426:Middlewares/ST/STM32_USB_Host_Library/Core/Src/usbh_ctlreq.c ****         }
 427:Middlewares/ST/STM32_USB_Host_Library/Core/Src/usbh_ctlreq.c ****         if_ix++;
 428:Middlewares/ST/STM32_USB_Host_Library/Core/Src/usbh_ctlreq.c ****       }
 429:Middlewares/ST/STM32_USB_Host_Library/Core/Src/usbh_ctlreq.c ****     }
 430:Middlewares/ST/STM32_USB_Host_Library/Core/Src/usbh_ctlreq.c ****   }
 431:Middlewares/ST/STM32_USB_Host_Library/Core/Src/usbh_ctlreq.c **** }
 432:Middlewares/ST/STM32_USB_Host_Library/Core/Src/usbh_ctlreq.c **** 
 433:Middlewares/ST/STM32_USB_Host_Library/Core/Src/usbh_ctlreq.c **** 
 434:Middlewares/ST/STM32_USB_Host_Library/Core/Src/usbh_ctlreq.c **** /**
 435:Middlewares/ST/STM32_USB_Host_Library/Core/Src/usbh_ctlreq.c ****   * @brief  USBH_ParseInterfaceDesc
 436:Middlewares/ST/STM32_USB_Host_Library/Core/Src/usbh_ctlreq.c ****   *         This function Parses the interface descriptor
 437:Middlewares/ST/STM32_USB_Host_Library/Core/Src/usbh_ctlreq.c ****   * @param  if_descriptor : Interface descriptor destination
 438:Middlewares/ST/STM32_USB_Host_Library/Core/Src/usbh_ctlreq.c ****   * @param  buf: Buffer where the descriptor data is available
 439:Middlewares/ST/STM32_USB_Host_Library/Core/Src/usbh_ctlreq.c ****   * @retval None
 440:Middlewares/ST/STM32_USB_Host_Library/Core/Src/usbh_ctlreq.c ****   */
 441:Middlewares/ST/STM32_USB_Host_Library/Core/Src/usbh_ctlreq.c **** static void  USBH_ParseInterfaceDesc(USBH_InterfaceDescTypeDef *if_descriptor,
 442:Middlewares/ST/STM32_USB_Host_Library/Core/Src/usbh_ctlreq.c ****                                      uint8_t *buf)
 443:Middlewares/ST/STM32_USB_Host_Library/Core/Src/usbh_ctlreq.c **** {
 124              		.loc 1 443 1 is_stmt 1 view -0
 125              		.cfi_startproc
 126              		@ args = 0, pretend = 0, frame = 0
 127              		@ frame_needed = 0, uses_anonymous_args = 0
 128              		@ link register save eliminated.
 444:Middlewares/ST/STM32_USB_Host_Library/Core/Src/usbh_ctlreq.c ****   if_descriptor->bLength            = *(uint8_t *)(buf + 0);
 129              		.loc 1 444 3 view .LVU39
ARM GAS  /tmp/cc785GWs.s 			page 11


 130              		.loc 1 444 39 is_stmt 0 view .LVU40
 131 0000 0B78     		ldrb	r3, [r1]	@ zero_extendqisi2
 132              		.loc 1 444 37 view .LVU41
 133 0002 0370     		strb	r3, [r0]
 445:Middlewares/ST/STM32_USB_Host_Library/Core/Src/usbh_ctlreq.c ****   if_descriptor->bDescriptorType    = *(uint8_t *)(buf + 1);
 134              		.loc 1 445 3 is_stmt 1 view .LVU42
 135              		.loc 1 445 37 is_stmt 0 view .LVU43
 136 0004 4B78     		ldrb	r3, [r1, #1]	@ zero_extendqisi2
 137 0006 4370     		strb	r3, [r0, #1]
 446:Middlewares/ST/STM32_USB_Host_Library/Core/Src/usbh_ctlreq.c ****   if_descriptor->bInterfaceNumber   = *(uint8_t *)(buf + 2);
 138              		.loc 1 446 3 is_stmt 1 view .LVU44
 139              		.loc 1 446 37 is_stmt 0 view .LVU45
 140 0008 8B78     		ldrb	r3, [r1, #2]	@ zero_extendqisi2
 141 000a 8370     		strb	r3, [r0, #2]
 447:Middlewares/ST/STM32_USB_Host_Library/Core/Src/usbh_ctlreq.c ****   if_descriptor->bAlternateSetting  = *(uint8_t *)(buf + 3);
 142              		.loc 1 447 3 is_stmt 1 view .LVU46
 143              		.loc 1 447 37 is_stmt 0 view .LVU47
 144 000c CB78     		ldrb	r3, [r1, #3]	@ zero_extendqisi2
 145 000e C370     		strb	r3, [r0, #3]
 448:Middlewares/ST/STM32_USB_Host_Library/Core/Src/usbh_ctlreq.c ****   if_descriptor->bNumEndpoints      = *(uint8_t *)(buf + 4);
 146              		.loc 1 448 3 is_stmt 1 view .LVU48
 147              		.loc 1 448 37 is_stmt 0 view .LVU49
 148 0010 0B79     		ldrb	r3, [r1, #4]	@ zero_extendqisi2
 149 0012 0371     		strb	r3, [r0, #4]
 449:Middlewares/ST/STM32_USB_Host_Library/Core/Src/usbh_ctlreq.c ****   if_descriptor->bInterfaceClass    = *(uint8_t *)(buf + 5);
 150              		.loc 1 449 3 is_stmt 1 view .LVU50
 151              		.loc 1 449 37 is_stmt 0 view .LVU51
 152 0014 4B79     		ldrb	r3, [r1, #5]	@ zero_extendqisi2
 153 0016 4371     		strb	r3, [r0, #5]
 450:Middlewares/ST/STM32_USB_Host_Library/Core/Src/usbh_ctlreq.c ****   if_descriptor->bInterfaceSubClass = *(uint8_t *)(buf + 6);
 154              		.loc 1 450 3 is_stmt 1 view .LVU52
 155              		.loc 1 450 37 is_stmt 0 view .LVU53
 156 0018 8B79     		ldrb	r3, [r1, #6]	@ zero_extendqisi2
 157 001a 8371     		strb	r3, [r0, #6]
 451:Middlewares/ST/STM32_USB_Host_Library/Core/Src/usbh_ctlreq.c ****   if_descriptor->bInterfaceProtocol = *(uint8_t *)(buf + 7);
 158              		.loc 1 451 3 is_stmt 1 view .LVU54
 159              		.loc 1 451 37 is_stmt 0 view .LVU55
 160 001c CB79     		ldrb	r3, [r1, #7]	@ zero_extendqisi2
 161 001e C371     		strb	r3, [r0, #7]
 452:Middlewares/ST/STM32_USB_Host_Library/Core/Src/usbh_ctlreq.c ****   if_descriptor->iInterface         = *(uint8_t *)(buf + 8);
 162              		.loc 1 452 3 is_stmt 1 view .LVU56
 163              		.loc 1 452 37 is_stmt 0 view .LVU57
 164 0020 0B7A     		ldrb	r3, [r1, #8]	@ zero_extendqisi2
 165 0022 0372     		strb	r3, [r0, #8]
 453:Middlewares/ST/STM32_USB_Host_Library/Core/Src/usbh_ctlreq.c **** }
 166              		.loc 1 453 1 view .LVU58
 167 0024 7047     		bx	lr
 168              		.cfi_endproc
 169              	.LFE149:
 171              		.section	.text.USBH_ParseEPDesc,"ax",%progbits
 172              		.align	1
 173              		.syntax unified
 174              		.thumb
 175              		.thumb_func
 177              	USBH_ParseEPDesc:
 178              	.LVL3:
 179              	.LFB150:
ARM GAS  /tmp/cc785GWs.s 			page 12


 454:Middlewares/ST/STM32_USB_Host_Library/Core/Src/usbh_ctlreq.c **** 
 455:Middlewares/ST/STM32_USB_Host_Library/Core/Src/usbh_ctlreq.c **** 
 456:Middlewares/ST/STM32_USB_Host_Library/Core/Src/usbh_ctlreq.c **** /**
 457:Middlewares/ST/STM32_USB_Host_Library/Core/Src/usbh_ctlreq.c ****   * @brief  USBH_ParseEPDesc
 458:Middlewares/ST/STM32_USB_Host_Library/Core/Src/usbh_ctlreq.c ****   *         This function Parses the endpoint descriptor
 459:Middlewares/ST/STM32_USB_Host_Library/Core/Src/usbh_ctlreq.c ****   * @param  ep_descriptor: Endpoint descriptor destination address
 460:Middlewares/ST/STM32_USB_Host_Library/Core/Src/usbh_ctlreq.c ****   * @param  buf: Buffer where the parsed descriptor stored
 461:Middlewares/ST/STM32_USB_Host_Library/Core/Src/usbh_ctlreq.c ****   * @retval None
 462:Middlewares/ST/STM32_USB_Host_Library/Core/Src/usbh_ctlreq.c ****   */
 463:Middlewares/ST/STM32_USB_Host_Library/Core/Src/usbh_ctlreq.c **** static void  USBH_ParseEPDesc(USBH_EpDescTypeDef  *ep_descriptor,
 464:Middlewares/ST/STM32_USB_Host_Library/Core/Src/usbh_ctlreq.c ****                               uint8_t *buf)
 465:Middlewares/ST/STM32_USB_Host_Library/Core/Src/usbh_ctlreq.c **** {
 180              		.loc 1 465 1 is_stmt 1 view -0
 181              		.cfi_startproc
 182              		@ args = 0, pretend = 0, frame = 0
 183              		@ frame_needed = 0, uses_anonymous_args = 0
 184              		@ link register save eliminated.
 466:Middlewares/ST/STM32_USB_Host_Library/Core/Src/usbh_ctlreq.c ****   ep_descriptor->bLength          = *(uint8_t *)(buf + 0);
 185              		.loc 1 466 3 view .LVU60
 186              		.loc 1 466 37 is_stmt 0 view .LVU61
 187 0000 0B78     		ldrb	r3, [r1]	@ zero_extendqisi2
 188              		.loc 1 466 35 view .LVU62
 189 0002 0370     		strb	r3, [r0]
 467:Middlewares/ST/STM32_USB_Host_Library/Core/Src/usbh_ctlreq.c ****   ep_descriptor->bDescriptorType  = *(uint8_t *)(buf + 1);
 190              		.loc 1 467 3 is_stmt 1 view .LVU63
 191              		.loc 1 467 35 is_stmt 0 view .LVU64
 192 0004 4B78     		ldrb	r3, [r1, #1]	@ zero_extendqisi2
 193 0006 4370     		strb	r3, [r0, #1]
 468:Middlewares/ST/STM32_USB_Host_Library/Core/Src/usbh_ctlreq.c ****   ep_descriptor->bEndpointAddress = *(uint8_t *)(buf + 2);
 194              		.loc 1 468 3 is_stmt 1 view .LVU65
 195              		.loc 1 468 35 is_stmt 0 view .LVU66
 196 0008 8B78     		ldrb	r3, [r1, #2]	@ zero_extendqisi2
 197 000a 8370     		strb	r3, [r0, #2]
 469:Middlewares/ST/STM32_USB_Host_Library/Core/Src/usbh_ctlreq.c ****   ep_descriptor->bmAttributes     = *(uint8_t *)(buf + 3);
 198              		.loc 1 469 3 is_stmt 1 view .LVU67
 199              		.loc 1 469 35 is_stmt 0 view .LVU68
 200 000c CB78     		ldrb	r3, [r1, #3]	@ zero_extendqisi2
 201 000e C370     		strb	r3, [r0, #3]
 470:Middlewares/ST/STM32_USB_Host_Library/Core/Src/usbh_ctlreq.c ****   ep_descriptor->wMaxPacketSize   = LE16(buf + 4);
 202              		.loc 1 470 3 is_stmt 1 view .LVU69
 203              		.loc 1 470 37 is_stmt 0 view .LVU70
 204 0010 0B79     		ldrb	r3, [r1, #4]	@ zero_extendqisi2
 205 0012 4A79     		ldrb	r2, [r1, #5]	@ zero_extendqisi2
 206 0014 43EA0223 		orr	r3, r3, r2, lsl #8
 207              		.loc 1 470 35 view .LVU71
 208 0018 8380     		strh	r3, [r0, #4]	@ movhi
 471:Middlewares/ST/STM32_USB_Host_Library/Core/Src/usbh_ctlreq.c ****   ep_descriptor->bInterval        = *(uint8_t *)(buf + 6);
 209              		.loc 1 471 3 is_stmt 1 view .LVU72
 210              		.loc 1 471 35 is_stmt 0 view .LVU73
 211 001a 8B79     		ldrb	r3, [r1, #6]	@ zero_extendqisi2
 212 001c 8371     		strb	r3, [r0, #6]
 472:Middlewares/ST/STM32_USB_Host_Library/Core/Src/usbh_ctlreq.c **** }
 213              		.loc 1 472 1 view .LVU74
 214 001e 7047     		bx	lr
 215              		.cfi_endproc
 216              	.LFE150:
 218              		.section	.text.USBH_ParseStringDesc,"ax",%progbits
ARM GAS  /tmp/cc785GWs.s 			page 13


 219              		.align	1
 220              		.syntax unified
 221              		.thumb
 222              		.thumb_func
 224              	USBH_ParseStringDesc:
 225              	.LVL4:
 226              	.LFB151:
 473:Middlewares/ST/STM32_USB_Host_Library/Core/Src/usbh_ctlreq.c **** 
 474:Middlewares/ST/STM32_USB_Host_Library/Core/Src/usbh_ctlreq.c **** 
 475:Middlewares/ST/STM32_USB_Host_Library/Core/Src/usbh_ctlreq.c **** /**
 476:Middlewares/ST/STM32_USB_Host_Library/Core/Src/usbh_ctlreq.c ****   * @brief  USBH_ParseStringDesc
 477:Middlewares/ST/STM32_USB_Host_Library/Core/Src/usbh_ctlreq.c ****   *         This function Parses the string descriptor
 478:Middlewares/ST/STM32_USB_Host_Library/Core/Src/usbh_ctlreq.c ****   * @param  psrc: Source pointer containing the descriptor data
 479:Middlewares/ST/STM32_USB_Host_Library/Core/Src/usbh_ctlreq.c ****   * @param  pdest: Destination address pointer
 480:Middlewares/ST/STM32_USB_Host_Library/Core/Src/usbh_ctlreq.c ****   * @param  length: Length of the descriptor
 481:Middlewares/ST/STM32_USB_Host_Library/Core/Src/usbh_ctlreq.c ****   * @retval None
 482:Middlewares/ST/STM32_USB_Host_Library/Core/Src/usbh_ctlreq.c ****   */
 483:Middlewares/ST/STM32_USB_Host_Library/Core/Src/usbh_ctlreq.c **** static void USBH_ParseStringDesc(uint8_t *psrc, uint8_t *pdest, uint16_t length)
 484:Middlewares/ST/STM32_USB_Host_Library/Core/Src/usbh_ctlreq.c **** {
 227              		.loc 1 484 1 is_stmt 1 view -0
 228              		.cfi_startproc
 229              		@ args = 0, pretend = 0, frame = 0
 230              		@ frame_needed = 0, uses_anonymous_args = 0
 231              		@ link register save eliminated.
 485:Middlewares/ST/STM32_USB_Host_Library/Core/Src/usbh_ctlreq.c ****   uint16_t strlength;
 232              		.loc 1 485 3 view .LVU76
 486:Middlewares/ST/STM32_USB_Host_Library/Core/Src/usbh_ctlreq.c ****   uint16_t idx;
 233              		.loc 1 486 3 view .LVU77
 487:Middlewares/ST/STM32_USB_Host_Library/Core/Src/usbh_ctlreq.c **** 
 488:Middlewares/ST/STM32_USB_Host_Library/Core/Src/usbh_ctlreq.c ****   /* The UNICODE string descriptor is not NULL-terminated. The string length is
 489:Middlewares/ST/STM32_USB_Host_Library/Core/Src/usbh_ctlreq.c ****   computed by substracting two from the value of the first byte of the descriptor.
 490:Middlewares/ST/STM32_USB_Host_Library/Core/Src/usbh_ctlreq.c ****   */
 491:Middlewares/ST/STM32_USB_Host_Library/Core/Src/usbh_ctlreq.c **** 
 492:Middlewares/ST/STM32_USB_Host_Library/Core/Src/usbh_ctlreq.c ****   /* Check which is lower size, the Size of string or the length of bytes read
 493:Middlewares/ST/STM32_USB_Host_Library/Core/Src/usbh_ctlreq.c ****   from the device */
 494:Middlewares/ST/STM32_USB_Host_Library/Core/Src/usbh_ctlreq.c **** 
 495:Middlewares/ST/STM32_USB_Host_Library/Core/Src/usbh_ctlreq.c ****   if (psrc[1] == USB_DESC_TYPE_STRING)
 234              		.loc 1 495 3 view .LVU78
 235              		.loc 1 495 11 is_stmt 0 view .LVU79
 236 0000 4378     		ldrb	r3, [r0, #1]	@ zero_extendqisi2
 237              		.loc 1 495 6 view .LVU80
 238 0002 032B     		cmp	r3, #3
 239 0004 00D0     		beq	.L9
 240              	.LVL5:
 241              	.L5:
 496:Middlewares/ST/STM32_USB_Host_Library/Core/Src/usbh_ctlreq.c ****   {
 497:Middlewares/ST/STM32_USB_Host_Library/Core/Src/usbh_ctlreq.c ****     /* Make sure the Descriptor is String Type */
 498:Middlewares/ST/STM32_USB_Host_Library/Core/Src/usbh_ctlreq.c **** 
 499:Middlewares/ST/STM32_USB_Host_Library/Core/Src/usbh_ctlreq.c ****     /* psrc[0] contains Size of Descriptor, subtract 2 to get the length of string */
 500:Middlewares/ST/STM32_USB_Host_Library/Core/Src/usbh_ctlreq.c ****     strlength = ((((uint16_t)psrc[0] - 2U) <= length) ? ((uint16_t)psrc[0] - 2U) : length);
 501:Middlewares/ST/STM32_USB_Host_Library/Core/Src/usbh_ctlreq.c **** 
 502:Middlewares/ST/STM32_USB_Host_Library/Core/Src/usbh_ctlreq.c ****     /* Adjust the offset ignoring the String Len and Descriptor type */
 503:Middlewares/ST/STM32_USB_Host_Library/Core/Src/usbh_ctlreq.c ****     psrc += 2U;
 504:Middlewares/ST/STM32_USB_Host_Library/Core/Src/usbh_ctlreq.c **** 
 505:Middlewares/ST/STM32_USB_Host_Library/Core/Src/usbh_ctlreq.c ****     for (idx = 0U; idx < strlength; idx += 2U)
 506:Middlewares/ST/STM32_USB_Host_Library/Core/Src/usbh_ctlreq.c ****     {
 507:Middlewares/ST/STM32_USB_Host_Library/Core/Src/usbh_ctlreq.c ****       /* Copy Only the string and ignore the UNICODE ID, hence add the src */
ARM GAS  /tmp/cc785GWs.s 			page 14


 508:Middlewares/ST/STM32_USB_Host_Library/Core/Src/usbh_ctlreq.c ****       *pdest =  psrc[idx];
 509:Middlewares/ST/STM32_USB_Host_Library/Core/Src/usbh_ctlreq.c ****       pdest++;
 510:Middlewares/ST/STM32_USB_Host_Library/Core/Src/usbh_ctlreq.c ****     }
 511:Middlewares/ST/STM32_USB_Host_Library/Core/Src/usbh_ctlreq.c ****     *pdest = 0U; /* mark end of string */
 512:Middlewares/ST/STM32_USB_Host_Library/Core/Src/usbh_ctlreq.c ****   }
 513:Middlewares/ST/STM32_USB_Host_Library/Core/Src/usbh_ctlreq.c **** }
 242              		.loc 1 513 1 view .LVU81
 243 0006 7047     		bx	lr
 244              	.LVL6:
 245              	.L9:
 500:Middlewares/ST/STM32_USB_Host_Library/Core/Src/usbh_ctlreq.c **** 
 246              		.loc 1 500 5 is_stmt 1 view .LVU82
 500:Middlewares/ST/STM32_USB_Host_Library/Core/Src/usbh_ctlreq.c **** 
 247              		.loc 1 500 34 is_stmt 0 view .LVU83
 248 0008 0378     		ldrb	r3, [r0]	@ zero_extendqisi2
 500:Middlewares/ST/STM32_USB_Host_Library/Core/Src/usbh_ctlreq.c **** 
 249              		.loc 1 500 38 view .LVU84
 250 000a 023B     		subs	r3, r3, #2
 500:Middlewares/ST/STM32_USB_Host_Library/Core/Src/usbh_ctlreq.c **** 
 251              		.loc 1 500 82 view .LVU85
 252 000c 9A42     		cmp	r2, r3
 253 000e 28BF     		it	cs
 254 0010 1A46     		movcs	r2, r3
 255              	.LVL7:
 500:Middlewares/ST/STM32_USB_Host_Library/Core/Src/usbh_ctlreq.c **** 
 256              		.loc 1 500 15 view .LVU86
 257 0012 92B2     		uxth	r2, r2
 258              	.LVL8:
 503:Middlewares/ST/STM32_USB_Host_Library/Core/Src/usbh_ctlreq.c **** 
 259              		.loc 1 503 5 is_stmt 1 view .LVU87
 505:Middlewares/ST/STM32_USB_Host_Library/Core/Src/usbh_ctlreq.c ****     {
 260              		.loc 1 505 5 view .LVU88
 505:Middlewares/ST/STM32_USB_Host_Library/Core/Src/usbh_ctlreq.c ****     {
 261              		.loc 1 505 14 is_stmt 0 view .LVU89
 262 0014 0023     		movs	r3, #0
 505:Middlewares/ST/STM32_USB_Host_Library/Core/Src/usbh_ctlreq.c ****     {
 263              		.loc 1 505 5 view .LVU90
 264 0016 07E0     		b	.L7
 265              	.LVL9:
 266              	.L8:
 508:Middlewares/ST/STM32_USB_Host_Library/Core/Src/usbh_ctlreq.c ****       pdest++;
 267              		.loc 1 508 7 is_stmt 1 discriminator 3 view .LVU91
 508:Middlewares/ST/STM32_USB_Host_Library/Core/Src/usbh_ctlreq.c ****       pdest++;
 268              		.loc 1 508 21 is_stmt 0 discriminator 3 view .LVU92
 269 0018 00EB030C 		add	ip, r0, r3
 270 001c 9CF802C0 		ldrb	ip, [ip, #2]	@ zero_extendqisi2
 508:Middlewares/ST/STM32_USB_Host_Library/Core/Src/usbh_ctlreq.c ****       pdest++;
 271              		.loc 1 508 14 discriminator 3 view .LVU93
 272 0020 01F801CB 		strb	ip, [r1], #1
 273              	.LVL10:
 509:Middlewares/ST/STM32_USB_Host_Library/Core/Src/usbh_ctlreq.c ****     }
 274              		.loc 1 509 7 is_stmt 1 discriminator 3 view .LVU94
 505:Middlewares/ST/STM32_USB_Host_Library/Core/Src/usbh_ctlreq.c ****     {
 275              		.loc 1 505 37 discriminator 3 view .LVU95
 505:Middlewares/ST/STM32_USB_Host_Library/Core/Src/usbh_ctlreq.c ****     {
 276              		.loc 1 505 41 is_stmt 0 discriminator 3 view .LVU96
 277 0024 0233     		adds	r3, r3, #2
ARM GAS  /tmp/cc785GWs.s 			page 15


 278              	.LVL11:
 505:Middlewares/ST/STM32_USB_Host_Library/Core/Src/usbh_ctlreq.c ****     {
 279              		.loc 1 505 41 discriminator 3 view .LVU97
 280 0026 9BB2     		uxth	r3, r3
 281              	.LVL12:
 282              	.L7:
 505:Middlewares/ST/STM32_USB_Host_Library/Core/Src/usbh_ctlreq.c ****     {
 283              		.loc 1 505 20 is_stmt 1 discriminator 1 view .LVU98
 505:Middlewares/ST/STM32_USB_Host_Library/Core/Src/usbh_ctlreq.c ****     {
 284              		.loc 1 505 5 is_stmt 0 discriminator 1 view .LVU99
 285 0028 9342     		cmp	r3, r2
 286 002a F5D3     		bcc	.L8
 511:Middlewares/ST/STM32_USB_Host_Library/Core/Src/usbh_ctlreq.c ****   }
 287              		.loc 1 511 5 is_stmt 1 view .LVU100
 511:Middlewares/ST/STM32_USB_Host_Library/Core/Src/usbh_ctlreq.c ****   }
 288              		.loc 1 511 12 is_stmt 0 view .LVU101
 289 002c 0023     		movs	r3, #0
 290              	.LVL13:
 511:Middlewares/ST/STM32_USB_Host_Library/Core/Src/usbh_ctlreq.c ****   }
 291              		.loc 1 511 12 view .LVU102
 292 002e 0B70     		strb	r3, [r1]
 293              		.loc 1 513 1 view .LVU103
 294 0030 E9E7     		b	.L5
 295              		.cfi_endproc
 296              	.LFE151:
 298              		.section	.text.USBH_HandleControl,"ax",%progbits
 299              		.align	1
 300              		.syntax unified
 301              		.thumb
 302              		.thumb_func
 304              	USBH_HandleControl:
 305              	.LVL14:
 306              	.LFB154:
 514:Middlewares/ST/STM32_USB_Host_Library/Core/Src/usbh_ctlreq.c **** 
 515:Middlewares/ST/STM32_USB_Host_Library/Core/Src/usbh_ctlreq.c **** 
 516:Middlewares/ST/STM32_USB_Host_Library/Core/Src/usbh_ctlreq.c **** /**
 517:Middlewares/ST/STM32_USB_Host_Library/Core/Src/usbh_ctlreq.c ****   * @brief  USBH_GetNextDesc
 518:Middlewares/ST/STM32_USB_Host_Library/Core/Src/usbh_ctlreq.c ****   *         This function return the next descriptor header
 519:Middlewares/ST/STM32_USB_Host_Library/Core/Src/usbh_ctlreq.c ****   * @param  buf: Buffer where the cfg descriptor is available
 520:Middlewares/ST/STM32_USB_Host_Library/Core/Src/usbh_ctlreq.c ****   * @param  ptr: data pointer inside the cfg descriptor
 521:Middlewares/ST/STM32_USB_Host_Library/Core/Src/usbh_ctlreq.c ****   * @retval next header
 522:Middlewares/ST/STM32_USB_Host_Library/Core/Src/usbh_ctlreq.c ****   */
 523:Middlewares/ST/STM32_USB_Host_Library/Core/Src/usbh_ctlreq.c **** USBH_DescHeader_t  *USBH_GetNextDesc(uint8_t   *pbuf, uint16_t  *ptr)
 524:Middlewares/ST/STM32_USB_Host_Library/Core/Src/usbh_ctlreq.c **** {
 525:Middlewares/ST/STM32_USB_Host_Library/Core/Src/usbh_ctlreq.c ****   USBH_DescHeader_t  *pnext;
 526:Middlewares/ST/STM32_USB_Host_Library/Core/Src/usbh_ctlreq.c **** 
 527:Middlewares/ST/STM32_USB_Host_Library/Core/Src/usbh_ctlreq.c ****   *ptr += ((USBH_DescHeader_t *)(void *)pbuf)->bLength;
 528:Middlewares/ST/STM32_USB_Host_Library/Core/Src/usbh_ctlreq.c ****   pnext = (USBH_DescHeader_t *)(void *)((uint8_t *)(void *)pbuf + \
 529:Middlewares/ST/STM32_USB_Host_Library/Core/Src/usbh_ctlreq.c ****                                         ((USBH_DescHeader_t *)(void *)pbuf)->bLength);
 530:Middlewares/ST/STM32_USB_Host_Library/Core/Src/usbh_ctlreq.c **** 
 531:Middlewares/ST/STM32_USB_Host_Library/Core/Src/usbh_ctlreq.c ****   return (pnext);
 532:Middlewares/ST/STM32_USB_Host_Library/Core/Src/usbh_ctlreq.c **** }
 533:Middlewares/ST/STM32_USB_Host_Library/Core/Src/usbh_ctlreq.c **** 
 534:Middlewares/ST/STM32_USB_Host_Library/Core/Src/usbh_ctlreq.c **** 
 535:Middlewares/ST/STM32_USB_Host_Library/Core/Src/usbh_ctlreq.c **** /**
 536:Middlewares/ST/STM32_USB_Host_Library/Core/Src/usbh_ctlreq.c ****   * @brief  USBH_CtlReq
 537:Middlewares/ST/STM32_USB_Host_Library/Core/Src/usbh_ctlreq.c ****   *         USBH_CtlReq sends a control request and provide the status after
ARM GAS  /tmp/cc785GWs.s 			page 16


 538:Middlewares/ST/STM32_USB_Host_Library/Core/Src/usbh_ctlreq.c ****   *            completion of the request
 539:Middlewares/ST/STM32_USB_Host_Library/Core/Src/usbh_ctlreq.c ****   * @param  phost: Host Handle
 540:Middlewares/ST/STM32_USB_Host_Library/Core/Src/usbh_ctlreq.c ****   * @param  req: Setup Request Structure
 541:Middlewares/ST/STM32_USB_Host_Library/Core/Src/usbh_ctlreq.c ****   * @param  buff: data buffer address to store the response
 542:Middlewares/ST/STM32_USB_Host_Library/Core/Src/usbh_ctlreq.c ****   * @param  length: length of the response
 543:Middlewares/ST/STM32_USB_Host_Library/Core/Src/usbh_ctlreq.c ****   * @retval USBH Status
 544:Middlewares/ST/STM32_USB_Host_Library/Core/Src/usbh_ctlreq.c ****   */
 545:Middlewares/ST/STM32_USB_Host_Library/Core/Src/usbh_ctlreq.c **** USBH_StatusTypeDef USBH_CtlReq(USBH_HandleTypeDef *phost, uint8_t *buff,
 546:Middlewares/ST/STM32_USB_Host_Library/Core/Src/usbh_ctlreq.c ****                                uint16_t length)
 547:Middlewares/ST/STM32_USB_Host_Library/Core/Src/usbh_ctlreq.c **** {
 548:Middlewares/ST/STM32_USB_Host_Library/Core/Src/usbh_ctlreq.c ****   USBH_StatusTypeDef status;
 549:Middlewares/ST/STM32_USB_Host_Library/Core/Src/usbh_ctlreq.c ****   status = USBH_BUSY;
 550:Middlewares/ST/STM32_USB_Host_Library/Core/Src/usbh_ctlreq.c **** 
 551:Middlewares/ST/STM32_USB_Host_Library/Core/Src/usbh_ctlreq.c ****   switch (phost->RequestState)
 552:Middlewares/ST/STM32_USB_Host_Library/Core/Src/usbh_ctlreq.c ****   {
 553:Middlewares/ST/STM32_USB_Host_Library/Core/Src/usbh_ctlreq.c ****     case CMD_SEND:
 554:Middlewares/ST/STM32_USB_Host_Library/Core/Src/usbh_ctlreq.c ****       /* Start a SETUP transfer */
 555:Middlewares/ST/STM32_USB_Host_Library/Core/Src/usbh_ctlreq.c ****       phost->Control.buff = buff;
 556:Middlewares/ST/STM32_USB_Host_Library/Core/Src/usbh_ctlreq.c ****       phost->Control.length = length;
 557:Middlewares/ST/STM32_USB_Host_Library/Core/Src/usbh_ctlreq.c ****       phost->Control.state = CTRL_SETUP;
 558:Middlewares/ST/STM32_USB_Host_Library/Core/Src/usbh_ctlreq.c ****       phost->RequestState = CMD_WAIT;
 559:Middlewares/ST/STM32_USB_Host_Library/Core/Src/usbh_ctlreq.c ****       status = USBH_BUSY;
 560:Middlewares/ST/STM32_USB_Host_Library/Core/Src/usbh_ctlreq.c **** 
 561:Middlewares/ST/STM32_USB_Host_Library/Core/Src/usbh_ctlreq.c **** #if (USBH_USE_OS == 1U)
 562:Middlewares/ST/STM32_USB_Host_Library/Core/Src/usbh_ctlreq.c ****       phost->os_msg = (uint32_t)USBH_CONTROL_EVENT;
 563:Middlewares/ST/STM32_USB_Host_Library/Core/Src/usbh_ctlreq.c **** #if (osCMSIS < 0x20000U)
 564:Middlewares/ST/STM32_USB_Host_Library/Core/Src/usbh_ctlreq.c ****       (void)osMessagePut(phost->os_event, phost->os_msg, 0U);
 565:Middlewares/ST/STM32_USB_Host_Library/Core/Src/usbh_ctlreq.c **** #else
 566:Middlewares/ST/STM32_USB_Host_Library/Core/Src/usbh_ctlreq.c ****       (void)osMessageQueuePut(phost->os_event, &phost->os_msg, 0U, NULL);
 567:Middlewares/ST/STM32_USB_Host_Library/Core/Src/usbh_ctlreq.c **** #endif
 568:Middlewares/ST/STM32_USB_Host_Library/Core/Src/usbh_ctlreq.c **** #endif
 569:Middlewares/ST/STM32_USB_Host_Library/Core/Src/usbh_ctlreq.c ****       break;
 570:Middlewares/ST/STM32_USB_Host_Library/Core/Src/usbh_ctlreq.c **** 
 571:Middlewares/ST/STM32_USB_Host_Library/Core/Src/usbh_ctlreq.c ****     case CMD_WAIT:
 572:Middlewares/ST/STM32_USB_Host_Library/Core/Src/usbh_ctlreq.c ****       status = USBH_HandleControl(phost);
 573:Middlewares/ST/STM32_USB_Host_Library/Core/Src/usbh_ctlreq.c ****       if ((status == USBH_OK) || (status == USBH_NOT_SUPPORTED))
 574:Middlewares/ST/STM32_USB_Host_Library/Core/Src/usbh_ctlreq.c ****       {
 575:Middlewares/ST/STM32_USB_Host_Library/Core/Src/usbh_ctlreq.c ****         /* Transaction completed, move control state to idle */
 576:Middlewares/ST/STM32_USB_Host_Library/Core/Src/usbh_ctlreq.c ****         phost->RequestState = CMD_SEND;
 577:Middlewares/ST/STM32_USB_Host_Library/Core/Src/usbh_ctlreq.c ****         phost->Control.state = CTRL_IDLE;
 578:Middlewares/ST/STM32_USB_Host_Library/Core/Src/usbh_ctlreq.c ****       }
 579:Middlewares/ST/STM32_USB_Host_Library/Core/Src/usbh_ctlreq.c ****       else if (status == USBH_FAIL)
 580:Middlewares/ST/STM32_USB_Host_Library/Core/Src/usbh_ctlreq.c ****       {
 581:Middlewares/ST/STM32_USB_Host_Library/Core/Src/usbh_ctlreq.c ****         /* Failure Mode */
 582:Middlewares/ST/STM32_USB_Host_Library/Core/Src/usbh_ctlreq.c ****         phost->RequestState = CMD_SEND;
 583:Middlewares/ST/STM32_USB_Host_Library/Core/Src/usbh_ctlreq.c ****       }
 584:Middlewares/ST/STM32_USB_Host_Library/Core/Src/usbh_ctlreq.c ****       else
 585:Middlewares/ST/STM32_USB_Host_Library/Core/Src/usbh_ctlreq.c ****       {
 586:Middlewares/ST/STM32_USB_Host_Library/Core/Src/usbh_ctlreq.c ****         /* .. */
 587:Middlewares/ST/STM32_USB_Host_Library/Core/Src/usbh_ctlreq.c ****       }
 588:Middlewares/ST/STM32_USB_Host_Library/Core/Src/usbh_ctlreq.c **** #if (USBH_USE_OS == 1U)
 589:Middlewares/ST/STM32_USB_Host_Library/Core/Src/usbh_ctlreq.c ****       phost->os_msg = (uint32_t)USBH_CONTROL_EVENT;
 590:Middlewares/ST/STM32_USB_Host_Library/Core/Src/usbh_ctlreq.c **** #if (osCMSIS < 0x20000U)
 591:Middlewares/ST/STM32_USB_Host_Library/Core/Src/usbh_ctlreq.c ****       (void)osMessagePut(phost->os_event, phost->os_msg, 0U);
 592:Middlewares/ST/STM32_USB_Host_Library/Core/Src/usbh_ctlreq.c **** #else
 593:Middlewares/ST/STM32_USB_Host_Library/Core/Src/usbh_ctlreq.c ****       (void)osMessageQueuePut(phost->os_event, &phost->os_msg, 0U, NULL);
 594:Middlewares/ST/STM32_USB_Host_Library/Core/Src/usbh_ctlreq.c **** #endif
ARM GAS  /tmp/cc785GWs.s 			page 17


 595:Middlewares/ST/STM32_USB_Host_Library/Core/Src/usbh_ctlreq.c **** #endif
 596:Middlewares/ST/STM32_USB_Host_Library/Core/Src/usbh_ctlreq.c ****       break;
 597:Middlewares/ST/STM32_USB_Host_Library/Core/Src/usbh_ctlreq.c **** 
 598:Middlewares/ST/STM32_USB_Host_Library/Core/Src/usbh_ctlreq.c ****     default:
 599:Middlewares/ST/STM32_USB_Host_Library/Core/Src/usbh_ctlreq.c ****       break;
 600:Middlewares/ST/STM32_USB_Host_Library/Core/Src/usbh_ctlreq.c ****   }
 601:Middlewares/ST/STM32_USB_Host_Library/Core/Src/usbh_ctlreq.c ****   return status;
 602:Middlewares/ST/STM32_USB_Host_Library/Core/Src/usbh_ctlreq.c **** }
 603:Middlewares/ST/STM32_USB_Host_Library/Core/Src/usbh_ctlreq.c **** 
 604:Middlewares/ST/STM32_USB_Host_Library/Core/Src/usbh_ctlreq.c **** 
 605:Middlewares/ST/STM32_USB_Host_Library/Core/Src/usbh_ctlreq.c **** /**
 606:Middlewares/ST/STM32_USB_Host_Library/Core/Src/usbh_ctlreq.c ****   * @brief  USBH_HandleControl
 607:Middlewares/ST/STM32_USB_Host_Library/Core/Src/usbh_ctlreq.c ****   *         Handles the USB control transfer state machine
 608:Middlewares/ST/STM32_USB_Host_Library/Core/Src/usbh_ctlreq.c ****   * @param  phost: Host Handle
 609:Middlewares/ST/STM32_USB_Host_Library/Core/Src/usbh_ctlreq.c ****   * @retval USBH Status
 610:Middlewares/ST/STM32_USB_Host_Library/Core/Src/usbh_ctlreq.c ****   */
 611:Middlewares/ST/STM32_USB_Host_Library/Core/Src/usbh_ctlreq.c **** static USBH_StatusTypeDef USBH_HandleControl(USBH_HandleTypeDef *phost)
 612:Middlewares/ST/STM32_USB_Host_Library/Core/Src/usbh_ctlreq.c **** {
 307              		.loc 1 612 1 is_stmt 1 view -0
 308              		.cfi_startproc
 309              		@ args = 0, pretend = 0, frame = 0
 310              		@ frame_needed = 0, uses_anonymous_args = 0
 311              		.loc 1 612 1 is_stmt 0 view .LVU105
 312 0000 30B5     		push	{r4, r5, lr}
 313              	.LCFI0:
 314              		.cfi_def_cfa_offset 12
 315              		.cfi_offset 4, -12
 316              		.cfi_offset 5, -8
 317              		.cfi_offset 14, -4
 318 0002 83B0     		sub	sp, sp, #12
 319              	.LCFI1:
 320              		.cfi_def_cfa_offset 24
 321 0004 0446     		mov	r4, r0
 613:Middlewares/ST/STM32_USB_Host_Library/Core/Src/usbh_ctlreq.c ****   uint8_t direction;
 322              		.loc 1 613 3 is_stmt 1 view .LVU106
 614:Middlewares/ST/STM32_USB_Host_Library/Core/Src/usbh_ctlreq.c ****   USBH_StatusTypeDef status = USBH_BUSY;
 323              		.loc 1 614 3 view .LVU107
 324              	.LVL15:
 615:Middlewares/ST/STM32_USB_Host_Library/Core/Src/usbh_ctlreq.c ****   USBH_URBStateTypeDef URB_Status = USBH_URB_IDLE;
 325              		.loc 1 615 3 view .LVU108
 616:Middlewares/ST/STM32_USB_Host_Library/Core/Src/usbh_ctlreq.c **** 
 617:Middlewares/ST/STM32_USB_Host_Library/Core/Src/usbh_ctlreq.c ****   switch (phost->Control.state)
 326              		.loc 1 617 3 view .LVU109
 327              		.loc 1 617 25 is_stmt 0 view .LVU110
 328 0006 057E     		ldrb	r5, [r0, #24]	@ zero_extendqisi2
 329              		.loc 1 617 3 view .LVU111
 330 0008 6B1E     		subs	r3, r5, #1
 331 000a 0A2B     		cmp	r3, #10
 332 000c 00F25F81 		bhi	.L40
 333 0010 DFE813F0 		tbh	[pc, r3, lsl #1]
 334              	.L13:
 335 0014 0B00     		.2byte	(.L23-.L13)/2
 336 0016 1500     		.2byte	(.L22-.L13)/2
 337 0018 4A00     		.2byte	(.L21-.L13)/2
 338 001a 5600     		.2byte	(.L20-.L13)/2
 339 001c 8300     		.2byte	(.L19-.L13)/2
 340 001e 9000     		.2byte	(.L18-.L13)/2
ARM GAS  /tmp/cc785GWs.s 			page 18


 341 0020 CD00     		.2byte	(.L17-.L13)/2
 342 0022 D900     		.2byte	(.L16-.L13)/2
 343 0024 0601     		.2byte	(.L15-.L13)/2
 344 0026 1301     		.2byte	(.L14-.L13)/2
 345 0028 4201     		.2byte	(.L12-.L13)/2
 346              		.p2align 1
 347              	.L23:
 618:Middlewares/ST/STM32_USB_Host_Library/Core/Src/usbh_ctlreq.c ****   {
 619:Middlewares/ST/STM32_USB_Host_Library/Core/Src/usbh_ctlreq.c ****     case CTRL_SETUP:
 620:Middlewares/ST/STM32_USB_Host_Library/Core/Src/usbh_ctlreq.c ****       /* send a SETUP packet */
 621:Middlewares/ST/STM32_USB_Host_Library/Core/Src/usbh_ctlreq.c ****       USBH_CtlSendSetup(phost, (uint8_t *)(void *)phost->Control.setup.d8,
 348              		.loc 1 621 7 is_stmt 1 view .LVU112
 349 002a 4279     		ldrb	r2, [r0, #5]	@ zero_extendqisi2
 350 002c 00F11001 		add	r1, r0, #16
 351 0030 FFF7FEFF 		bl	USBH_CtlSendSetup
 352              	.LVL16:
 622:Middlewares/ST/STM32_USB_Host_Library/Core/Src/usbh_ctlreq.c ****                         phost->Control.pipe_out);
 623:Middlewares/ST/STM32_USB_Host_Library/Core/Src/usbh_ctlreq.c **** 
 624:Middlewares/ST/STM32_USB_Host_Library/Core/Src/usbh_ctlreq.c ****       phost->Control.state = CTRL_SETUP_WAIT;
 353              		.loc 1 624 7 view .LVU113
 354              		.loc 1 624 28 is_stmt 0 view .LVU114
 355 0034 0223     		movs	r3, #2
 356 0036 2376     		strb	r3, [r4, #24]
 625:Middlewares/ST/STM32_USB_Host_Library/Core/Src/usbh_ctlreq.c ****       break;
 357              		.loc 1 625 7 is_stmt 1 view .LVU115
 358              	.LVL17:
 359              	.L11:
 626:Middlewares/ST/STM32_USB_Host_Library/Core/Src/usbh_ctlreq.c **** 
 627:Middlewares/ST/STM32_USB_Host_Library/Core/Src/usbh_ctlreq.c ****     case CTRL_SETUP_WAIT:
 628:Middlewares/ST/STM32_USB_Host_Library/Core/Src/usbh_ctlreq.c **** 
 629:Middlewares/ST/STM32_USB_Host_Library/Core/Src/usbh_ctlreq.c ****       URB_Status = USBH_LL_GetURBState(phost, phost->Control.pipe_out);
 630:Middlewares/ST/STM32_USB_Host_Library/Core/Src/usbh_ctlreq.c ****       /* case SETUP packet sent successfully */
 631:Middlewares/ST/STM32_USB_Host_Library/Core/Src/usbh_ctlreq.c ****       if (URB_Status == USBH_URB_DONE)
 632:Middlewares/ST/STM32_USB_Host_Library/Core/Src/usbh_ctlreq.c ****       {
 633:Middlewares/ST/STM32_USB_Host_Library/Core/Src/usbh_ctlreq.c ****         direction = (phost->Control.setup.b.bmRequestType & USB_REQ_DIR_MASK);
 634:Middlewares/ST/STM32_USB_Host_Library/Core/Src/usbh_ctlreq.c **** 
 635:Middlewares/ST/STM32_USB_Host_Library/Core/Src/usbh_ctlreq.c ****         /* check if there is a data stage */
 636:Middlewares/ST/STM32_USB_Host_Library/Core/Src/usbh_ctlreq.c ****         if (phost->Control.setup.b.wLength.w != 0U)
 637:Middlewares/ST/STM32_USB_Host_Library/Core/Src/usbh_ctlreq.c ****         {
 638:Middlewares/ST/STM32_USB_Host_Library/Core/Src/usbh_ctlreq.c ****           if (direction == USB_D2H)
 639:Middlewares/ST/STM32_USB_Host_Library/Core/Src/usbh_ctlreq.c ****           {
 640:Middlewares/ST/STM32_USB_Host_Library/Core/Src/usbh_ctlreq.c ****             /* Data Direction is IN */
 641:Middlewares/ST/STM32_USB_Host_Library/Core/Src/usbh_ctlreq.c ****             phost->Control.state = CTRL_DATA_IN;
 642:Middlewares/ST/STM32_USB_Host_Library/Core/Src/usbh_ctlreq.c ****           }
 643:Middlewares/ST/STM32_USB_Host_Library/Core/Src/usbh_ctlreq.c ****           else
 644:Middlewares/ST/STM32_USB_Host_Library/Core/Src/usbh_ctlreq.c ****           {
 645:Middlewares/ST/STM32_USB_Host_Library/Core/Src/usbh_ctlreq.c ****             /* Data Direction is OUT */
 646:Middlewares/ST/STM32_USB_Host_Library/Core/Src/usbh_ctlreq.c ****             phost->Control.state = CTRL_DATA_OUT;
 647:Middlewares/ST/STM32_USB_Host_Library/Core/Src/usbh_ctlreq.c ****           }
 648:Middlewares/ST/STM32_USB_Host_Library/Core/Src/usbh_ctlreq.c ****         }
 649:Middlewares/ST/STM32_USB_Host_Library/Core/Src/usbh_ctlreq.c ****         /* No DATA stage */
 650:Middlewares/ST/STM32_USB_Host_Library/Core/Src/usbh_ctlreq.c ****         else
 651:Middlewares/ST/STM32_USB_Host_Library/Core/Src/usbh_ctlreq.c ****         {
 652:Middlewares/ST/STM32_USB_Host_Library/Core/Src/usbh_ctlreq.c ****           /* If there is No Data Transfer Stage */
 653:Middlewares/ST/STM32_USB_Host_Library/Core/Src/usbh_ctlreq.c ****           if (direction == USB_D2H)
 654:Middlewares/ST/STM32_USB_Host_Library/Core/Src/usbh_ctlreq.c ****           {
 655:Middlewares/ST/STM32_USB_Host_Library/Core/Src/usbh_ctlreq.c ****             /* Data Direction is IN */
ARM GAS  /tmp/cc785GWs.s 			page 19


 656:Middlewares/ST/STM32_USB_Host_Library/Core/Src/usbh_ctlreq.c ****             phost->Control.state = CTRL_STATUS_OUT;
 657:Middlewares/ST/STM32_USB_Host_Library/Core/Src/usbh_ctlreq.c ****           }
 658:Middlewares/ST/STM32_USB_Host_Library/Core/Src/usbh_ctlreq.c ****           else
 659:Middlewares/ST/STM32_USB_Host_Library/Core/Src/usbh_ctlreq.c ****           {
 660:Middlewares/ST/STM32_USB_Host_Library/Core/Src/usbh_ctlreq.c ****             /* Data Direction is OUT */
 661:Middlewares/ST/STM32_USB_Host_Library/Core/Src/usbh_ctlreq.c ****             phost->Control.state = CTRL_STATUS_IN;
 662:Middlewares/ST/STM32_USB_Host_Library/Core/Src/usbh_ctlreq.c ****           }
 663:Middlewares/ST/STM32_USB_Host_Library/Core/Src/usbh_ctlreq.c ****         }
 664:Middlewares/ST/STM32_USB_Host_Library/Core/Src/usbh_ctlreq.c **** 
 665:Middlewares/ST/STM32_USB_Host_Library/Core/Src/usbh_ctlreq.c **** #if (USBH_USE_OS == 1U)
 666:Middlewares/ST/STM32_USB_Host_Library/Core/Src/usbh_ctlreq.c ****         phost->os_msg = (uint32_t)USBH_CONTROL_EVENT;
 667:Middlewares/ST/STM32_USB_Host_Library/Core/Src/usbh_ctlreq.c **** #if (osCMSIS < 0x20000U)
 668:Middlewares/ST/STM32_USB_Host_Library/Core/Src/usbh_ctlreq.c ****         (void)osMessagePut(phost->os_event, phost->os_msg, 0U);
 669:Middlewares/ST/STM32_USB_Host_Library/Core/Src/usbh_ctlreq.c **** #else
 670:Middlewares/ST/STM32_USB_Host_Library/Core/Src/usbh_ctlreq.c ****         (void)osMessageQueuePut(phost->os_event, &phost->os_msg, 0U, NULL);
 671:Middlewares/ST/STM32_USB_Host_Library/Core/Src/usbh_ctlreq.c **** #endif
 672:Middlewares/ST/STM32_USB_Host_Library/Core/Src/usbh_ctlreq.c **** #endif
 673:Middlewares/ST/STM32_USB_Host_Library/Core/Src/usbh_ctlreq.c ****       }
 674:Middlewares/ST/STM32_USB_Host_Library/Core/Src/usbh_ctlreq.c ****       else
 675:Middlewares/ST/STM32_USB_Host_Library/Core/Src/usbh_ctlreq.c ****       {
 676:Middlewares/ST/STM32_USB_Host_Library/Core/Src/usbh_ctlreq.c ****         if ((URB_Status == USBH_URB_ERROR) || (URB_Status == USBH_URB_NOTREADY))
 677:Middlewares/ST/STM32_USB_Host_Library/Core/Src/usbh_ctlreq.c ****         {
 678:Middlewares/ST/STM32_USB_Host_Library/Core/Src/usbh_ctlreq.c ****           phost->Control.state = CTRL_ERROR;
 679:Middlewares/ST/STM32_USB_Host_Library/Core/Src/usbh_ctlreq.c **** 
 680:Middlewares/ST/STM32_USB_Host_Library/Core/Src/usbh_ctlreq.c **** #if (USBH_USE_OS == 1U)
 681:Middlewares/ST/STM32_USB_Host_Library/Core/Src/usbh_ctlreq.c ****           phost->os_msg = (uint32_t)USBH_CONTROL_EVENT;
 682:Middlewares/ST/STM32_USB_Host_Library/Core/Src/usbh_ctlreq.c **** #if (osCMSIS < 0x20000U)
 683:Middlewares/ST/STM32_USB_Host_Library/Core/Src/usbh_ctlreq.c ****           (void)osMessagePut(phost->os_event, phost->os_msg, 0U);
 684:Middlewares/ST/STM32_USB_Host_Library/Core/Src/usbh_ctlreq.c **** #else
 685:Middlewares/ST/STM32_USB_Host_Library/Core/Src/usbh_ctlreq.c ****           (void)osMessageQueuePut(phost->os_event, &phost->os_msg, 0U, NULL);
 686:Middlewares/ST/STM32_USB_Host_Library/Core/Src/usbh_ctlreq.c **** #endif
 687:Middlewares/ST/STM32_USB_Host_Library/Core/Src/usbh_ctlreq.c **** #endif
 688:Middlewares/ST/STM32_USB_Host_Library/Core/Src/usbh_ctlreq.c ****         }
 689:Middlewares/ST/STM32_USB_Host_Library/Core/Src/usbh_ctlreq.c ****       }
 690:Middlewares/ST/STM32_USB_Host_Library/Core/Src/usbh_ctlreq.c ****       break;
 691:Middlewares/ST/STM32_USB_Host_Library/Core/Src/usbh_ctlreq.c **** 
 692:Middlewares/ST/STM32_USB_Host_Library/Core/Src/usbh_ctlreq.c ****     case CTRL_DATA_IN:
 693:Middlewares/ST/STM32_USB_Host_Library/Core/Src/usbh_ctlreq.c ****       /* Issue an IN token */
 694:Middlewares/ST/STM32_USB_Host_Library/Core/Src/usbh_ctlreq.c ****       phost->Control.timer = (uint16_t)phost->Timer;
 695:Middlewares/ST/STM32_USB_Host_Library/Core/Src/usbh_ctlreq.c ****       USBH_CtlReceiveData(phost, phost->Control.buff, phost->Control.length,
 696:Middlewares/ST/STM32_USB_Host_Library/Core/Src/usbh_ctlreq.c ****                           phost->Control.pipe_in);
 697:Middlewares/ST/STM32_USB_Host_Library/Core/Src/usbh_ctlreq.c **** 
 698:Middlewares/ST/STM32_USB_Host_Library/Core/Src/usbh_ctlreq.c ****       phost->Control.state = CTRL_DATA_IN_WAIT;
 699:Middlewares/ST/STM32_USB_Host_Library/Core/Src/usbh_ctlreq.c ****       break;
 700:Middlewares/ST/STM32_USB_Host_Library/Core/Src/usbh_ctlreq.c **** 
 701:Middlewares/ST/STM32_USB_Host_Library/Core/Src/usbh_ctlreq.c ****     case CTRL_DATA_IN_WAIT:
 702:Middlewares/ST/STM32_USB_Host_Library/Core/Src/usbh_ctlreq.c **** 
 703:Middlewares/ST/STM32_USB_Host_Library/Core/Src/usbh_ctlreq.c ****       URB_Status = USBH_LL_GetURBState(phost, phost->Control.pipe_in);
 704:Middlewares/ST/STM32_USB_Host_Library/Core/Src/usbh_ctlreq.c **** 
 705:Middlewares/ST/STM32_USB_Host_Library/Core/Src/usbh_ctlreq.c ****       /* check is DATA packet transferred successfully */
 706:Middlewares/ST/STM32_USB_Host_Library/Core/Src/usbh_ctlreq.c ****       if (URB_Status == USBH_URB_DONE)
 707:Middlewares/ST/STM32_USB_Host_Library/Core/Src/usbh_ctlreq.c ****       {
 708:Middlewares/ST/STM32_USB_Host_Library/Core/Src/usbh_ctlreq.c ****         phost->Control.state = CTRL_STATUS_OUT;
 709:Middlewares/ST/STM32_USB_Host_Library/Core/Src/usbh_ctlreq.c **** 
 710:Middlewares/ST/STM32_USB_Host_Library/Core/Src/usbh_ctlreq.c **** #if (USBH_USE_OS == 1U)
 711:Middlewares/ST/STM32_USB_Host_Library/Core/Src/usbh_ctlreq.c ****         phost->os_msg = (uint32_t)USBH_CONTROL_EVENT;
 712:Middlewares/ST/STM32_USB_Host_Library/Core/Src/usbh_ctlreq.c **** #if (osCMSIS < 0x20000U)
ARM GAS  /tmp/cc785GWs.s 			page 20


 713:Middlewares/ST/STM32_USB_Host_Library/Core/Src/usbh_ctlreq.c ****         (void)osMessagePut(phost->os_event, phost->os_msg, 0U);
 714:Middlewares/ST/STM32_USB_Host_Library/Core/Src/usbh_ctlreq.c **** #else
 715:Middlewares/ST/STM32_USB_Host_Library/Core/Src/usbh_ctlreq.c ****         (void)osMessageQueuePut(phost->os_event, &phost->os_msg, 0U, NULL);
 716:Middlewares/ST/STM32_USB_Host_Library/Core/Src/usbh_ctlreq.c **** #endif
 717:Middlewares/ST/STM32_USB_Host_Library/Core/Src/usbh_ctlreq.c **** #endif
 718:Middlewares/ST/STM32_USB_Host_Library/Core/Src/usbh_ctlreq.c ****       }
 719:Middlewares/ST/STM32_USB_Host_Library/Core/Src/usbh_ctlreq.c **** 
 720:Middlewares/ST/STM32_USB_Host_Library/Core/Src/usbh_ctlreq.c ****       /* manage error cases*/
 721:Middlewares/ST/STM32_USB_Host_Library/Core/Src/usbh_ctlreq.c ****       if (URB_Status == USBH_URB_STALL)
 722:Middlewares/ST/STM32_USB_Host_Library/Core/Src/usbh_ctlreq.c ****       {
 723:Middlewares/ST/STM32_USB_Host_Library/Core/Src/usbh_ctlreq.c ****         /* In stall case, return to previous machine state*/
 724:Middlewares/ST/STM32_USB_Host_Library/Core/Src/usbh_ctlreq.c ****         status = USBH_NOT_SUPPORTED;
 725:Middlewares/ST/STM32_USB_Host_Library/Core/Src/usbh_ctlreq.c **** 
 726:Middlewares/ST/STM32_USB_Host_Library/Core/Src/usbh_ctlreq.c **** #if (USBH_USE_OS == 1U)
 727:Middlewares/ST/STM32_USB_Host_Library/Core/Src/usbh_ctlreq.c ****         phost->os_msg = (uint32_t)USBH_CONTROL_EVENT;
 728:Middlewares/ST/STM32_USB_Host_Library/Core/Src/usbh_ctlreq.c **** #if (osCMSIS < 0x20000U)
 729:Middlewares/ST/STM32_USB_Host_Library/Core/Src/usbh_ctlreq.c ****         (void)osMessagePut(phost->os_event, phost->os_msg, 0U);
 730:Middlewares/ST/STM32_USB_Host_Library/Core/Src/usbh_ctlreq.c **** #else
 731:Middlewares/ST/STM32_USB_Host_Library/Core/Src/usbh_ctlreq.c ****         (void)osMessageQueuePut(phost->os_event, &phost->os_msg, 0U, NULL);
 732:Middlewares/ST/STM32_USB_Host_Library/Core/Src/usbh_ctlreq.c **** #endif
 733:Middlewares/ST/STM32_USB_Host_Library/Core/Src/usbh_ctlreq.c **** #endif
 734:Middlewares/ST/STM32_USB_Host_Library/Core/Src/usbh_ctlreq.c ****       }
 735:Middlewares/ST/STM32_USB_Host_Library/Core/Src/usbh_ctlreq.c ****       else
 736:Middlewares/ST/STM32_USB_Host_Library/Core/Src/usbh_ctlreq.c ****       {
 737:Middlewares/ST/STM32_USB_Host_Library/Core/Src/usbh_ctlreq.c ****         if (URB_Status == USBH_URB_ERROR)
 738:Middlewares/ST/STM32_USB_Host_Library/Core/Src/usbh_ctlreq.c ****         {
 739:Middlewares/ST/STM32_USB_Host_Library/Core/Src/usbh_ctlreq.c ****           /* Device error */
 740:Middlewares/ST/STM32_USB_Host_Library/Core/Src/usbh_ctlreq.c ****           phost->Control.state = CTRL_ERROR;
 741:Middlewares/ST/STM32_USB_Host_Library/Core/Src/usbh_ctlreq.c **** 
 742:Middlewares/ST/STM32_USB_Host_Library/Core/Src/usbh_ctlreq.c **** #if (USBH_USE_OS == 1U)
 743:Middlewares/ST/STM32_USB_Host_Library/Core/Src/usbh_ctlreq.c ****           phost->os_msg = (uint32_t)USBH_CONTROL_EVENT;
 744:Middlewares/ST/STM32_USB_Host_Library/Core/Src/usbh_ctlreq.c **** #if (osCMSIS < 0x20000U)
 745:Middlewares/ST/STM32_USB_Host_Library/Core/Src/usbh_ctlreq.c ****           (void)osMessagePut(phost->os_event, phost->os_msg, 0U);
 746:Middlewares/ST/STM32_USB_Host_Library/Core/Src/usbh_ctlreq.c **** #else
 747:Middlewares/ST/STM32_USB_Host_Library/Core/Src/usbh_ctlreq.c ****           (void)osMessageQueuePut(phost->os_event, &phost->os_msg, 0U, NULL);
 748:Middlewares/ST/STM32_USB_Host_Library/Core/Src/usbh_ctlreq.c **** #endif
 749:Middlewares/ST/STM32_USB_Host_Library/Core/Src/usbh_ctlreq.c **** #endif
 750:Middlewares/ST/STM32_USB_Host_Library/Core/Src/usbh_ctlreq.c ****         }
 751:Middlewares/ST/STM32_USB_Host_Library/Core/Src/usbh_ctlreq.c ****       }
 752:Middlewares/ST/STM32_USB_Host_Library/Core/Src/usbh_ctlreq.c ****       break;
 753:Middlewares/ST/STM32_USB_Host_Library/Core/Src/usbh_ctlreq.c **** 
 754:Middlewares/ST/STM32_USB_Host_Library/Core/Src/usbh_ctlreq.c ****     case CTRL_DATA_OUT:
 755:Middlewares/ST/STM32_USB_Host_Library/Core/Src/usbh_ctlreq.c **** 
 756:Middlewares/ST/STM32_USB_Host_Library/Core/Src/usbh_ctlreq.c ****       USBH_CtlSendData(phost, phost->Control.buff, phost->Control.length,
 757:Middlewares/ST/STM32_USB_Host_Library/Core/Src/usbh_ctlreq.c ****                        phost->Control.pipe_out, 1U);
 758:Middlewares/ST/STM32_USB_Host_Library/Core/Src/usbh_ctlreq.c **** 
 759:Middlewares/ST/STM32_USB_Host_Library/Core/Src/usbh_ctlreq.c ****       phost->Control.timer = (uint16_t)phost->Timer;
 760:Middlewares/ST/STM32_USB_Host_Library/Core/Src/usbh_ctlreq.c ****       phost->Control.state = CTRL_DATA_OUT_WAIT;
 761:Middlewares/ST/STM32_USB_Host_Library/Core/Src/usbh_ctlreq.c ****       break;
 762:Middlewares/ST/STM32_USB_Host_Library/Core/Src/usbh_ctlreq.c **** 
 763:Middlewares/ST/STM32_USB_Host_Library/Core/Src/usbh_ctlreq.c ****     case CTRL_DATA_OUT_WAIT:
 764:Middlewares/ST/STM32_USB_Host_Library/Core/Src/usbh_ctlreq.c **** 
 765:Middlewares/ST/STM32_USB_Host_Library/Core/Src/usbh_ctlreq.c ****       URB_Status = USBH_LL_GetURBState(phost, phost->Control.pipe_out);
 766:Middlewares/ST/STM32_USB_Host_Library/Core/Src/usbh_ctlreq.c **** 
 767:Middlewares/ST/STM32_USB_Host_Library/Core/Src/usbh_ctlreq.c ****       if (URB_Status == USBH_URB_DONE)
 768:Middlewares/ST/STM32_USB_Host_Library/Core/Src/usbh_ctlreq.c ****       {
 769:Middlewares/ST/STM32_USB_Host_Library/Core/Src/usbh_ctlreq.c ****         /* If the Setup Pkt is sent successful, then change the state */
ARM GAS  /tmp/cc785GWs.s 			page 21


 770:Middlewares/ST/STM32_USB_Host_Library/Core/Src/usbh_ctlreq.c ****         phost->Control.state = CTRL_STATUS_IN;
 771:Middlewares/ST/STM32_USB_Host_Library/Core/Src/usbh_ctlreq.c **** 
 772:Middlewares/ST/STM32_USB_Host_Library/Core/Src/usbh_ctlreq.c **** #if (USBH_USE_OS == 1U)
 773:Middlewares/ST/STM32_USB_Host_Library/Core/Src/usbh_ctlreq.c ****         phost->os_msg = (uint32_t)USBH_CONTROL_EVENT;
 774:Middlewares/ST/STM32_USB_Host_Library/Core/Src/usbh_ctlreq.c **** #if (osCMSIS < 0x20000U)
 775:Middlewares/ST/STM32_USB_Host_Library/Core/Src/usbh_ctlreq.c ****         (void)osMessagePut(phost->os_event, phost->os_msg, 0U);
 776:Middlewares/ST/STM32_USB_Host_Library/Core/Src/usbh_ctlreq.c **** #else
 777:Middlewares/ST/STM32_USB_Host_Library/Core/Src/usbh_ctlreq.c ****         (void)osMessageQueuePut(phost->os_event, &phost->os_msg, 0U, NULL);
 778:Middlewares/ST/STM32_USB_Host_Library/Core/Src/usbh_ctlreq.c **** #endif
 779:Middlewares/ST/STM32_USB_Host_Library/Core/Src/usbh_ctlreq.c **** #endif
 780:Middlewares/ST/STM32_USB_Host_Library/Core/Src/usbh_ctlreq.c ****       }
 781:Middlewares/ST/STM32_USB_Host_Library/Core/Src/usbh_ctlreq.c **** 
 782:Middlewares/ST/STM32_USB_Host_Library/Core/Src/usbh_ctlreq.c ****       /* handle error cases */
 783:Middlewares/ST/STM32_USB_Host_Library/Core/Src/usbh_ctlreq.c ****       else if (URB_Status == USBH_URB_STALL)
 784:Middlewares/ST/STM32_USB_Host_Library/Core/Src/usbh_ctlreq.c ****       {
 785:Middlewares/ST/STM32_USB_Host_Library/Core/Src/usbh_ctlreq.c ****         /* In stall case, return to previous machine state*/
 786:Middlewares/ST/STM32_USB_Host_Library/Core/Src/usbh_ctlreq.c ****         phost->Control.state = CTRL_STALLED;
 787:Middlewares/ST/STM32_USB_Host_Library/Core/Src/usbh_ctlreq.c ****         status = USBH_NOT_SUPPORTED;
 788:Middlewares/ST/STM32_USB_Host_Library/Core/Src/usbh_ctlreq.c **** 
 789:Middlewares/ST/STM32_USB_Host_Library/Core/Src/usbh_ctlreq.c **** #if (USBH_USE_OS == 1U)
 790:Middlewares/ST/STM32_USB_Host_Library/Core/Src/usbh_ctlreq.c ****         phost->os_msg = (uint32_t)USBH_CONTROL_EVENT;
 791:Middlewares/ST/STM32_USB_Host_Library/Core/Src/usbh_ctlreq.c **** #if (osCMSIS < 0x20000U)
 792:Middlewares/ST/STM32_USB_Host_Library/Core/Src/usbh_ctlreq.c ****         (void)osMessagePut(phost->os_event, phost->os_msg, 0U);
 793:Middlewares/ST/STM32_USB_Host_Library/Core/Src/usbh_ctlreq.c **** #else
 794:Middlewares/ST/STM32_USB_Host_Library/Core/Src/usbh_ctlreq.c ****         (void)osMessageQueuePut(phost->os_event, &phost->os_msg, 0U, NULL);
 795:Middlewares/ST/STM32_USB_Host_Library/Core/Src/usbh_ctlreq.c **** #endif
 796:Middlewares/ST/STM32_USB_Host_Library/Core/Src/usbh_ctlreq.c **** #endif
 797:Middlewares/ST/STM32_USB_Host_Library/Core/Src/usbh_ctlreq.c ****       }
 798:Middlewares/ST/STM32_USB_Host_Library/Core/Src/usbh_ctlreq.c ****       else if (URB_Status == USBH_URB_NOTREADY)
 799:Middlewares/ST/STM32_USB_Host_Library/Core/Src/usbh_ctlreq.c ****       {
 800:Middlewares/ST/STM32_USB_Host_Library/Core/Src/usbh_ctlreq.c ****         /* Nack received from device */
 801:Middlewares/ST/STM32_USB_Host_Library/Core/Src/usbh_ctlreq.c ****         phost->Control.state = CTRL_DATA_OUT;
 802:Middlewares/ST/STM32_USB_Host_Library/Core/Src/usbh_ctlreq.c **** 
 803:Middlewares/ST/STM32_USB_Host_Library/Core/Src/usbh_ctlreq.c **** #if (USBH_USE_OS == 1U)
 804:Middlewares/ST/STM32_USB_Host_Library/Core/Src/usbh_ctlreq.c ****         phost->os_msg = (uint32_t)USBH_CONTROL_EVENT;
 805:Middlewares/ST/STM32_USB_Host_Library/Core/Src/usbh_ctlreq.c **** #if (osCMSIS < 0x20000U)
 806:Middlewares/ST/STM32_USB_Host_Library/Core/Src/usbh_ctlreq.c ****         (void)osMessagePut(phost->os_event, phost->os_msg, 0U);
 807:Middlewares/ST/STM32_USB_Host_Library/Core/Src/usbh_ctlreq.c **** #else
 808:Middlewares/ST/STM32_USB_Host_Library/Core/Src/usbh_ctlreq.c ****         (void)osMessageQueuePut(phost->os_event, &phost->os_msg, 0U, NULL);
 809:Middlewares/ST/STM32_USB_Host_Library/Core/Src/usbh_ctlreq.c **** #endif
 810:Middlewares/ST/STM32_USB_Host_Library/Core/Src/usbh_ctlreq.c **** #endif
 811:Middlewares/ST/STM32_USB_Host_Library/Core/Src/usbh_ctlreq.c ****       }
 812:Middlewares/ST/STM32_USB_Host_Library/Core/Src/usbh_ctlreq.c ****       else
 813:Middlewares/ST/STM32_USB_Host_Library/Core/Src/usbh_ctlreq.c ****       {
 814:Middlewares/ST/STM32_USB_Host_Library/Core/Src/usbh_ctlreq.c ****         if (URB_Status == USBH_URB_ERROR)
 815:Middlewares/ST/STM32_USB_Host_Library/Core/Src/usbh_ctlreq.c ****         {
 816:Middlewares/ST/STM32_USB_Host_Library/Core/Src/usbh_ctlreq.c ****           /* device error */
 817:Middlewares/ST/STM32_USB_Host_Library/Core/Src/usbh_ctlreq.c ****           phost->Control.state = CTRL_ERROR;
 818:Middlewares/ST/STM32_USB_Host_Library/Core/Src/usbh_ctlreq.c ****           status = USBH_FAIL;
 819:Middlewares/ST/STM32_USB_Host_Library/Core/Src/usbh_ctlreq.c **** 
 820:Middlewares/ST/STM32_USB_Host_Library/Core/Src/usbh_ctlreq.c **** #if (USBH_USE_OS == 1U)
 821:Middlewares/ST/STM32_USB_Host_Library/Core/Src/usbh_ctlreq.c ****           phost->os_msg = (uint32_t)USBH_CONTROL_EVENT;
 822:Middlewares/ST/STM32_USB_Host_Library/Core/Src/usbh_ctlreq.c **** #if (osCMSIS < 0x20000U)
 823:Middlewares/ST/STM32_USB_Host_Library/Core/Src/usbh_ctlreq.c ****           (void)osMessagePut(phost->os_event, phost->os_msg, 0U);
 824:Middlewares/ST/STM32_USB_Host_Library/Core/Src/usbh_ctlreq.c **** #else
 825:Middlewares/ST/STM32_USB_Host_Library/Core/Src/usbh_ctlreq.c ****           (void)osMessageQueuePut(phost->os_event, &phost->os_msg, 0U, NULL);
 826:Middlewares/ST/STM32_USB_Host_Library/Core/Src/usbh_ctlreq.c **** #endif
ARM GAS  /tmp/cc785GWs.s 			page 22


 827:Middlewares/ST/STM32_USB_Host_Library/Core/Src/usbh_ctlreq.c **** #endif
 828:Middlewares/ST/STM32_USB_Host_Library/Core/Src/usbh_ctlreq.c ****         }
 829:Middlewares/ST/STM32_USB_Host_Library/Core/Src/usbh_ctlreq.c ****       }
 830:Middlewares/ST/STM32_USB_Host_Library/Core/Src/usbh_ctlreq.c ****       break;
 831:Middlewares/ST/STM32_USB_Host_Library/Core/Src/usbh_ctlreq.c **** 
 832:Middlewares/ST/STM32_USB_Host_Library/Core/Src/usbh_ctlreq.c ****     case CTRL_STATUS_IN:
 833:Middlewares/ST/STM32_USB_Host_Library/Core/Src/usbh_ctlreq.c ****       /* Send 0 bytes out packet */
 834:Middlewares/ST/STM32_USB_Host_Library/Core/Src/usbh_ctlreq.c ****       USBH_CtlReceiveData(phost, 0U, 0U, phost->Control.pipe_in);
 835:Middlewares/ST/STM32_USB_Host_Library/Core/Src/usbh_ctlreq.c **** 
 836:Middlewares/ST/STM32_USB_Host_Library/Core/Src/usbh_ctlreq.c ****       phost->Control.timer = (uint16_t)phost->Timer;
 837:Middlewares/ST/STM32_USB_Host_Library/Core/Src/usbh_ctlreq.c ****       phost->Control.state = CTRL_STATUS_IN_WAIT;
 838:Middlewares/ST/STM32_USB_Host_Library/Core/Src/usbh_ctlreq.c **** 
 839:Middlewares/ST/STM32_USB_Host_Library/Core/Src/usbh_ctlreq.c ****       break;
 840:Middlewares/ST/STM32_USB_Host_Library/Core/Src/usbh_ctlreq.c **** 
 841:Middlewares/ST/STM32_USB_Host_Library/Core/Src/usbh_ctlreq.c ****     case CTRL_STATUS_IN_WAIT:
 842:Middlewares/ST/STM32_USB_Host_Library/Core/Src/usbh_ctlreq.c **** 
 843:Middlewares/ST/STM32_USB_Host_Library/Core/Src/usbh_ctlreq.c ****       URB_Status = USBH_LL_GetURBState(phost, phost->Control.pipe_in);
 844:Middlewares/ST/STM32_USB_Host_Library/Core/Src/usbh_ctlreq.c **** 
 845:Middlewares/ST/STM32_USB_Host_Library/Core/Src/usbh_ctlreq.c ****       if (URB_Status == USBH_URB_DONE)
 846:Middlewares/ST/STM32_USB_Host_Library/Core/Src/usbh_ctlreq.c ****       {
 847:Middlewares/ST/STM32_USB_Host_Library/Core/Src/usbh_ctlreq.c ****         /* Control transfers completed, Exit the State Machine */
 848:Middlewares/ST/STM32_USB_Host_Library/Core/Src/usbh_ctlreq.c ****         phost->Control.state = CTRL_COMPLETE;
 849:Middlewares/ST/STM32_USB_Host_Library/Core/Src/usbh_ctlreq.c ****         status = USBH_OK;
 850:Middlewares/ST/STM32_USB_Host_Library/Core/Src/usbh_ctlreq.c **** 
 851:Middlewares/ST/STM32_USB_Host_Library/Core/Src/usbh_ctlreq.c **** #if (USBH_USE_OS == 1U)
 852:Middlewares/ST/STM32_USB_Host_Library/Core/Src/usbh_ctlreq.c ****         phost->os_msg = (uint32_t)USBH_CONTROL_EVENT;
 853:Middlewares/ST/STM32_USB_Host_Library/Core/Src/usbh_ctlreq.c **** #if (osCMSIS < 0x20000U)
 854:Middlewares/ST/STM32_USB_Host_Library/Core/Src/usbh_ctlreq.c ****         (void)osMessagePut(phost->os_event, phost->os_msg, 0U);
 855:Middlewares/ST/STM32_USB_Host_Library/Core/Src/usbh_ctlreq.c **** #else
 856:Middlewares/ST/STM32_USB_Host_Library/Core/Src/usbh_ctlreq.c ****         (void)osMessageQueuePut(phost->os_event, &phost->os_msg, 0U, NULL);
 857:Middlewares/ST/STM32_USB_Host_Library/Core/Src/usbh_ctlreq.c **** #endif
 858:Middlewares/ST/STM32_USB_Host_Library/Core/Src/usbh_ctlreq.c **** #endif
 859:Middlewares/ST/STM32_USB_Host_Library/Core/Src/usbh_ctlreq.c ****       }
 860:Middlewares/ST/STM32_USB_Host_Library/Core/Src/usbh_ctlreq.c ****       else if (URB_Status == USBH_URB_ERROR)
 861:Middlewares/ST/STM32_USB_Host_Library/Core/Src/usbh_ctlreq.c ****       {
 862:Middlewares/ST/STM32_USB_Host_Library/Core/Src/usbh_ctlreq.c ****         phost->Control.state = CTRL_ERROR;
 863:Middlewares/ST/STM32_USB_Host_Library/Core/Src/usbh_ctlreq.c **** 
 864:Middlewares/ST/STM32_USB_Host_Library/Core/Src/usbh_ctlreq.c **** #if (USBH_USE_OS == 1U)
 865:Middlewares/ST/STM32_USB_Host_Library/Core/Src/usbh_ctlreq.c ****         phost->os_msg = (uint32_t)USBH_CONTROL_EVENT;
 866:Middlewares/ST/STM32_USB_Host_Library/Core/Src/usbh_ctlreq.c **** #if (osCMSIS < 0x20000U)
 867:Middlewares/ST/STM32_USB_Host_Library/Core/Src/usbh_ctlreq.c ****         (void)osMessagePut(phost->os_event, phost->os_msg, 0U);
 868:Middlewares/ST/STM32_USB_Host_Library/Core/Src/usbh_ctlreq.c **** #else
 869:Middlewares/ST/STM32_USB_Host_Library/Core/Src/usbh_ctlreq.c ****         (void)osMessageQueuePut(phost->os_event, &phost->os_msg, 0U, NULL);
 870:Middlewares/ST/STM32_USB_Host_Library/Core/Src/usbh_ctlreq.c **** #endif
 871:Middlewares/ST/STM32_USB_Host_Library/Core/Src/usbh_ctlreq.c **** #endif
 872:Middlewares/ST/STM32_USB_Host_Library/Core/Src/usbh_ctlreq.c ****       }
 873:Middlewares/ST/STM32_USB_Host_Library/Core/Src/usbh_ctlreq.c ****       else
 874:Middlewares/ST/STM32_USB_Host_Library/Core/Src/usbh_ctlreq.c ****       {
 875:Middlewares/ST/STM32_USB_Host_Library/Core/Src/usbh_ctlreq.c ****         if (URB_Status == USBH_URB_STALL)
 876:Middlewares/ST/STM32_USB_Host_Library/Core/Src/usbh_ctlreq.c ****         {
 877:Middlewares/ST/STM32_USB_Host_Library/Core/Src/usbh_ctlreq.c ****           /* Control transfers completed, Exit the State Machine */
 878:Middlewares/ST/STM32_USB_Host_Library/Core/Src/usbh_ctlreq.c ****           status = USBH_NOT_SUPPORTED;
 879:Middlewares/ST/STM32_USB_Host_Library/Core/Src/usbh_ctlreq.c **** 
 880:Middlewares/ST/STM32_USB_Host_Library/Core/Src/usbh_ctlreq.c **** #if (USBH_USE_OS == 1U)
 881:Middlewares/ST/STM32_USB_Host_Library/Core/Src/usbh_ctlreq.c ****           phost->os_msg = (uint32_t)USBH_CONTROL_EVENT;
 882:Middlewares/ST/STM32_USB_Host_Library/Core/Src/usbh_ctlreq.c **** #if (osCMSIS < 0x20000U)
 883:Middlewares/ST/STM32_USB_Host_Library/Core/Src/usbh_ctlreq.c ****           (void)osMessagePut(phost->os_event, phost->os_msg, 0U);
ARM GAS  /tmp/cc785GWs.s 			page 23


 884:Middlewares/ST/STM32_USB_Host_Library/Core/Src/usbh_ctlreq.c **** #else
 885:Middlewares/ST/STM32_USB_Host_Library/Core/Src/usbh_ctlreq.c ****           (void)osMessageQueuePut(phost->os_event, &phost->os_msg, 0U, NULL);
 886:Middlewares/ST/STM32_USB_Host_Library/Core/Src/usbh_ctlreq.c **** #endif
 887:Middlewares/ST/STM32_USB_Host_Library/Core/Src/usbh_ctlreq.c **** #endif
 888:Middlewares/ST/STM32_USB_Host_Library/Core/Src/usbh_ctlreq.c ****         }
 889:Middlewares/ST/STM32_USB_Host_Library/Core/Src/usbh_ctlreq.c ****       }
 890:Middlewares/ST/STM32_USB_Host_Library/Core/Src/usbh_ctlreq.c ****       break;
 891:Middlewares/ST/STM32_USB_Host_Library/Core/Src/usbh_ctlreq.c **** 
 892:Middlewares/ST/STM32_USB_Host_Library/Core/Src/usbh_ctlreq.c ****     case CTRL_STATUS_OUT:
 893:Middlewares/ST/STM32_USB_Host_Library/Core/Src/usbh_ctlreq.c ****       USBH_CtlSendData(phost, 0U, 0U, phost->Control.pipe_out, 1U);
 894:Middlewares/ST/STM32_USB_Host_Library/Core/Src/usbh_ctlreq.c **** 
 895:Middlewares/ST/STM32_USB_Host_Library/Core/Src/usbh_ctlreq.c ****       phost->Control.timer = (uint16_t)phost->Timer;
 896:Middlewares/ST/STM32_USB_Host_Library/Core/Src/usbh_ctlreq.c ****       phost->Control.state = CTRL_STATUS_OUT_WAIT;
 897:Middlewares/ST/STM32_USB_Host_Library/Core/Src/usbh_ctlreq.c ****       break;
 898:Middlewares/ST/STM32_USB_Host_Library/Core/Src/usbh_ctlreq.c **** 
 899:Middlewares/ST/STM32_USB_Host_Library/Core/Src/usbh_ctlreq.c ****     case CTRL_STATUS_OUT_WAIT:
 900:Middlewares/ST/STM32_USB_Host_Library/Core/Src/usbh_ctlreq.c ****       URB_Status = USBH_LL_GetURBState(phost, phost->Control.pipe_out);
 901:Middlewares/ST/STM32_USB_Host_Library/Core/Src/usbh_ctlreq.c ****       if (URB_Status == USBH_URB_DONE)
 902:Middlewares/ST/STM32_USB_Host_Library/Core/Src/usbh_ctlreq.c ****       {
 903:Middlewares/ST/STM32_USB_Host_Library/Core/Src/usbh_ctlreq.c ****         status = USBH_OK;
 904:Middlewares/ST/STM32_USB_Host_Library/Core/Src/usbh_ctlreq.c ****         phost->Control.state = CTRL_COMPLETE;
 905:Middlewares/ST/STM32_USB_Host_Library/Core/Src/usbh_ctlreq.c **** 
 906:Middlewares/ST/STM32_USB_Host_Library/Core/Src/usbh_ctlreq.c **** #if (USBH_USE_OS == 1U)
 907:Middlewares/ST/STM32_USB_Host_Library/Core/Src/usbh_ctlreq.c ****         phost->os_msg = (uint32_t)USBH_CONTROL_EVENT;
 908:Middlewares/ST/STM32_USB_Host_Library/Core/Src/usbh_ctlreq.c **** #if (osCMSIS < 0x20000U)
 909:Middlewares/ST/STM32_USB_Host_Library/Core/Src/usbh_ctlreq.c ****         (void)osMessagePut(phost->os_event, phost->os_msg, 0U);
 910:Middlewares/ST/STM32_USB_Host_Library/Core/Src/usbh_ctlreq.c **** #else
 911:Middlewares/ST/STM32_USB_Host_Library/Core/Src/usbh_ctlreq.c ****         (void)osMessageQueuePut(phost->os_event, &phost->os_msg, 0U, NULL);
 912:Middlewares/ST/STM32_USB_Host_Library/Core/Src/usbh_ctlreq.c **** #endif
 913:Middlewares/ST/STM32_USB_Host_Library/Core/Src/usbh_ctlreq.c **** #endif
 914:Middlewares/ST/STM32_USB_Host_Library/Core/Src/usbh_ctlreq.c ****       }
 915:Middlewares/ST/STM32_USB_Host_Library/Core/Src/usbh_ctlreq.c ****       else if (URB_Status == USBH_URB_NOTREADY)
 916:Middlewares/ST/STM32_USB_Host_Library/Core/Src/usbh_ctlreq.c ****       {
 917:Middlewares/ST/STM32_USB_Host_Library/Core/Src/usbh_ctlreq.c ****         phost->Control.state = CTRL_STATUS_OUT;
 918:Middlewares/ST/STM32_USB_Host_Library/Core/Src/usbh_ctlreq.c **** 
 919:Middlewares/ST/STM32_USB_Host_Library/Core/Src/usbh_ctlreq.c **** #if (USBH_USE_OS == 1U)
 920:Middlewares/ST/STM32_USB_Host_Library/Core/Src/usbh_ctlreq.c ****         phost->os_msg = (uint32_t)USBH_CONTROL_EVENT;
 921:Middlewares/ST/STM32_USB_Host_Library/Core/Src/usbh_ctlreq.c **** #if (osCMSIS < 0x20000U)
 922:Middlewares/ST/STM32_USB_Host_Library/Core/Src/usbh_ctlreq.c ****         (void)osMessagePut(phost->os_event, phost->os_msg, 0U);
 923:Middlewares/ST/STM32_USB_Host_Library/Core/Src/usbh_ctlreq.c **** #else
 924:Middlewares/ST/STM32_USB_Host_Library/Core/Src/usbh_ctlreq.c ****         (void)osMessageQueuePut(phost->os_event, &phost->os_msg, 0U, NULL);
 925:Middlewares/ST/STM32_USB_Host_Library/Core/Src/usbh_ctlreq.c **** #endif
 926:Middlewares/ST/STM32_USB_Host_Library/Core/Src/usbh_ctlreq.c **** #endif
 927:Middlewares/ST/STM32_USB_Host_Library/Core/Src/usbh_ctlreq.c ****       }
 928:Middlewares/ST/STM32_USB_Host_Library/Core/Src/usbh_ctlreq.c ****       else
 929:Middlewares/ST/STM32_USB_Host_Library/Core/Src/usbh_ctlreq.c ****       {
 930:Middlewares/ST/STM32_USB_Host_Library/Core/Src/usbh_ctlreq.c ****         if (URB_Status == USBH_URB_ERROR)
 931:Middlewares/ST/STM32_USB_Host_Library/Core/Src/usbh_ctlreq.c ****         {
 932:Middlewares/ST/STM32_USB_Host_Library/Core/Src/usbh_ctlreq.c ****           phost->Control.state = CTRL_ERROR;
 933:Middlewares/ST/STM32_USB_Host_Library/Core/Src/usbh_ctlreq.c **** 
 934:Middlewares/ST/STM32_USB_Host_Library/Core/Src/usbh_ctlreq.c **** #if (USBH_USE_OS == 1U)
 935:Middlewares/ST/STM32_USB_Host_Library/Core/Src/usbh_ctlreq.c ****           phost->os_msg = (uint32_t)USBH_CONTROL_EVENT;
 936:Middlewares/ST/STM32_USB_Host_Library/Core/Src/usbh_ctlreq.c **** #if (osCMSIS < 0x20000U)
 937:Middlewares/ST/STM32_USB_Host_Library/Core/Src/usbh_ctlreq.c ****           (void)osMessagePut(phost->os_event, phost->os_msg, 0U);
 938:Middlewares/ST/STM32_USB_Host_Library/Core/Src/usbh_ctlreq.c **** #else
 939:Middlewares/ST/STM32_USB_Host_Library/Core/Src/usbh_ctlreq.c ****           (void)osMessageQueuePut(phost->os_event, &phost->os_msg, 0U, NULL);
 940:Middlewares/ST/STM32_USB_Host_Library/Core/Src/usbh_ctlreq.c **** #endif
ARM GAS  /tmp/cc785GWs.s 			page 24


 941:Middlewares/ST/STM32_USB_Host_Library/Core/Src/usbh_ctlreq.c **** #endif
 942:Middlewares/ST/STM32_USB_Host_Library/Core/Src/usbh_ctlreq.c ****         }
 943:Middlewares/ST/STM32_USB_Host_Library/Core/Src/usbh_ctlreq.c ****       }
 944:Middlewares/ST/STM32_USB_Host_Library/Core/Src/usbh_ctlreq.c ****       break;
 945:Middlewares/ST/STM32_USB_Host_Library/Core/Src/usbh_ctlreq.c **** 
 946:Middlewares/ST/STM32_USB_Host_Library/Core/Src/usbh_ctlreq.c ****     case CTRL_ERROR:
 947:Middlewares/ST/STM32_USB_Host_Library/Core/Src/usbh_ctlreq.c ****       /*
 948:Middlewares/ST/STM32_USB_Host_Library/Core/Src/usbh_ctlreq.c ****       After a halt condition is encountered or an error is detected by the
 949:Middlewares/ST/STM32_USB_Host_Library/Core/Src/usbh_ctlreq.c ****       host, a control endpoint is allowed to recover by accepting the next Setup
 950:Middlewares/ST/STM32_USB_Host_Library/Core/Src/usbh_ctlreq.c ****       PID; i.e., recovery actions via some other pipe are not required for control
 951:Middlewares/ST/STM32_USB_Host_Library/Core/Src/usbh_ctlreq.c ****       endpoints. For the Default Control Pipe, a device reset will ultimately be
 952:Middlewares/ST/STM32_USB_Host_Library/Core/Src/usbh_ctlreq.c ****       required to clear the halt or error condition if the next Setup PID is not
 953:Middlewares/ST/STM32_USB_Host_Library/Core/Src/usbh_ctlreq.c ****       accepted.
 954:Middlewares/ST/STM32_USB_Host_Library/Core/Src/usbh_ctlreq.c ****       */
 955:Middlewares/ST/STM32_USB_Host_Library/Core/Src/usbh_ctlreq.c ****       if (++phost->Control.errorcount <= USBH_MAX_ERROR_COUNT)
 956:Middlewares/ST/STM32_USB_Host_Library/Core/Src/usbh_ctlreq.c ****       {
 957:Middlewares/ST/STM32_USB_Host_Library/Core/Src/usbh_ctlreq.c ****         /* Do the transmission again, starting from SETUP Packet */
 958:Middlewares/ST/STM32_USB_Host_Library/Core/Src/usbh_ctlreq.c ****         phost->Control.state = CTRL_SETUP;
 959:Middlewares/ST/STM32_USB_Host_Library/Core/Src/usbh_ctlreq.c ****         phost->RequestState = CMD_SEND;
 960:Middlewares/ST/STM32_USB_Host_Library/Core/Src/usbh_ctlreq.c ****       }
 961:Middlewares/ST/STM32_USB_Host_Library/Core/Src/usbh_ctlreq.c ****       else
 962:Middlewares/ST/STM32_USB_Host_Library/Core/Src/usbh_ctlreq.c ****       {
 963:Middlewares/ST/STM32_USB_Host_Library/Core/Src/usbh_ctlreq.c ****         phost->pUser(phost, HOST_USER_UNRECOVERED_ERROR);
 964:Middlewares/ST/STM32_USB_Host_Library/Core/Src/usbh_ctlreq.c ****         phost->Control.errorcount = 0U;
 965:Middlewares/ST/STM32_USB_Host_Library/Core/Src/usbh_ctlreq.c ****         USBH_ErrLog("Control error: Device not responding");
 966:Middlewares/ST/STM32_USB_Host_Library/Core/Src/usbh_ctlreq.c **** 
 967:Middlewares/ST/STM32_USB_Host_Library/Core/Src/usbh_ctlreq.c ****         /* Free control pipes */
 968:Middlewares/ST/STM32_USB_Host_Library/Core/Src/usbh_ctlreq.c ****         USBH_FreePipe(phost, phost->Control.pipe_out);
 969:Middlewares/ST/STM32_USB_Host_Library/Core/Src/usbh_ctlreq.c ****         USBH_FreePipe(phost, phost->Control.pipe_in);
 970:Middlewares/ST/STM32_USB_Host_Library/Core/Src/usbh_ctlreq.c **** 
 971:Middlewares/ST/STM32_USB_Host_Library/Core/Src/usbh_ctlreq.c ****         phost->gState = HOST_IDLE;
 972:Middlewares/ST/STM32_USB_Host_Library/Core/Src/usbh_ctlreq.c ****         status = USBH_FAIL;
 973:Middlewares/ST/STM32_USB_Host_Library/Core/Src/usbh_ctlreq.c ****       }
 974:Middlewares/ST/STM32_USB_Host_Library/Core/Src/usbh_ctlreq.c ****       break;
 975:Middlewares/ST/STM32_USB_Host_Library/Core/Src/usbh_ctlreq.c **** 
 976:Middlewares/ST/STM32_USB_Host_Library/Core/Src/usbh_ctlreq.c ****     default:
 977:Middlewares/ST/STM32_USB_Host_Library/Core/Src/usbh_ctlreq.c ****       break;
 978:Middlewares/ST/STM32_USB_Host_Library/Core/Src/usbh_ctlreq.c ****   }
 979:Middlewares/ST/STM32_USB_Host_Library/Core/Src/usbh_ctlreq.c **** 
 980:Middlewares/ST/STM32_USB_Host_Library/Core/Src/usbh_ctlreq.c ****   return status;
 360              		.loc 1 980 3 view .LVU116
 981:Middlewares/ST/STM32_USB_Host_Library/Core/Src/usbh_ctlreq.c **** }
 361              		.loc 1 981 1 is_stmt 0 view .LVU117
 362 0038 2846     		mov	r0, r5
 363 003a 03B0     		add	sp, sp, #12
 364              	.LCFI2:
 365              		.cfi_remember_state
 366              		.cfi_def_cfa_offset 12
 367              		@ sp needed
 368 003c 30BD     		pop	{r4, r5, pc}
 369              	.LVL18:
 370              	.L22:
 371              	.LCFI3:
 372              		.cfi_restore_state
 629:Middlewares/ST/STM32_USB_Host_Library/Core/Src/usbh_ctlreq.c ****       /* case SETUP packet sent successfully */
 373              		.loc 1 629 7 is_stmt 1 view .LVU118
 629:Middlewares/ST/STM32_USB_Host_Library/Core/Src/usbh_ctlreq.c ****       /* case SETUP packet sent successfully */
ARM GAS  /tmp/cc785GWs.s 			page 25


 374              		.loc 1 629 20 is_stmt 0 view .LVU119
 375 003e 4179     		ldrb	r1, [r0, #5]	@ zero_extendqisi2
 376 0040 FFF7FEFF 		bl	USBH_LL_GetURBState
 377              	.LVL19:
 629:Middlewares/ST/STM32_USB_Host_Library/Core/Src/usbh_ctlreq.c ****       /* case SETUP packet sent successfully */
 378              		.loc 1 629 20 view .LVU120
 379 0044 0546     		mov	r5, r0
 380              	.LVL20:
 631:Middlewares/ST/STM32_USB_Host_Library/Core/Src/usbh_ctlreq.c ****       {
 381              		.loc 1 631 7 is_stmt 1 view .LVU121
 631:Middlewares/ST/STM32_USB_Host_Library/Core/Src/usbh_ctlreq.c ****       {
 382              		.loc 1 631 10 is_stmt 0 view .LVU122
 383 0046 0128     		cmp	r0, #1
 384 0048 05D0     		beq	.L47
 676:Middlewares/ST/STM32_USB_Host_Library/Core/Src/usbh_ctlreq.c ****         {
 385              		.loc 1 676 9 is_stmt 1 view .LVU123
 676:Middlewares/ST/STM32_USB_Host_Library/Core/Src/usbh_ctlreq.c ****         {
 386              		.loc 1 676 12 is_stmt 0 view .LVU124
 387 004a 0428     		cmp	r0, #4
 388 004c 20D0     		beq	.L29
 676:Middlewares/ST/STM32_USB_Host_Library/Core/Src/usbh_ctlreq.c ****         {
 389              		.loc 1 676 44 discriminator 1 view .LVU125
 390 004e 0228     		cmp	r0, #2
 391 0050 1ED0     		beq	.L29
 614:Middlewares/ST/STM32_USB_Host_Library/Core/Src/usbh_ctlreq.c ****   USBH_URBStateTypeDef URB_Status = USBH_URB_IDLE;
 392              		.loc 1 614 22 view .LVU126
 393 0052 0125     		movs	r5, #1
 394 0054 F0E7     		b	.L11
 395              	.L47:
 633:Middlewares/ST/STM32_USB_Host_Library/Core/Src/usbh_ctlreq.c **** 
 396              		.loc 1 633 9 is_stmt 1 view .LVU127
 633:Middlewares/ST/STM32_USB_Host_Library/Core/Src/usbh_ctlreq.c **** 
 397              		.loc 1 633 44 is_stmt 0 view .LVU128
 398 0056 237C     		ldrb	r3, [r4, #16]	@ zero_extendqisi2
 399              	.LVL21:
 636:Middlewares/ST/STM32_USB_Host_Library/Core/Src/usbh_ctlreq.c ****         {
 400              		.loc 1 636 9 is_stmt 1 view .LVU129
 636:Middlewares/ST/STM32_USB_Host_Library/Core/Src/usbh_ctlreq.c ****         {
 401              		.loc 1 636 43 is_stmt 0 view .LVU130
 402 0058 E28A     		ldrh	r2, [r4, #22]
 636:Middlewares/ST/STM32_USB_Host_Library/Core/Src/usbh_ctlreq.c ****         {
 403              		.loc 1 636 12 view .LVU131
 404 005a 82B1     		cbz	r2, .L25
 638:Middlewares/ST/STM32_USB_Host_Library/Core/Src/usbh_ctlreq.c ****           {
 405              		.loc 1 638 11 is_stmt 1 view .LVU132
 638:Middlewares/ST/STM32_USB_Host_Library/Core/Src/usbh_ctlreq.c ****           {
 406              		.loc 1 638 14 is_stmt 0 view .LVU133
 407 005c 13F0800F 		tst	r3, #128
 408 0060 0AD1     		bne	.L48
 646:Middlewares/ST/STM32_USB_Host_Library/Core/Src/usbh_ctlreq.c ****           }
 409              		.loc 1 646 13 is_stmt 1 view .LVU134
 646:Middlewares/ST/STM32_USB_Host_Library/Core/Src/usbh_ctlreq.c ****           }
 410              		.loc 1 646 34 is_stmt 0 view .LVU135
 411 0062 0523     		movs	r3, #5
 412              	.LVL22:
 646:Middlewares/ST/STM32_USB_Host_Library/Core/Src/usbh_ctlreq.c ****           }
 413              		.loc 1 646 34 view .LVU136
ARM GAS  /tmp/cc785GWs.s 			page 26


 414 0064 2376     		strb	r3, [r4, #24]
 415              	.L27:
 666:Middlewares/ST/STM32_USB_Host_Library/Core/Src/usbh_ctlreq.c **** #if (osCMSIS < 0x20000U)
 416              		.loc 1 666 9 is_stmt 1 view .LVU137
 666:Middlewares/ST/STM32_USB_Host_Library/Core/Src/usbh_ctlreq.c **** #if (osCMSIS < 0x20000U)
 417              		.loc 1 666 23 is_stmt 0 view .LVU138
 418 0066 0321     		movs	r1, #3
 419 0068 C4F8E013 		str	r1, [r4, #992]
 668:Middlewares/ST/STM32_USB_Host_Library/Core/Src/usbh_ctlreq.c **** #else
 420              		.loc 1 668 9 is_stmt 1 view .LVU139
 668:Middlewares/ST/STM32_USB_Host_Library/Core/Src/usbh_ctlreq.c **** #else
 421              		.loc 1 668 15 is_stmt 0 view .LVU140
 422 006c 0022     		movs	r2, #0
 423 006e D4F8D803 		ldr	r0, [r4, #984]
 424              	.LVL23:
 668:Middlewares/ST/STM32_USB_Host_Library/Core/Src/usbh_ctlreq.c **** #else
 425              		.loc 1 668 15 view .LVU141
 426 0072 FFF7FEFF 		bl	osMessagePut
 427              	.LVL24:
 668:Middlewares/ST/STM32_USB_Host_Library/Core/Src/usbh_ctlreq.c **** #else
 428              		.loc 1 668 15 view .LVU142
 429 0076 DFE7     		b	.L11
 430              	.LVL25:
 431              	.L48:
 641:Middlewares/ST/STM32_USB_Host_Library/Core/Src/usbh_ctlreq.c ****           }
 432              		.loc 1 641 13 is_stmt 1 view .LVU143
 641:Middlewares/ST/STM32_USB_Host_Library/Core/Src/usbh_ctlreq.c ****           }
 433              		.loc 1 641 34 is_stmt 0 view .LVU144
 434 0078 0323     		movs	r3, #3
 435              	.LVL26:
 641:Middlewares/ST/STM32_USB_Host_Library/Core/Src/usbh_ctlreq.c ****           }
 436              		.loc 1 641 34 view .LVU145
 437 007a 2376     		strb	r3, [r4, #24]
 438 007c F3E7     		b	.L27
 439              	.LVL27:
 440              	.L25:
 653:Middlewares/ST/STM32_USB_Host_Library/Core/Src/usbh_ctlreq.c ****           {
 441              		.loc 1 653 11 is_stmt 1 view .LVU146
 653:Middlewares/ST/STM32_USB_Host_Library/Core/Src/usbh_ctlreq.c ****           {
 442              		.loc 1 653 14 is_stmt 0 view .LVU147
 443 007e 13F0800F 		tst	r3, #128
 444 0082 02D1     		bne	.L49
 661:Middlewares/ST/STM32_USB_Host_Library/Core/Src/usbh_ctlreq.c ****           }
 445              		.loc 1 661 13 is_stmt 1 view .LVU148
 661:Middlewares/ST/STM32_USB_Host_Library/Core/Src/usbh_ctlreq.c ****           }
 446              		.loc 1 661 34 is_stmt 0 view .LVU149
 447 0084 0723     		movs	r3, #7
 448              	.LVL28:
 661:Middlewares/ST/STM32_USB_Host_Library/Core/Src/usbh_ctlreq.c ****           }
 449              		.loc 1 661 34 view .LVU150
 450 0086 2376     		strb	r3, [r4, #24]
 451 0088 EDE7     		b	.L27
 452              	.LVL29:
 453              	.L49:
 656:Middlewares/ST/STM32_USB_Host_Library/Core/Src/usbh_ctlreq.c ****           }
 454              		.loc 1 656 13 is_stmt 1 view .LVU151
 656:Middlewares/ST/STM32_USB_Host_Library/Core/Src/usbh_ctlreq.c ****           }
ARM GAS  /tmp/cc785GWs.s 			page 27


 455              		.loc 1 656 34 is_stmt 0 view .LVU152
 456 008a 0923     		movs	r3, #9
 457              	.LVL30:
 656:Middlewares/ST/STM32_USB_Host_Library/Core/Src/usbh_ctlreq.c ****           }
 458              		.loc 1 656 34 view .LVU153
 459 008c 2376     		strb	r3, [r4, #24]
 460 008e EAE7     		b	.L27
 461              	.LVL31:
 462              	.L29:
 678:Middlewares/ST/STM32_USB_Host_Library/Core/Src/usbh_ctlreq.c **** 
 463              		.loc 1 678 11 is_stmt 1 view .LVU154
 678:Middlewares/ST/STM32_USB_Host_Library/Core/Src/usbh_ctlreq.c **** 
 464              		.loc 1 678 32 is_stmt 0 view .LVU155
 465 0090 0B23     		movs	r3, #11
 466 0092 2376     		strb	r3, [r4, #24]
 681:Middlewares/ST/STM32_USB_Host_Library/Core/Src/usbh_ctlreq.c **** #if (osCMSIS < 0x20000U)
 467              		.loc 1 681 11 is_stmt 1 view .LVU156
 681:Middlewares/ST/STM32_USB_Host_Library/Core/Src/usbh_ctlreq.c **** #if (osCMSIS < 0x20000U)
 468              		.loc 1 681 25 is_stmt 0 view .LVU157
 469 0094 0321     		movs	r1, #3
 470 0096 C4F8E013 		str	r1, [r4, #992]
 683:Middlewares/ST/STM32_USB_Host_Library/Core/Src/usbh_ctlreq.c **** #else
 471              		.loc 1 683 11 is_stmt 1 view .LVU158
 683:Middlewares/ST/STM32_USB_Host_Library/Core/Src/usbh_ctlreq.c **** #else
 472              		.loc 1 683 17 is_stmt 0 view .LVU159
 473 009a 0022     		movs	r2, #0
 474 009c D4F8D803 		ldr	r0, [r4, #984]
 475              	.LVL32:
 683:Middlewares/ST/STM32_USB_Host_Library/Core/Src/usbh_ctlreq.c **** #else
 476              		.loc 1 683 17 view .LVU160
 477 00a0 FFF7FEFF 		bl	osMessagePut
 478              	.LVL33:
 614:Middlewares/ST/STM32_USB_Host_Library/Core/Src/usbh_ctlreq.c ****   USBH_URBStateTypeDef URB_Status = USBH_URB_IDLE;
 479              		.loc 1 614 22 view .LVU161
 480 00a4 0125     		movs	r5, #1
 481 00a6 C7E7     		b	.L11
 482              	.LVL34:
 483              	.L21:
 694:Middlewares/ST/STM32_USB_Host_Library/Core/Src/usbh_ctlreq.c ****       USBH_CtlReceiveData(phost, phost->Control.buff, phost->Control.length,
 484              		.loc 1 694 7 is_stmt 1 view .LVU162
 694:Middlewares/ST/STM32_USB_Host_Library/Core/Src/usbh_ctlreq.c ****       USBH_CtlReceiveData(phost, phost->Control.buff, phost->Control.length,
 485              		.loc 1 694 45 is_stmt 0 view .LVU163
 486 00a8 D0F8C433 		ldr	r3, [r0, #964]
 694:Middlewares/ST/STM32_USB_Host_Library/Core/Src/usbh_ctlreq.c ****       USBH_CtlReceiveData(phost, phost->Control.buff, phost->Control.length,
 487              		.loc 1 694 28 view .LVU164
 488 00ac C381     		strh	r3, [r0, #14]	@ movhi
 695:Middlewares/ST/STM32_USB_Host_Library/Core/Src/usbh_ctlreq.c ****                           phost->Control.pipe_in);
 489              		.loc 1 695 7 is_stmt 1 view .LVU165
 490 00ae 0379     		ldrb	r3, [r0, #4]	@ zero_extendqisi2
 491 00b0 8289     		ldrh	r2, [r0, #12]
 492 00b2 8168     		ldr	r1, [r0, #8]
 493 00b4 FFF7FEFF 		bl	USBH_CtlReceiveData
 494              	.LVL35:
 698:Middlewares/ST/STM32_USB_Host_Library/Core/Src/usbh_ctlreq.c ****       break;
 495              		.loc 1 698 7 view .LVU166
 698:Middlewares/ST/STM32_USB_Host_Library/Core/Src/usbh_ctlreq.c ****       break;
 496              		.loc 1 698 28 is_stmt 0 view .LVU167
ARM GAS  /tmp/cc785GWs.s 			page 28


 497 00b8 0423     		movs	r3, #4
 498 00ba 2376     		strb	r3, [r4, #24]
 699:Middlewares/ST/STM32_USB_Host_Library/Core/Src/usbh_ctlreq.c **** 
 499              		.loc 1 699 7 is_stmt 1 view .LVU168
 614:Middlewares/ST/STM32_USB_Host_Library/Core/Src/usbh_ctlreq.c ****   USBH_URBStateTypeDef URB_Status = USBH_URB_IDLE;
 500              		.loc 1 614 22 is_stmt 0 view .LVU169
 501 00bc 0125     		movs	r5, #1
 699:Middlewares/ST/STM32_USB_Host_Library/Core/Src/usbh_ctlreq.c **** 
 502              		.loc 1 699 7 view .LVU170
 503 00be BBE7     		b	.L11
 504              	.LVL36:
 505              	.L20:
 703:Middlewares/ST/STM32_USB_Host_Library/Core/Src/usbh_ctlreq.c **** 
 506              		.loc 1 703 7 is_stmt 1 view .LVU171
 703:Middlewares/ST/STM32_USB_Host_Library/Core/Src/usbh_ctlreq.c **** 
 507              		.loc 1 703 20 is_stmt 0 view .LVU172
 508 00c0 0179     		ldrb	r1, [r0, #4]	@ zero_extendqisi2
 509 00c2 FFF7FEFF 		bl	USBH_LL_GetURBState
 510              	.LVL37:
 703:Middlewares/ST/STM32_USB_Host_Library/Core/Src/usbh_ctlreq.c **** 
 511              		.loc 1 703 20 view .LVU173
 512 00c6 0546     		mov	r5, r0
 513              	.LVL38:
 706:Middlewares/ST/STM32_USB_Host_Library/Core/Src/usbh_ctlreq.c ****       {
 514              		.loc 1 706 7 is_stmt 1 view .LVU174
 706:Middlewares/ST/STM32_USB_Host_Library/Core/Src/usbh_ctlreq.c ****       {
 515              		.loc 1 706 10 is_stmt 0 view .LVU175
 516 00c8 0128     		cmp	r0, #1
 517 00ca 05D0     		beq	.L50
 518              	.LVL39:
 519              	.L30:
 721:Middlewares/ST/STM32_USB_Host_Library/Core/Src/usbh_ctlreq.c ****       {
 520              		.loc 1 721 7 is_stmt 1 view .LVU176
 721:Middlewares/ST/STM32_USB_Host_Library/Core/Src/usbh_ctlreq.c ****       {
 521              		.loc 1 721 10 is_stmt 0 view .LVU177
 522 00cc 052D     		cmp	r5, #5
 523 00ce 0ED0     		beq	.L51
 737:Middlewares/ST/STM32_USB_Host_Library/Core/Src/usbh_ctlreq.c ****         {
 524              		.loc 1 737 9 is_stmt 1 view .LVU178
 737:Middlewares/ST/STM32_USB_Host_Library/Core/Src/usbh_ctlreq.c ****         {
 525              		.loc 1 737 12 is_stmt 0 view .LVU179
 526 00d0 042D     		cmp	r5, #4
 527 00d2 16D0     		beq	.L52
 614:Middlewares/ST/STM32_USB_Host_Library/Core/Src/usbh_ctlreq.c ****   USBH_URBStateTypeDef URB_Status = USBH_URB_IDLE;
 528              		.loc 1 614 22 view .LVU180
 529 00d4 0125     		movs	r5, #1
 530 00d6 AFE7     		b	.L11
 531              	.LVL40:
 532              	.L50:
 708:Middlewares/ST/STM32_USB_Host_Library/Core/Src/usbh_ctlreq.c **** 
 533              		.loc 1 708 9 is_stmt 1 view .LVU181
 708:Middlewares/ST/STM32_USB_Host_Library/Core/Src/usbh_ctlreq.c **** 
 534              		.loc 1 708 30 is_stmt 0 view .LVU182
 535 00d8 0923     		movs	r3, #9
 536 00da 2376     		strb	r3, [r4, #24]
 711:Middlewares/ST/STM32_USB_Host_Library/Core/Src/usbh_ctlreq.c **** #if (osCMSIS < 0x20000U)
 537              		.loc 1 711 9 is_stmt 1 view .LVU183
ARM GAS  /tmp/cc785GWs.s 			page 29


 711:Middlewares/ST/STM32_USB_Host_Library/Core/Src/usbh_ctlreq.c **** #if (osCMSIS < 0x20000U)
 538              		.loc 1 711 23 is_stmt 0 view .LVU184
 539 00dc 0321     		movs	r1, #3
 540 00de C4F8E013 		str	r1, [r4, #992]
 713:Middlewares/ST/STM32_USB_Host_Library/Core/Src/usbh_ctlreq.c **** #else
 541              		.loc 1 713 9 is_stmt 1 view .LVU185
 713:Middlewares/ST/STM32_USB_Host_Library/Core/Src/usbh_ctlreq.c **** #else
 542              		.loc 1 713 15 is_stmt 0 view .LVU186
 543 00e2 0022     		movs	r2, #0
 544 00e4 D4F8D803 		ldr	r0, [r4, #984]
 545              	.LVL41:
 713:Middlewares/ST/STM32_USB_Host_Library/Core/Src/usbh_ctlreq.c **** #else
 546              		.loc 1 713 15 view .LVU187
 547 00e8 FFF7FEFF 		bl	osMessagePut
 548              	.LVL42:
 549 00ec EEE7     		b	.L30
 550              	.L51:
 724:Middlewares/ST/STM32_USB_Host_Library/Core/Src/usbh_ctlreq.c **** 
 551              		.loc 1 724 9 is_stmt 1 view .LVU188
 552              	.LVL43:
 727:Middlewares/ST/STM32_USB_Host_Library/Core/Src/usbh_ctlreq.c **** #if (osCMSIS < 0x20000U)
 553              		.loc 1 727 9 view .LVU189
 727:Middlewares/ST/STM32_USB_Host_Library/Core/Src/usbh_ctlreq.c **** #if (osCMSIS < 0x20000U)
 554              		.loc 1 727 23 is_stmt 0 view .LVU190
 555 00ee 0325     		movs	r5, #3
 556 00f0 C4F8E053 		str	r5, [r4, #992]
 729:Middlewares/ST/STM32_USB_Host_Library/Core/Src/usbh_ctlreq.c **** #else
 557              		.loc 1 729 9 is_stmt 1 view .LVU191
 729:Middlewares/ST/STM32_USB_Host_Library/Core/Src/usbh_ctlreq.c **** #else
 558              		.loc 1 729 15 is_stmt 0 view .LVU192
 559 00f4 0022     		movs	r2, #0
 560 00f6 2946     		mov	r1, r5
 561 00f8 D4F8D803 		ldr	r0, [r4, #984]
 562 00fc FFF7FEFF 		bl	osMessagePut
 563              	.LVL44:
 564 0100 9AE7     		b	.L11
 565              	.LVL45:
 566              	.L52:
 740:Middlewares/ST/STM32_USB_Host_Library/Core/Src/usbh_ctlreq.c **** 
 567              		.loc 1 740 11 is_stmt 1 view .LVU193
 740:Middlewares/ST/STM32_USB_Host_Library/Core/Src/usbh_ctlreq.c **** 
 568              		.loc 1 740 32 is_stmt 0 view .LVU194
 569 0102 0B23     		movs	r3, #11
 570 0104 2376     		strb	r3, [r4, #24]
 743:Middlewares/ST/STM32_USB_Host_Library/Core/Src/usbh_ctlreq.c **** #if (osCMSIS < 0x20000U)
 571              		.loc 1 743 11 is_stmt 1 view .LVU195
 743:Middlewares/ST/STM32_USB_Host_Library/Core/Src/usbh_ctlreq.c **** #if (osCMSIS < 0x20000U)
 572              		.loc 1 743 25 is_stmt 0 view .LVU196
 573 0106 0321     		movs	r1, #3
 574 0108 C4F8E013 		str	r1, [r4, #992]
 745:Middlewares/ST/STM32_USB_Host_Library/Core/Src/usbh_ctlreq.c **** #else
 575              		.loc 1 745 11 is_stmt 1 view .LVU197
 745:Middlewares/ST/STM32_USB_Host_Library/Core/Src/usbh_ctlreq.c **** #else
 576              		.loc 1 745 17 is_stmt 0 view .LVU198
 577 010c 0022     		movs	r2, #0
 578 010e D4F8D803 		ldr	r0, [r4, #984]
 579 0112 FFF7FEFF 		bl	osMessagePut
ARM GAS  /tmp/cc785GWs.s 			page 30


 580              	.LVL46:
 614:Middlewares/ST/STM32_USB_Host_Library/Core/Src/usbh_ctlreq.c ****   USBH_URBStateTypeDef URB_Status = USBH_URB_IDLE;
 581              		.loc 1 614 22 view .LVU199
 582 0116 0125     		movs	r5, #1
 583 0118 8EE7     		b	.L11
 584              	.LVL47:
 585              	.L19:
 756:Middlewares/ST/STM32_USB_Host_Library/Core/Src/usbh_ctlreq.c ****                        phost->Control.pipe_out, 1U);
 586              		.loc 1 756 7 is_stmt 1 view .LVU200
 587 011a 0125     		movs	r5, #1
 588 011c 0095     		str	r5, [sp]
 589 011e 4379     		ldrb	r3, [r0, #5]	@ zero_extendqisi2
 590 0120 8289     		ldrh	r2, [r0, #12]
 591 0122 8168     		ldr	r1, [r0, #8]
 592 0124 FFF7FEFF 		bl	USBH_CtlSendData
 593              	.LVL48:
 759:Middlewares/ST/STM32_USB_Host_Library/Core/Src/usbh_ctlreq.c ****       phost->Control.state = CTRL_DATA_OUT_WAIT;
 594              		.loc 1 759 7 view .LVU201
 759:Middlewares/ST/STM32_USB_Host_Library/Core/Src/usbh_ctlreq.c ****       phost->Control.state = CTRL_DATA_OUT_WAIT;
 595              		.loc 1 759 45 is_stmt 0 view .LVU202
 596 0128 D4F8C433 		ldr	r3, [r4, #964]
 759:Middlewares/ST/STM32_USB_Host_Library/Core/Src/usbh_ctlreq.c ****       phost->Control.state = CTRL_DATA_OUT_WAIT;
 597              		.loc 1 759 28 view .LVU203
 598 012c E381     		strh	r3, [r4, #14]	@ movhi
 760:Middlewares/ST/STM32_USB_Host_Library/Core/Src/usbh_ctlreq.c ****       break;
 599              		.loc 1 760 7 is_stmt 1 view .LVU204
 760:Middlewares/ST/STM32_USB_Host_Library/Core/Src/usbh_ctlreq.c ****       break;
 600              		.loc 1 760 28 is_stmt 0 view .LVU205
 601 012e 0623     		movs	r3, #6
 602 0130 2376     		strb	r3, [r4, #24]
 761:Middlewares/ST/STM32_USB_Host_Library/Core/Src/usbh_ctlreq.c **** 
 603              		.loc 1 761 7 is_stmt 1 view .LVU206
 604 0132 81E7     		b	.L11
 605              	.LVL49:
 606              	.L18:
 765:Middlewares/ST/STM32_USB_Host_Library/Core/Src/usbh_ctlreq.c **** 
 607              		.loc 1 765 7 view .LVU207
 765:Middlewares/ST/STM32_USB_Host_Library/Core/Src/usbh_ctlreq.c **** 
 608              		.loc 1 765 20 is_stmt 0 view .LVU208
 609 0134 4179     		ldrb	r1, [r0, #5]	@ zero_extendqisi2
 610 0136 FFF7FEFF 		bl	USBH_LL_GetURBState
 611              	.LVL50:
 765:Middlewares/ST/STM32_USB_Host_Library/Core/Src/usbh_ctlreq.c **** 
 612              		.loc 1 765 20 view .LVU209
 613 013a 0546     		mov	r5, r0
 614              	.LVL51:
 767:Middlewares/ST/STM32_USB_Host_Library/Core/Src/usbh_ctlreq.c ****       {
 615              		.loc 1 767 7 is_stmt 1 view .LVU210
 767:Middlewares/ST/STM32_USB_Host_Library/Core/Src/usbh_ctlreq.c ****       {
 616              		.loc 1 767 10 is_stmt 0 view .LVU211
 617 013c 0128     		cmp	r0, #1
 618 013e 07D0     		beq	.L53
 783:Middlewares/ST/STM32_USB_Host_Library/Core/Src/usbh_ctlreq.c ****       {
 619              		.loc 1 783 12 is_stmt 1 view .LVU212
 783:Middlewares/ST/STM32_USB_Host_Library/Core/Src/usbh_ctlreq.c ****       {
 620              		.loc 1 783 15 is_stmt 0 view .LVU213
 621 0140 0528     		cmp	r0, #5
ARM GAS  /tmp/cc785GWs.s 			page 31


 622 0142 10D0     		beq	.L54
 798:Middlewares/ST/STM32_USB_Host_Library/Core/Src/usbh_ctlreq.c ****       {
 623              		.loc 1 798 12 is_stmt 1 view .LVU214
 798:Middlewares/ST/STM32_USB_Host_Library/Core/Src/usbh_ctlreq.c ****       {
 624              		.loc 1 798 15 is_stmt 0 view .LVU215
 625 0144 0228     		cmp	r0, #2
 626 0146 1AD0     		beq	.L55
 814:Middlewares/ST/STM32_USB_Host_Library/Core/Src/usbh_ctlreq.c ****         {
 627              		.loc 1 814 9 is_stmt 1 view .LVU216
 814:Middlewares/ST/STM32_USB_Host_Library/Core/Src/usbh_ctlreq.c ****         {
 628              		.loc 1 814 12 is_stmt 0 view .LVU217
 629 0148 0428     		cmp	r0, #4
 630 014a 24D0     		beq	.L56
 614:Middlewares/ST/STM32_USB_Host_Library/Core/Src/usbh_ctlreq.c ****   USBH_URBStateTypeDef URB_Status = USBH_URB_IDLE;
 631              		.loc 1 614 22 view .LVU218
 632 014c 0125     		movs	r5, #1
 633 014e 73E7     		b	.L11
 634              	.L53:
 770:Middlewares/ST/STM32_USB_Host_Library/Core/Src/usbh_ctlreq.c **** 
 635              		.loc 1 770 9 is_stmt 1 view .LVU219
 770:Middlewares/ST/STM32_USB_Host_Library/Core/Src/usbh_ctlreq.c **** 
 636              		.loc 1 770 30 is_stmt 0 view .LVU220
 637 0150 0723     		movs	r3, #7
 638 0152 2376     		strb	r3, [r4, #24]
 773:Middlewares/ST/STM32_USB_Host_Library/Core/Src/usbh_ctlreq.c **** #if (osCMSIS < 0x20000U)
 639              		.loc 1 773 9 is_stmt 1 view .LVU221
 773:Middlewares/ST/STM32_USB_Host_Library/Core/Src/usbh_ctlreq.c **** #if (osCMSIS < 0x20000U)
 640              		.loc 1 773 23 is_stmt 0 view .LVU222
 641 0154 0321     		movs	r1, #3
 642 0156 C4F8E013 		str	r1, [r4, #992]
 775:Middlewares/ST/STM32_USB_Host_Library/Core/Src/usbh_ctlreq.c **** #else
 643              		.loc 1 775 9 is_stmt 1 view .LVU223
 775:Middlewares/ST/STM32_USB_Host_Library/Core/Src/usbh_ctlreq.c **** #else
 644              		.loc 1 775 15 is_stmt 0 view .LVU224
 645 015a 0022     		movs	r2, #0
 646 015c D4F8D803 		ldr	r0, [r4, #984]
 647              	.LVL52:
 775:Middlewares/ST/STM32_USB_Host_Library/Core/Src/usbh_ctlreq.c **** #else
 648              		.loc 1 775 15 view .LVU225
 649 0160 FFF7FEFF 		bl	osMessagePut
 650              	.LVL53:
 651 0164 68E7     		b	.L11
 652              	.LVL54:
 653              	.L54:
 786:Middlewares/ST/STM32_USB_Host_Library/Core/Src/usbh_ctlreq.c ****         status = USBH_NOT_SUPPORTED;
 654              		.loc 1 786 9 is_stmt 1 view .LVU226
 786:Middlewares/ST/STM32_USB_Host_Library/Core/Src/usbh_ctlreq.c ****         status = USBH_NOT_SUPPORTED;
 655              		.loc 1 786 30 is_stmt 0 view .LVU227
 656 0166 0C23     		movs	r3, #12
 657 0168 2376     		strb	r3, [r4, #24]
 787:Middlewares/ST/STM32_USB_Host_Library/Core/Src/usbh_ctlreq.c **** 
 658              		.loc 1 787 9 is_stmt 1 view .LVU228
 659              	.LVL55:
 790:Middlewares/ST/STM32_USB_Host_Library/Core/Src/usbh_ctlreq.c **** #if (osCMSIS < 0x20000U)
 660              		.loc 1 790 9 view .LVU229
 790:Middlewares/ST/STM32_USB_Host_Library/Core/Src/usbh_ctlreq.c **** #if (osCMSIS < 0x20000U)
 661              		.loc 1 790 23 is_stmt 0 view .LVU230
ARM GAS  /tmp/cc785GWs.s 			page 32


 662 016a 0325     		movs	r5, #3
 663 016c C4F8E053 		str	r5, [r4, #992]
 792:Middlewares/ST/STM32_USB_Host_Library/Core/Src/usbh_ctlreq.c **** #else
 664              		.loc 1 792 9 is_stmt 1 view .LVU231
 792:Middlewares/ST/STM32_USB_Host_Library/Core/Src/usbh_ctlreq.c **** #else
 665              		.loc 1 792 15 is_stmt 0 view .LVU232
 666 0170 0022     		movs	r2, #0
 667 0172 2946     		mov	r1, r5
 668 0174 D4F8D803 		ldr	r0, [r4, #984]
 669              	.LVL56:
 792:Middlewares/ST/STM32_USB_Host_Library/Core/Src/usbh_ctlreq.c **** #else
 670              		.loc 1 792 15 view .LVU233
 671 0178 FFF7FEFF 		bl	osMessagePut
 672              	.LVL57:
 673 017c 5CE7     		b	.L11
 674              	.LVL58:
 675              	.L55:
 801:Middlewares/ST/STM32_USB_Host_Library/Core/Src/usbh_ctlreq.c **** 
 676              		.loc 1 801 9 is_stmt 1 view .LVU234
 801:Middlewares/ST/STM32_USB_Host_Library/Core/Src/usbh_ctlreq.c **** 
 677              		.loc 1 801 30 is_stmt 0 view .LVU235
 678 017e 0523     		movs	r3, #5
 679 0180 2376     		strb	r3, [r4, #24]
 804:Middlewares/ST/STM32_USB_Host_Library/Core/Src/usbh_ctlreq.c **** #if (osCMSIS < 0x20000U)
 680              		.loc 1 804 9 is_stmt 1 view .LVU236
 804:Middlewares/ST/STM32_USB_Host_Library/Core/Src/usbh_ctlreq.c **** #if (osCMSIS < 0x20000U)
 681              		.loc 1 804 23 is_stmt 0 view .LVU237
 682 0182 0321     		movs	r1, #3
 683 0184 C4F8E013 		str	r1, [r4, #992]
 806:Middlewares/ST/STM32_USB_Host_Library/Core/Src/usbh_ctlreq.c **** #else
 684              		.loc 1 806 9 is_stmt 1 view .LVU238
 806:Middlewares/ST/STM32_USB_Host_Library/Core/Src/usbh_ctlreq.c **** #else
 685              		.loc 1 806 15 is_stmt 0 view .LVU239
 686 0188 0022     		movs	r2, #0
 687 018a D4F8D803 		ldr	r0, [r4, #984]
 688              	.LVL59:
 806:Middlewares/ST/STM32_USB_Host_Library/Core/Src/usbh_ctlreq.c **** #else
 689              		.loc 1 806 15 view .LVU240
 690 018e FFF7FEFF 		bl	osMessagePut
 691              	.LVL60:
 614:Middlewares/ST/STM32_USB_Host_Library/Core/Src/usbh_ctlreq.c ****   USBH_URBStateTypeDef URB_Status = USBH_URB_IDLE;
 692              		.loc 1 614 22 view .LVU241
 693 0192 0125     		movs	r5, #1
 694 0194 50E7     		b	.L11
 695              	.LVL61:
 696              	.L56:
 817:Middlewares/ST/STM32_USB_Host_Library/Core/Src/usbh_ctlreq.c ****           status = USBH_FAIL;
 697              		.loc 1 817 11 is_stmt 1 view .LVU242
 817:Middlewares/ST/STM32_USB_Host_Library/Core/Src/usbh_ctlreq.c ****           status = USBH_FAIL;
 698              		.loc 1 817 32 is_stmt 0 view .LVU243
 699 0196 0B23     		movs	r3, #11
 700 0198 2376     		strb	r3, [r4, #24]
 818:Middlewares/ST/STM32_USB_Host_Library/Core/Src/usbh_ctlreq.c **** 
 701              		.loc 1 818 11 is_stmt 1 view .LVU244
 702              	.LVL62:
 821:Middlewares/ST/STM32_USB_Host_Library/Core/Src/usbh_ctlreq.c **** #if (osCMSIS < 0x20000U)
 703              		.loc 1 821 11 view .LVU245
ARM GAS  /tmp/cc785GWs.s 			page 33


 821:Middlewares/ST/STM32_USB_Host_Library/Core/Src/usbh_ctlreq.c **** #if (osCMSIS < 0x20000U)
 704              		.loc 1 821 25 is_stmt 0 view .LVU246
 705 019a 0321     		movs	r1, #3
 706 019c C4F8E013 		str	r1, [r4, #992]
 823:Middlewares/ST/STM32_USB_Host_Library/Core/Src/usbh_ctlreq.c **** #else
 707              		.loc 1 823 11 is_stmt 1 view .LVU247
 823:Middlewares/ST/STM32_USB_Host_Library/Core/Src/usbh_ctlreq.c **** #else
 708              		.loc 1 823 17 is_stmt 0 view .LVU248
 709 01a0 0022     		movs	r2, #0
 710 01a2 D4F8D803 		ldr	r0, [r4, #984]
 711              	.LVL63:
 823:Middlewares/ST/STM32_USB_Host_Library/Core/Src/usbh_ctlreq.c **** #else
 712              		.loc 1 823 17 view .LVU249
 713 01a6 FFF7FEFF 		bl	osMessagePut
 714              	.LVL64:
 818:Middlewares/ST/STM32_USB_Host_Library/Core/Src/usbh_ctlreq.c **** 
 715              		.loc 1 818 18 view .LVU250
 716 01aa 0225     		movs	r5, #2
 717 01ac 44E7     		b	.L11
 718              	.LVL65:
 719              	.L17:
 834:Middlewares/ST/STM32_USB_Host_Library/Core/Src/usbh_ctlreq.c **** 
 720              		.loc 1 834 7 is_stmt 1 view .LVU251
 721 01ae 0379     		ldrb	r3, [r0, #4]	@ zero_extendqisi2
 722 01b0 0022     		movs	r2, #0
 723 01b2 1146     		mov	r1, r2
 724 01b4 FFF7FEFF 		bl	USBH_CtlReceiveData
 725              	.LVL66:
 836:Middlewares/ST/STM32_USB_Host_Library/Core/Src/usbh_ctlreq.c ****       phost->Control.state = CTRL_STATUS_IN_WAIT;
 726              		.loc 1 836 7 view .LVU252
 836:Middlewares/ST/STM32_USB_Host_Library/Core/Src/usbh_ctlreq.c ****       phost->Control.state = CTRL_STATUS_IN_WAIT;
 727              		.loc 1 836 45 is_stmt 0 view .LVU253
 728 01b8 D4F8C433 		ldr	r3, [r4, #964]
 836:Middlewares/ST/STM32_USB_Host_Library/Core/Src/usbh_ctlreq.c ****       phost->Control.state = CTRL_STATUS_IN_WAIT;
 729              		.loc 1 836 28 view .LVU254
 730 01bc E381     		strh	r3, [r4, #14]	@ movhi
 837:Middlewares/ST/STM32_USB_Host_Library/Core/Src/usbh_ctlreq.c **** 
 731              		.loc 1 837 7 is_stmt 1 view .LVU255
 837:Middlewares/ST/STM32_USB_Host_Library/Core/Src/usbh_ctlreq.c **** 
 732              		.loc 1 837 28 is_stmt 0 view .LVU256
 733 01be 0823     		movs	r3, #8
 734 01c0 2376     		strb	r3, [r4, #24]
 839:Middlewares/ST/STM32_USB_Host_Library/Core/Src/usbh_ctlreq.c **** 
 735              		.loc 1 839 7 is_stmt 1 view .LVU257
 614:Middlewares/ST/STM32_USB_Host_Library/Core/Src/usbh_ctlreq.c ****   USBH_URBStateTypeDef URB_Status = USBH_URB_IDLE;
 736              		.loc 1 614 22 is_stmt 0 view .LVU258
 737 01c2 0125     		movs	r5, #1
 839:Middlewares/ST/STM32_USB_Host_Library/Core/Src/usbh_ctlreq.c **** 
 738              		.loc 1 839 7 view .LVU259
 739 01c4 38E7     		b	.L11
 740              	.LVL67:
 741              	.L16:
 843:Middlewares/ST/STM32_USB_Host_Library/Core/Src/usbh_ctlreq.c **** 
 742              		.loc 1 843 7 is_stmt 1 view .LVU260
 843:Middlewares/ST/STM32_USB_Host_Library/Core/Src/usbh_ctlreq.c **** 
 743              		.loc 1 843 20 is_stmt 0 view .LVU261
 744 01c6 0179     		ldrb	r1, [r0, #4]	@ zero_extendqisi2
ARM GAS  /tmp/cc785GWs.s 			page 34


 745 01c8 FFF7FEFF 		bl	USBH_LL_GetURBState
 746              	.LVL68:
 845:Middlewares/ST/STM32_USB_Host_Library/Core/Src/usbh_ctlreq.c ****       {
 747              		.loc 1 845 7 is_stmt 1 view .LVU262
 845:Middlewares/ST/STM32_USB_Host_Library/Core/Src/usbh_ctlreq.c ****       {
 748              		.loc 1 845 10 is_stmt 0 view .LVU263
 749 01cc 0128     		cmp	r0, #1
 750 01ce 05D0     		beq	.L57
 860:Middlewares/ST/STM32_USB_Host_Library/Core/Src/usbh_ctlreq.c ****       {
 751              		.loc 1 860 12 is_stmt 1 view .LVU264
 860:Middlewares/ST/STM32_USB_Host_Library/Core/Src/usbh_ctlreq.c ****       {
 752              		.loc 1 860 15 is_stmt 0 view .LVU265
 753 01d0 0428     		cmp	r0, #4
 754 01d2 0FD0     		beq	.L58
 875:Middlewares/ST/STM32_USB_Host_Library/Core/Src/usbh_ctlreq.c ****         {
 755              		.loc 1 875 9 is_stmt 1 view .LVU266
 875:Middlewares/ST/STM32_USB_Host_Library/Core/Src/usbh_ctlreq.c ****         {
 756              		.loc 1 875 12 is_stmt 0 view .LVU267
 757 01d4 0528     		cmp	r0, #5
 758 01d6 19D0     		beq	.L59
 614:Middlewares/ST/STM32_USB_Host_Library/Core/Src/usbh_ctlreq.c ****   USBH_URBStateTypeDef URB_Status = USBH_URB_IDLE;
 759              		.loc 1 614 22 view .LVU268
 760 01d8 0125     		movs	r5, #1
 761 01da 2DE7     		b	.L11
 762              	.L57:
 848:Middlewares/ST/STM32_USB_Host_Library/Core/Src/usbh_ctlreq.c ****         status = USBH_OK;
 763              		.loc 1 848 9 is_stmt 1 view .LVU269
 848:Middlewares/ST/STM32_USB_Host_Library/Core/Src/usbh_ctlreq.c ****         status = USBH_OK;
 764              		.loc 1 848 30 is_stmt 0 view .LVU270
 765 01dc 0D23     		movs	r3, #13
 766 01de 2376     		strb	r3, [r4, #24]
 849:Middlewares/ST/STM32_USB_Host_Library/Core/Src/usbh_ctlreq.c **** 
 767              		.loc 1 849 9 is_stmt 1 view .LVU271
 768              	.LVL69:
 852:Middlewares/ST/STM32_USB_Host_Library/Core/Src/usbh_ctlreq.c **** #if (osCMSIS < 0x20000U)
 769              		.loc 1 852 9 view .LVU272
 852:Middlewares/ST/STM32_USB_Host_Library/Core/Src/usbh_ctlreq.c **** #if (osCMSIS < 0x20000U)
 770              		.loc 1 852 23 is_stmt 0 view .LVU273
 771 01e0 0321     		movs	r1, #3
 772 01e2 C4F8E013 		str	r1, [r4, #992]
 854:Middlewares/ST/STM32_USB_Host_Library/Core/Src/usbh_ctlreq.c **** #else
 773              		.loc 1 854 9 is_stmt 1 view .LVU274
 854:Middlewares/ST/STM32_USB_Host_Library/Core/Src/usbh_ctlreq.c **** #else
 774              		.loc 1 854 15 is_stmt 0 view .LVU275
 775 01e6 0022     		movs	r2, #0
 776 01e8 D4F8D803 		ldr	r0, [r4, #984]
 777              	.LVL70:
 854:Middlewares/ST/STM32_USB_Host_Library/Core/Src/usbh_ctlreq.c **** #else
 778              		.loc 1 854 15 view .LVU276
 779 01ec FFF7FEFF 		bl	osMessagePut
 780              	.LVL71:
 849:Middlewares/ST/STM32_USB_Host_Library/Core/Src/usbh_ctlreq.c **** 
 781              		.loc 1 849 16 view .LVU277
 782 01f0 0025     		movs	r5, #0
 783 01f2 21E7     		b	.L11
 784              	.LVL72:
 785              	.L58:
ARM GAS  /tmp/cc785GWs.s 			page 35


 862:Middlewares/ST/STM32_USB_Host_Library/Core/Src/usbh_ctlreq.c **** 
 786              		.loc 1 862 9 is_stmt 1 view .LVU278
 862:Middlewares/ST/STM32_USB_Host_Library/Core/Src/usbh_ctlreq.c **** 
 787              		.loc 1 862 30 is_stmt 0 view .LVU279
 788 01f4 0B23     		movs	r3, #11
 789 01f6 2376     		strb	r3, [r4, #24]
 865:Middlewares/ST/STM32_USB_Host_Library/Core/Src/usbh_ctlreq.c **** #if (osCMSIS < 0x20000U)
 790              		.loc 1 865 9 is_stmt 1 view .LVU280
 865:Middlewares/ST/STM32_USB_Host_Library/Core/Src/usbh_ctlreq.c **** #if (osCMSIS < 0x20000U)
 791              		.loc 1 865 23 is_stmt 0 view .LVU281
 792 01f8 0321     		movs	r1, #3
 793 01fa C4F8E013 		str	r1, [r4, #992]
 867:Middlewares/ST/STM32_USB_Host_Library/Core/Src/usbh_ctlreq.c **** #else
 794              		.loc 1 867 9 is_stmt 1 view .LVU282
 867:Middlewares/ST/STM32_USB_Host_Library/Core/Src/usbh_ctlreq.c **** #else
 795              		.loc 1 867 15 is_stmt 0 view .LVU283
 796 01fe 0022     		movs	r2, #0
 797 0200 D4F8D803 		ldr	r0, [r4, #984]
 798              	.LVL73:
 867:Middlewares/ST/STM32_USB_Host_Library/Core/Src/usbh_ctlreq.c **** #else
 799              		.loc 1 867 15 view .LVU284
 800 0204 FFF7FEFF 		bl	osMessagePut
 801              	.LVL74:
 614:Middlewares/ST/STM32_USB_Host_Library/Core/Src/usbh_ctlreq.c ****   USBH_URBStateTypeDef URB_Status = USBH_URB_IDLE;
 802              		.loc 1 614 22 view .LVU285
 803 0208 0125     		movs	r5, #1
 804 020a 15E7     		b	.L11
 805              	.LVL75:
 806              	.L59:
 878:Middlewares/ST/STM32_USB_Host_Library/Core/Src/usbh_ctlreq.c **** 
 807              		.loc 1 878 11 is_stmt 1 view .LVU286
 881:Middlewares/ST/STM32_USB_Host_Library/Core/Src/usbh_ctlreq.c **** #if (osCMSIS < 0x20000U)
 808              		.loc 1 881 11 view .LVU287
 881:Middlewares/ST/STM32_USB_Host_Library/Core/Src/usbh_ctlreq.c **** #if (osCMSIS < 0x20000U)
 809              		.loc 1 881 25 is_stmt 0 view .LVU288
 810 020c 0325     		movs	r5, #3
 811 020e C4F8E053 		str	r5, [r4, #992]
 883:Middlewares/ST/STM32_USB_Host_Library/Core/Src/usbh_ctlreq.c **** #else
 812              		.loc 1 883 11 is_stmt 1 view .LVU289
 883:Middlewares/ST/STM32_USB_Host_Library/Core/Src/usbh_ctlreq.c **** #else
 813              		.loc 1 883 17 is_stmt 0 view .LVU290
 814 0212 0022     		movs	r2, #0
 815 0214 2946     		mov	r1, r5
 816 0216 D4F8D803 		ldr	r0, [r4, #984]
 817              	.LVL76:
 883:Middlewares/ST/STM32_USB_Host_Library/Core/Src/usbh_ctlreq.c **** #else
 818              		.loc 1 883 17 view .LVU291
 819 021a FFF7FEFF 		bl	osMessagePut
 820              	.LVL77:
 821 021e 0BE7     		b	.L11
 822              	.LVL78:
 823              	.L15:
 893:Middlewares/ST/STM32_USB_Host_Library/Core/Src/usbh_ctlreq.c **** 
 824              		.loc 1 893 7 is_stmt 1 view .LVU292
 825 0220 0125     		movs	r5, #1
 826 0222 0095     		str	r5, [sp]
 827 0224 4379     		ldrb	r3, [r0, #5]	@ zero_extendqisi2
ARM GAS  /tmp/cc785GWs.s 			page 36


 828 0226 0022     		movs	r2, #0
 829 0228 1146     		mov	r1, r2
 830 022a FFF7FEFF 		bl	USBH_CtlSendData
 831              	.LVL79:
 895:Middlewares/ST/STM32_USB_Host_Library/Core/Src/usbh_ctlreq.c ****       phost->Control.state = CTRL_STATUS_OUT_WAIT;
 832              		.loc 1 895 7 view .LVU293
 895:Middlewares/ST/STM32_USB_Host_Library/Core/Src/usbh_ctlreq.c ****       phost->Control.state = CTRL_STATUS_OUT_WAIT;
 833              		.loc 1 895 45 is_stmt 0 view .LVU294
 834 022e D4F8C433 		ldr	r3, [r4, #964]
 895:Middlewares/ST/STM32_USB_Host_Library/Core/Src/usbh_ctlreq.c ****       phost->Control.state = CTRL_STATUS_OUT_WAIT;
 835              		.loc 1 895 28 view .LVU295
 836 0232 E381     		strh	r3, [r4, #14]	@ movhi
 896:Middlewares/ST/STM32_USB_Host_Library/Core/Src/usbh_ctlreq.c ****       break;
 837              		.loc 1 896 7 is_stmt 1 view .LVU296
 896:Middlewares/ST/STM32_USB_Host_Library/Core/Src/usbh_ctlreq.c ****       break;
 838              		.loc 1 896 28 is_stmt 0 view .LVU297
 839 0234 0A23     		movs	r3, #10
 840 0236 2376     		strb	r3, [r4, #24]
 897:Middlewares/ST/STM32_USB_Host_Library/Core/Src/usbh_ctlreq.c **** 
 841              		.loc 1 897 7 is_stmt 1 view .LVU298
 842 0238 FEE6     		b	.L11
 843              	.LVL80:
 844              	.L14:
 900:Middlewares/ST/STM32_USB_Host_Library/Core/Src/usbh_ctlreq.c ****       if (URB_Status == USBH_URB_DONE)
 845              		.loc 1 900 7 view .LVU299
 900:Middlewares/ST/STM32_USB_Host_Library/Core/Src/usbh_ctlreq.c ****       if (URB_Status == USBH_URB_DONE)
 846              		.loc 1 900 20 is_stmt 0 view .LVU300
 847 023a 4179     		ldrb	r1, [r0, #5]	@ zero_extendqisi2
 848 023c FFF7FEFF 		bl	USBH_LL_GetURBState
 849              	.LVL81:
 901:Middlewares/ST/STM32_USB_Host_Library/Core/Src/usbh_ctlreq.c ****       {
 850              		.loc 1 901 7 is_stmt 1 view .LVU301
 901:Middlewares/ST/STM32_USB_Host_Library/Core/Src/usbh_ctlreq.c ****       {
 851              		.loc 1 901 10 is_stmt 0 view .LVU302
 852 0240 0128     		cmp	r0, #1
 853 0242 05D0     		beq	.L60
 915:Middlewares/ST/STM32_USB_Host_Library/Core/Src/usbh_ctlreq.c ****       {
 854              		.loc 1 915 12 is_stmt 1 view .LVU303
 915:Middlewares/ST/STM32_USB_Host_Library/Core/Src/usbh_ctlreq.c ****       {
 855              		.loc 1 915 15 is_stmt 0 view .LVU304
 856 0244 0228     		cmp	r0, #2
 857 0246 0FD0     		beq	.L61
 930:Middlewares/ST/STM32_USB_Host_Library/Core/Src/usbh_ctlreq.c ****         {
 858              		.loc 1 930 9 is_stmt 1 view .LVU305
 930:Middlewares/ST/STM32_USB_Host_Library/Core/Src/usbh_ctlreq.c ****         {
 859              		.loc 1 930 12 is_stmt 0 view .LVU306
 860 0248 0428     		cmp	r0, #4
 861 024a 19D0     		beq	.L62
 614:Middlewares/ST/STM32_USB_Host_Library/Core/Src/usbh_ctlreq.c ****   USBH_URBStateTypeDef URB_Status = USBH_URB_IDLE;
 862              		.loc 1 614 22 view .LVU307
 863 024c 0125     		movs	r5, #1
 864 024e F3E6     		b	.L11
 865              	.L60:
 903:Middlewares/ST/STM32_USB_Host_Library/Core/Src/usbh_ctlreq.c ****         phost->Control.state = CTRL_COMPLETE;
 866              		.loc 1 903 9 is_stmt 1 view .LVU308
 867              	.LVL82:
 904:Middlewares/ST/STM32_USB_Host_Library/Core/Src/usbh_ctlreq.c **** 
ARM GAS  /tmp/cc785GWs.s 			page 37


 868              		.loc 1 904 9 view .LVU309
 904:Middlewares/ST/STM32_USB_Host_Library/Core/Src/usbh_ctlreq.c **** 
 869              		.loc 1 904 30 is_stmt 0 view .LVU310
 870 0250 0D23     		movs	r3, #13
 871 0252 2376     		strb	r3, [r4, #24]
 907:Middlewares/ST/STM32_USB_Host_Library/Core/Src/usbh_ctlreq.c **** #if (osCMSIS < 0x20000U)
 872              		.loc 1 907 9 is_stmt 1 view .LVU311
 907:Middlewares/ST/STM32_USB_Host_Library/Core/Src/usbh_ctlreq.c **** #if (osCMSIS < 0x20000U)
 873              		.loc 1 907 23 is_stmt 0 view .LVU312
 874 0254 0321     		movs	r1, #3
 875 0256 C4F8E013 		str	r1, [r4, #992]
 909:Middlewares/ST/STM32_USB_Host_Library/Core/Src/usbh_ctlreq.c **** #else
 876              		.loc 1 909 9 is_stmt 1 view .LVU313
 909:Middlewares/ST/STM32_USB_Host_Library/Core/Src/usbh_ctlreq.c **** #else
 877              		.loc 1 909 15 is_stmt 0 view .LVU314
 878 025a 0022     		movs	r2, #0
 879 025c D4F8D803 		ldr	r0, [r4, #984]
 880              	.LVL83:
 909:Middlewares/ST/STM32_USB_Host_Library/Core/Src/usbh_ctlreq.c **** #else
 881              		.loc 1 909 15 view .LVU315
 882 0260 FFF7FEFF 		bl	osMessagePut
 883              	.LVL84:
 903:Middlewares/ST/STM32_USB_Host_Library/Core/Src/usbh_ctlreq.c ****         phost->Control.state = CTRL_COMPLETE;
 884              		.loc 1 903 16 view .LVU316
 885 0264 0025     		movs	r5, #0
 886 0266 E7E6     		b	.L11
 887              	.LVL85:
 888              	.L61:
 917:Middlewares/ST/STM32_USB_Host_Library/Core/Src/usbh_ctlreq.c **** 
 889              		.loc 1 917 9 is_stmt 1 view .LVU317
 917:Middlewares/ST/STM32_USB_Host_Library/Core/Src/usbh_ctlreq.c **** 
 890              		.loc 1 917 30 is_stmt 0 view .LVU318
 891 0268 0923     		movs	r3, #9
 892 026a 2376     		strb	r3, [r4, #24]
 920:Middlewares/ST/STM32_USB_Host_Library/Core/Src/usbh_ctlreq.c **** #if (osCMSIS < 0x20000U)
 893              		.loc 1 920 9 is_stmt 1 view .LVU319
 920:Middlewares/ST/STM32_USB_Host_Library/Core/Src/usbh_ctlreq.c **** #if (osCMSIS < 0x20000U)
 894              		.loc 1 920 23 is_stmt 0 view .LVU320
 895 026c 0321     		movs	r1, #3
 896 026e C4F8E013 		str	r1, [r4, #992]
 922:Middlewares/ST/STM32_USB_Host_Library/Core/Src/usbh_ctlreq.c **** #else
 897              		.loc 1 922 9 is_stmt 1 view .LVU321
 922:Middlewares/ST/STM32_USB_Host_Library/Core/Src/usbh_ctlreq.c **** #else
 898              		.loc 1 922 15 is_stmt 0 view .LVU322
 899 0272 0022     		movs	r2, #0
 900 0274 D4F8D803 		ldr	r0, [r4, #984]
 901              	.LVL86:
 922:Middlewares/ST/STM32_USB_Host_Library/Core/Src/usbh_ctlreq.c **** #else
 902              		.loc 1 922 15 view .LVU323
 903 0278 FFF7FEFF 		bl	osMessagePut
 904              	.LVL87:
 614:Middlewares/ST/STM32_USB_Host_Library/Core/Src/usbh_ctlreq.c ****   USBH_URBStateTypeDef URB_Status = USBH_URB_IDLE;
 905              		.loc 1 614 22 view .LVU324
 906 027c 0125     		movs	r5, #1
 907 027e DBE6     		b	.L11
 908              	.LVL88:
 909              	.L62:
ARM GAS  /tmp/cc785GWs.s 			page 38


 932:Middlewares/ST/STM32_USB_Host_Library/Core/Src/usbh_ctlreq.c **** 
 910              		.loc 1 932 11 is_stmt 1 view .LVU325
 932:Middlewares/ST/STM32_USB_Host_Library/Core/Src/usbh_ctlreq.c **** 
 911              		.loc 1 932 32 is_stmt 0 view .LVU326
 912 0280 0B23     		movs	r3, #11
 913 0282 2376     		strb	r3, [r4, #24]
 935:Middlewares/ST/STM32_USB_Host_Library/Core/Src/usbh_ctlreq.c **** #if (osCMSIS < 0x20000U)
 914              		.loc 1 935 11 is_stmt 1 view .LVU327
 935:Middlewares/ST/STM32_USB_Host_Library/Core/Src/usbh_ctlreq.c **** #if (osCMSIS < 0x20000U)
 915              		.loc 1 935 25 is_stmt 0 view .LVU328
 916 0284 0321     		movs	r1, #3
 917 0286 C4F8E013 		str	r1, [r4, #992]
 937:Middlewares/ST/STM32_USB_Host_Library/Core/Src/usbh_ctlreq.c **** #else
 918              		.loc 1 937 11 is_stmt 1 view .LVU329
 937:Middlewares/ST/STM32_USB_Host_Library/Core/Src/usbh_ctlreq.c **** #else
 919              		.loc 1 937 17 is_stmt 0 view .LVU330
 920 028a 0022     		movs	r2, #0
 921 028c D4F8D803 		ldr	r0, [r4, #984]
 922              	.LVL89:
 937:Middlewares/ST/STM32_USB_Host_Library/Core/Src/usbh_ctlreq.c **** #else
 923              		.loc 1 937 17 view .LVU331
 924 0290 FFF7FEFF 		bl	osMessagePut
 925              	.LVL90:
 614:Middlewares/ST/STM32_USB_Host_Library/Core/Src/usbh_ctlreq.c ****   USBH_URBStateTypeDef URB_Status = USBH_URB_IDLE;
 926              		.loc 1 614 22 view .LVU332
 927 0294 0125     		movs	r5, #1
 928 0296 CFE6     		b	.L11
 929              	.LVL91:
 930              	.L12:
 955:Middlewares/ST/STM32_USB_Host_Library/Core/Src/usbh_ctlreq.c ****       {
 931              		.loc 1 955 7 is_stmt 1 view .LVU333
 955:Middlewares/ST/STM32_USB_Host_Library/Core/Src/usbh_ctlreq.c ****       {
 932              		.loc 1 955 27 is_stmt 0 view .LVU334
 933 0298 437E     		ldrb	r3, [r0, #25]	@ zero_extendqisi2
 955:Middlewares/ST/STM32_USB_Host_Library/Core/Src/usbh_ctlreq.c ****       {
 934              		.loc 1 955 11 view .LVU335
 935 029a 0133     		adds	r3, r3, #1
 936 029c DBB2     		uxtb	r3, r3
 955:Middlewares/ST/STM32_USB_Host_Library/Core/Src/usbh_ctlreq.c ****       {
 937              		.loc 1 955 10 view .LVU336
 938 029e 4376     		strb	r3, [r0, #25]
 939 02a0 022B     		cmp	r3, #2
 940 02a2 03D8     		bhi	.L39
 958:Middlewares/ST/STM32_USB_Host_Library/Core/Src/usbh_ctlreq.c ****         phost->RequestState = CMD_SEND;
 941              		.loc 1 958 9 is_stmt 1 view .LVU337
 958:Middlewares/ST/STM32_USB_Host_Library/Core/Src/usbh_ctlreq.c ****         phost->RequestState = CMD_SEND;
 942              		.loc 1 958 30 is_stmt 0 view .LVU338
 943 02a4 0125     		movs	r5, #1
 944 02a6 0576     		strb	r5, [r0, #24]
 959:Middlewares/ST/STM32_USB_Host_Library/Core/Src/usbh_ctlreq.c ****       }
 945              		.loc 1 959 9 is_stmt 1 view .LVU339
 959:Middlewares/ST/STM32_USB_Host_Library/Core/Src/usbh_ctlreq.c ****       }
 946              		.loc 1 959 29 is_stmt 0 view .LVU340
 947 02a8 8570     		strb	r5, [r0, #2]
 948 02aa C5E6     		b	.L11
 949              	.L39:
 963:Middlewares/ST/STM32_USB_Host_Library/Core/Src/usbh_ctlreq.c ****         phost->Control.errorcount = 0U;
ARM GAS  /tmp/cc785GWs.s 			page 39


 950              		.loc 1 963 9 is_stmt 1 view .LVU341
 963:Middlewares/ST/STM32_USB_Host_Library/Core/Src/usbh_ctlreq.c ****         phost->Control.errorcount = 0U;
 951              		.loc 1 963 14 is_stmt 0 view .LVU342
 952 02ac D0F8D433 		ldr	r3, [r0, #980]
 963:Middlewares/ST/STM32_USB_Host_Library/Core/Src/usbh_ctlreq.c ****         phost->Control.errorcount = 0U;
 953              		.loc 1 963 9 view .LVU343
 954 02b0 0621     		movs	r1, #6
 955 02b2 9847     		blx	r3
 956              	.LVL92:
 964:Middlewares/ST/STM32_USB_Host_Library/Core/Src/usbh_ctlreq.c ****         USBH_ErrLog("Control error: Device not responding");
 957              		.loc 1 964 9 is_stmt 1 view .LVU344
 964:Middlewares/ST/STM32_USB_Host_Library/Core/Src/usbh_ctlreq.c ****         USBH_ErrLog("Control error: Device not responding");
 958              		.loc 1 964 35 is_stmt 0 view .LVU345
 959 02b4 0025     		movs	r5, #0
 960 02b6 6576     		strb	r5, [r4, #25]
 965:Middlewares/ST/STM32_USB_Host_Library/Core/Src/usbh_ctlreq.c **** 
 961              		.loc 1 965 9 is_stmt 1 view .LVU346
 965:Middlewares/ST/STM32_USB_Host_Library/Core/Src/usbh_ctlreq.c **** 
 962              		.loc 1 965 9 view .LVU347
 965:Middlewares/ST/STM32_USB_Host_Library/Core/Src/usbh_ctlreq.c **** 
 963              		.loc 1 965 9 view .LVU348
 968:Middlewares/ST/STM32_USB_Host_Library/Core/Src/usbh_ctlreq.c ****         USBH_FreePipe(phost, phost->Control.pipe_in);
 964              		.loc 1 968 9 view .LVU349
 965 02b8 6179     		ldrb	r1, [r4, #5]	@ zero_extendqisi2
 966 02ba 2046     		mov	r0, r4
 967 02bc FFF7FEFF 		bl	USBH_FreePipe
 968              	.LVL93:
 969:Middlewares/ST/STM32_USB_Host_Library/Core/Src/usbh_ctlreq.c **** 
 969              		.loc 1 969 9 view .LVU350
 970 02c0 2179     		ldrb	r1, [r4, #4]	@ zero_extendqisi2
 971 02c2 2046     		mov	r0, r4
 972 02c4 FFF7FEFF 		bl	USBH_FreePipe
 973              	.LVL94:
 971:Middlewares/ST/STM32_USB_Host_Library/Core/Src/usbh_ctlreq.c ****         status = USBH_FAIL;
 974              		.loc 1 971 9 view .LVU351
 971:Middlewares/ST/STM32_USB_Host_Library/Core/Src/usbh_ctlreq.c ****         status = USBH_FAIL;
 975              		.loc 1 971 23 is_stmt 0 view .LVU352
 976 02c8 2570     		strb	r5, [r4]
 972:Middlewares/ST/STM32_USB_Host_Library/Core/Src/usbh_ctlreq.c ****       }
 977              		.loc 1 972 9 is_stmt 1 view .LVU353
 978              	.LVL95:
 972:Middlewares/ST/STM32_USB_Host_Library/Core/Src/usbh_ctlreq.c ****       }
 979              		.loc 1 972 16 is_stmt 0 view .LVU354
 980 02ca 0225     		movs	r5, #2
 981 02cc B4E6     		b	.L11
 982              	.LVL96:
 983              	.L40:
 617:Middlewares/ST/STM32_USB_Host_Library/Core/Src/usbh_ctlreq.c ****   {
 984              		.loc 1 617 3 view .LVU355
 985 02ce 0125     		movs	r5, #1
 986 02d0 B2E6     		b	.L11
 987              		.cfi_endproc
 988              	.LFE154:
 990              		.section	.text.USBH_GetNextDesc,"ax",%progbits
 991              		.align	1
 992              		.global	USBH_GetNextDesc
 993              		.syntax unified
ARM GAS  /tmp/cc785GWs.s 			page 40


 994              		.thumb
 995              		.thumb_func
 997              	USBH_GetNextDesc:
 998              	.LVL97:
 999              	.LFB152:
 524:Middlewares/ST/STM32_USB_Host_Library/Core/Src/usbh_ctlreq.c ****   USBH_DescHeader_t  *pnext;
 1000              		.loc 1 524 1 is_stmt 1 view -0
 1001              		.cfi_startproc
 1002              		@ args = 0, pretend = 0, frame = 0
 1003              		@ frame_needed = 0, uses_anonymous_args = 0
 1004              		@ link register save eliminated.
 525:Middlewares/ST/STM32_USB_Host_Library/Core/Src/usbh_ctlreq.c **** 
 1005              		.loc 1 525 3 view .LVU357
 527:Middlewares/ST/STM32_USB_Host_Library/Core/Src/usbh_ctlreq.c ****   pnext = (USBH_DescHeader_t *)(void *)((uint8_t *)(void *)pbuf + \
 1006              		.loc 1 527 3 view .LVU358
 527:Middlewares/ST/STM32_USB_Host_Library/Core/Src/usbh_ctlreq.c ****   pnext = (USBH_DescHeader_t *)(void *)((uint8_t *)(void *)pbuf + \
 1007              		.loc 1 527 46 is_stmt 0 view .LVU359
 1008 0000 0378     		ldrb	r3, [r0]	@ zero_extendqisi2
 527:Middlewares/ST/STM32_USB_Host_Library/Core/Src/usbh_ctlreq.c ****   pnext = (USBH_DescHeader_t *)(void *)((uint8_t *)(void *)pbuf + \
 1009              		.loc 1 527 8 view .LVU360
 1010 0002 0A88     		ldrh	r2, [r1]
 1011 0004 1344     		add	r3, r3, r2
 1012 0006 0B80     		strh	r3, [r1]	@ movhi
 528:Middlewares/ST/STM32_USB_Host_Library/Core/Src/usbh_ctlreq.c ****                                         ((USBH_DescHeader_t *)(void *)pbuf)->bLength);
 1013              		.loc 1 528 3 is_stmt 1 view .LVU361
 529:Middlewares/ST/STM32_USB_Host_Library/Core/Src/usbh_ctlreq.c **** 
 1014              		.loc 1 529 76 is_stmt 0 view .LVU362
 1015 0008 0378     		ldrb	r3, [r0]	@ zero_extendqisi2
 1016              	.LVL98:
 531:Middlewares/ST/STM32_USB_Host_Library/Core/Src/usbh_ctlreq.c **** }
 1017              		.loc 1 531 3 is_stmt 1 view .LVU363
 532:Middlewares/ST/STM32_USB_Host_Library/Core/Src/usbh_ctlreq.c **** 
 1018              		.loc 1 532 1 is_stmt 0 view .LVU364
 1019 000a 1844     		add	r0, r0, r3
 1020              	.LVL99:
 532:Middlewares/ST/STM32_USB_Host_Library/Core/Src/usbh_ctlreq.c **** 
 1021              		.loc 1 532 1 view .LVU365
 1022 000c 7047     		bx	lr
 1023              		.cfi_endproc
 1024              	.LFE152:
 1026              		.section	.text.USBH_ParseCfgDesc,"ax",%progbits
 1027              		.align	1
 1028              		.syntax unified
 1029              		.thumb
 1030              		.thumb_func
 1032              	USBH_ParseCfgDesc:
 1033              	.LVL100:
 1034              	.LFB148:
 382:Middlewares/ST/STM32_USB_Host_Library/Core/Src/usbh_ctlreq.c ****   USBH_InterfaceDescTypeDef    *pif ;
 1035              		.loc 1 382 1 is_stmt 1 view -0
 1036              		.cfi_startproc
 1037              		@ args = 0, pretend = 0, frame = 8
 1038              		@ frame_needed = 0, uses_anonymous_args = 0
 382:Middlewares/ST/STM32_USB_Host_Library/Core/Src/usbh_ctlreq.c ****   USBH_InterfaceDescTypeDef    *pif ;
 1039              		.loc 1 382 1 is_stmt 0 view .LVU367
 1040 0000 2DE9F041 		push	{r4, r5, r6, r7, r8, lr}
 1041              	.LCFI4:
ARM GAS  /tmp/cc785GWs.s 			page 41


 1042              		.cfi_def_cfa_offset 24
 1043              		.cfi_offset 4, -24
 1044              		.cfi_offset 5, -20
 1045              		.cfi_offset 6, -16
 1046              		.cfi_offset 7, -12
 1047              		.cfi_offset 8, -8
 1048              		.cfi_offset 14, -4
 1049 0004 82B0     		sub	sp, sp, #8
 1050              	.LCFI5:
 1051              		.cfi_def_cfa_offset 32
 1052 0006 0C46     		mov	r4, r1
 383:Middlewares/ST/STM32_USB_Host_Library/Core/Src/usbh_ctlreq.c ****   USBH_EpDescTypeDef           *pep;
 1053              		.loc 1 383 3 is_stmt 1 view .LVU368
 384:Middlewares/ST/STM32_USB_Host_Library/Core/Src/usbh_ctlreq.c ****   USBH_DescHeader_t            *pdesc = (USBH_DescHeader_t *)(void *)buf;
 1054              		.loc 1 384 3 view .LVU369
 385:Middlewares/ST/STM32_USB_Host_Library/Core/Src/usbh_ctlreq.c ****   uint16_t                     ptr;
 1055              		.loc 1 385 3 view .LVU370
 1056              	.LVL101:
 386:Middlewares/ST/STM32_USB_Host_Library/Core/Src/usbh_ctlreq.c ****   uint8_t                      if_ix = 0U;
 1057              		.loc 1 386 3 view .LVU371
 387:Middlewares/ST/STM32_USB_Host_Library/Core/Src/usbh_ctlreq.c ****   uint8_t                      ep_ix = 0U;
 1058              		.loc 1 387 3 view .LVU372
 388:Middlewares/ST/STM32_USB_Host_Library/Core/Src/usbh_ctlreq.c **** 
 1059              		.loc 1 388 3 view .LVU373
 390:Middlewares/ST/STM32_USB_Host_Library/Core/Src/usbh_ctlreq.c **** 
 1060              		.loc 1 390 3 view .LVU374
 393:Middlewares/ST/STM32_USB_Host_Library/Core/Src/usbh_ctlreq.c ****   cfg_desc->bDescriptorType     = *(uint8_t *)(buf + 1);
 1061              		.loc 1 393 3 view .LVU375
 393:Middlewares/ST/STM32_USB_Host_Library/Core/Src/usbh_ctlreq.c ****   cfg_desc->bDescriptorType     = *(uint8_t *)(buf + 1);
 1062              		.loc 1 393 35 is_stmt 0 view .LVU376
 1063 0008 0B78     		ldrb	r3, [r1]	@ zero_extendqisi2
 393:Middlewares/ST/STM32_USB_Host_Library/Core/Src/usbh_ctlreq.c ****   cfg_desc->bDescriptorType     = *(uint8_t *)(buf + 1);
 1064              		.loc 1 393 33 view .LVU377
 1065 000a 0370     		strb	r3, [r0]
 394:Middlewares/ST/STM32_USB_Host_Library/Core/Src/usbh_ctlreq.c ****   cfg_desc->wTotalLength        = LE16(buf + 2);
 1066              		.loc 1 394 3 is_stmt 1 view .LVU378
 394:Middlewares/ST/STM32_USB_Host_Library/Core/Src/usbh_ctlreq.c ****   cfg_desc->wTotalLength        = LE16(buf + 2);
 1067              		.loc 1 394 33 is_stmt 0 view .LVU379
 1068 000c 4B78     		ldrb	r3, [r1, #1]	@ zero_extendqisi2
 1069 000e 4370     		strb	r3, [r0, #1]
 395:Middlewares/ST/STM32_USB_Host_Library/Core/Src/usbh_ctlreq.c ****   cfg_desc->bNumInterfaces      = *(uint8_t *)(buf + 4);
 1070              		.loc 1 395 3 is_stmt 1 view .LVU380
 395:Middlewares/ST/STM32_USB_Host_Library/Core/Src/usbh_ctlreq.c ****   cfg_desc->bNumInterfaces      = *(uint8_t *)(buf + 4);
 1071              		.loc 1 395 35 is_stmt 0 view .LVU381
 1072 0010 8B78     		ldrb	r3, [r1, #2]	@ zero_extendqisi2
 1073 0012 C978     		ldrb	r1, [r1, #3]	@ zero_extendqisi2
 1074              	.LVL102:
 395:Middlewares/ST/STM32_USB_Host_Library/Core/Src/usbh_ctlreq.c ****   cfg_desc->bNumInterfaces      = *(uint8_t *)(buf + 4);
 1075              		.loc 1 395 35 view .LVU382
 1076 0014 43EA0123 		orr	r3, r3, r1, lsl #8
 395:Middlewares/ST/STM32_USB_Host_Library/Core/Src/usbh_ctlreq.c ****   cfg_desc->bNumInterfaces      = *(uint8_t *)(buf + 4);
 1077              		.loc 1 395 33 view .LVU383
 1078 0018 4380     		strh	r3, [r0, #2]	@ movhi
 396:Middlewares/ST/STM32_USB_Host_Library/Core/Src/usbh_ctlreq.c ****   cfg_desc->bConfigurationValue = *(uint8_t *)(buf + 5);
 1079              		.loc 1 396 3 is_stmt 1 view .LVU384
 396:Middlewares/ST/STM32_USB_Host_Library/Core/Src/usbh_ctlreq.c ****   cfg_desc->bConfigurationValue = *(uint8_t *)(buf + 5);
 1080              		.loc 1 396 33 is_stmt 0 view .LVU385
ARM GAS  /tmp/cc785GWs.s 			page 42


 1081 001a 2379     		ldrb	r3, [r4, #4]	@ zero_extendqisi2
 1082 001c 0371     		strb	r3, [r0, #4]
 397:Middlewares/ST/STM32_USB_Host_Library/Core/Src/usbh_ctlreq.c ****   cfg_desc->iConfiguration      = *(uint8_t *)(buf + 6);
 1083              		.loc 1 397 3 is_stmt 1 view .LVU386
 397:Middlewares/ST/STM32_USB_Host_Library/Core/Src/usbh_ctlreq.c ****   cfg_desc->iConfiguration      = *(uint8_t *)(buf + 6);
 1084              		.loc 1 397 33 is_stmt 0 view .LVU387
 1085 001e 6379     		ldrb	r3, [r4, #5]	@ zero_extendqisi2
 1086 0020 4371     		strb	r3, [r0, #5]
 398:Middlewares/ST/STM32_USB_Host_Library/Core/Src/usbh_ctlreq.c ****   cfg_desc->bmAttributes        = *(uint8_t *)(buf + 7);
 1087              		.loc 1 398 3 is_stmt 1 view .LVU388
 398:Middlewares/ST/STM32_USB_Host_Library/Core/Src/usbh_ctlreq.c ****   cfg_desc->bmAttributes        = *(uint8_t *)(buf + 7);
 1088              		.loc 1 398 33 is_stmt 0 view .LVU389
 1089 0022 A379     		ldrb	r3, [r4, #6]	@ zero_extendqisi2
 1090 0024 8371     		strb	r3, [r0, #6]
 399:Middlewares/ST/STM32_USB_Host_Library/Core/Src/usbh_ctlreq.c ****   cfg_desc->bMaxPower           = *(uint8_t *)(buf + 8);
 1091              		.loc 1 399 3 is_stmt 1 view .LVU390
 399:Middlewares/ST/STM32_USB_Host_Library/Core/Src/usbh_ctlreq.c ****   cfg_desc->bMaxPower           = *(uint8_t *)(buf + 8);
 1092              		.loc 1 399 33 is_stmt 0 view .LVU391
 1093 0026 E379     		ldrb	r3, [r4, #7]	@ zero_extendqisi2
 1094 0028 C371     		strb	r3, [r0, #7]
 400:Middlewares/ST/STM32_USB_Host_Library/Core/Src/usbh_ctlreq.c **** 
 1095              		.loc 1 400 3 is_stmt 1 view .LVU392
 400:Middlewares/ST/STM32_USB_Host_Library/Core/Src/usbh_ctlreq.c **** 
 1096              		.loc 1 400 33 is_stmt 0 view .LVU393
 1097 002a 237A     		ldrb	r3, [r4, #8]	@ zero_extendqisi2
 1098 002c 0372     		strb	r3, [r0, #8]
 402:Middlewares/ST/STM32_USB_Host_Library/Core/Src/usbh_ctlreq.c ****   {
 1099              		.loc 1 402 3 is_stmt 1 view .LVU394
 402:Middlewares/ST/STM32_USB_Host_Library/Core/Src/usbh_ctlreq.c ****   {
 1100              		.loc 1 402 6 is_stmt 0 view .LVU395
 1101 002e 092A     		cmp	r2, #9
 1102 0030 44D9     		bls	.L64
 1103 0032 0546     		mov	r5, r0
 404:Middlewares/ST/STM32_USB_Host_Library/Core/Src/usbh_ctlreq.c ****     pif = (USBH_InterfaceDescTypeDef *)0;
 1104              		.loc 1 404 5 is_stmt 1 view .LVU396
 404:Middlewares/ST/STM32_USB_Host_Library/Core/Src/usbh_ctlreq.c ****     pif = (USBH_InterfaceDescTypeDef *)0;
 1105              		.loc 1 404 9 is_stmt 0 view .LVU397
 1106 0034 0923     		movs	r3, #9
 1107 0036 ADF80630 		strh	r3, [sp, #6]	@ movhi
 405:Middlewares/ST/STM32_USB_Host_Library/Core/Src/usbh_ctlreq.c **** 
 1108              		.loc 1 405 5 is_stmt 1 view .LVU398
 1109              	.LVL103:
 407:Middlewares/ST/STM32_USB_Host_Library/Core/Src/usbh_ctlreq.c ****     {
 1110              		.loc 1 407 5 view .LVU399
 387:Middlewares/ST/STM32_USB_Host_Library/Core/Src/usbh_ctlreq.c ****   uint8_t                      ep_ix = 0U;
 1111              		.loc 1 387 32 is_stmt 0 view .LVU400
 1112 003a 0026     		movs	r6, #0
 1113              	.LVL104:
 1114              	.L67:
 407:Middlewares/ST/STM32_USB_Host_Library/Core/Src/usbh_ctlreq.c ****     {
 1115              		.loc 1 407 11 is_stmt 1 view .LVU401
 1116 003c 012E     		cmp	r6, #1
 1117 003e 3DD8     		bhi	.L64
 407:Middlewares/ST/STM32_USB_Host_Library/Core/Src/usbh_ctlreq.c ****     {
 1118              		.loc 1 407 64 is_stmt 0 discriminator 1 view .LVU402
 1119 0040 6A88     		ldrh	r2, [r5, #2]
 407:Middlewares/ST/STM32_USB_Host_Library/Core/Src/usbh_ctlreq.c ****     {
ARM GAS  /tmp/cc785GWs.s 			page 43


 1120              		.loc 1 407 54 discriminator 1 view .LVU403
 1121 0042 BDF80630 		ldrh	r3, [sp, #6]
 407:Middlewares/ST/STM32_USB_Host_Library/Core/Src/usbh_ctlreq.c ****     {
 1122              		.loc 1 407 46 discriminator 1 view .LVU404
 1123 0046 9A42     		cmp	r2, r3
 1124 0048 38D9     		bls	.L64
 409:Middlewares/ST/STM32_USB_Host_Library/Core/Src/usbh_ctlreq.c ****       if (pdesc->bDescriptorType   == USB_DESC_TYPE_INTERFACE)
 1125              		.loc 1 409 7 is_stmt 1 view .LVU405
 409:Middlewares/ST/STM32_USB_Host_Library/Core/Src/usbh_ctlreq.c ****       if (pdesc->bDescriptorType   == USB_DESC_TYPE_INTERFACE)
 1126              		.loc 1 409 15 is_stmt 0 view .LVU406
 1127 004a 0DF10601 		add	r1, sp, #6
 1128 004e 2046     		mov	r0, r4
 1129 0050 FFF7FEFF 		bl	USBH_GetNextDesc
 1130              	.LVL105:
 1131 0054 0446     		mov	r4, r0
 1132              	.LVL106:
 410:Middlewares/ST/STM32_USB_Host_Library/Core/Src/usbh_ctlreq.c ****       {
 1133              		.loc 1 410 7 is_stmt 1 view .LVU407
 410:Middlewares/ST/STM32_USB_Host_Library/Core/Src/usbh_ctlreq.c ****       {
 1134              		.loc 1 410 16 is_stmt 0 view .LVU408
 1135 0056 4378     		ldrb	r3, [r0, #1]	@ zero_extendqisi2
 410:Middlewares/ST/STM32_USB_Host_Library/Core/Src/usbh_ctlreq.c ****       {
 1136              		.loc 1 410 10 view .LVU409
 1137 0058 042B     		cmp	r3, #4
 1138 005a EFD1     		bne	.L67
 412:Middlewares/ST/STM32_USB_Host_Library/Core/Src/usbh_ctlreq.c ****         USBH_ParseInterfaceDesc(pif, (uint8_t *)(void *)pdesc);
 1139              		.loc 1 412 9 is_stmt 1 view .LVU410
 412:Middlewares/ST/STM32_USB_Host_Library/Core/Src/usbh_ctlreq.c ****         USBH_ParseInterfaceDesc(pif, (uint8_t *)(void *)pdesc);
 1140              		.loc 1 412 34 is_stmt 0 view .LVU411
 1141 005c B046     		mov	r8, r6
 412:Middlewares/ST/STM32_USB_Host_Library/Core/Src/usbh_ctlreq.c ****         USBH_ParseInterfaceDesc(pif, (uint8_t *)(void *)pdesc);
 1142              		.loc 1 412 13 view .LVU412
 1143 005e 1A20     		movs	r0, #26
 1144              	.LVL107:
 412:Middlewares/ST/STM32_USB_Host_Library/Core/Src/usbh_ctlreq.c ****         USBH_ParseInterfaceDesc(pif, (uint8_t *)(void *)pdesc);
 1145              		.loc 1 412 13 view .LVU413
 1146 0060 06FB00F0 		mul	r0, r6, r0
 1147 0064 0830     		adds	r0, r0, #8
 1148 0066 2844     		add	r0, r0, r5
 1149              	.LVL108:
 413:Middlewares/ST/STM32_USB_Host_Library/Core/Src/usbh_ctlreq.c **** 
 1150              		.loc 1 413 9 is_stmt 1 view .LVU414
 1151 0068 2146     		mov	r1, r4
 1152 006a 0230     		adds	r0, r0, #2
 1153              	.LVL109:
 413:Middlewares/ST/STM32_USB_Host_Library/Core/Src/usbh_ctlreq.c **** 
 1154              		.loc 1 413 9 is_stmt 0 view .LVU415
 1155 006c FFF7FEFF 		bl	USBH_ParseInterfaceDesc
 1156              	.LVL110:
 415:Middlewares/ST/STM32_USB_Host_Library/Core/Src/usbh_ctlreq.c ****         pep = (USBH_EpDescTypeDef *)0;
 1157              		.loc 1 415 9 is_stmt 1 view .LVU416
 416:Middlewares/ST/STM32_USB_Host_Library/Core/Src/usbh_ctlreq.c ****         while ((ep_ix < pif->bNumEndpoints) && (ptr < cfg_desc->wTotalLength))
 1158              		.loc 1 416 9 view .LVU417
 417:Middlewares/ST/STM32_USB_Host_Library/Core/Src/usbh_ctlreq.c ****         {
 1159              		.loc 1 417 9 view .LVU418
 415:Middlewares/ST/STM32_USB_Host_Library/Core/Src/usbh_ctlreq.c ****         pep = (USBH_EpDescTypeDef *)0;
 1160              		.loc 1 415 15 is_stmt 0 view .LVU419
ARM GAS  /tmp/cc785GWs.s 			page 44


 1161 0070 0027     		movs	r7, #0
 1162              	.LVL111:
 1163              	.L68:
 417:Middlewares/ST/STM32_USB_Host_Library/Core/Src/usbh_ctlreq.c ****         {
 1164              		.loc 1 417 15 is_stmt 1 view .LVU420
 417:Middlewares/ST/STM32_USB_Host_Library/Core/Src/usbh_ctlreq.c ****         {
 1165              		.loc 1 417 28 is_stmt 0 view .LVU421
 1166 0072 1A23     		movs	r3, #26
 1167              	.LVL112:
 417:Middlewares/ST/STM32_USB_Host_Library/Core/Src/usbh_ctlreq.c ****         {
 1168              		.loc 1 417 28 view .LVU422
 1169 0074 03FB0853 		mla	r3, r3, r8, r5
 1170              	.LVL113:
 417:Middlewares/ST/STM32_USB_Host_Library/Core/Src/usbh_ctlreq.c ****         {
 1171              		.loc 1 417 28 view .LVU423
 1172 0078 9B7B     		ldrb	r3, [r3, #14]	@ zero_extendqisi2
 417:Middlewares/ST/STM32_USB_Host_Library/Core/Src/usbh_ctlreq.c ****         {
 1173              		.loc 1 417 15 view .LVU424
 1174 007a BB42     		cmp	r3, r7
 1175 007c 1BD9     		bls	.L70
 417:Middlewares/ST/STM32_USB_Host_Library/Core/Src/usbh_ctlreq.c ****         {
 1176              		.loc 1 417 63 discriminator 1 view .LVU425
 1177 007e 6A88     		ldrh	r2, [r5, #2]
 417:Middlewares/ST/STM32_USB_Host_Library/Core/Src/usbh_ctlreq.c ****         {
 1178              		.loc 1 417 53 discriminator 1 view .LVU426
 1179 0080 BDF80630 		ldrh	r3, [sp, #6]
 417:Middlewares/ST/STM32_USB_Host_Library/Core/Src/usbh_ctlreq.c ****         {
 1180              		.loc 1 417 45 discriminator 1 view .LVU427
 1181 0084 9A42     		cmp	r2, r3
 1182 0086 16D9     		bls	.L70
 419:Middlewares/ST/STM32_USB_Host_Library/Core/Src/usbh_ctlreq.c ****           if (pdesc->bDescriptorType   == USB_DESC_TYPE_ENDPOINT)
 1183              		.loc 1 419 11 is_stmt 1 view .LVU428
 419:Middlewares/ST/STM32_USB_Host_Library/Core/Src/usbh_ctlreq.c ****           if (pdesc->bDescriptorType   == USB_DESC_TYPE_ENDPOINT)
 1184              		.loc 1 419 19 is_stmt 0 view .LVU429
 1185 0088 0DF10601 		add	r1, sp, #6
 1186 008c 2046     		mov	r0, r4
 1187 008e FFF7FEFF 		bl	USBH_GetNextDesc
 1188              	.LVL114:
 1189 0092 0446     		mov	r4, r0
 1190              	.LVL115:
 420:Middlewares/ST/STM32_USB_Host_Library/Core/Src/usbh_ctlreq.c ****           {
 1191              		.loc 1 420 11 is_stmt 1 view .LVU430
 420:Middlewares/ST/STM32_USB_Host_Library/Core/Src/usbh_ctlreq.c ****           {
 1192              		.loc 1 420 20 is_stmt 0 view .LVU431
 1193 0094 4378     		ldrb	r3, [r0, #1]	@ zero_extendqisi2
 420:Middlewares/ST/STM32_USB_Host_Library/Core/Src/usbh_ctlreq.c ****           {
 1194              		.loc 1 420 14 view .LVU432
 1195 0096 052B     		cmp	r3, #5
 1196 0098 EBD1     		bne	.L68
 422:Middlewares/ST/STM32_USB_Host_Library/Core/Src/usbh_ctlreq.c ****             USBH_ParseEPDesc(pep, (uint8_t *)(void *)pdesc);
 1197              		.loc 1 422 13 is_stmt 1 view .LVU433
 422:Middlewares/ST/STM32_USB_Host_Library/Core/Src/usbh_ctlreq.c ****             USBH_ParseEPDesc(pep, (uint8_t *)(void *)pdesc);
 1198              		.loc 1 422 17 is_stmt 0 view .LVU434
 1199 009a 0137     		adds	r7, r7, #1
 1200              	.LVL116:
 422:Middlewares/ST/STM32_USB_Host_Library/Core/Src/usbh_ctlreq.c ****             USBH_ParseEPDesc(pep, (uint8_t *)(void *)pdesc);
 1201              		.loc 1 422 17 view .LVU435
ARM GAS  /tmp/cc785GWs.s 			page 45


 1202 009c 1A20     		movs	r0, #26
 1203              	.LVL117:
 422:Middlewares/ST/STM32_USB_Host_Library/Core/Src/usbh_ctlreq.c ****             USBH_ParseEPDesc(pep, (uint8_t *)(void *)pdesc);
 1204              		.loc 1 422 17 view .LVU436
 1205 009e 00FB08F0 		mul	r0, r0, r8
 1206              	.LVL118:
 422:Middlewares/ST/STM32_USB_Host_Library/Core/Src/usbh_ctlreq.c ****             USBH_ParseEPDesc(pep, (uint8_t *)(void *)pdesc);
 1207              		.loc 1 422 17 view .LVU437
 1208 00a2 00EBC700 		add	r0, r0, r7, lsl #3
 1209 00a6 0830     		adds	r0, r0, #8
 1210 00a8 2844     		add	r0, r0, r5
 1211              	.LVL119:
 423:Middlewares/ST/STM32_USB_Host_Library/Core/Src/usbh_ctlreq.c ****             ep_ix++;
 1212              		.loc 1 423 13 is_stmt 1 view .LVU438
 1213 00aa 2146     		mov	r1, r4
 1214 00ac 0430     		adds	r0, r0, #4
 1215              	.LVL120:
 423:Middlewares/ST/STM32_USB_Host_Library/Core/Src/usbh_ctlreq.c ****             ep_ix++;
 1216              		.loc 1 423 13 is_stmt 0 view .LVU439
 1217 00ae FFF7FEFF 		bl	USBH_ParseEPDesc
 1218              	.LVL121:
 424:Middlewares/ST/STM32_USB_Host_Library/Core/Src/usbh_ctlreq.c ****           }
 1219              		.loc 1 424 13 is_stmt 1 view .LVU440
 424:Middlewares/ST/STM32_USB_Host_Library/Core/Src/usbh_ctlreq.c ****           }
 1220              		.loc 1 424 18 is_stmt 0 view .LVU441
 1221 00b2 FFB2     		uxtb	r7, r7
 1222              	.LVL122:
 424:Middlewares/ST/STM32_USB_Host_Library/Core/Src/usbh_ctlreq.c ****           }
 1223              		.loc 1 424 18 view .LVU442
 1224 00b4 DDE7     		b	.L68
 1225              	.L70:
 427:Middlewares/ST/STM32_USB_Host_Library/Core/Src/usbh_ctlreq.c ****       }
 1226              		.loc 1 427 9 is_stmt 1 view .LVU443
 427:Middlewares/ST/STM32_USB_Host_Library/Core/Src/usbh_ctlreq.c ****       }
 1227              		.loc 1 427 14 is_stmt 0 view .LVU444
 1228 00b6 0136     		adds	r6, r6, #1
 1229              	.LVL123:
 427:Middlewares/ST/STM32_USB_Host_Library/Core/Src/usbh_ctlreq.c ****       }
 1230              		.loc 1 427 14 view .LVU445
 1231 00b8 F6B2     		uxtb	r6, r6
 1232              	.LVL124:
 427:Middlewares/ST/STM32_USB_Host_Library/Core/Src/usbh_ctlreq.c ****       }
 1233              		.loc 1 427 14 view .LVU446
 1234 00ba BFE7     		b	.L67
 1235              	.LVL125:
 1236              	.L64:
 431:Middlewares/ST/STM32_USB_Host_Library/Core/Src/usbh_ctlreq.c **** 
 1237              		.loc 1 431 1 view .LVU447
 1238 00bc 02B0     		add	sp, sp, #8
 1239              	.LCFI6:
 1240              		.cfi_def_cfa_offset 24
 1241              		@ sp needed
 1242 00be BDE8F081 		pop	{r4, r5, r6, r7, r8, pc}
 431:Middlewares/ST/STM32_USB_Host_Library/Core/Src/usbh_ctlreq.c **** 
 1243              		.loc 1 431 1 view .LVU448
 1244              		.cfi_endproc
 1245              	.LFE148:
ARM GAS  /tmp/cc785GWs.s 			page 46


 1247              		.section	.text.USBH_CtlReq,"ax",%progbits
 1248              		.align	1
 1249              		.global	USBH_CtlReq
 1250              		.syntax unified
 1251              		.thumb
 1252              		.thumb_func
 1254              	USBH_CtlReq:
 1255              	.LVL126:
 1256              	.LFB153:
 547:Middlewares/ST/STM32_USB_Host_Library/Core/Src/usbh_ctlreq.c ****   USBH_StatusTypeDef status;
 1257              		.loc 1 547 1 is_stmt 1 view -0
 1258              		.cfi_startproc
 1259              		@ args = 0, pretend = 0, frame = 0
 1260              		@ frame_needed = 0, uses_anonymous_args = 0
 547:Middlewares/ST/STM32_USB_Host_Library/Core/Src/usbh_ctlreq.c ****   USBH_StatusTypeDef status;
 1261              		.loc 1 547 1 is_stmt 0 view .LVU450
 1262 0000 38B5     		push	{r3, r4, r5, lr}
 1263              	.LCFI7:
 1264              		.cfi_def_cfa_offset 16
 1265              		.cfi_offset 3, -16
 1266              		.cfi_offset 4, -12
 1267              		.cfi_offset 5, -8
 1268              		.cfi_offset 14, -4
 1269 0002 0446     		mov	r4, r0
 548:Middlewares/ST/STM32_USB_Host_Library/Core/Src/usbh_ctlreq.c ****   status = USBH_BUSY;
 1270              		.loc 1 548 3 is_stmt 1 view .LVU451
 549:Middlewares/ST/STM32_USB_Host_Library/Core/Src/usbh_ctlreq.c **** 
 1271              		.loc 1 549 3 view .LVU452
 1272              	.LVL127:
 551:Middlewares/ST/STM32_USB_Host_Library/Core/Src/usbh_ctlreq.c ****   {
 1273              		.loc 1 551 3 view .LVU453
 551:Middlewares/ST/STM32_USB_Host_Library/Core/Src/usbh_ctlreq.c ****   {
 1274              		.loc 1 551 16 is_stmt 0 view .LVU454
 1275 0004 8578     		ldrb	r5, [r0, #2]	@ zero_extendqisi2
 551:Middlewares/ST/STM32_USB_Host_Library/Core/Src/usbh_ctlreq.c ****   {
 1276              		.loc 1 551 3 view .LVU455
 1277 0006 012D     		cmp	r5, #1
 1278 0008 04D0     		beq	.L75
 1279 000a 022D     		cmp	r5, #2
 1280 000c 11D0     		beq	.L76
 1281 000e 0125     		movs	r5, #1
 1282              	.LVL128:
 1283              	.L77:
 601:Middlewares/ST/STM32_USB_Host_Library/Core/Src/usbh_ctlreq.c **** }
 1284              		.loc 1 601 3 is_stmt 1 view .LVU456
 602:Middlewares/ST/STM32_USB_Host_Library/Core/Src/usbh_ctlreq.c **** 
 1285              		.loc 1 602 1 is_stmt 0 view .LVU457
 1286 0010 2846     		mov	r0, r5
 1287 0012 38BD     		pop	{r3, r4, r5, pc}
 1288              	.LVL129:
 1289              	.L75:
 555:Middlewares/ST/STM32_USB_Host_Library/Core/Src/usbh_ctlreq.c ****       phost->Control.length = length;
 1290              		.loc 1 555 7 is_stmt 1 view .LVU458
 555:Middlewares/ST/STM32_USB_Host_Library/Core/Src/usbh_ctlreq.c ****       phost->Control.length = length;
 1291              		.loc 1 555 27 is_stmt 0 view .LVU459
 1292 0014 8160     		str	r1, [r0, #8]
 556:Middlewares/ST/STM32_USB_Host_Library/Core/Src/usbh_ctlreq.c ****       phost->Control.state = CTRL_SETUP;
ARM GAS  /tmp/cc785GWs.s 			page 47


 1293              		.loc 1 556 7 is_stmt 1 view .LVU460
 556:Middlewares/ST/STM32_USB_Host_Library/Core/Src/usbh_ctlreq.c ****       phost->Control.state = CTRL_SETUP;
 1294              		.loc 1 556 29 is_stmt 0 view .LVU461
 1295 0016 8281     		strh	r2, [r0, #12]	@ movhi
 557:Middlewares/ST/STM32_USB_Host_Library/Core/Src/usbh_ctlreq.c ****       phost->RequestState = CMD_WAIT;
 1296              		.loc 1 557 7 is_stmt 1 view .LVU462
 557:Middlewares/ST/STM32_USB_Host_Library/Core/Src/usbh_ctlreq.c ****       phost->RequestState = CMD_WAIT;
 1297              		.loc 1 557 28 is_stmt 0 view .LVU463
 1298 0018 0123     		movs	r3, #1
 1299 001a 0376     		strb	r3, [r0, #24]
 558:Middlewares/ST/STM32_USB_Host_Library/Core/Src/usbh_ctlreq.c ****       status = USBH_BUSY;
 1300              		.loc 1 558 7 is_stmt 1 view .LVU464
 558:Middlewares/ST/STM32_USB_Host_Library/Core/Src/usbh_ctlreq.c ****       status = USBH_BUSY;
 1301              		.loc 1 558 27 is_stmt 0 view .LVU465
 1302 001c 0223     		movs	r3, #2
 1303 001e 8370     		strb	r3, [r0, #2]
 559:Middlewares/ST/STM32_USB_Host_Library/Core/Src/usbh_ctlreq.c **** 
 1304              		.loc 1 559 7 is_stmt 1 view .LVU466
 562:Middlewares/ST/STM32_USB_Host_Library/Core/Src/usbh_ctlreq.c **** #if (osCMSIS < 0x20000U)
 1305              		.loc 1 562 7 view .LVU467
 562:Middlewares/ST/STM32_USB_Host_Library/Core/Src/usbh_ctlreq.c **** #if (osCMSIS < 0x20000U)
 1306              		.loc 1 562 21 is_stmt 0 view .LVU468
 1307 0020 0321     		movs	r1, #3
 1308              	.LVL130:
 562:Middlewares/ST/STM32_USB_Host_Library/Core/Src/usbh_ctlreq.c **** #if (osCMSIS < 0x20000U)
 1309              		.loc 1 562 21 view .LVU469
 1310 0022 C0F8E013 		str	r1, [r0, #992]
 564:Middlewares/ST/STM32_USB_Host_Library/Core/Src/usbh_ctlreq.c **** #else
 1311              		.loc 1 564 7 is_stmt 1 view .LVU470
 564:Middlewares/ST/STM32_USB_Host_Library/Core/Src/usbh_ctlreq.c **** #else
 1312              		.loc 1 564 13 is_stmt 0 view .LVU471
 1313 0026 0022     		movs	r2, #0
 1314              	.LVL131:
 564:Middlewares/ST/STM32_USB_Host_Library/Core/Src/usbh_ctlreq.c **** #else
 1315              		.loc 1 564 13 view .LVU472
 1316 0028 D0F8D803 		ldr	r0, [r0, #984]
 1317              	.LVL132:
 564:Middlewares/ST/STM32_USB_Host_Library/Core/Src/usbh_ctlreq.c **** #else
 1318              		.loc 1 564 13 view .LVU473
 1319 002c FFF7FEFF 		bl	osMessagePut
 1320              	.LVL133:
 569:Middlewares/ST/STM32_USB_Host_Library/Core/Src/usbh_ctlreq.c **** 
 1321              		.loc 1 569 7 is_stmt 1 view .LVU474
 1322 0030 EEE7     		b	.L77
 1323              	.LVL134:
 1324              	.L76:
 572:Middlewares/ST/STM32_USB_Host_Library/Core/Src/usbh_ctlreq.c ****       if ((status == USBH_OK) || (status == USBH_NOT_SUPPORTED))
 1325              		.loc 1 572 7 view .LVU475
 572:Middlewares/ST/STM32_USB_Host_Library/Core/Src/usbh_ctlreq.c ****       if ((status == USBH_OK) || (status == USBH_NOT_SUPPORTED))
 1326              		.loc 1 572 16 is_stmt 0 view .LVU476
 1327 0032 FFF7FEFF 		bl	USBH_HandleControl
 1328              	.LVL135:
 573:Middlewares/ST/STM32_USB_Host_Library/Core/Src/usbh_ctlreq.c ****       {
 1329              		.loc 1 573 7 is_stmt 1 view .LVU477
 573:Middlewares/ST/STM32_USB_Host_Library/Core/Src/usbh_ctlreq.c ****       {
 1330              		.loc 1 573 10 is_stmt 0 view .LVU478
 1331 0036 0546     		mov	r5, r0
ARM GAS  /tmp/cc785GWs.s 			page 48


 1332 0038 30B1     		cbz	r0, .L78
 573:Middlewares/ST/STM32_USB_Host_Library/Core/Src/usbh_ctlreq.c ****       {
 1333              		.loc 1 573 31 discriminator 1 view .LVU479
 1334 003a 0328     		cmp	r0, #3
 1335 003c 04D0     		beq	.L78
 579:Middlewares/ST/STM32_USB_Host_Library/Core/Src/usbh_ctlreq.c ****       {
 1336              		.loc 1 579 12 is_stmt 1 view .LVU480
 579:Middlewares/ST/STM32_USB_Host_Library/Core/Src/usbh_ctlreq.c ****       {
 1337              		.loc 1 579 15 is_stmt 0 view .LVU481
 1338 003e 0228     		cmp	r0, #2
 1339 0040 06D1     		bne	.L80
 582:Middlewares/ST/STM32_USB_Host_Library/Core/Src/usbh_ctlreq.c ****       }
 1340              		.loc 1 582 9 is_stmt 1 view .LVU482
 582:Middlewares/ST/STM32_USB_Host_Library/Core/Src/usbh_ctlreq.c ****       }
 1341              		.loc 1 582 29 is_stmt 0 view .LVU483
 1342 0042 0123     		movs	r3, #1
 1343 0044 A370     		strb	r3, [r4, #2]
 1344 0046 03E0     		b	.L80
 1345              	.L78:
 576:Middlewares/ST/STM32_USB_Host_Library/Core/Src/usbh_ctlreq.c ****         phost->Control.state = CTRL_IDLE;
 1346              		.loc 1 576 9 is_stmt 1 view .LVU484
 576:Middlewares/ST/STM32_USB_Host_Library/Core/Src/usbh_ctlreq.c ****         phost->Control.state = CTRL_IDLE;
 1347              		.loc 1 576 29 is_stmt 0 view .LVU485
 1348 0048 0123     		movs	r3, #1
 1349 004a A370     		strb	r3, [r4, #2]
 577:Middlewares/ST/STM32_USB_Host_Library/Core/Src/usbh_ctlreq.c ****       }
 1350              		.loc 1 577 9 is_stmt 1 view .LVU486
 577:Middlewares/ST/STM32_USB_Host_Library/Core/Src/usbh_ctlreq.c ****       }
 1351              		.loc 1 577 30 is_stmt 0 view .LVU487
 1352 004c 0023     		movs	r3, #0
 1353 004e 2376     		strb	r3, [r4, #24]
 1354              	.L80:
 587:Middlewares/ST/STM32_USB_Host_Library/Core/Src/usbh_ctlreq.c **** #if (USBH_USE_OS == 1U)
 1355              		.loc 1 587 7 is_stmt 1 view .LVU488
 589:Middlewares/ST/STM32_USB_Host_Library/Core/Src/usbh_ctlreq.c **** #if (osCMSIS < 0x20000U)
 1356              		.loc 1 589 7 view .LVU489
 589:Middlewares/ST/STM32_USB_Host_Library/Core/Src/usbh_ctlreq.c **** #if (osCMSIS < 0x20000U)
 1357              		.loc 1 589 21 is_stmt 0 view .LVU490
 1358 0050 0321     		movs	r1, #3
 1359 0052 C4F8E013 		str	r1, [r4, #992]
 591:Middlewares/ST/STM32_USB_Host_Library/Core/Src/usbh_ctlreq.c **** #else
 1360              		.loc 1 591 7 is_stmt 1 view .LVU491
 591:Middlewares/ST/STM32_USB_Host_Library/Core/Src/usbh_ctlreq.c **** #else
 1361              		.loc 1 591 13 is_stmt 0 view .LVU492
 1362 0056 0022     		movs	r2, #0
 1363 0058 D4F8D803 		ldr	r0, [r4, #984]
 1364              	.LVL136:
 591:Middlewares/ST/STM32_USB_Host_Library/Core/Src/usbh_ctlreq.c **** #else
 1365              		.loc 1 591 13 view .LVU493
 1366 005c FFF7FEFF 		bl	osMessagePut
 1367              	.LVL137:
 596:Middlewares/ST/STM32_USB_Host_Library/Core/Src/usbh_ctlreq.c **** 
 1368              		.loc 1 596 7 is_stmt 1 view .LVU494
 1369 0060 D6E7     		b	.L77
 1370              		.cfi_endproc
 1371              	.LFE153:
 1373              		.section	.text.USBH_GetDescriptor,"ax",%progbits
ARM GAS  /tmp/cc785GWs.s 			page 49


 1374              		.align	1
 1375              		.global	USBH_GetDescriptor
 1376              		.syntax unified
 1377              		.thumb
 1378              		.thumb_func
 1380              	USBH_GetDescriptor:
 1381              	.LVL138:
 1382              	.LFB141:
 193:Middlewares/ST/STM32_USB_Host_Library/Core/Src/usbh_ctlreq.c ****   if (phost->RequestState == CMD_SEND)
 1383              		.loc 1 193 1 view -0
 1384              		.cfi_startproc
 1385              		@ args = 4, pretend = 0, frame = 0
 1386              		@ frame_needed = 0, uses_anonymous_args = 0
 193:Middlewares/ST/STM32_USB_Host_Library/Core/Src/usbh_ctlreq.c ****   if (phost->RequestState == CMD_SEND)
 1387              		.loc 1 193 1 is_stmt 0 view .LVU496
 1388 0000 08B5     		push	{r3, lr}
 1389              	.LCFI8:
 1390              		.cfi_def_cfa_offset 8
 1391              		.cfi_offset 3, -8
 1392              		.cfi_offset 14, -4
 1393 0002 8E46     		mov	lr, r1
 1394 0004 9446     		mov	ip, r2
 1395 0006 1946     		mov	r1, r3
 1396              	.LVL139:
 193:Middlewares/ST/STM32_USB_Host_Library/Core/Src/usbh_ctlreq.c ****   if (phost->RequestState == CMD_SEND)
 1397              		.loc 1 193 1 view .LVU497
 1398 0008 BDF80820 		ldrh	r2, [sp, #8]
 1399              	.LVL140:
 194:Middlewares/ST/STM32_USB_Host_Library/Core/Src/usbh_ctlreq.c ****   {
 1400              		.loc 1 194 3 is_stmt 1 view .LVU498
 194:Middlewares/ST/STM32_USB_Host_Library/Core/Src/usbh_ctlreq.c ****   {
 1401              		.loc 1 194 12 is_stmt 0 view .LVU499
 1402 000c 8378     		ldrb	r3, [r0, #2]	@ zero_extendqisi2
 1403              	.LVL141:
 194:Middlewares/ST/STM32_USB_Host_Library/Core/Src/usbh_ctlreq.c ****   {
 1404              		.loc 1 194 6 view .LVU500
 1405 000e 012B     		cmp	r3, #1
 1406 0010 02D0     		beq	.L87
 1407              	.L83:
 211:Middlewares/ST/STM32_USB_Host_Library/Core/Src/usbh_ctlreq.c **** }
 1408              		.loc 1 211 3 is_stmt 1 view .LVU501
 211:Middlewares/ST/STM32_USB_Host_Library/Core/Src/usbh_ctlreq.c **** }
 1409              		.loc 1 211 10 is_stmt 0 view .LVU502
 1410 0012 FFF7FEFF 		bl	USBH_CtlReq
 1411              	.LVL142:
 212:Middlewares/ST/STM32_USB_Host_Library/Core/Src/usbh_ctlreq.c **** 
 1412              		.loc 1 212 1 view .LVU503
 1413 0016 08BD     		pop	{r3, pc}
 1414              	.LVL143:
 1415              	.L87:
 196:Middlewares/ST/STM32_USB_Host_Library/Core/Src/usbh_ctlreq.c ****     phost->Control.setup.b.bRequest = USB_REQ_GET_DESCRIPTOR;
 1416              		.loc 1 196 5 is_stmt 1 view .LVU504
 196:Middlewares/ST/STM32_USB_Host_Library/Core/Src/usbh_ctlreq.c ****     phost->Control.setup.b.bRequest = USB_REQ_GET_DESCRIPTOR;
 1417              		.loc 1 196 42 is_stmt 0 view .LVU505
 1418 0018 6EF07F0E 		orn	lr, lr, #127
 1419 001c 80F810E0 		strb	lr, [r0, #16]
 197:Middlewares/ST/STM32_USB_Host_Library/Core/Src/usbh_ctlreq.c ****     phost->Control.setup.b.wValue.w = value_idx;
ARM GAS  /tmp/cc785GWs.s 			page 50


 1420              		.loc 1 197 5 is_stmt 1 view .LVU506
 197:Middlewares/ST/STM32_USB_Host_Library/Core/Src/usbh_ctlreq.c ****     phost->Control.setup.b.wValue.w = value_idx;
 1421              		.loc 1 197 37 is_stmt 0 view .LVU507
 1422 0020 0623     		movs	r3, #6
 1423 0022 4374     		strb	r3, [r0, #17]
 198:Middlewares/ST/STM32_USB_Host_Library/Core/Src/usbh_ctlreq.c **** 
 1424              		.loc 1 198 5 is_stmt 1 view .LVU508
 198:Middlewares/ST/STM32_USB_Host_Library/Core/Src/usbh_ctlreq.c **** 
 1425              		.loc 1 198 37 is_stmt 0 view .LVU509
 1426 0024 A0F812C0 		strh	ip, [r0, #18]	@ movhi
 200:Middlewares/ST/STM32_USB_Host_Library/Core/Src/usbh_ctlreq.c ****     {
 1427              		.loc 1 200 5 is_stmt 1 view .LVU510
 200:Middlewares/ST/STM32_USB_Host_Library/Core/Src/usbh_ctlreq.c ****     {
 1428              		.loc 1 200 8 is_stmt 0 view .LVU511
 1429 0028 0CF47F4C 		and	ip, ip, #65280
 1430 002c BCF5407F 		cmp	ip, #768
 1431 0030 03D0     		beq	.L88
 206:Middlewares/ST/STM32_USB_Host_Library/Core/Src/usbh_ctlreq.c ****     }
 1432              		.loc 1 206 7 is_stmt 1 view .LVU512
 206:Middlewares/ST/STM32_USB_Host_Library/Core/Src/usbh_ctlreq.c ****     }
 1433              		.loc 1 206 39 is_stmt 0 view .LVU513
 1434 0032 0023     		movs	r3, #0
 1435 0034 8382     		strh	r3, [r0, #20]	@ movhi
 1436              	.L85:
 208:Middlewares/ST/STM32_USB_Host_Library/Core/Src/usbh_ctlreq.c ****   }
 1437              		.loc 1 208 5 is_stmt 1 view .LVU514
 208:Middlewares/ST/STM32_USB_Host_Library/Core/Src/usbh_ctlreq.c ****   }
 1438              		.loc 1 208 38 is_stmt 0 view .LVU515
 1439 0036 C282     		strh	r2, [r0, #22]	@ movhi
 1440 0038 EBE7     		b	.L83
 1441              	.L88:
 202:Middlewares/ST/STM32_USB_Host_Library/Core/Src/usbh_ctlreq.c ****     }
 1442              		.loc 1 202 7 is_stmt 1 view .LVU516
 202:Middlewares/ST/STM32_USB_Host_Library/Core/Src/usbh_ctlreq.c ****     }
 1443              		.loc 1 202 39 is_stmt 0 view .LVU517
 1444 003a 40F20943 		movw	r3, #1033
 1445 003e 8382     		strh	r3, [r0, #20]	@ movhi
 1446 0040 F9E7     		b	.L85
 1447              		.cfi_endproc
 1448              	.LFE141:
 1450              		.section	.text.USBH_Get_DevDesc,"ax",%progbits
 1451              		.align	1
 1452              		.global	USBH_Get_DevDesc
 1453              		.syntax unified
 1454              		.thumb
 1455              		.thumb_func
 1457              	USBH_Get_DevDesc:
 1458              	.LVL144:
 1459              	.LFB138:
 104:Middlewares/ST/STM32_USB_Host_Library/Core/Src/usbh_ctlreq.c ****   USBH_StatusTypeDef status;
 1460              		.loc 1 104 1 is_stmt 1 view -0
 1461              		.cfi_startproc
 1462              		@ args = 0, pretend = 0, frame = 0
 1463              		@ frame_needed = 0, uses_anonymous_args = 0
 104:Middlewares/ST/STM32_USB_Host_Library/Core/Src/usbh_ctlreq.c ****   USBH_StatusTypeDef status;
 1464              		.loc 1 104 1 is_stmt 0 view .LVU519
 1465 0000 F0B5     		push	{r4, r5, r6, r7, lr}
ARM GAS  /tmp/cc785GWs.s 			page 51


 1466              	.LCFI9:
 1467              		.cfi_def_cfa_offset 20
 1468              		.cfi_offset 4, -20
 1469              		.cfi_offset 5, -16
 1470              		.cfi_offset 6, -12
 1471              		.cfi_offset 7, -8
 1472              		.cfi_offset 14, -4
 1473 0002 83B0     		sub	sp, sp, #12
 1474              	.LCFI10:
 1475              		.cfi_def_cfa_offset 32
 1476 0004 0446     		mov	r4, r0
 105:Middlewares/ST/STM32_USB_Host_Library/Core/Src/usbh_ctlreq.c **** 
 1477              		.loc 1 105 3 is_stmt 1 view .LVU520
 107:Middlewares/ST/STM32_USB_Host_Library/Core/Src/usbh_ctlreq.c ****                                    USB_REQ_RECIPIENT_DEVICE | USB_REQ_TYPE_STANDARD,
 1478              		.loc 1 107 3 view .LVU521
 109:Middlewares/ST/STM32_USB_Host_Library/Core/Src/usbh_ctlreq.c ****                                    (uint16_t)length)) == USBH_OK)
 1479              		.loc 1 109 66 is_stmt 0 view .LVU522
 1480 0006 00F58E76 		add	r6, r0, #284
 107:Middlewares/ST/STM32_USB_Host_Library/Core/Src/usbh_ctlreq.c ****                                    USB_REQ_RECIPIENT_DEVICE | USB_REQ_TYPE_STANDARD,
 1481              		.loc 1 107 17 view .LVU523
 1482 000a 0D46     		mov	r5, r1
 1483 000c 0091     		str	r1, [sp]
 1484 000e 3346     		mov	r3, r6
 1485 0010 4FF48072 		mov	r2, #256
 1486 0014 0021     		movs	r1, #0
 1487              	.LVL145:
 107:Middlewares/ST/STM32_USB_Host_Library/Core/Src/usbh_ctlreq.c ****                                    USB_REQ_RECIPIENT_DEVICE | USB_REQ_TYPE_STANDARD,
 1488              		.loc 1 107 17 view .LVU524
 1489 0016 FFF7FEFF 		bl	USBH_GetDescriptor
 1490              	.LVL146:
 107:Middlewares/ST/STM32_USB_Host_Library/Core/Src/usbh_ctlreq.c ****                                    USB_REQ_RECIPIENT_DEVICE | USB_REQ_TYPE_STANDARD,
 1491              		.loc 1 107 6 view .LVU525
 1492 001a 0746     		mov	r7, r0
 1493 001c 10B1     		cbz	r0, .L92
 1494              	.LVL147:
 1495              	.L90:
 117:Middlewares/ST/STM32_USB_Host_Library/Core/Src/usbh_ctlreq.c **** }
 1496              		.loc 1 117 3 is_stmt 1 view .LVU526
 118:Middlewares/ST/STM32_USB_Host_Library/Core/Src/usbh_ctlreq.c **** 
 1497              		.loc 1 118 1 is_stmt 0 view .LVU527
 1498 001e 3846     		mov	r0, r7
 1499 0020 03B0     		add	sp, sp, #12
 1500              	.LCFI11:
 1501              		.cfi_remember_state
 1502              		.cfi_def_cfa_offset 20
 1503              		@ sp needed
 1504 0022 F0BD     		pop	{r4, r5, r6, r7, pc}
 1505              	.LVL148:
 1506              	.L92:
 1507              	.LCFI12:
 1508              		.cfi_restore_state
 113:Middlewares/ST/STM32_USB_Host_Library/Core/Src/usbh_ctlreq.c ****                       (uint16_t)length);
 1509              		.loc 1 113 5 is_stmt 1 view .LVU528
 1510 0024 2A46     		mov	r2, r5
 1511 0026 3146     		mov	r1, r6
 1512 0028 04F22630 		addw	r0, r4, #806
 1513              	.LVL149:
ARM GAS  /tmp/cc785GWs.s 			page 52


 113:Middlewares/ST/STM32_USB_Host_Library/Core/Src/usbh_ctlreq.c ****                       (uint16_t)length);
 1514              		.loc 1 113 5 is_stmt 0 view .LVU529
 1515 002c FFF7FEFF 		bl	USBH_ParseDevDesc
 1516              	.LVL150:
 1517 0030 F5E7     		b	.L90
 1518              		.cfi_endproc
 1519              	.LFE138:
 1521              		.section	.text.USBH_Get_CfgDesc,"ax",%progbits
 1522              		.align	1
 1523              		.global	USBH_Get_CfgDesc
 1524              		.syntax unified
 1525              		.thumb
 1526              		.thumb_func
 1528              	USBH_Get_CfgDesc:
 1529              	.LVL151:
 1530              	.LFB139:
 133:Middlewares/ST/STM32_USB_Host_Library/Core/Src/usbh_ctlreq.c ****   USBH_StatusTypeDef status;
 1531              		.loc 1 133 1 is_stmt 1 view -0
 1532              		.cfi_startproc
 1533              		@ args = 0, pretend = 0, frame = 0
 1534              		@ frame_needed = 0, uses_anonymous_args = 0
 133:Middlewares/ST/STM32_USB_Host_Library/Core/Src/usbh_ctlreq.c ****   USBH_StatusTypeDef status;
 1535              		.loc 1 133 1 is_stmt 0 view .LVU531
 1536 0000 F0B5     		push	{r4, r5, r6, r7, lr}
 1537              	.LCFI13:
 1538              		.cfi_def_cfa_offset 20
 1539              		.cfi_offset 4, -20
 1540              		.cfi_offset 5, -16
 1541              		.cfi_offset 6, -12
 1542              		.cfi_offset 7, -8
 1543              		.cfi_offset 14, -4
 1544 0002 83B0     		sub	sp, sp, #12
 1545              	.LCFI14:
 1546              		.cfi_def_cfa_offset 32
 1547 0004 0446     		mov	r4, r0
 1548 0006 0D46     		mov	r5, r1
 134:Middlewares/ST/STM32_USB_Host_Library/Core/Src/usbh_ctlreq.c ****   uint8_t *pData = phost->device.CfgDesc_Raw;;
 1549              		.loc 1 134 3 is_stmt 1 view .LVU532
 135:Middlewares/ST/STM32_USB_Host_Library/Core/Src/usbh_ctlreq.c **** 
 1550              		.loc 1 135 3 view .LVU533
 135:Middlewares/ST/STM32_USB_Host_Library/Core/Src/usbh_ctlreq.c **** 
 1551              		.loc 1 135 12 is_stmt 0 view .LVU534
 1552 0008 00F11C06 		add	r6, r0, #28
 1553              	.LVL152:
 135:Middlewares/ST/STM32_USB_Host_Library/Core/Src/usbh_ctlreq.c **** 
 1554              		.loc 1 135 46 is_stmt 1 view .LVU535
 137:Middlewares/ST/STM32_USB_Host_Library/Core/Src/usbh_ctlreq.c ****                                    USB_DESC_CONFIGURATION, pData, length)) == USBH_OK)
 1555              		.loc 1 137 3 view .LVU536
 137:Middlewares/ST/STM32_USB_Host_Library/Core/Src/usbh_ctlreq.c ****                                    USB_DESC_CONFIGURATION, pData, length)) == USBH_OK)
 1556              		.loc 1 137 17 is_stmt 0 view .LVU537
 1557 000c 0091     		str	r1, [sp]
 1558 000e 3346     		mov	r3, r6
 1559 0010 4FF40072 		mov	r2, #512
 1560 0014 0021     		movs	r1, #0
 1561              	.LVL153:
 137:Middlewares/ST/STM32_USB_Host_Library/Core/Src/usbh_ctlreq.c ****                                    USB_DESC_CONFIGURATION, pData, length)) == USBH_OK)
 1562              		.loc 1 137 17 view .LVU538
ARM GAS  /tmp/cc785GWs.s 			page 53


 1563 0016 FFF7FEFF 		bl	USBH_GetDescriptor
 1564              	.LVL154:
 137:Middlewares/ST/STM32_USB_Host_Library/Core/Src/usbh_ctlreq.c ****                                    USB_DESC_CONFIGURATION, pData, length)) == USBH_OK)
 1565              		.loc 1 137 6 view .LVU539
 1566 001a 0746     		mov	r7, r0
 1567 001c 10B1     		cbz	r0, .L96
 1568              	.LVL155:
 1569              	.L94:
 144:Middlewares/ST/STM32_USB_Host_Library/Core/Src/usbh_ctlreq.c **** }
 1570              		.loc 1 144 3 is_stmt 1 view .LVU540
 145:Middlewares/ST/STM32_USB_Host_Library/Core/Src/usbh_ctlreq.c **** 
 1571              		.loc 1 145 1 is_stmt 0 view .LVU541
 1572 001e 3846     		mov	r0, r7
 1573 0020 03B0     		add	sp, sp, #12
 1574              	.LCFI15:
 1575              		.cfi_remember_state
 1576              		.cfi_def_cfa_offset 20
 1577              		@ sp needed
 1578 0022 F0BD     		pop	{r4, r5, r6, r7, pc}
 1579              	.LVL156:
 1580              	.L96:
 1581              	.LCFI16:
 1582              		.cfi_restore_state
 141:Middlewares/ST/STM32_USB_Host_Library/Core/Src/usbh_ctlreq.c ****   }
 1583              		.loc 1 141 5 is_stmt 1 view .LVU542
 1584 0024 2A46     		mov	r2, r5
 1585 0026 3146     		mov	r1, r6
 1586 0028 04F54E70 		add	r0, r4, #824
 1587              	.LVL157:
 141:Middlewares/ST/STM32_USB_Host_Library/Core/Src/usbh_ctlreq.c ****   }
 1588              		.loc 1 141 5 is_stmt 0 view .LVU543
 1589 002c FFF7FEFF 		bl	USBH_ParseCfgDesc
 1590              	.LVL158:
 1591 0030 F5E7     		b	.L94
 1592              		.cfi_endproc
 1593              	.LFE139:
 1595              		.section	.text.USBH_Get_StringDesc,"ax",%progbits
 1596              		.align	1
 1597              		.global	USBH_Get_StringDesc
 1598              		.syntax unified
 1599              		.thumb
 1600              		.thumb_func
 1602              	USBH_Get_StringDesc:
 1603              	.LVL159:
 1604              	.LFB140:
 161:Middlewares/ST/STM32_USB_Host_Library/Core/Src/usbh_ctlreq.c ****   USBH_StatusTypeDef status;
 1605              		.loc 1 161 1 is_stmt 1 view -0
 1606              		.cfi_startproc
 1607              		@ args = 0, pretend = 0, frame = 0
 1608              		@ frame_needed = 0, uses_anonymous_args = 0
 161:Middlewares/ST/STM32_USB_Host_Library/Core/Src/usbh_ctlreq.c ****   USBH_StatusTypeDef status;
 1609              		.loc 1 161 1 is_stmt 0 view .LVU545
 1610 0000 F0B5     		push	{r4, r5, r6, r7, lr}
 1611              	.LCFI17:
 1612              		.cfi_def_cfa_offset 20
 1613              		.cfi_offset 4, -20
 1614              		.cfi_offset 5, -16
ARM GAS  /tmp/cc785GWs.s 			page 54


 1615              		.cfi_offset 6, -12
 1616              		.cfi_offset 7, -8
 1617              		.cfi_offset 14, -4
 1618 0002 83B0     		sub	sp, sp, #12
 1619              	.LCFI18:
 1620              		.cfi_def_cfa_offset 32
 1621 0004 1646     		mov	r6, r2
 1622 0006 1D46     		mov	r5, r3
 162:Middlewares/ST/STM32_USB_Host_Library/Core/Src/usbh_ctlreq.c **** 
 1623              		.loc 1 162 3 is_stmt 1 view .LVU546
 164:Middlewares/ST/STM32_USB_Host_Library/Core/Src/usbh_ctlreq.c ****                                    USB_REQ_RECIPIENT_DEVICE | USB_REQ_TYPE_STANDARD,
 1624              		.loc 1 164 3 view .LVU547
 167:Middlewares/ST/STM32_USB_Host_Library/Core/Src/usbh_ctlreq.c ****   {
 1625              		.loc 1 167 49 is_stmt 0 view .LVU548
 1626 0008 00F58E74 		add	r4, r0, #284
 164:Middlewares/ST/STM32_USB_Host_Library/Core/Src/usbh_ctlreq.c ****                                    USB_REQ_RECIPIENT_DEVICE | USB_REQ_TYPE_STANDARD,
 1627              		.loc 1 164 17 view .LVU549
 1628 000c 0093     		str	r3, [sp]
 1629 000e 2346     		mov	r3, r4
 1630              	.LVL160:
 164:Middlewares/ST/STM32_USB_Host_Library/Core/Src/usbh_ctlreq.c ****                                    USB_REQ_RECIPIENT_DEVICE | USB_REQ_TYPE_STANDARD,
 1631              		.loc 1 164 17 view .LVU550
 1632 0010 41F44072 		orr	r2, r1, #768
 1633              	.LVL161:
 164:Middlewares/ST/STM32_USB_Host_Library/Core/Src/usbh_ctlreq.c ****                                    USB_REQ_RECIPIENT_DEVICE | USB_REQ_TYPE_STANDARD,
 1634              		.loc 1 164 17 view .LVU551
 1635 0014 0021     		movs	r1, #0
 1636              	.LVL162:
 164:Middlewares/ST/STM32_USB_Host_Library/Core/Src/usbh_ctlreq.c ****                                    USB_REQ_RECIPIENT_DEVICE | USB_REQ_TYPE_STANDARD,
 1637              		.loc 1 164 17 view .LVU552
 1638 0016 FFF7FEFF 		bl	USBH_GetDescriptor
 1639              	.LVL163:
 164:Middlewares/ST/STM32_USB_Host_Library/Core/Src/usbh_ctlreq.c ****                                    USB_REQ_RECIPIENT_DEVICE | USB_REQ_TYPE_STANDARD,
 1640              		.loc 1 164 6 view .LVU553
 1641 001a 0746     		mov	r7, r0
 1642 001c 10B1     		cbz	r0, .L100
 1643              	.LVL164:
 1644              	.L98:
 173:Middlewares/ST/STM32_USB_Host_Library/Core/Src/usbh_ctlreq.c **** }
 1645              		.loc 1 173 3 is_stmt 1 view .LVU554
 174:Middlewares/ST/STM32_USB_Host_Library/Core/Src/usbh_ctlreq.c **** 
 1646              		.loc 1 174 1 is_stmt 0 view .LVU555
 1647 001e 3846     		mov	r0, r7
 1648 0020 03B0     		add	sp, sp, #12
 1649              	.LCFI19:
 1650              		.cfi_remember_state
 1651              		.cfi_def_cfa_offset 20
 1652              		@ sp needed
 1653 0022 F0BD     		pop	{r4, r5, r6, r7, pc}
 1654              	.LVL165:
 1655              	.L100:
 1656              	.LCFI20:
 1657              		.cfi_restore_state
 170:Middlewares/ST/STM32_USB_Host_Library/Core/Src/usbh_ctlreq.c ****   }
 1658              		.loc 1 170 5 is_stmt 1 view .LVU556
 1659 0024 2A46     		mov	r2, r5
 1660 0026 3146     		mov	r1, r6
ARM GAS  /tmp/cc785GWs.s 			page 55


 1661 0028 2046     		mov	r0, r4
 1662              	.LVL166:
 170:Middlewares/ST/STM32_USB_Host_Library/Core/Src/usbh_ctlreq.c ****   }
 1663              		.loc 1 170 5 is_stmt 0 view .LVU557
 1664 002a FFF7FEFF 		bl	USBH_ParseStringDesc
 1665              	.LVL167:
 1666 002e F6E7     		b	.L98
 1667              		.cfi_endproc
 1668              	.LFE140:
 1670              		.section	.text.USBH_SetAddress,"ax",%progbits
 1671              		.align	1
 1672              		.global	USBH_SetAddress
 1673              		.syntax unified
 1674              		.thumb
 1675              		.thumb_func
 1677              	USBH_SetAddress:
 1678              	.LVL168:
 1679              	.LFB142:
 224:Middlewares/ST/STM32_USB_Host_Library/Core/Src/usbh_ctlreq.c ****   if (phost->RequestState == CMD_SEND)
 1680              		.loc 1 224 1 is_stmt 1 view -0
 1681              		.cfi_startproc
 1682              		@ args = 0, pretend = 0, frame = 0
 1683              		@ frame_needed = 0, uses_anonymous_args = 0
 224:Middlewares/ST/STM32_USB_Host_Library/Core/Src/usbh_ctlreq.c ****   if (phost->RequestState == CMD_SEND)
 1684              		.loc 1 224 1 is_stmt 0 view .LVU559
 1685 0000 08B5     		push	{r3, lr}
 1686              	.LCFI21:
 1687              		.cfi_def_cfa_offset 8
 1688              		.cfi_offset 3, -8
 1689              		.cfi_offset 14, -4
 225:Middlewares/ST/STM32_USB_Host_Library/Core/Src/usbh_ctlreq.c ****   {
 1690              		.loc 1 225 3 is_stmt 1 view .LVU560
 225:Middlewares/ST/STM32_USB_Host_Library/Core/Src/usbh_ctlreq.c ****   {
 1691              		.loc 1 225 12 is_stmt 0 view .LVU561
 1692 0002 8378     		ldrb	r3, [r0, #2]	@ zero_extendqisi2
 225:Middlewares/ST/STM32_USB_Host_Library/Core/Src/usbh_ctlreq.c ****   {
 1693              		.loc 1 225 6 view .LVU562
 1694 0004 012B     		cmp	r3, #1
 1695 0006 04D0     		beq	.L104
 1696              	.L102:
 237:Middlewares/ST/STM32_USB_Host_Library/Core/Src/usbh_ctlreq.c **** }
 1697              		.loc 1 237 3 is_stmt 1 view .LVU563
 237:Middlewares/ST/STM32_USB_Host_Library/Core/Src/usbh_ctlreq.c **** }
 1698              		.loc 1 237 10 is_stmt 0 view .LVU564
 1699 0008 0022     		movs	r2, #0
 1700 000a 1146     		mov	r1, r2
 1701              	.LVL169:
 237:Middlewares/ST/STM32_USB_Host_Library/Core/Src/usbh_ctlreq.c **** }
 1702              		.loc 1 237 10 view .LVU565
 1703 000c FFF7FEFF 		bl	USBH_CtlReq
 1704              	.LVL170:
 238:Middlewares/ST/STM32_USB_Host_Library/Core/Src/usbh_ctlreq.c **** 
 1705              		.loc 1 238 1 view .LVU566
 1706 0010 08BD     		pop	{r3, pc}
 1707              	.LVL171:
 1708              	.L104:
 227:Middlewares/ST/STM32_USB_Host_Library/Core/Src/usbh_ctlreq.c ****                                            USB_REQ_TYPE_STANDARD;
ARM GAS  /tmp/cc785GWs.s 			page 56


 1709              		.loc 1 227 5 is_stmt 1 view .LVU567
 227:Middlewares/ST/STM32_USB_Host_Library/Core/Src/usbh_ctlreq.c ****                                            USB_REQ_TYPE_STANDARD;
 1710              		.loc 1 227 42 is_stmt 0 view .LVU568
 1711 0012 0023     		movs	r3, #0
 1712 0014 0374     		strb	r3, [r0, #16]
 230:Middlewares/ST/STM32_USB_Host_Library/Core/Src/usbh_ctlreq.c **** 
 1713              		.loc 1 230 5 is_stmt 1 view .LVU569
 230:Middlewares/ST/STM32_USB_Host_Library/Core/Src/usbh_ctlreq.c **** 
 1714              		.loc 1 230 37 is_stmt 0 view .LVU570
 1715 0016 0522     		movs	r2, #5
 1716 0018 4274     		strb	r2, [r0, #17]
 232:Middlewares/ST/STM32_USB_Host_Library/Core/Src/usbh_ctlreq.c ****     phost->Control.setup.b.wIndex.w = 0U;
 1717              		.loc 1 232 5 is_stmt 1 view .LVU571
 232:Middlewares/ST/STM32_USB_Host_Library/Core/Src/usbh_ctlreq.c ****     phost->Control.setup.b.wIndex.w = 0U;
 1718              		.loc 1 232 37 is_stmt 0 view .LVU572
 1719 001a 4182     		strh	r1, [r0, #18]	@ movhi
 233:Middlewares/ST/STM32_USB_Host_Library/Core/Src/usbh_ctlreq.c ****     phost->Control.setup.b.wLength.w = 0U;
 1720              		.loc 1 233 5 is_stmt 1 view .LVU573
 233:Middlewares/ST/STM32_USB_Host_Library/Core/Src/usbh_ctlreq.c ****     phost->Control.setup.b.wLength.w = 0U;
 1721              		.loc 1 233 37 is_stmt 0 view .LVU574
 1722 001c 8382     		strh	r3, [r0, #20]	@ movhi
 234:Middlewares/ST/STM32_USB_Host_Library/Core/Src/usbh_ctlreq.c ****   }
 1723              		.loc 1 234 5 is_stmt 1 view .LVU575
 234:Middlewares/ST/STM32_USB_Host_Library/Core/Src/usbh_ctlreq.c ****   }
 1724              		.loc 1 234 38 is_stmt 0 view .LVU576
 1725 001e C382     		strh	r3, [r0, #22]	@ movhi
 1726 0020 F2E7     		b	.L102
 1727              		.cfi_endproc
 1728              	.LFE142:
 1730              		.section	.text.USBH_SetCfg,"ax",%progbits
 1731              		.align	1
 1732              		.global	USBH_SetCfg
 1733              		.syntax unified
 1734              		.thumb
 1735              		.thumb_func
 1737              	USBH_SetCfg:
 1738              	.LVL172:
 1739              	.LFB143:
 249:Middlewares/ST/STM32_USB_Host_Library/Core/Src/usbh_ctlreq.c ****   if (phost->RequestState == CMD_SEND)
 1740              		.loc 1 249 1 is_stmt 1 view -0
 1741              		.cfi_startproc
 1742              		@ args = 0, pretend = 0, frame = 0
 1743              		@ frame_needed = 0, uses_anonymous_args = 0
 249:Middlewares/ST/STM32_USB_Host_Library/Core/Src/usbh_ctlreq.c ****   if (phost->RequestState == CMD_SEND)
 1744              		.loc 1 249 1 is_stmt 0 view .LVU578
 1745 0000 08B5     		push	{r3, lr}
 1746              	.LCFI22:
 1747              		.cfi_def_cfa_offset 8
 1748              		.cfi_offset 3, -8
 1749              		.cfi_offset 14, -4
 250:Middlewares/ST/STM32_USB_Host_Library/Core/Src/usbh_ctlreq.c ****   {
 1750              		.loc 1 250 3 is_stmt 1 view .LVU579
 250:Middlewares/ST/STM32_USB_Host_Library/Core/Src/usbh_ctlreq.c ****   {
 1751              		.loc 1 250 12 is_stmt 0 view .LVU580
 1752 0002 8378     		ldrb	r3, [r0, #2]	@ zero_extendqisi2
 250:Middlewares/ST/STM32_USB_Host_Library/Core/Src/usbh_ctlreq.c ****   {
 1753              		.loc 1 250 6 view .LVU581
ARM GAS  /tmp/cc785GWs.s 			page 57


 1754 0004 012B     		cmp	r3, #1
 1755 0006 04D0     		beq	.L108
 1756              	.L106:
 261:Middlewares/ST/STM32_USB_Host_Library/Core/Src/usbh_ctlreq.c **** }
 1757              		.loc 1 261 3 is_stmt 1 view .LVU582
 261:Middlewares/ST/STM32_USB_Host_Library/Core/Src/usbh_ctlreq.c **** }
 1758              		.loc 1 261 10 is_stmt 0 view .LVU583
 1759 0008 0022     		movs	r2, #0
 1760 000a 1146     		mov	r1, r2
 1761              	.LVL173:
 261:Middlewares/ST/STM32_USB_Host_Library/Core/Src/usbh_ctlreq.c **** }
 1762              		.loc 1 261 10 view .LVU584
 1763 000c FFF7FEFF 		bl	USBH_CtlReq
 1764              	.LVL174:
 262:Middlewares/ST/STM32_USB_Host_Library/Core/Src/usbh_ctlreq.c **** 
 1765              		.loc 1 262 1 view .LVU585
 1766 0010 08BD     		pop	{r3, pc}
 1767              	.LVL175:
 1768              	.L108:
 252:Middlewares/ST/STM32_USB_Host_Library/Core/Src/usbh_ctlreq.c ****                                            | USB_REQ_TYPE_STANDARD;
 1769              		.loc 1 252 5 is_stmt 1 view .LVU586
 252:Middlewares/ST/STM32_USB_Host_Library/Core/Src/usbh_ctlreq.c ****                                            | USB_REQ_TYPE_STANDARD;
 1770              		.loc 1 252 42 is_stmt 0 view .LVU587
 1771 0012 0023     		movs	r3, #0
 1772 0014 0374     		strb	r3, [r0, #16]
 255:Middlewares/ST/STM32_USB_Host_Library/Core/Src/usbh_ctlreq.c ****     phost->Control.setup.b.wValue.w = cfg_idx;
 1773              		.loc 1 255 5 is_stmt 1 view .LVU588
 255:Middlewares/ST/STM32_USB_Host_Library/Core/Src/usbh_ctlreq.c ****     phost->Control.setup.b.wValue.w = cfg_idx;
 1774              		.loc 1 255 37 is_stmt 0 view .LVU589
 1775 0016 0922     		movs	r2, #9
 1776 0018 4274     		strb	r2, [r0, #17]
 256:Middlewares/ST/STM32_USB_Host_Library/Core/Src/usbh_ctlreq.c ****     phost->Control.setup.b.wIndex.w = 0U;
 1777              		.loc 1 256 5 is_stmt 1 view .LVU590
 256:Middlewares/ST/STM32_USB_Host_Library/Core/Src/usbh_ctlreq.c ****     phost->Control.setup.b.wIndex.w = 0U;
 1778              		.loc 1 256 37 is_stmt 0 view .LVU591
 1779 001a 4182     		strh	r1, [r0, #18]	@ movhi
 257:Middlewares/ST/STM32_USB_Host_Library/Core/Src/usbh_ctlreq.c ****     phost->Control.setup.b.wLength.w = 0U;
 1780              		.loc 1 257 5 is_stmt 1 view .LVU592
 257:Middlewares/ST/STM32_USB_Host_Library/Core/Src/usbh_ctlreq.c ****     phost->Control.setup.b.wLength.w = 0U;
 1781              		.loc 1 257 37 is_stmt 0 view .LVU593
 1782 001c 8382     		strh	r3, [r0, #20]	@ movhi
 258:Middlewares/ST/STM32_USB_Host_Library/Core/Src/usbh_ctlreq.c ****   }
 1783              		.loc 1 258 5 is_stmt 1 view .LVU594
 258:Middlewares/ST/STM32_USB_Host_Library/Core/Src/usbh_ctlreq.c ****   }
 1784              		.loc 1 258 38 is_stmt 0 view .LVU595
 1785 001e C382     		strh	r3, [r0, #22]	@ movhi
 1786 0020 F2E7     		b	.L106
 1787              		.cfi_endproc
 1788              	.LFE143:
 1790              		.section	.text.USBH_SetInterface,"ax",%progbits
 1791              		.align	1
 1792              		.global	USBH_SetInterface
 1793              		.syntax unified
 1794              		.thumb
 1795              		.thumb_func
 1797              	USBH_SetInterface:
 1798              	.LVL176:
ARM GAS  /tmp/cc785GWs.s 			page 58


 1799              	.LFB144:
 274:Middlewares/ST/STM32_USB_Host_Library/Core/Src/usbh_ctlreq.c ****   if (phost->RequestState == CMD_SEND)
 1800              		.loc 1 274 1 is_stmt 1 view -0
 1801              		.cfi_startproc
 1802              		@ args = 0, pretend = 0, frame = 0
 1803              		@ frame_needed = 0, uses_anonymous_args = 0
 274:Middlewares/ST/STM32_USB_Host_Library/Core/Src/usbh_ctlreq.c ****   if (phost->RequestState == CMD_SEND)
 1804              		.loc 1 274 1 is_stmt 0 view .LVU597
 1805 0000 08B5     		push	{r3, lr}
 1806              	.LCFI23:
 1807              		.cfi_def_cfa_offset 8
 1808              		.cfi_offset 3, -8
 1809              		.cfi_offset 14, -4
 275:Middlewares/ST/STM32_USB_Host_Library/Core/Src/usbh_ctlreq.c ****   {
 1810              		.loc 1 275 3 is_stmt 1 view .LVU598
 275:Middlewares/ST/STM32_USB_Host_Library/Core/Src/usbh_ctlreq.c ****   {
 1811              		.loc 1 275 12 is_stmt 0 view .LVU599
 1812 0002 8378     		ldrb	r3, [r0, #2]	@ zero_extendqisi2
 275:Middlewares/ST/STM32_USB_Host_Library/Core/Src/usbh_ctlreq.c ****   {
 1813              		.loc 1 275 6 view .LVU600
 1814 0004 012B     		cmp	r3, #1
 1815 0006 04D0     		beq	.L112
 1816              	.L110:
 286:Middlewares/ST/STM32_USB_Host_Library/Core/Src/usbh_ctlreq.c **** }
 1817              		.loc 1 286 3 is_stmt 1 view .LVU601
 286:Middlewares/ST/STM32_USB_Host_Library/Core/Src/usbh_ctlreq.c **** }
 1818              		.loc 1 286 10 is_stmt 0 view .LVU602
 1819 0008 0022     		movs	r2, #0
 1820              	.LVL177:
 286:Middlewares/ST/STM32_USB_Host_Library/Core/Src/usbh_ctlreq.c **** }
 1821              		.loc 1 286 10 view .LVU603
 1822 000a 1146     		mov	r1, r2
 1823              	.LVL178:
 286:Middlewares/ST/STM32_USB_Host_Library/Core/Src/usbh_ctlreq.c **** }
 1824              		.loc 1 286 10 view .LVU604
 1825 000c FFF7FEFF 		bl	USBH_CtlReq
 1826              	.LVL179:
 287:Middlewares/ST/STM32_USB_Host_Library/Core/Src/usbh_ctlreq.c **** 
 1827              		.loc 1 287 1 view .LVU605
 1828 0010 08BD     		pop	{r3, pc}
 1829              	.LVL180:
 1830              	.L112:
 277:Middlewares/ST/STM32_USB_Host_Library/Core/Src/usbh_ctlreq.c ****                                            | USB_REQ_TYPE_STANDARD;
 1831              		.loc 1 277 5 is_stmt 1 view .LVU606
 277:Middlewares/ST/STM32_USB_Host_Library/Core/Src/usbh_ctlreq.c ****                                            | USB_REQ_TYPE_STANDARD;
 1832              		.loc 1 277 42 is_stmt 0 view .LVU607
 1833 0012 0374     		strb	r3, [r0, #16]
 280:Middlewares/ST/STM32_USB_Host_Library/Core/Src/usbh_ctlreq.c ****     phost->Control.setup.b.wValue.w = altSetting;
 1834              		.loc 1 280 5 is_stmt 1 view .LVU608
 280:Middlewares/ST/STM32_USB_Host_Library/Core/Src/usbh_ctlreq.c ****     phost->Control.setup.b.wValue.w = altSetting;
 1835              		.loc 1 280 37 is_stmt 0 view .LVU609
 1836 0014 0B23     		movs	r3, #11
 1837 0016 4374     		strb	r3, [r0, #17]
 281:Middlewares/ST/STM32_USB_Host_Library/Core/Src/usbh_ctlreq.c ****     phost->Control.setup.b.wIndex.w = ep_num;
 1838              		.loc 1 281 5 is_stmt 1 view .LVU610
 281:Middlewares/ST/STM32_USB_Host_Library/Core/Src/usbh_ctlreq.c ****     phost->Control.setup.b.wIndex.w = ep_num;
 1839              		.loc 1 281 37 is_stmt 0 view .LVU611
ARM GAS  /tmp/cc785GWs.s 			page 59


 1840 0018 4282     		strh	r2, [r0, #18]	@ movhi
 282:Middlewares/ST/STM32_USB_Host_Library/Core/Src/usbh_ctlreq.c ****     phost->Control.setup.b.wLength.w = 0U;
 1841              		.loc 1 282 5 is_stmt 1 view .LVU612
 282:Middlewares/ST/STM32_USB_Host_Library/Core/Src/usbh_ctlreq.c ****     phost->Control.setup.b.wLength.w = 0U;
 1842              		.loc 1 282 37 is_stmt 0 view .LVU613
 1843 001a 8182     		strh	r1, [r0, #20]	@ movhi
 283:Middlewares/ST/STM32_USB_Host_Library/Core/Src/usbh_ctlreq.c ****   }
 1844              		.loc 1 283 5 is_stmt 1 view .LVU614
 283:Middlewares/ST/STM32_USB_Host_Library/Core/Src/usbh_ctlreq.c ****   }
 1845              		.loc 1 283 38 is_stmt 0 view .LVU615
 1846 001c 0023     		movs	r3, #0
 1847 001e C382     		strh	r3, [r0, #22]	@ movhi
 1848 0020 F2E7     		b	.L110
 1849              		.cfi_endproc
 1850              	.LFE144:
 1852              		.section	.text.USBH_SetFeature,"ax",%progbits
 1853              		.align	1
 1854              		.global	USBH_SetFeature
 1855              		.syntax unified
 1856              		.thumb
 1857              		.thumb_func
 1859              	USBH_SetFeature:
 1860              	.LVL181:
 1861              	.LFB145:
 298:Middlewares/ST/STM32_USB_Host_Library/Core/Src/usbh_ctlreq.c ****   if (phost->RequestState == CMD_SEND)
 1862              		.loc 1 298 1 is_stmt 1 view -0
 1863              		.cfi_startproc
 1864              		@ args = 0, pretend = 0, frame = 0
 1865              		@ frame_needed = 0, uses_anonymous_args = 0
 298:Middlewares/ST/STM32_USB_Host_Library/Core/Src/usbh_ctlreq.c ****   if (phost->RequestState == CMD_SEND)
 1866              		.loc 1 298 1 is_stmt 0 view .LVU617
 1867 0000 08B5     		push	{r3, lr}
 1868              	.LCFI24:
 1869              		.cfi_def_cfa_offset 8
 1870              		.cfi_offset 3, -8
 1871              		.cfi_offset 14, -4
 299:Middlewares/ST/STM32_USB_Host_Library/Core/Src/usbh_ctlreq.c ****   {
 1872              		.loc 1 299 3 is_stmt 1 view .LVU618
 299:Middlewares/ST/STM32_USB_Host_Library/Core/Src/usbh_ctlreq.c ****   {
 1873              		.loc 1 299 12 is_stmt 0 view .LVU619
 1874 0002 8378     		ldrb	r3, [r0, #2]	@ zero_extendqisi2
 299:Middlewares/ST/STM32_USB_Host_Library/Core/Src/usbh_ctlreq.c ****   {
 1875              		.loc 1 299 6 view .LVU620
 1876 0004 012B     		cmp	r3, #1
 1877 0006 04D0     		beq	.L116
 1878              	.L114:
 310:Middlewares/ST/STM32_USB_Host_Library/Core/Src/usbh_ctlreq.c **** }
 1879              		.loc 1 310 3 is_stmt 1 view .LVU621
 310:Middlewares/ST/STM32_USB_Host_Library/Core/Src/usbh_ctlreq.c **** }
 1880              		.loc 1 310 10 is_stmt 0 view .LVU622
 1881 0008 0022     		movs	r2, #0
 1882 000a 1146     		mov	r1, r2
 1883              	.LVL182:
 310:Middlewares/ST/STM32_USB_Host_Library/Core/Src/usbh_ctlreq.c **** }
 1884              		.loc 1 310 10 view .LVU623
 1885 000c FFF7FEFF 		bl	USBH_CtlReq
 1886              	.LVL183:
ARM GAS  /tmp/cc785GWs.s 			page 60


 311:Middlewares/ST/STM32_USB_Host_Library/Core/Src/usbh_ctlreq.c **** 
 1887              		.loc 1 311 1 view .LVU624
 1888 0010 08BD     		pop	{r3, pc}
 1889              	.LVL184:
 1890              	.L116:
 301:Middlewares/ST/STM32_USB_Host_Library/Core/Src/usbh_ctlreq.c ****                                            | USB_REQ_TYPE_STANDARD;
 1891              		.loc 1 301 5 is_stmt 1 view .LVU625
 301:Middlewares/ST/STM32_USB_Host_Library/Core/Src/usbh_ctlreq.c ****                                            | USB_REQ_TYPE_STANDARD;
 1892              		.loc 1 301 42 is_stmt 0 view .LVU626
 1893 0012 0023     		movs	r3, #0
 1894 0014 0374     		strb	r3, [r0, #16]
 304:Middlewares/ST/STM32_USB_Host_Library/Core/Src/usbh_ctlreq.c ****     phost->Control.setup.b.wValue.w = wValue;
 1895              		.loc 1 304 5 is_stmt 1 view .LVU627
 304:Middlewares/ST/STM32_USB_Host_Library/Core/Src/usbh_ctlreq.c ****     phost->Control.setup.b.wValue.w = wValue;
 1896              		.loc 1 304 37 is_stmt 0 view .LVU628
 1897 0016 0322     		movs	r2, #3
 1898 0018 4274     		strb	r2, [r0, #17]
 305:Middlewares/ST/STM32_USB_Host_Library/Core/Src/usbh_ctlreq.c ****     phost->Control.setup.b.wIndex.w = 0U;
 1899              		.loc 1 305 5 is_stmt 1 view .LVU629
 305:Middlewares/ST/STM32_USB_Host_Library/Core/Src/usbh_ctlreq.c ****     phost->Control.setup.b.wIndex.w = 0U;
 1900              		.loc 1 305 37 is_stmt 0 view .LVU630
 1901 001a 4182     		strh	r1, [r0, #18]	@ movhi
 306:Middlewares/ST/STM32_USB_Host_Library/Core/Src/usbh_ctlreq.c ****     phost->Control.setup.b.wLength.w = 0U;
 1902              		.loc 1 306 5 is_stmt 1 view .LVU631
 306:Middlewares/ST/STM32_USB_Host_Library/Core/Src/usbh_ctlreq.c ****     phost->Control.setup.b.wLength.w = 0U;
 1903              		.loc 1 306 37 is_stmt 0 view .LVU632
 1904 001c 8382     		strh	r3, [r0, #20]	@ movhi
 307:Middlewares/ST/STM32_USB_Host_Library/Core/Src/usbh_ctlreq.c ****   }
 1905              		.loc 1 307 5 is_stmt 1 view .LVU633
 307:Middlewares/ST/STM32_USB_Host_Library/Core/Src/usbh_ctlreq.c ****   }
 1906              		.loc 1 307 38 is_stmt 0 view .LVU634
 1907 001e C382     		strh	r3, [r0, #22]	@ movhi
 1908 0020 F2E7     		b	.L114
 1909              		.cfi_endproc
 1910              	.LFE145:
 1912              		.section	.text.USBH_ClrFeature,"ax",%progbits
 1913              		.align	1
 1914              		.global	USBH_ClrFeature
 1915              		.syntax unified
 1916              		.thumb
 1917              		.thumb_func
 1919              	USBH_ClrFeature:
 1920              	.LVL185:
 1921              	.LFB146:
 323:Middlewares/ST/STM32_USB_Host_Library/Core/Src/usbh_ctlreq.c ****   if (phost->RequestState == CMD_SEND)
 1922              		.loc 1 323 1 is_stmt 1 view -0
 1923              		.cfi_startproc
 1924              		@ args = 0, pretend = 0, frame = 0
 1925              		@ frame_needed = 0, uses_anonymous_args = 0
 323:Middlewares/ST/STM32_USB_Host_Library/Core/Src/usbh_ctlreq.c ****   if (phost->RequestState == CMD_SEND)
 1926              		.loc 1 323 1 is_stmt 0 view .LVU636
 1927 0000 08B5     		push	{r3, lr}
 1928              	.LCFI25:
 1929              		.cfi_def_cfa_offset 8
 1930              		.cfi_offset 3, -8
 1931              		.cfi_offset 14, -4
 324:Middlewares/ST/STM32_USB_Host_Library/Core/Src/usbh_ctlreq.c ****   {
ARM GAS  /tmp/cc785GWs.s 			page 61


 1932              		.loc 1 324 3 is_stmt 1 view .LVU637
 324:Middlewares/ST/STM32_USB_Host_Library/Core/Src/usbh_ctlreq.c ****   {
 1933              		.loc 1 324 12 is_stmt 0 view .LVU638
 1934 0002 8378     		ldrb	r3, [r0, #2]	@ zero_extendqisi2
 324:Middlewares/ST/STM32_USB_Host_Library/Core/Src/usbh_ctlreq.c ****   {
 1935              		.loc 1 324 6 view .LVU639
 1936 0004 012B     		cmp	r3, #1
 1937 0006 04D0     		beq	.L120
 1938              	.L118:
 334:Middlewares/ST/STM32_USB_Host_Library/Core/Src/usbh_ctlreq.c **** }
 1939              		.loc 1 334 3 is_stmt 1 view .LVU640
 334:Middlewares/ST/STM32_USB_Host_Library/Core/Src/usbh_ctlreq.c **** }
 1940              		.loc 1 334 10 is_stmt 0 view .LVU641
 1941 0008 0022     		movs	r2, #0
 1942 000a 1146     		mov	r1, r2
 1943              	.LVL186:
 334:Middlewares/ST/STM32_USB_Host_Library/Core/Src/usbh_ctlreq.c **** }
 1944              		.loc 1 334 10 view .LVU642
 1945 000c FFF7FEFF 		bl	USBH_CtlReq
 1946              	.LVL187:
 335:Middlewares/ST/STM32_USB_Host_Library/Core/Src/usbh_ctlreq.c **** 
 1947              		.loc 1 335 1 view .LVU643
 1948 0010 08BD     		pop	{r3, pc}
 1949              	.LVL188:
 1950              	.L120:
 326:Middlewares/ST/STM32_USB_Host_Library/Core/Src/usbh_ctlreq.c ****                                            | USB_REQ_TYPE_STANDARD;
 1951              		.loc 1 326 5 is_stmt 1 view .LVU644
 326:Middlewares/ST/STM32_USB_Host_Library/Core/Src/usbh_ctlreq.c ****                                            | USB_REQ_TYPE_STANDARD;
 1952              		.loc 1 326 42 is_stmt 0 view .LVU645
 1953 0012 0223     		movs	r3, #2
 1954 0014 0374     		strb	r3, [r0, #16]
 329:Middlewares/ST/STM32_USB_Host_Library/Core/Src/usbh_ctlreq.c ****     phost->Control.setup.b.wValue.w = FEATURE_SELECTOR_ENDPOINT;
 1955              		.loc 1 329 5 is_stmt 1 view .LVU646
 329:Middlewares/ST/STM32_USB_Host_Library/Core/Src/usbh_ctlreq.c ****     phost->Control.setup.b.wValue.w = FEATURE_SELECTOR_ENDPOINT;
 1956              		.loc 1 329 37 is_stmt 0 view .LVU647
 1957 0016 0123     		movs	r3, #1
 1958 0018 4374     		strb	r3, [r0, #17]
 330:Middlewares/ST/STM32_USB_Host_Library/Core/Src/usbh_ctlreq.c ****     phost->Control.setup.b.wIndex.w = ep_num;
 1959              		.loc 1 330 5 is_stmt 1 view .LVU648
 330:Middlewares/ST/STM32_USB_Host_Library/Core/Src/usbh_ctlreq.c ****     phost->Control.setup.b.wIndex.w = ep_num;
 1960              		.loc 1 330 37 is_stmt 0 view .LVU649
 1961 001a 0023     		movs	r3, #0
 1962 001c 4382     		strh	r3, [r0, #18]	@ movhi
 331:Middlewares/ST/STM32_USB_Host_Library/Core/Src/usbh_ctlreq.c ****     phost->Control.setup.b.wLength.w = 0U;
 1963              		.loc 1 331 5 is_stmt 1 view .LVU650
 331:Middlewares/ST/STM32_USB_Host_Library/Core/Src/usbh_ctlreq.c ****     phost->Control.setup.b.wLength.w = 0U;
 1964              		.loc 1 331 37 is_stmt 0 view .LVU651
 1965 001e 8182     		strh	r1, [r0, #20]	@ movhi
 332:Middlewares/ST/STM32_USB_Host_Library/Core/Src/usbh_ctlreq.c ****   }
 1966              		.loc 1 332 5 is_stmt 1 view .LVU652
 332:Middlewares/ST/STM32_USB_Host_Library/Core/Src/usbh_ctlreq.c ****   }
 1967              		.loc 1 332 38 is_stmt 0 view .LVU653
 1968 0020 C382     		strh	r3, [r0, #22]	@ movhi
 1969 0022 F1E7     		b	.L118
 1970              		.cfi_endproc
 1971              	.LFE146:
 1973              		.text
ARM GAS  /tmp/cc785GWs.s 			page 62


 1974              	.Letext0:
 1975              		.file 2 "/home/irfan/Desktop/arm/gcc-arm-none-eabi-10.3-2021.10-x86_64-linux/gcc-arm-none-eabi-10.
 1976              		.file 3 "/home/irfan/Desktop/arm/gcc-arm-none-eabi-10.3-2021.10-x86_64-linux/gcc-arm-none-eabi-10.
 1977              		.file 4 "Middlewares/Third_Party/FreeRTOS/Source/include/task.h"
 1978              		.file 5 "Middlewares/Third_Party/FreeRTOS/Source/include/queue.h"
 1979              		.file 6 "Middlewares/Third_Party/FreeRTOS/Source/CMSIS_RTOS/cmsis_os.h"
 1980              		.file 7 "Middlewares/ST/STM32_USB_Host_Library/Core/Inc/usbh_def.h"
 1981              		.file 8 "Middlewares/ST/STM32_USB_Host_Library/Core/Inc/usbh_ioreq.h"
 1982              		.file 9 "Middlewares/ST/STM32_USB_Host_Library/Core/Inc/usbh_core.h"
 1983              		.file 10 "Middlewares/ST/STM32_USB_Host_Library/Core/Inc/usbh_pipes.h"
ARM GAS  /tmp/cc785GWs.s 			page 63

